(lp1
(lp2
S'head_fk_anim'
p3
a(lp4
VrotateX
p5
aVrotateY
p6
aVrotateZ
p7
aVfkOrientation
p8
aaF-2.8293839276796477
aF0.42454359122133029
aF10.035400464935805
aI0
aa(lp9
S'neck_01_fk_anim'
p10
a(lp11
VrotateX
p12
aVrotateY
p13
aVrotateZ
p14
aVfkOrientation
p15
aaF-2.1579262632228087
aF-2.148446233494127
aF31.681033662787346
aI0
aa(lp16
S'spine_01_anim'
p17
a(lp18
Vlength
p19
aVtranslateY
p20
aVtranslateZ
p21
aVrotateX
p22
aVrotateY
p23
aVrotateZ
p24
aaF0
aF0
aF0
aF0.35487212465881263
aF-1.4246568252775091
aF11.661854605957444
aa(lp25
S'spine_02_anim'
p26
a(lp27
Vlength
p28
aVtranslateY
p29
aVtranslateZ
p30
aVrotateX
p31
aVrotateY
p32
aVrotateZ
p33
aaF0
aF0
aF0
aF5.7970371498186388
aF-0.97007186682016522
aF-24.838935413051871
aa(lp34
S'spine_03_anim'
p35
a(lp36
Vlength
p37
aVtranslateY
p38
aVtranslateZ
p39
aVrotateX
p40
aVrotateY
p41
aVrotateZ
p42
aaF0
aF0
aF0
aF-5.8556129601849554
aF1.5766981789174708
aF-16.425737328100258
aa(lp43
S'mid_ik_anim'
p44
a(lp45
VtranslateX
p46
aVtranslateY
p47
aVtranslateZ
p48
aVrotateX
p49
aVrotateY
p50
aVrotateZ
p51
aaF0
aF0
aF0
aF0
aF0
aF0
aa(lp52
S'chest_ik_anim'
p53
a(lp54
VtranslateX
p55
aVtranslateY
p56
aVtranslateZ
p57
aVrotateX
p58
aVrotateY
p59
aVrotateZ
p60
aVstretch
p61
aVtwist_amount
p62
aVspine_01_twistAmount
p63
aVspine_02_twistAmount
p64
aVautoSpine
p65
aVrotationInfluence
p66
aaF0
aF0
aF0
aF0
aF0
aF0
aF0
aF1
aF0.33333333333333331
aF0.66666666666666663
aF0
aF0.25
aa(lp67
S'body_anim'
p68
a(lp69
VtranslateX
p70
aVtranslateY
p71
aVtranslateZ
p72
aVrotateX
p73
aVrotateY
p74
aVrotateZ
p75
aaF-982.38615225899787
aF-1437.4665574482642
aF-2.4744643057689117
aF1.5948131824468892
aF0.37251010439570598
aF-354.46007097768421
aa(lp76
S'hip_anim'
p77
a(lp78
VtranslateX
p79
aVtranslateY
p80
aVtranslateZ
p81
aVrotateX
p82
aVrotateY
p83
aVrotateZ
p84
aVlTwistCtrlVis
p85
aVlCalfTwistCtrlVis
p86
aVrTwistCtrlVis
p87
aVrCalfTwistCtrlVis
p88
aVautoHips
p89
aaF0
aF0
aF0
aF1.8225872234874962
aF-6.2290318105330957
aF-3.302290723857181
aI00
aI00
aI00
aI00
aF0
aa(lp90
S'clavicle_l_anim'
p91
a(lp92
VtranslateX
p93
aVtranslateY
p94
aVtranslateZ
p95
aVautoShoulders
p96
aVtwistCtrlVis
p97
aaF-1.217792950591233
aF3.6126375869144347
aF8.9633961635471167
aF0
aI00
aa(lp98
S'clavicle_r_anim'
p99
a(lp100
VtranslateX
p101
aVtranslateY
p102
aVtranslateZ
p103
aVautoShoulders
p104
aVtwistCtrlVis
p105
aaF0.62787230071877331
aF6.2861692621289409
aF10.053314871097637
aF0
aI00
aa(lp106
S'fk_arm_l_anim'
p107
a(lp108
VtranslateX
p109
aVtranslateY
p110
aVtranslateZ
p111
aVrotateX
p112
aVrotateY
p113
aVrotateZ
p114
aaF0
aF0
aF0
aF-11.082078268952035
aF38.690517078896747
aF10.684007080790668
aa(lp115
S'fk_arm_r_anim'
p116
a(lp117
VtranslateX
p118
aVtranslateY
p119
aVtranslateZ
p120
aVrotateX
p121
aVrotateY
p122
aVrotateZ
p123
aaF0
aF0
aF0
aF12.424940222895268
aF37.238115354610969
aF37.338590932816103
aa(lp124
S'fk_elbow_l_anim'
p125
a(lp126
VtranslateX
p127
aVtranslateY
p128
aVtranslateZ
p129
aVrotateX
p130
aVrotateY
p131
aVrotateZ
p132
aaF0
aF0
aF0
aF0.90546768020205515
aF0.18481320729713543
aF-30.210987691037353
aa(lp133
S'fk_elbow_r_anim'
p134
a(lp135
VtranslateX
p136
aVtranslateY
p137
aVtranslateZ
p138
aVrotateX
p139
aVrotateY
p140
aVrotateZ
p141
aaF0
aF0
aF0
aF0.65571499564614988
aF0.40021450841244027
aF-45.302814574459894
aa(lp142
S'fk_wrist_l_anim'
p143
a(lp144
VtranslateX
p145
aVtranslateY
p146
aVtranslateZ
p147
aVrotateX
p148
aVrotateY
p149
aVrotateZ
p150
aaF0
aF0
aF0
aF0.61018929957872126
aF4.631904721683898
aF7.8797732720838205
aa(lp151
S'fk_wrist_r_anim'
p152
a(lp153
VtranslateX
p154
aVtranslateY
p155
aVtranslateZ
p156
aVrotateX
p157
aVrotateY
p158
aVrotateZ
p159
aaF0
aF0
aF0
aF157.69887546866366
aF-184.62685491691934
aF-163.69328166606539
aa(lp160
S'ik_elbow_l_anim'
p161
a(lp162
VtranslateX
p163
aVtranslateY
p164
aVtranslateZ
p165
aaF13.285838816225095
aF-47.919068515926348
aF-42.820560423573681
aa(lp166
S'ik_elbow_r_anim'
p167
a(lp168
VtranslateX
p169
aVtranslateY
p170
aVtranslateZ
p171
aaF10.717404880085653
aF15.459392919759285
aF-4.7819153273401156
aa(lp172
S'ik_wrist_l_anim'
p173
a(lp174
VtranslateX
p175
aVtranslateY
p176
aVtranslateZ
p177
aVrotateX
p178
aVrotateY
p179
aVrotateZ
p180
aVstretch
p181
aVbias
p182
aVside
p183
aVmid_bend
p184
aVmid_swivel
p185
aVtip_pivot
p186
aVtip_swivel
p187
aaF-74.818659512241297
aF-91.814179135218978
aF-113.62488714461934
aF50.441137018334125
aF66.921639684640354
aF-19.68449334265846
aF0
aF1
aF0
aF0
aF0
aF0
aF0
aa(lp188
S'ik_wrist_r_anim'
p189
a(lp190
VtranslateX
p191
aVtranslateY
p192
aVtranslateZ
p193
aVrotateX
p194
aVrotateY
p195
aVrotateZ
p196
aVstretch
p197
aVbias
p198
aVside
p199
aVmid_bend
p200
aVmid_swivel
p201
aVtip_pivot
p202
aVtip_swivel
p203
aaF46.28799300669985
aF31.486267373772307
aF-69.096712048074991
aF19.761511953186933
aF-45.362915473965209
aF-110.91015314924677
aF0
aF1
aF0
aF0
aF0
aF0
aF0
aa(lp204
S'fk_thigh_l_anim'
p205
a(lp206
VrotateX
p207
aVrotateY
p208
aVrotateZ
p209
aaF-8.8712782079690804
aF13.925304283387122
aF18.884560388429922
aa(lp210
S'fk_thigh_r_anim'
p211
a(lp212
VrotateX
p213
aVrotateY
p214
aVrotateZ
p215
aaF2.4146622197105585
aF15.050200258823185
aF5.1349400111836854
aa(lp216
S'fk_calf_l_anim'
p217
a(lp218
VrotateX
p219
aVrotateY
p220
aVrotateZ
p221
aaF0.47648671019584032
aF-0.43260668790587264
aF-7.6705510002383255
aa(lp222
S'fk_calf_r_anim'
p223
a(lp224
VrotateX
p225
aVrotateY
p226
aVrotateZ
p227
aaF1.4400576501505831
aF-0.44676026778254435
aF-34.662730320524759
aa(lp228
S'fk_foot_l_anim'
p229
a(lp230
VrotateX
p231
aVrotateY
p232
aVrotateZ
p233
aaF12.768262947244891
aF-4.506534999165436
aF-34.098269387556762
aa(lp234
S'fk_foot_r_anim'
p235
a(lp236
VrotateX
p237
aVrotateY
p238
aVrotateZ
p239
aaF12.132998772562265
aF-3.0501093588991877
aF-42.008028531531103
aa(lp240
S'fk_ball_l_anim'
p241
a(lp242
VrotateX
p243
aVrotateY
p244
aVrotateZ
p245
aaF8.0175924717277737e-05
aF0.00010031986058517673
aF-6.2691577152745905
aa(lp246
S'fk_ball_r_anim'
p247
a(lp248
VrotateX
p249
aVrotateY
p250
aVrotateZ
p251
aaF-1.6402762977743941
aF0.42421473838977708
aF-4.6422338705202311
aa(lp252
S'ik_foot_anim_l'
p253
a(lp254
VtranslateX
p255
aVtranslateY
p256
aVtranslateZ
p257
aVrotateX
p258
aVrotateY
p259
aVrotateZ
p260
aVknee_twist
p261
aVstretch
p262
aVbias
p263
aVtoeCtrlVis
p264
aaF-31.908645167214679
aF-1501.4319522737912
aF-961.49754519203361
aF10.301630343725625
aF4.0795837132359329
aF-5.7825365540546114
aF-2.3268124793363696
aF0
aF1
aI00
aa(lp265
S'ik_foot_anim_r'
p266
a(lp267
VtranslateX
p268
aVtranslateY
p269
aVtranslateZ
p270
aVrotateX
p271
aVrotateY
p272
aVrotateZ
p273
aVknee_twist
p274
aVstretch
p275
aVbias
p276
aVtoeCtrlVis
p277
aaF31.652438596202423
aF-1465.5597033829131
aF-983.50444698514411
aF11.186401164345659
aF-4.170682549610448
aF-13.737667749979671
aF19.112886242890305
aF0
aF1
aI00
aa(lp278
S'heel_ctrl_l'
p279
a(lp280
VrotateX
p281
aVrotateY
p282
aVrotateZ
p283
aVheelPivot
p284
aVballPivot
p285
aaF0
aF0
aF-0.15543601530633902
aF0
aF0
aa(lp286
S'heel_ctrl_r'
p287
a(lp288
VrotateX
p289
aVrotateY
p290
aVrotateZ
p291
aVheelPivot
p292
aVballPivot
p293
aaF-3.5869288332051981
aF10.985447859554725
aF-5.0745137690976714
aF0
aF0
aa(lp294
S'toe_wiggle_ctrl_l'
p295
a(lp296
VrotateX
p297
aVrotateY
p298
aVrotateZ
p299
aaF0
aF0
aF-2.3749743910223309
aa(lp300
S'toe_wiggle_ctrl_r'
p301
a(lp302
VrotateX
p303
aVrotateY
p304
aVrotateZ
p305
aaF0
aF0
aF-3.1400524268425842
aa(lp306
S'toe_tip_ctrl_l'
p307
a(lp308
VrotateX
p309
aVrotateY
p310
aVrotateZ
p311
aaF0
aF0
aF0
aa(lp312
S'toe_tip_ctrl_r'
p313
a(lp314
VrotateX
p315
aVrotateY
p316
aVrotateZ
p317
aaF0
aF0
aF0
aa(lp318
S'master_anim'
p319
a(lp320
VtranslateX
p321
aVtranslateY
p322
aVtranslateZ
p323
aVrotateX
p324
aVrotateY
p325
aVrotateZ
p326
aaF0
aF0
aF0
aF0
aF0
aF0
aa(lp327
S'offset_anim'
p328
a(lp329
VtranslateX
p330
aVtranslateY
p331
aVtranslateZ
p332
aVrotateX
p333
aVrotateY
p334
aVrotateZ
p335
aaF0
aF1421.7391709417234
aF997.99599975023693
aF0
aF0
aF0
aa(lp336
S'root_anim'
p337
a(lp338
VtranslateX
p339
aVtranslateY
p340
aVtranslateZ
p341
aVrotateX
p342
aVrotateY
p343
aVrotateZ
p344
aaF0
aF0
aF0
aF0
aF0
aF0
aa(lp345
S'upperarm_l_twist_anim'
p346
a(lp347
VtranslateX
p348
aVtranslateY
p349
aVtranslateZ
p350
aVrotateX
p351
aVrotateY
p352
aVrotateZ
p353
aaF0
aF0
aF0
aF-43.273876860649942
aF0
aF0
aa(lp354
S'upperarm_r_twist_anim'
p355
a(lp356
VtranslateX
p357
aVtranslateY
p358
aVtranslateZ
p359
aVrotateX
p360
aVrotateY
p361
aVrotateZ
p362
aaF0
aF0
aF0
aF50.4361578044007
aF0
aF0
aa(lp363
S'thigh_l_twist_anim'
p364
a(lp365
VtranslateX
p366
aVtranslateY
p367
aVtranslateZ
p368
aVrotateX
p369
aVrotateY
p370
aVrotateZ
p371
aaF0
aF0
aF0
aF0
aF0
aF0
aa(lp372
S'thigh_r_twist_anim'
p373
a(lp374
VtranslateX
p375
aVtranslateY
p376
aVtranslateZ
p377
aVrotateX
p378
aVrotateY
p379
aVrotateZ
p380
aaF0
aF0
aF0
aF0
aF0
aF0
aa(lp381
S'pinky_finger_fk_ctrl_1_l'
p382
a(lp383
VtranslateX
p384
aVtranslateY
p385
aVtranslateZ
p386
aVrotateX
p387
aVrotateY
p388
aVrotateZ
p389
aVsticky
p390
aaF0
aF0
aF0
aF0
aF0
aF67.465302944955894
aF0
aa(lp391
S'pinky_finger_fk_ctrl_1_r'
p392
a(lp393
VtranslateX
p394
aVtranslateY
p395
aVtranslateZ
p396
aVrotateX
p397
aVrotateY
p398
aVrotateZ
p399
aVsticky
p400
aaF0
aF0
aF0
aF0
aF0
aF67.465302944955894
aF0
aa(lp401
S'pinky_finger_fk_ctrl_2_l'
p402
a(lp403
VtranslateX
p404
aVtranslateY
p405
aVtranslateZ
p406
aVrotateX
p407
aVrotateY
p408
aVrotateZ
p409
aaF0
aF0
aF0
aF0
aF0
aF126.85537155640378
aa(lp410
S'pinky_finger_fk_ctrl_2_r'
p411
a(lp412
VtranslateX
p413
aVtranslateY
p414
aVtranslateZ
p415
aVrotateX
p416
aVrotateY
p417
aVrotateZ
p418
aaF0
aF0
aF0
aF0
aF0
aF126.85537155640378
aa(lp419
S'pinky_finger_fk_ctrl_3_l'
p420
a(lp421
VtranslateX
p422
aVtranslateY
p423
aVtranslateZ
p424
aVrotateX
p425
aVrotateY
p426
aVrotateZ
p427
aaF0
aF0
aF0
aF0
aF0
aF52.811381648203898
aa(lp428
S'pinky_finger_fk_ctrl_3_r'
p429
a(lp430
VtranslateX
p431
aVtranslateY
p432
aVtranslateZ
p433
aVrotateX
p434
aVrotateY
p435
aVrotateZ
p436
aaF0
aF0
aF0
aF0
aF0
aF52.811381648203898
aa(lp437
S'middle_finger_fk_ctrl_1_l'
p438
a(lp439
VtranslateX
p440
aVtranslateY
p441
aVtranslateZ
p442
aVrotateX
p443
aVrotateY
p444
aVrotateZ
p445
aVsticky
p446
aaF0
aF0
aF0
aF0
aF0
aF63.661206954731128
aF0
aa(lp447
S'middle_finger_fk_ctrl_1_r'
p448
a(lp449
VtranslateX
p450
aVtranslateY
p451
aVtranslateZ
p452
aVrotateX
p453
aVrotateY
p454
aVrotateZ
p455
aVsticky
p456
aaF0
aF0
aF0
aF0
aF0
aF63.661206954731128
aF0
aa(lp457
S'middle_finger_fk_ctrl_2_l'
p458
a(lp459
VtranslateX
p460
aVtranslateY
p461
aVtranslateZ
p462
aVrotateX
p463
aVrotateY
p464
aVrotateZ
p465
aaF0
aF0
aF0
aF0
aF0
aF133.59350062543939
aa(lp466
S'middle_finger_fk_ctrl_2_r'
p467
a(lp468
VtranslateX
p469
aVtranslateY
p470
aVtranslateZ
p471
aVrotateX
p472
aVrotateY
p473
aVrotateZ
p474
aaF0
aF0
aF0
aF0
aF0
aF133.59350062543939
aa(lp475
S'middle_finger_fk_ctrl_3_l'
p476
a(lp477
VtranslateX
p478
aVtranslateY
p479
aVtranslateZ
p480
aVrotateX
p481
aVrotateY
p482
aVrotateZ
p483
aaF0
aF0
aF0
aF0
aF0
aF0
aa(lp484
S'middle_finger_fk_ctrl_3_r'
p485
a(lp486
VtranslateX
p487
aVtranslateY
p488
aVtranslateZ
p489
aVrotateX
p490
aVrotateY
p491
aVrotateZ
p492
aaF0
aF0
aF0
aF0
aF0
aF0
aa(lp493
S'index_finger_fk_ctrl_1_l'
p494
a(lp495
VtranslateX
p496
aVtranslateY
p497
aVtranslateZ
p498
aVrotateX
p499
aVrotateY
p500
aVrotateZ
p501
aVsticky
p502
aaF0
aF0
aF0
aF10.830620356075823
aF-7.3355858286821753
aF69.113012273789167
aF0
aa(lp503
S'index_finger_fk_ctrl_1_r'
p504
a(lp505
VtranslateX
p506
aVtranslateY
p507
aVtranslateZ
p508
aVrotateX
p509
aVrotateY
p510
aVrotateZ
p511
aVsticky
p512
aaF0
aF0
aF0
aF10.830620356075823
aF-7.3355858286821753
aF69.113012273789167
aF0
aa(lp513
S'index_finger_fk_ctrl_2_l'
p514
a(lp515
VtranslateX
p516
aVtranslateY
p517
aVtranslateZ
p518
aVrotateX
p519
aVrotateY
p520
aVrotateZ
p521
aaF0
aF0
aF0
aF0
aF0
aF135.90676302855266
aa(lp522
S'index_finger_fk_ctrl_2_r'
p523
a(lp524
VtranslateX
p525
aVtranslateY
p526
aVtranslateZ
p527
aVrotateX
p528
aVrotateY
p529
aVrotateZ
p530
aaF0
aF0
aF0
aF0
aF0
aF135.90676302855266
aa(lp531
S'index_finger_fk_ctrl_3_l'
p532
a(lp533
VtranslateX
p534
aVtranslateY
p535
aVtranslateZ
p536
aVrotateX
p537
aVrotateY
p538
aVrotateZ
p539
aaF0
aF0
aF0
aF0
aF0
aF36.734456103288835
aa(lp540
S'index_finger_fk_ctrl_3_r'
p541
a(lp542
VtranslateX
p543
aVtranslateY
p544
aVtranslateZ
p545
aVrotateX
p546
aVrotateY
p547
aVrotateZ
p548
aaF0
aF0
aF0
aF0
aF0
aF36.734456103288835
aa(lp549
S'thumb_finger_fk_ctrl_1_l'
p550
a(lp551
VtranslateX
p552
aVtranslateY
p553
aVtranslateZ
p554
aVrotateX
p555
aVrotateY
p556
aVrotateZ
p557
aVsticky
p558
aaF0
aF0
aF0
aF7.2929083564820845
aF-8.856074823173179
aF-16.455722744949036
aF0
aa(lp559
S'thumb_finger_fk_ctrl_1_r'
p560
a(lp561
VtranslateX
p562
aVtranslateY
p563
aVtranslateZ
p564
aVrotateX
p565
aVrotateY
p566
aVrotateZ
p567
aVsticky
p568
aaF0
aF0
aF0
aF7.2929083564820845
aF-8.856074823173179
aF-16.455722744949036
aF0
aa(lp569
S'thumb_finger_fk_ctrl_2_l'
p570
a(lp571
VtranslateX
p572
aVtranslateY
p573
aVtranslateZ
p574
aVrotateX
p575
aVrotateY
p576
aVrotateZ
p577
aaF0
aF0
aF0
aF0
aF0
aF105.96004398419824
aa(lp578
S'thumb_finger_fk_ctrl_2_r'
p579
a(lp580
VtranslateX
p581
aVtranslateY
p582
aVtranslateZ
p583
aVrotateX
p584
aVrotateY
p585
aVrotateZ
p586
aaF0
aF0
aF0
aF0
aF0
aF105.96004398419824
aa(lp587
S'thumb_finger_fk_ctrl_3_l'
p588
a(lp589
VtranslateX
p590
aVtranslateY
p591
aVtranslateZ
p592
aVrotateX
p593
aVrotateY
p594
aVrotateZ
p595
aaF0
aF0
aF0
aF0
aF0
aF59.776097733833311
aa(lp596
S'thumb_finger_fk_ctrl_3_r'
p597
a(lp598
VtranslateX
p599
aVtranslateY
p600
aVtranslateZ
p601
aVrotateX
p602
aVrotateY
p603
aVrotateZ
p604
aaF0
aF0
aF0
aF0
aF0
aF59.776097733833311
aa(lp605
S'index_l_ik_anim'
p606
a(lp607
VtranslateX
p608
aVtranslateY
p609
aVtranslateZ
p610
aVrotateX
p611
aVrotateY
p612
aVrotateZ
p613
aVpoleVectorVis
p614
aaF0
aF0
aF0
aF0
aF0
aF0
aF0
aa(lp615
S'index_r_ik_anim'
p616
a(lp617
VtranslateX
p618
aVtranslateY
p619
aVtranslateZ
p620
aVrotateX
p621
aVrotateY
p622
aVrotateZ
p623
aVpoleVectorVis
p624
aaF0
aF0
aF0
aF0
aF0
aF0
aF0
aa(lp625
S'middle_l_ik_anim'
p626
a(lp627
VtranslateX
p628
aVtranslateY
p629
aVtranslateZ
p630
aVrotateX
p631
aVrotateY
p632
aVrotateZ
p633
aVpoleVectorVis
p634
aaF0
aF0
aF0
aF0
aF0
aF0
aF0
aa(lp635
S'middle_r_ik_anim'
p636
a(lp637
VtranslateX
p638
aVtranslateY
p639
aVtranslateZ
p640
aVrotateX
p641
aVrotateY
p642
aVrotateZ
p643
aVpoleVectorVis
p644
aaF0
aF0
aF0
aF0
aF0
aF0
aF0
aa(lp645
S'pinky_l_ik_anim'
p646
a(lp647
VtranslateX
p648
aVtranslateY
p649
aVtranslateZ
p650
aVrotateX
p651
aVrotateY
p652
aVrotateZ
p653
aVpoleVectorVis
p654
aaF0
aF0
aF0
aF0
aF0
aF0
aF0
aa(lp655
S'pinky_r_ik_anim'
p656
a(lp657
VtranslateX
p658
aVtranslateY
p659
aVtranslateZ
p660
aVrotateX
p661
aVrotateY
p662
aVrotateZ
p663
aVpoleVectorVis
p664
aaF0
aF0
aF0
aF0
aF0
aF0
aF0
aa(lp665
S'thumb_l_ik_anim'
p666
a(lp667
VtranslateX
p668
aVtranslateY
p669
aVtranslateZ
p670
aVrotateX
p671
aVrotateY
p672
aVrotateZ
p673
aVpoleVectorVis
p674
aaF0
aF0
aF0
aF0
aF0
aF0
aF0
aa(lp675
S'thumb_r_ik_anim'
p676
a(lp677
VtranslateX
p678
aVtranslateY
p679
aVtranslateZ
p680
aVrotateX
p681
aVrotateY
p682
aVrotateZ
p683
aVpoleVectorVis
p684
aaF0
aF0
aF0
aF0
aF0
aF0
aF0
aa(lp685
S'index_l_poleVector'
p686
a(lp687
VtranslateX
p688
aVtranslateY
p689
aVtranslateZ
p690
aVrotateX
p691
aVrotateY
p692
aVrotateZ
p693
aaF0
aF0
aF0
aF0
aF0
aF0
aa(lp694
S'index_r_poleVector'
p695
a(lp696
VtranslateX
p697
aVtranslateY
p698
aVtranslateZ
p699
aVrotateX
p700
aVrotateY
p701
aVrotateZ
p702
aaF0
aF0
aF0
aF0
aF0
aF0
aa(lp703
S'middle_l_poleVector'
p704
a(lp705
VtranslateX
p706
aVtranslateY
p707
aVtranslateZ
p708
aVrotateX
p709
aVrotateY
p710
aVrotateZ
p711
aaF0
aF0
aF0
aF0
aF0
aF0
aa(lp712
S'middle_r_poleVector'
p713
a(lp714
VtranslateX
p715
aVtranslateY
p716
aVtranslateZ
p717
aVrotateX
p718
aVrotateY
p719
aVrotateZ
p720
aaF0
aF0
aF0
aF0
aF0
aF0
aa(lp721
S'pinky_l_poleVector'
p722
a(lp723
VtranslateX
p724
aVtranslateY
p725
aVtranslateZ
p726
aVrotateX
p727
aVrotateY
p728
aVrotateZ
p729
aaF0
aF0
aF0
aF0
aF0
aF0
aa(lp730
S'pinky_r_poleVector'
p731
a(lp732
VtranslateX
p733
aVtranslateY
p734
aVtranslateZ
p735
aVrotateX
p736
aVrotateY
p737
aVrotateZ
p738
aaF0
aF0
aF0
aF0
aF0
aF0
aa(lp739
S'thumb_l_poleVector'
p740
a(lp741
VtranslateX
p742
aVtranslateY
p743
aVtranslateZ
p744
aVrotateX
p745
aVrotateY
p746
aVrotateZ
p747
aaF0
aF0
aF0
aF0
aF0
aF0
aa(lp748
S'thumb_r_poleVector'
p749
a(lp750
VtranslateX
p751
aVtranslateY
p752
aVtranslateZ
p753
aVrotateX
p754
aVrotateY
p755
aVrotateZ
p756
aaF0
aF0
aF0
aF0
aF0
aF0
aa(lp757
S'l_global_ik_anim'
p758
a(lp759
VtranslateX
p760
aVtranslateY
p761
aVtranslateZ
p762
aVrotateX
p763
aVrotateY
p764
aVrotateZ
p765
aaF0
aF0
aF0
aF0
aF0
aF0
aa(lp766
S'r_global_ik_anim'
p767
a(lp768
VtranslateX
p769
aVtranslateY
p770
aVtranslateZ
p771
aVrotateX
p772
aVrotateY
p773
aVrotateZ
p774
aaF0
aF0
aF0
aF0
aF0
aF0
aa(lp775
S'Rig_Settings'
p776
a(lp777
Vspine_ik
p778
aVspine_fk
p779
aVlLegMode
p780
aVlThighTwistAmount
p781
aVlCalfTwistAmount
p782
aVrLegMode
p783
aVrThighTwistAmount
p784
aVrCalfTwistAmount
p785
aVlFkArmOrient
p786
aVrFkArmOrient
p787
aVlArmMode
p788
aVlUpperarmTwistAmount
p789
aVrArmMode
p790
aVrUpperarmTwistAmount
p791
aVtentacle_r_fk
p792
aVtentacle_r_ik
p793
aVtentacle_r_dynamic
p794
aVtentacle_l_fk
p795
aVtentacle_l_ik
p796
aVtentacle_l_dynamic
p797
aaF0
aF1
aI1
aF0.90000000000000002
aF0.5
aI1
aF0.90000000000000002
aF0.5
aI0
aI0
aI0
aF0.90000000000000002
aI0
aF0.90000000000000002
aF1
aF0
aF0
aF1
aF0
aF0
aa(lp798
Vorb_03_r_anim
p799
a(lp800
VtranslateX
p801
aVtranslateY
p802
aVtranslateZ
p803
aVrotateX
p804
aVrotateY
p805
aVrotateZ
p806
aaF0
aF0
aF0
aF0
aF0
aF0
aa(lp807
Vorb_11_l_anim
p808
a(lp809
VtranslateX
p810
aVtranslateY
p811
aVtranslateZ
p812
aVrotateX
p813
aVrotateY
p814
aVrotateZ
p815
aaF0
aF0
aF0
aF0
aF0
aF0
aa(lp816
Vorb_04_r_anim
p817
a(lp818
VtranslateX
p819
aVtranslateY
p820
aVtranslateZ
p821
aVrotateX
p822
aVrotateY
p823
aVrotateZ
p824
aaF0
aF0
aF0
aF0
aF0
aF0
aa(lp825
Vtentacle_r_dyn_anim
p826
a(lp827
VtranslateX
p828
aVtranslateY
p829
aVtranslateZ
p830
aVrotateX
p831
aVrotateY
p832
aVrotateZ
p833
aVchainAttach
p834
aVchainStartEnvelope
p835
aVchainStartFrame
p836
aVchainStiffness
p837
aVchainDamping
p838
aVchainGravity
p839
aVchainIteration
p840
aVchainCollide
p841
aVchainWidthBase
p842
aVchainWidthExtremity
p843
aVchainCollideGround
p844
aVchainCollideGroundHeight
p845
aaF0
aF0
aF0
aF0
aF0
aF0
aI0
aF0
aF0
aF0
aF0
aF0
aI0
aI00
aF0
aF0
aI00
aF0
aa(lp846
Vtentacle_r_ik_2_anim
p847
a(lp848
VtranslateX
p849
aVtranslateY
p850
aVtranslateZ
p851
aVrotateX
p852
aVrotateY
p853
aVrotateZ
p854
aaF0
aF0
aF0
aF0
aF0
aF0
aa(lp855
Vtentacle_r_ik_3_anim
p856
a(lp857
VtranslateX
p858
aVtranslateY
p859
aVtranslateZ
p860
aVrotateX
p861
aVrotateY
p862
aVrotateZ
p863
aaF0
aF0
aF0
aF0
aF0
aF0
aa(lp864
Vtentacle_r_ik_4_anim
p865
a(lp866
VtranslateX
p867
aVtranslateY
p868
aVtranslateZ
p869
aVrotateX
p870
aVrotateY
p871
aVrotateZ
p872
aaF0
aF0
aF0
aF0
aF0
aF0
aa(lp873
Vtentacle_r_ik_5_anim
p874
a(lp875
VtranslateX
p876
aVtranslateY
p877
aVtranslateZ
p878
aVrotateX
p879
aVrotateY
p880
aVrotateZ
p881
aaF0
aF0
aF0
aF0
aF0
aF0
aa(lp882
Vtentacle_r_ik_6_anim
p883
a(lp884
VtranslateX
p885
aVtranslateY
p886
aVtranslateZ
p887
aVrotateX
p888
aVrotateY
p889
aVrotateZ
p890
aaF0
aF0
aF0
aF0
aF0
aF0
aa(lp891
Vtentacle_r_ik_7_anim
p892
a(lp893
VtranslateX
p894
aVtranslateY
p895
aVtranslateZ
p896
aVrotateX
p897
aVrotateY
p898
aVrotateZ
p899
aaF0
aF0
aF0
aF0
aF0
aF0
aa(lp900
Vtentacle_r_ik_8_anim
p901
a(lp902
VtranslateX
p903
aVtranslateY
p904
aVtranslateZ
p905
aVrotateX
p906
aVrotateY
p907
aVrotateZ
p908
aaF0
aF0
aF0
aF0
aF0
aF0
aa(lp909
Vtentacle_r_ik_9_anim
p910
a(lp911
VtranslateX
p912
aVtranslateY
p913
aVtranslateZ
p914
aVrotateX
p915
aVrotateY
p916
aVrotateZ
p917
aaF0
aF0
aF0
aF0
aF0
aF0
aa(lp918
Vtentacle_r_ik_10_anim
p919
a(lp920
VtranslateX
p921
aVtranslateY
p922
aVtranslateZ
p923
aVrotateX
p924
aVrotateY
p925
aVrotateZ
p926
aVclusterControlVis
p927
aaF0
aF0
aF0
aF0
aF0
aF0
aI00
aa(lp928
Vtentacle_r_ik_base_anim
p929
a(lp930
VtranslateX
p931
aVtranslateY
p932
aVtranslateZ
p933
aVrotateX
p934
aVrotateY
p935
aVrotateZ
p936
aaF0
aF0
aF0
aF0
aF0
aF0
aa(lp937
Vfk_tentacle_r_01_anim
p938
a(lp939
VtranslateX
p940
aVtranslateY
p941
aVtranslateZ
p942
aVrotateX
p943
aVrotateY
p944
aVrotateZ
p945
aVlagMode
p946
aaF0
aF0
aF1.4210854715202004e-14
aF90.669440395732011
aF7.9513867036587919e-16
aF0
aF0
aa(lp947
Vtentacle_r_cv_0_anim
p948
a(lp949
VtranslateX
p950
aVtranslateY
p951
aVtranslateZ
p952
aaF0
aF0
aF0
aa(lp953
Vfk_tentacle_r_02_anim
p954
a(lp955
VtranslateX
p956
aVtranslateY
p957
aVtranslateZ
p958
aVrotateX
p959
aVrotateY
p960
aVrotateZ
p961
aaF1.4210854715202004e-14
aF-2.8421709430404007e-14
aF0
aF10.780365820694607
aF1.8913525598455561
aF-9.146637994546186
aa(lp962
Vtentacle_r_cv_1_anim
p963
a(lp964
VtranslateX
p965
aVtranslateY
p966
aVtranslateZ
p967
aaF0
aF0
aF0
aa(lp968
Vfk_tentacle_r_03_anim
p969
a(lp970
VtranslateX
p971
aVtranslateY
p972
aVtranslateZ
p973
aVrotateX
p974
aVrotateY
p975
aVrotateZ
p976
aaF1.4210854715202004e-14
aF-2.8421709430404007e-14
aF-2.8421709430404007e-14
aF-2.598775669952909
aF7.4559104560275458
aF4.7454939733078945
aa(lp977
Vtentacle_r_cv_2_anim
p978
a(lp979
VtranslateX
p980
aVtranslateY
p981
aVtranslateZ
p982
aaF0
aF0
aF0
aa(lp983
Vfk_tentacle_r_04_anim
p984
a(lp985
VtranslateX
p986
aVtranslateY
p987
aVtranslateZ
p988
aVrotateX
p989
aVrotateY
p990
aVrotateZ
p991
aaF-1.4210854715202004e-14
aF-4.2632564145606011e-14
aF0
aF-19.904327211603977
aF3.6466269985790154
aF5.2358584826711585
aa(lp992
Vtentacle_r_cv_3_anim
p993
a(lp994
VtranslateX
p995
aVtranslateY
p996
aVtranslateZ
p997
aaF0
aF0
aF0
aa(lp998
Vfk_tentacle_r_05_anim
p999
a(lp1000
VtranslateX
p1001
aVtranslateY
p1002
aVtranslateZ
p1003
aVrotateX
p1004
aVrotateY
p1005
aVrotateZ
p1006
aaF-1.4210854715202004e-14
aF1.4210854715202004e-14
aF0
aF-19.717265942492229
aF3.3128955011822643
aF9.1597890629572145
aa(lp1007
Vtentacle_r_cv_4_anim
p1008
a(lp1009
VtranslateX
p1010
aVtranslateY
p1011
aVtranslateZ
p1012
aaF0
aF0
aF0
aa(lp1013
Vfk_tentacle_r_06_anim
p1014
a(lp1015
VtranslateX
p1016
aVtranslateY
p1017
aVtranslateZ
p1018
aVrotateX
p1019
aVrotateY
p1020
aVrotateZ
p1021
aaF1.4210854715202004e-14
aF0
aF0
aF-19.933003797077351
aF1.4382429163983019
aF3.9592325111019142
aa(lp1022
Vtentacle_r_cv_5_anim
p1023
a(lp1024
VtranslateX
p1025
aVtranslateY
p1026
aVtranslateZ
p1027
aaF0
aF0
aF0
aa(lp1028
Vfk_tentacle_r_07_anim
p1029
a(lp1030
VtranslateX
p1031
aVtranslateY
p1032
aVtranslateZ
p1033
aVrotateX
p1034
aVrotateY
p1035
aVrotateZ
p1036
aaF0
aF0
aF0
aF-19.910987922581118
aF1.7270369777622763
aF4.7563517650301392
aa(lp1037
Vtentacle_r_cv_6_anim
p1038
a(lp1039
VtranslateX
p1040
aVtranslateY
p1041
aVtranslateZ
p1042
aaF0
aF0
aF0
aa(lp1043
Vfk_tentacle_r_08_anim
p1044
a(lp1045
VtranslateX
p1046
aVtranslateY
p1047
aVtranslateZ
p1048
aVrotateX
p1049
aVrotateY
p1050
aVrotateZ
p1051
aaF0
aF-1.4210854715202004e-14
aF0
aF-19.95024358355807
aF1.1627167179290636
aF3.1996401714013496
aa(lp1052
Vtentacle_r_cv_7_anim
p1053
a(lp1054
VtranslateX
p1055
aVtranslateY
p1056
aVtranslateZ
p1057
aaF0
aF0
aF0
aa(lp1058
Vfk_tentacle_r_09_anim
p1059
a(lp1060
VtranslateX
p1061
aVtranslateY
p1062
aVtranslateZ
p1063
aVrotateX
p1064
aVrotateY
p1065
aVrotateZ
p1066
aaF0
aF0
aF0
aF-11.782660665858476
aF-0.066834136959324081
aF-0.32039791641367926
aa(lp1067
Vtentacle_r_cv_8_anim
p1068
a(lp1069
VtranslateX
p1070
aVtranslateY
p1071
aVtranslateZ
p1072
aaF0
aF0
aF0
aa(lp1073
Vfk_tentacle_r_010_anim
p1074
a(lp1075
VtranslateX
p1076
aVtranslateY
p1077
aVtranslateZ
p1078
aVrotateX
p1079
aVrotateY
p1080
aVrotateZ
p1081
aaF1.4210854715202004e-14
aF-7.1054273576010019e-15
aF-2.8421709430404007e-14
aF-11.628164798691017
aF-0.15997111582521023
aF-0.81152912650105558
aa(lp1082
Vtentacle_r_cv_9_anim
p1083
a(lp1084
VtranslateX
p1085
aVtranslateY
p1086
aVtranslateZ
p1087
aaF0
aF0
aF0
aa(lp1088
Vfk_tentacle_r_011_anim
p1089
a(lp1090
VtranslateX
p1091
aVtranslateY
p1092
aVtranslateZ
p1093
aVrotateX
p1094
aVrotateY
p1095
aVrotateZ
p1096
aaF0
aF7.1054273576010019e-15
aF0
aF-8.7893016552567484
aF-0.38188034936434162
aF-4.0209823373035496
aa(lp1097
Vtentacle_r_cv_10_anim
p1098
a(lp1099
VtranslateX
p1100
aVtranslateY
p1101
aVtranslateZ
p1102
aaF0
aF0
aF0
aa(lp1103
Vfk_tentacle_r_012_anim
p1104
a(lp1105
VtranslateX
p1106
aVtranslateY
p1107
aVtranslateZ
p1108
aVrotateX
p1109
aVrotateY
p1110
aVrotateZ
p1111
aaF0
aF1.4210854715202004e-14
aF0
aF-5.1364519847955981
aF0.187290060899855
aF-2.7462211319017547
aa(lp1112
Vtentacle_r_cv_11_anim
p1113
a(lp1114
VtranslateX
p1115
aVtranslateY
p1116
aVtranslateZ
p1117
aaF0
aF0
aF0
aa(lp1118
Vfk_tentacle_r_013_anim
p1119
a(lp1120
VtranslateX
p1121
aVtranslateY
p1122
aVtranslateZ
p1123
aVrotateX
p1124
aVrotateY
p1125
aVrotateZ
p1126
aaF0
aF3.5527136788005009e-15
aF5.6843418860808015e-14
aF-7.0192200222579437
aF-0.10053933895265242
aF-3.2859298077670736
aa(lp1127
Vtentacle_r_cv_12_anim
p1128
a(lp1129
VtranslateX
p1130
aVtranslateY
p1131
aVtranslateZ
p1132
aaF0
aF0
aF0
aa(lp1133
Vfk_tentacle_r_014_anim
p1134
a(lp1135
VtranslateX
p1136
aVtranslateY
p1137
aVtranslateZ
p1138
aVrotateX
p1139
aVrotateY
p1140
aVrotateZ
p1141
aaF1.4210854715202004e-14
aF-1.0658141036401503e-14
aF-2.8421709430404007e-14
aF-6.6818756762966593
aF-0.36825054688148862
aF-8.3476496834178651
aa(lp1142
Vtentacle_r_cv_13_anim
p1143
a(lp1144
VtranslateX
p1145
aVtranslateY
p1146
aVtranslateZ
p1147
aaF0
aF0
aF0
aa(lp1148
Vfk_tentacle_r_015_anim
p1149
a(lp1150
VtranslateX
p1151
aVtranslateY
p1152
aVtranslateZ
p1153
aVrotateX
p1154
aVrotateY
p1155
aVrotateZ
p1156
aaF-1.4210854715202004e-14
aF0
aF2.8421709430404007e-14
aF-5.2098236004068923
aF-0.085950641993780302
aF-13.693272832420554
aa(lp1157
Vtentacle_r_cv_14_anim
p1158
a(lp1159
VtranslateX
p1160
aVtranslateY
p1161
aVtranslateZ
p1162
aaF0
aF0
aF0
aa(lp1163
Vfk_tentacle_r_016_anim
p1164
a(lp1165
VtranslateX
p1166
aVtranslateY
p1167
aVtranslateZ
p1168
aVrotateX
p1169
aVrotateY
p1170
aVrotateZ
p1171
aaF0
aF7.1054273576010019e-15
aF-2.8421709430404007e-14
aF-9.4146241228635326
aF-0.10892443812639754
aF-15.985636180992213
aa(lp1172
Vtentacle_r_cv_15_anim
p1173
a(lp1174
VtranslateX
p1175
aVtranslateY
p1176
aVtranslateZ
p1177
aaF0
aF0
aF0
aa(lp1178
Vfk_tentacle_r_017_anim
p1179
a(lp1180
VtranslateX
p1181
aVtranslateY
p1182
aVtranslateZ
p1183
aVrotateX
p1184
aVrotateY
p1185
aVrotateZ
p1186
aaF0
aF-3.5527136788005009e-15
aF2.8421709430404007e-14
aF-8.7714569536271672
aF1.122698275886489
aF-3.5417444717810684
aa(lp1187
Vtentacle_r_cv_16_anim
p1188
a(lp1189
VtranslateX
p1190
aVtranslateY
p1191
aVtranslateZ
p1192
aaF0
aF0
aF0
aa(lp1193
Vfk_tentacle_r_018_anim
p1194
a(lp1195
VtranslateX
p1196
aVtranslateY
p1197
aVtranslateZ
p1198
aVrotateX
p1199
aVrotateY
p1200
aVrotateZ
p1201
aaF0
aF7.1054273576010019e-15
aF0
aF-15.962306888175126
aF4.5058323857234681
aF7.4345652566770974
aa(lp1202
Vtentacle_r_cv_17_anim
p1203
a(lp1204
VtranslateX
p1205
aVtranslateY
p1206
aVtranslateZ
p1207
aaF0
aF0
aF0
aa(lp1208
Vfk_tentacle_r_019_anim
p1209
a(lp1210
VtranslateX
p1211
aVtranslateY
p1212
aVtranslateZ
p1213
aVrotateX
p1214
aVrotateY
p1215
aVrotateZ
p1216
aaF0
aF0
aF-2.8421709430404007e-14
aF-15.962306888175126
aF4.5058323857234681
aF7.4345652566770974
aa(lp1217
Vtentacle_r_cv_18_anim
p1218
a(lp1219
VtranslateX
p1220
aVtranslateY
p1221
aVtranslateZ
p1222
aaF0
aF0
aF0
aa(lp1223
Vfk_tentacle_r_020_anim
p1224
a(lp1225
VtranslateX
p1226
aVtranslateY
p1227
aVtranslateZ
p1228
aVrotateX
p1229
aVrotateY
p1230
aVrotateZ
p1231
aaF0
aF-7.1054273576010019e-15
aF2.8421709430404007e-14
aF-15.962306888175126
aF4.5058323857234681
aF7.4345652566770974
aa(lp1232
Vtentacle_r_cv_19_anim
p1233
a(lp1234
VtranslateX
p1235
aVtranslateY
p1236
aVtranslateZ
p1237
aaF0
aF0
aF0
aa(lp1238
Vweapon_l_anim
p1239
a(lp1240
VtranslateX
p1241
aVtranslateY
p1242
aVtranslateZ
p1243
aVrotateX
p1244
aVrotateY
p1245
aVrotateZ
p1246
aaF0
aF0
aF0
aF-9.2566324209279678e-26
aF0
aF0
aa(lp1247
Vdagger_3_r_anim
p1248
a(lp1249
VtranslateX
p1250
aVtranslateY
p1251
aVtranslateZ
p1252
aVrotateX
p1253
aVrotateY
p1254
aVrotateZ
p1255
aaF0
aF0
aF0
aF0
aF0
aF0
aa(lp1256
Vorb_13_r_anim
p1257
a(lp1258
VtranslateX
p1259
aVtranslateY
p1260
aVtranslateZ
p1261
aVrotateX
p1262
aVrotateY
p1263
aVrotateZ
p1264
aaF0
aF0
aF0
aF0
aF0
aF0
aa(lp1265
Vorb_05_r_anim
p1266
a(lp1267
VtranslateX
p1268
aVtranslateY
p1269
aVtranslateZ
p1270
aVrotateX
p1271
aVrotateY
p1272
aVrotateZ
p1273
aaF0
aF0
aF0
aF0
aF0
aF0
aa(lp1274
Vtentacle_l_dyn_anim
p1275
a(lp1276
VtranslateX
p1277
aVtranslateY
p1278
aVtranslateZ
p1279
aVrotateX
p1280
aVrotateY
p1281
aVrotateZ
p1282
aVchainAttach
p1283
aVchainStartEnvelope
p1284
aVchainStartFrame
p1285
aVchainStiffness
p1286
aVchainDamping
p1287
aVchainGravity
p1288
aVchainIteration
p1289
aVchainCollide
p1290
aVchainWidthBase
p1291
aVchainWidthExtremity
p1292
aVchainCollideGround
p1293
aVchainCollideGroundHeight
p1294
aaF0
aF0
aF0
aF0
aF0
aF0
aI0
aF0
aF0
aF0
aF0
aF0
aI0
aI00
aF0
aF0
aI00
aF0
aa(lp1295
Vtentacle_l_ik_2_anim
p1296
a(lp1297
VtranslateX
p1298
aVtranslateY
p1299
aVtranslateZ
p1300
aVrotateX
p1301
aVrotateY
p1302
aVrotateZ
p1303
aaF0
aF0
aF0
aF0
aF0
aF0
aa(lp1304
Vtentacle_l_ik_3_anim
p1305
a(lp1306
VtranslateX
p1307
aVtranslateY
p1308
aVtranslateZ
p1309
aVrotateX
p1310
aVrotateY
p1311
aVrotateZ
p1312
aaF0
aF0
aF0
aF0
aF0
aF0
aa(lp1313
Vtentacle_l_ik_4_anim
p1314
a(lp1315
VtranslateX
p1316
aVtranslateY
p1317
aVtranslateZ
p1318
aVrotateX
p1319
aVrotateY
p1320
aVrotateZ
p1321
aaF0
aF0
aF0
aF0
aF0
aF0
aa(lp1322
Vtentacle_l_ik_5_anim
p1323
a(lp1324
VtranslateX
p1325
aVtranslateY
p1326
aVtranslateZ
p1327
aVrotateX
p1328
aVrotateY
p1329
aVrotateZ
p1330
aaF0
aF0
aF0
aF0
aF0
aF0
aa(lp1331
Vtentacle_l_ik_6_anim
p1332
a(lp1333
VtranslateX
p1334
aVtranslateY
p1335
aVtranslateZ
p1336
aVrotateX
p1337
aVrotateY
p1338
aVrotateZ
p1339
aaF0
aF0
aF0
aF0
aF0
aF0
aa(lp1340
Vtentacle_l_ik_7_anim
p1341
a(lp1342
VtranslateX
p1343
aVtranslateY
p1344
aVtranslateZ
p1345
aVrotateX
p1346
aVrotateY
p1347
aVrotateZ
p1348
aaF0
aF0
aF0
aF0
aF0
aF0
aa(lp1349
Vtentacle_l_ik_8_anim
p1350
a(lp1351
VtranslateX
p1352
aVtranslateY
p1353
aVtranslateZ
p1354
aVrotateX
p1355
aVrotateY
p1356
aVrotateZ
p1357
aaF0
aF0
aF0
aF0
aF0
aF0
aa(lp1358
Vtentacle_l_ik_9_anim
p1359
a(lp1360
VtranslateX
p1361
aVtranslateY
p1362
aVtranslateZ
p1363
aVrotateX
p1364
aVrotateY
p1365
aVrotateZ
p1366
aaF0
aF0
aF0
aF0
aF0
aF0
aa(lp1367
Vtentacle_l_ik_10_anim
p1368
a(lp1369
VtranslateX
p1370
aVtranslateY
p1371
aVtranslateZ
p1372
aVrotateX
p1373
aVrotateY
p1374
aVrotateZ
p1375
aVclusterControlVis
p1376
aaF0
aF0
aF0
aF0
aF0
aF0
aI00
aa(lp1377
Vtentacle_l_ik_base_anim
p1378
a(lp1379
VtranslateX
p1380
aVtranslateY
p1381
aVtranslateZ
p1382
aVrotateX
p1383
aVrotateY
p1384
aVrotateZ
p1385
aaF0
aF0
aF0
aF0
aF0
aF0
aa(lp1386
Vfk_tentacle_l_01_anim
p1387
a(lp1388
VtranslateX
p1389
aVtranslateY
p1390
aVtranslateZ
p1391
aVrotateX
p1392
aVrotateY
p1393
aVrotateZ
p1394
aVlagMode
p1395
aaF-1.4210854715202004e-14
aF-2.8421709430404007e-14
aF0
aF106.083656517516
aF26.058541357433651
aF17.662656212836126
aF0
aa(lp1396
Vtentacle_l_cv_0_anim
p1397
a(lp1398
VtranslateX
p1399
aVtranslateY
p1400
aVtranslateZ
p1401
aaF0
aF0
aF0
aa(lp1402
Vfk_tentacle_l_02_anim
p1403
a(lp1404
VtranslateX
p1405
aVtranslateY
p1406
aVtranslateZ
p1407
aVrotateX
p1408
aVrotateY
p1409
aVrotateZ
p1410
aaF0
aF-2.8421709430404007e-14
aF-5.6843418860808015e-14
aF-5.8299085158057897
aF-0.77382711503039736
aF-7.5348643136848077
aa(lp1411
Vtentacle_l_cv_1_anim
p1412
a(lp1413
VtranslateX
p1414
aVtranslateY
p1415
aVtranslateZ
p1416
aaF0
aF0
aF0
aa(lp1417
Vfk_tentacle_l_03_anim
p1418
a(lp1419
VtranslateX
p1420
aVtranslateY
p1421
aVtranslateZ
p1422
aVrotateX
p1423
aVrotateY
p1424
aVrotateZ
p1425
aaF0
aF0
aF0
aF-23.042656934156287
aF-3.0674699145815274
aF1.1599159084255048
aa(lp1426
Vtentacle_l_cv_2_anim
p1427
a(lp1428
VtranslateX
p1429
aVtranslateY
p1430
aVtranslateZ
p1431
aaF0
aF0
aF0
aa(lp1432
Vfk_tentacle_l_04_anim
p1433
a(lp1434
VtranslateX
p1435
aVtranslateY
p1436
aVtranslateZ
p1437
aVrotateX
p1438
aVrotateY
p1439
aVrotateZ
p1440
aaF-1.4210854715202004e-14
aF2.8421709430404007e-14
aF-2.8421709430404007e-14
aF-27.632238972758255
aF-1.6413586447979409
aF-3.9667286758610203
aa(lp1441
Vtentacle_l_cv_3_anim
p1442
a(lp1443
VtranslateX
p1444
aVtranslateY
p1445
aVtranslateZ
p1446
aaF0
aF0
aF0
aa(lp1447
Vfk_tentacle_l_05_anim
p1448
a(lp1449
VtranslateX
p1450
aVtranslateY
p1451
aVtranslateZ
p1452
aVrotateX
p1453
aVrotateY
p1454
aVrotateZ
p1455
aaF0
aF-1.4210854715202004e-14
aF0
aF-27.702657491384343
aF-1.8076814231891072
aF-4.1048834536521879
aa(lp1456
Vtentacle_l_cv_4_anim
p1457
a(lp1458
VtranslateX
p1459
aVtranslateY
p1460
aVtranslateZ
p1461
aaF0
aF0
aF0
aa(lp1462
Vfk_tentacle_l_06_anim
p1463
a(lp1464
VtranslateX
p1465
aVtranslateY
p1466
aVtranslateZ
p1467
aVrotateX
p1468
aVrotateY
p1469
aVrotateZ
p1470
aaF0
aF-1.4210854715202004e-14
aF0
aF-10.55017273130828
aF0.11802903009755231
aF-1.0667836213355046
aa(lp1471
Vtentacle_l_cv_5_anim
p1472
a(lp1473
VtranslateX
p1474
aVtranslateY
p1475
aVtranslateZ
p1476
aaF0
aF0
aF0
aa(lp1477
Vfk_tentacle_l_07_anim
p1478
a(lp1479
VtranslateX
p1480
aVtranslateY
p1481
aVtranslateZ
p1482
aVrotateX
p1483
aVrotateY
p1484
aVrotateZ
p1485
aaF0
aF1.4210854715202004e-14
aF0
aF-10.56924900073178
aF0.31520410025017398
aF-0.011652809301377444
aa(lp1486
Vtentacle_l_cv_6_anim
p1487
a(lp1488
VtranslateX
p1489
aVtranslateY
p1490
aVtranslateZ
p1491
aaF0
aF0
aF0
aa(lp1492
Vfk_tentacle_l_08_anim
p1493
a(lp1494
VtranslateX
p1495
aVtranslateY
p1496
aVtranslateZ
p1497
aVrotateX
p1498
aVrotateY
p1499
aVrotateZ
p1500
aaF0
aF0
aF0
aF-10.552599321467415
aF-0.59741298400254317
aF-2.7842623988865807
aa(lp1501
Vtentacle_l_cv_7_anim
p1502
a(lp1503
VtranslateX
p1504
aVtranslateY
p1505
aVtranslateZ
p1506
aaF0
aF0
aF0
aa(lp1507
Vfk_tentacle_l_09_anim
p1508
a(lp1509
VtranslateX
p1510
aVtranslateY
p1511
aVtranslateZ
p1512
aVrotateX
p1513
aVrotateY
p1514
aVrotateZ
p1515
aaF0
aF0
aF0
aF-10.567940096160292
aF0.17083269677397731
aF1.3348464989577802
aa(lp1516
Vtentacle_l_cv_8_anim
p1517
a(lp1518
VtranslateX
p1519
aVtranslateY
p1520
aVtranslateZ
p1521
aaF0
aF0
aF0
aa(lp1522
Vfk_tentacle_l_010_anim
p1523
a(lp1524
VtranslateX
p1525
aVtranslateY
p1526
aVtranslateZ
p1527
aVrotateX
p1528
aVrotateY
p1529
aVrotateZ
p1530
aaF0
aF7.1054273576010019e-15
aF0
aF-9.4328591321509219
aF-0.35030161836390727
aF-1.6420619199132229
aa(lp1531
Vtentacle_l_cv_9_anim
p1532
a(lp1533
VtranslateX
p1534
aVtranslateY
p1535
aVtranslateZ
p1536
aaF0
aF0
aF0
aa(lp1537
Vfk_tentacle_l_011_anim
p1538
a(lp1539
VtranslateX
p1540
aVtranslateY
p1541
aVtranslateZ
p1542
aVrotateX
p1543
aVrotateY
p1544
aVrotateZ
p1545
aaF1.4210854715202004e-14
aF-2.1316282072803006e-14
aF0
aF-5.6027915276930331
aF-0.61696542945265465
aF-0.47780543041395246
aa(lp1546
Vtentacle_l_cv_10_anim
p1547
a(lp1548
VtranslateX
p1549
aVtranslateY
p1550
aVtranslateZ
p1551
aaF0
aF0
aF0
aa(lp1552
Vfk_tentacle_l_012_anim
p1553
a(lp1554
VtranslateX
p1555
aVtranslateY
p1556
aVtranslateZ
p1557
aVrotateX
p1558
aVrotateY
p1559
aVrotateZ
p1560
aaF0
aF7.1054273576010019e-15
aF0
aF-4.0021020547140855
aF-0.2246393398130834
aF-3.9556442522493467
aa(lp1561
Vtentacle_l_cv_11_anim
p1562
a(lp1563
VtranslateX
p1564
aVtranslateY
p1565
aVtranslateZ
p1566
aaF0
aF0
aF0
aa(lp1567
Vfk_tentacle_l_013_anim
p1568
a(lp1569
VtranslateX
p1570
aVtranslateY
p1571
aVtranslateZ
p1572
aVrotateX
p1573
aVrotateY
p1574
aVrotateZ
p1575
aaF0
aF3.5527136788005009e-15
aF0
aF-2.2192171208843385
aF-0.089406659354216558
aF-3.2089725298260854
aa(lp1576
Vtentacle_l_cv_12_anim
p1577
a(lp1578
VtranslateX
p1579
aVtranslateY
p1580
aVtranslateZ
p1581
aaF0
aF0
aF0
aa(lp1582
Vfk_tentacle_l_014_anim
p1583
a(lp1584
VtranslateX
p1585
aVtranslateY
p1586
aVtranslateZ
p1587
aVrotateX
p1588
aVrotateY
p1589
aVrotateZ
p1590
aaF0
aF3.5527136788005009e-15
aF0
aF-3.5693303107503298
aF-0.31299645959735523
aF-5.3520900757559362
aa(lp1591
Vtentacle_l_cv_13_anim
p1592
a(lp1593
VtranslateX
p1594
aVtranslateY
p1595
aVtranslateZ
p1596
aaF0
aF0
aF0
aa(lp1597
Vfk_tentacle_l_015_anim
p1598
a(lp1599
VtranslateX
p1600
aVtranslateY
p1601
aVtranslateZ
p1602
aVrotateX
p1603
aVrotateY
p1604
aVrotateZ
p1605
aaF0
aF3.5527136788005009e-15
aF2.8421709430404007e-14
aF-3.642593354513926
aF1.5902773407317584e-15
aF-5.8396360832477958
aa(lp1606
Vtentacle_l_cv_14_anim
p1607
a(lp1608
VtranslateX
p1609
aVtranslateY
p1610
aVtranslateZ
p1611
aaF0
aF0
aF0
aa(lp1612
Vfk_tentacle_l_016_anim
p1613
a(lp1614
VtranslateX
p1615
aVtranslateY
p1616
aVtranslateZ
p1617
aVrotateX
p1618
aVrotateY
p1619
aVrotateZ
p1620
aaF1.4210854715202004e-14
aF0
aF2.8421709430404007e-14
aF-3.6425933545139362
aF1.5902773407317584e-15
aF-14.80676717257054
aa(lp1621
Vtentacle_l_cv_15_anim
p1622
a(lp1623
VtranslateX
p1624
aVtranslateY
p1625
aVtranslateZ
p1626
aaF0
aF0
aF0
aa(lp1627
Vfk_tentacle_l_017_anim
p1628
a(lp1629
VtranslateX
p1630
aVtranslateY
p1631
aVtranslateZ
p1632
aVrotateX
p1633
aVrotateY
p1634
aVrotateZ
p1635
aaF0
aF0
aF0
aF0
aF1.5902773407317584e-15
aF-8.9671310893227378
aa(lp1636
Vtentacle_l_cv_16_anim
p1637
a(lp1638
VtranslateX
p1639
aVtranslateY
p1640
aVtranslateZ
p1641
aaF0
aF0
aF0
aa(lp1642
Vfk_tentacle_l_018_anim
p1643
a(lp1644
VtranslateX
p1645
aVtranslateY
p1646
aVtranslateZ
p1647
aVrotateX
p1648
aVrotateY
p1649
aVrotateZ
p1650
aaF0
aF-7.1054273576010019e-15
aF0
aF0
aF1.5902773407317584e-15
aF-8.9671310893227378
aa(lp1651
Vtentacle_l_cv_17_anim
p1652
a(lp1653
VtranslateX
p1654
aVtranslateY
p1655
aVtranslateZ
p1656
aaF0
aF0
aF0
aa(lp1657
Vfk_tentacle_l_019_anim
p1658
a(lp1659
VtranslateX
p1660
aVtranslateY
p1661
aVtranslateZ
p1662
aVrotateX
p1663
aVrotateY
p1664
aVrotateZ
p1665
aaF0
aF0
aF0
aF0
aF1.5902773407317584e-15
aF-8.9671310893227378
aa(lp1666
Vtentacle_l_cv_18_anim
p1667
a(lp1668
VtranslateX
p1669
aVtranslateY
p1670
aVtranslateZ
p1671
aaF0
aF0
aF0
aa(lp1672
Vfk_tentacle_l_020_anim
p1673
a(lp1674
VtranslateX
p1675
aVtranslateY
p1676
aVtranslateZ
p1677
aVrotateX
p1678
aVrotateY
p1679
aVrotateZ
p1680
aaF1.4210854715202004e-14
aF2.1316282072803006e-14
aF2.8421709430404007e-14
aF0
aF1.5902773407317584e-15
aF-8.9671310893227378
aa(lp1681
Vtentacle_l_cv_19_anim
p1682
a(lp1683
VtranslateX
p1684
aVtranslateY
p1685
aVtranslateZ
p1686
aaF0
aF0
aF0
aa(lp1687
Vsword_1_r_anim
p1688
a(lp1689
VtranslateX
p1690
aVtranslateY
p1691
aVtranslateZ
p1692
aVrotateX
p1693
aVrotateY
p1694
aVrotateZ
p1695
aaF-0.14790722272042098
aF0
aF-7.6728774183904278
aF0
aF-15.267466809393259
aF0
aa(lp1696
Vorb_03_l_anim
p1697
a(lp1698
VtranslateX
p1699
aVtranslateY
p1700
aVtranslateZ
p1701
aVrotateX
p1702
aVrotateY
p1703
aVrotateZ
p1704
aaF0
aF0
aF0
aF0
aF0
aF0
aa(lp1705
Vdagger_1_l_anim
p1706
a(lp1707
VtranslateX
p1708
aVtranslateY
p1709
aVtranslateZ
p1710
aVrotateX
p1711
aVrotateY
p1712
aVrotateZ
p1713
aaF0
aF0
aF0
aF0
aF0
aF0
aa(lp1714
Vdagger_2_l_anim
p1715
a(lp1716
VtranslateX
p1717
aVtranslateY
p1718
aVtranslateZ
p1719
aVrotateX
p1720
aVrotateY
p1721
aVrotateZ
p1722
aaF0
aF0
aF0
aF0
aF0
aF0
aa(lp1723
Vdagger_2_r_anim
p1724
a(lp1725
VtranslateX
p1726
aVtranslateY
p1727
aVtranslateZ
p1728
aVrotateX
p1729
aVrotateY
p1730
aVrotateZ
p1731
aaF0
aF0
aF0
aF0
aF0
aF0
aa(lp1732
Vorb_09_r_anim
p1733
a(lp1734
VtranslateX
p1735
aVtranslateY
p1736
aVtranslateZ
p1737
aVrotateX
p1738
aVrotateY
p1739
aVrotateZ
p1740
aaF0
aF0
aF0
aF0
aF0
aF0
aa(lp1741
Vorb_04_l_anim
p1742
a(lp1743
VtranslateX
p1744
aVtranslateY
p1745
aVtranslateZ
p1746
aVrotateX
p1747
aVrotateY
p1748
aVrotateZ
p1749
aaF0
aF0
aF0
aF0
aF0
aF0
aa(lp1750
Vdagger_1_r_anim
p1751
a(lp1752
VtranslateX
p1753
aVtranslateY
p1754
aVtranslateZ
p1755
aVrotateX
p1756
aVrotateY
p1757
aVrotateZ
p1758
aaF0
aF0
aF0
aF0
aF0
aF0
aa(lp1759
Vorb_09_l_anim
p1760
a(lp1761
VtranslateX
p1762
aVtranslateY
p1763
aVtranslateZ
p1764
aVrotateX
p1765
aVrotateY
p1766
aVrotateZ
p1767
aaF0
aF0
aF0
aF0
aF0
aF0
aa(lp1768
Vforearm_plate_1_r_anim
p1769
a(lp1770
VtranslateX
p1771
aVtranslateY
p1772
aVtranslateZ
p1773
aVrotateX
p1774
aVrotateY
p1775
aVrotateZ
p1776
aaF0
aF0
aF0
aF0
aF0
aF0
aa(lp1777
Vorb_01_l_anim
p1778
a(lp1779
VtranslateX
p1780
aVtranslateY
p1781
aVtranslateZ
p1782
aVrotateX
p1783
aVrotateY
p1784
aVrotateZ
p1785
aaF0
aF0
aF0
aF0
aF0
aF0
aa(lp1786
Vorb_02_l_anim
p1787
a(lp1788
VtranslateX
p1789
aVtranslateY
p1790
aVtranslateZ
p1791
aVrotateX
p1792
aVrotateY
p1793
aVrotateZ
p1794
aaF0
aF0
aF0
aF0
aF0
aF0
aa(lp1795
Vorb_11_r_anim
p1796
a(lp1797
VtranslateX
p1798
aVtranslateY
p1799
aVtranslateZ
p1800
aVrotateX
p1801
aVrotateY
p1802
aVrotateZ
p1803
aaF0
aF0
aF0
aF0
aF0
aF0
aa(lp1804
Vorb_10_r_anim
p1805
a(lp1806
VtranslateX
p1807
aVtranslateY
p1808
aVtranslateZ
p1809
aVrotateX
p1810
aVrotateY
p1811
aVrotateZ
p1812
aaF0
aF0
aF0
aF0
aF0
aF0
aa(lp1813
Vforearm_plate_1_l_anim
p1814
a(lp1815
VtranslateX
p1816
aVtranslateY
p1817
aVtranslateZ
p1818
aVrotateX
p1819
aVrotateY
p1820
aVrotateZ
p1821
aaF0
aF0
aF0
aF0
aF0
aF0
aa(lp1822
Vorb_07_r_anim
p1823
a(lp1824
VtranslateX
p1825
aVtranslateY
p1826
aVtranslateZ
p1827
aVrotateX
p1828
aVrotateY
p1829
aVrotateZ
p1830
aaF0
aF0
aF0
aF0
aF0
aF0
aa(lp1831
Vorb_05_l_anim
p1832
a(lp1833
VtranslateX
p1834
aVtranslateY
p1835
aVtranslateZ
p1836
aVrotateX
p1837
aVrotateY
p1838
aVrotateZ
p1839
aaF0
aF0
aF0
aF0
aF0
aF0
aa(lp1840
Vorb_01_r_anim
p1841
a(lp1842
VtranslateX
p1843
aVtranslateY
p1844
aVtranslateZ
p1845
aVrotateX
p1846
aVrotateY
p1847
aVrotateZ
p1848
aaF0
aF0
aF0
aF0
aF0
aF0
aa(lp1849
Vforearm_plate_2_l_anim
p1850
a(lp1851
VtranslateX
p1852
aVtranslateY
p1853
aVtranslateZ
p1854
aVrotateX
p1855
aVrotateY
p1856
aVrotateZ
p1857
aaF0
aF0
aF0
aF0
aF0
aF0
aa(lp1858
Vforearm_plate_3_r_anim
p1859
a(lp1860
VtranslateX
p1861
aVtranslateY
p1862
aVtranslateZ
p1863
aVrotateX
p1864
aVrotateY
p1865
aVrotateZ
p1866
aaF0
aF0
aF0
aF0
aF0
aF0
aa(lp1867
Vsword_2_r_anim
p1868
a(lp1869
VtranslateX
p1870
aVtranslateY
p1871
aVtranslateZ
p1872
aVrotateX
p1873
aVrotateY
p1874
aVrotateZ
p1875
aaF0
aF2.8421709430404007e-14
aF0
aF0
aF0
aF0
aa(lp1876
Vforearm_plate_3_l_anim
p1877
a(lp1878
VtranslateX
p1879
aVtranslateY
p1880
aVtranslateZ
p1881
aVrotateX
p1882
aVrotateY
p1883
aVrotateZ
p1884
aaF0
aF0
aF0
aF0
aF0
aF0
aa(lp1885
Vorb_14_l_anim
p1886
a(lp1887
VtranslateX
p1888
aVtranslateY
p1889
aVtranslateZ
p1890
aVrotateX
p1891
aVrotateY
p1892
aVrotateZ
p1893
aaF0
aF0
aF0
aF0
aF0
aF0
aa(lp1894
Vorb_08_l_anim
p1895
a(lp1896
VtranslateX
p1897
aVtranslateY
p1898
aVtranslateZ
p1899
aVrotateX
p1900
aVrotateY
p1901
aVrotateZ
p1902
aaF0
aF0
aF0
aF0
aF0
aF0
aa(lp1903
Vdagger_3_l_anim
p1904
a(lp1905
VtranslateX
p1906
aVtranslateY
p1907
aVtranslateZ
p1908
aVrotateX
p1909
aVrotateY
p1910
aVrotateZ
p1911
aaF0
aF0
aF0
aF0
aF0
aF0
aa(lp1912
Vorb_13_l_anim
p1913
a(lp1914
VtranslateX
p1915
aVtranslateY
p1916
aVtranslateZ
p1917
aVrotateX
p1918
aVrotateY
p1919
aVrotateZ
p1920
aaF0
aF0
aF0
aF0
aF0
aF0
aa(lp1921
Vweapon_r_anim
p1922
a(lp1923
VtranslateX
p1924
aVtranslateY
p1925
aVtranslateZ
p1926
aVrotateX
p1927
aVrotateY
p1928
aVrotateZ
p1929
aaF0
aF0
aF0
aF1.2433662269327562e-12
aF0
aF0
aa(lp1930
Vorb_06_r_anim
p1931
a(lp1932
VtranslateX
p1933
aVtranslateY
p1934
aVtranslateZ
p1935
aVrotateX
p1936
aVrotateY
p1937
aVrotateZ
p1938
aaF0
aF0
aF0
aF0
aF0
aF0
aa(lp1939
Vorb_14_r_anim
p1940
a(lp1941
VtranslateX
p1942
aVtranslateY
p1943
aVtranslateZ
p1944
aVrotateX
p1945
aVrotateY
p1946
aVrotateZ
p1947
aaF0
aF0
aF0
aF0
aF0
aF0
aa(lp1948
Vsword_2_l_anim
p1949
a(lp1950
VtranslateX
p1951
aVtranslateY
p1952
aVtranslateZ
p1953
aVrotateX
p1954
aVrotateY
p1955
aVrotateZ
p1956
aaF0
aF0
aF0
aF0
aF0
aF0
aa(lp1957
Vforearm_plate_2_r_anim
p1958
a(lp1959
VtranslateX
p1960
aVtranslateY
p1961
aVtranslateZ
p1962
aVrotateX
p1963
aVrotateY
p1964
aVrotateZ
p1965
aaF0
aF0
aF0
aF0
aF0
aF0
aa(lp1966
Vorb_12_r_anim
p1967
a(lp1968
VtranslateX
p1969
aVtranslateY
p1970
aVtranslateZ
p1971
aVrotateX
p1972
aVrotateY
p1973
aVrotateZ
p1974
aaF0
aF0
aF0
aF0
aF0
aF0
aa(lp1975
Vorb_07_l_anim
p1976
a(lp1977
VtranslateX
p1978
aVtranslateY
p1979
aVtranslateZ
p1980
aVrotateX
p1981
aVrotateY
p1982
aVrotateZ
p1983
aaF0
aF0
aF0
aF0
aF0
aF0
aa(lp1984
Vorb_12_l_anim
p1985
a(lp1986
VtranslateX
p1987
aVtranslateY
p1988
aVtranslateZ
p1989
aVrotateX
p1990
aVrotateY
p1991
aVrotateZ
p1992
aaF0
aF0
aF0
aF0
aF0
aF0
aa(lp1993
Vorb_06_l_anim
p1994
a(lp1995
VtranslateX
p1996
aVtranslateY
p1997
aVtranslateZ
p1998
aVrotateX
p1999
aVrotateY
p2000
aVrotateZ
p2001
aaF0
aF0
aF0
aF0
aF0
aF0
aa(lp2002
Vorb_10_l_anim
p2003
a(lp2004
VtranslateX
p2005
aVtranslateY
p2006
aVtranslateZ
p2007
aVrotateX
p2008
aVrotateY
p2009
aVrotateZ
p2010
aaF0
aF0
aF0
aF0
aF0
aF0
aa(lp2011
Vsword_1_l_anim
p2012
a(lp2013
VtranslateX
p2014
aVtranslateY
p2015
aVtranslateZ
p2016
aVrotateX
p2017
aVrotateY
p2018
aVrotateZ
p2019
aaF1.9865532035398383
aF0.90721134833773809
aF8.1368880328061728
aF0
aF-2.4167470002801142e-09
aF0
aa(lp2020
Vorb_02_r_anim
p2021
a(lp2022
VtranslateX
p2023
aVtranslateY
p2024
aVtranslateZ
p2025
aVrotateX
p2026
aVrotateY
p2027
aVrotateZ
p2028
aaF0
aF0
aF0
aF0
aF0
aF0
aa(lp2029
Vorb_08_r_anim
p2030
a(lp2031
VtranslateX
p2032
aVtranslateY
p2033
aVtranslateZ
p2034
aVrotateX
p2035
aVrotateY
p2036
aVrotateZ
p2037
aaF0
aF0
aF0
aF0
aF0
aF0
aa(lp2038
Vbody_anim_space_switcher
p2039
a(lp2040
Vvisibility
p2041
aVtranslateX
p2042
aVtranslateY
p2043
aVtranslateZ
p2044
aVrotateX
p2045
aVrotateY
p2046
aVrotateZ
p2047
aVscaleX
p2048
aVscaleY
p2049
aVscaleZ
p2050
aVspace_world
p2051
aaI01
aF0
aF8.8817841970012523e-16
aF0
aF1.1034765745125394e-32
aF-2.8249000307521008e-30
aF0
aF1.0000000000000002
aF1.0000000000000002
aF1
aF0
aa(lp2052
Vchest_ik_anim_space_switcher
p2053
a(lp2054
Vvisibility
p2055
aVtranslateX
p2056
aVtranslateY
p2057
aVtranslateZ
p2058
aVrotateX
p2059
aVrotateY
p2060
aVrotateZ
p2061
aVscaleX
p2062
aVscaleY
p2063
aVscaleZ
p2064
aVspace_world
p2065
aVspace_chest_ik_world_aligned
p2066
aaI01
aF0
aF0
aF1.2621774483536189e-29
aF7.0622500768802538e-31
aF-0
aF0
aF1
aF1
aF1
aF0
aF0
aa(lp2067
Vdagger_1_l_space_switcher
p2068
a(lp2069
Vvisibility
p2070
aVtranslateX
p2071
aVtranslateY
p2072
aVtranslateZ
p2073
aVrotateX
p2074
aVrotateY
p2075
aVrotateZ
p2076
aVscaleX
p2077
aVscaleY
p2078
aVscaleZ
p2079
aVspace_world
p2080
aaI01
aF0
aF1.7763568394002505e-15
aF1.4210854715202004e-14
aF-1.5530052155583578e-18
aF-0
aF0
aF0.99999999999999989
aF1
aF0.99999999999999989
aF0
aa(lp2081
Vdagger_1_r_space_switcher
p2082
a(lp2083
Vvisibility
p2084
aVtranslateX
p2085
aVtranslateY
p2086
aVtranslateZ
p2087
aVrotateX
p2088
aVrotateY
p2089
aVrotateZ
p2090
aVscaleX
p2091
aVscaleY
p2092
aVscaleZ
p2093
aVspace_world
p2094
aaI01
aF0
aF8.8817841970012523e-16
aF-1.4210854715202004e-14
aF-9.3180312933501468e-18
aF1.987846675914698e-16
aF0
aF1
aF1
aF1
aF0
aa(lp2095
Vdagger_2_l_space_switcher
p2096
a(lp2097
Vvisibility
p2098
aVtranslateX
p2099
aVtranslateY
p2100
aVtranslateZ
p2101
aVrotateX
p2102
aVrotateY
p2103
aVrotateZ
p2104
aVscaleX
p2105
aVscaleY
p2106
aVscaleZ
p2107
aVspace_world
p2108
aaI01
aF0
aF1.7763568394002505e-15
aF1.4210854715202004e-14
aF-1.5530052155583578e-18
aF-0
aF0
aF0.99999999999999989
aF1
aF0.99999999999999989
aF0
aa(lp2109
Vdagger_2_r_space_switcher
p2110
a(lp2111
Vvisibility
p2112
aVtranslateX
p2113
aVtranslateY
p2114
aVtranslateZ
p2115
aVrotateX
p2116
aVrotateY
p2117
aVrotateZ
p2118
aVscaleX
p2119
aVscaleY
p2120
aVscaleZ
p2121
aVspace_world
p2122
aaI01
aF0
aF8.8817841970012523e-16
aF-1.4210854715202004e-14
aF-9.3180312933501468e-18
aF1.987846675914698e-16
aF0
aF1
aF1
aF1
aF0
aa(lp2123
Vdagger_3_l_space_switcher
p2124
a(lp2125
Vvisibility
p2126
aVtranslateX
p2127
aVtranslateY
p2128
aVtranslateZ
p2129
aVrotateX
p2130
aVrotateY
p2131
aVrotateZ
p2132
aVscaleX
p2133
aVscaleY
p2134
aVscaleZ
p2135
aVspace_world
p2136
aaI01
aF0
aF1.7763568394002505e-15
aF1.4210854715202004e-14
aF-1.5530052155583578e-18
aF-0
aF0
aF0.99999999999999989
aF1
aF0.99999999999999989
aF0
aa(lp2137
Vdagger_3_r_space_switcher
p2138
a(lp2139
Vvisibility
p2140
aVtranslateX
p2141
aVtranslateY
p2142
aVtranslateZ
p2143
aVrotateX
p2144
aVrotateY
p2145
aVrotateZ
p2146
aVscaleX
p2147
aVscaleY
p2148
aVscaleZ
p2149
aVspace_world
p2150
aaI01
aF0
aF8.8817841970012523e-16
aF-1.4210854715202004e-14
aF-9.3180312933501468e-18
aF1.987846675914698e-16
aF0
aF1
aF1
aF1
aF0
aa(lp2151
Vforearm_plate_1_l_space_switcher
p2152
a(lp2153
Vvisibility
p2154
aVtranslateX
p2155
aVtranslateY
p2156
aVtranslateZ
p2157
aVrotateX
p2158
aVrotateY
p2159
aVrotateZ
p2160
aVscaleX
p2161
aVscaleY
p2162
aVscaleZ
p2163
aVspace_world
p2164
aaI01
aF0
aF0
aF0
aF0
aF-0
aF-1.7393658414253607e-16
aF1
aF1.0000000000000002
aF1.0000000000000002
aF0
aa(lp2165
Vforearm_plate_1_r_space_switcher
p2166
a(lp2167
Vvisibility
p2168
aVtranslateX
p2169
aVtranslateY
p2170
aVtranslateZ
p2171
aVrotateX
p2172
aVrotateY
p2173
aVrotateZ
p2174
aVscaleX
p2175
aVscaleY
p2176
aVscaleZ
p2177
aVspace_world
p2178
aaI01
aF1.4210854715202004e-14
aF0
aF-2.8421709430404007e-14
aF0
aF-7.9513867036587939e-16
aF-9.9392333795734924e-17
aF0.99999999999999989
aF0.99999999999999989
aF1
aF0
aa(lp2179
Vforearm_plate_2_l_space_switcher
p2180
a(lp2181
Vvisibility
p2182
aVtranslateX
p2183
aVtranslateY
p2184
aVtranslateZ
p2185
aVrotateX
p2186
aVrotateY
p2187
aVrotateZ
p2188
aVscaleX
p2189
aVscaleY
p2190
aVscaleZ
p2191
aVspace_world
p2192
aaI01
aF0
aF0
aF0
aF3.975693351829395e-16
aF-0
aF-4.2241741863187335e-16
aF1
aF1.0000000000000002
aF1.0000000000000002
aF0
aa(lp2193
Vforearm_plate_2_r_space_switcher
p2194
a(lp2195
Vvisibility
p2196
aVtranslateX
p2197
aVtranslateY
p2198
aVtranslateZ
p2199
aVrotateX
p2200
aVrotateY
p2201
aVrotateZ
p2202
aVscaleX
p2203
aVscaleY
p2204
aVscaleZ
p2205
aVspace_world
p2206
aaI01
aF-1.4210854715202004e-14
aF-3.5527136788005009e-15
aF2.8421709430404007e-14
aF0
aF-7.9513867036587939e-16
aF-9.9392333795734924e-17
aF0.99999999999999989
aF0.99999999999999989
aF1
aF0
aa(lp2207
Vforearm_plate_3_l_space_switcher
p2208
a(lp2209
Vvisibility
p2210
aVtranslateX
p2211
aVtranslateY
p2212
aVtranslateZ
p2213
aVrotateX
p2214
aVrotateY
p2215
aVrotateZ
p2216
aVscaleX
p2217
aVscaleY
p2218
aVscaleZ
p2219
aVspace_world
p2220
aaI01
aF-1.4210854715202004e-14
aF0
aF0
aF0
aF-0
aF-7.4544250346801199e-17
aF0.99999999999999989
aF0.99999999999999978
aF0.99999999999999978
aF0
aa(lp2221
Vforearm_plate_3_r_space_switcher
p2222
a(lp2223
Vvisibility
p2224
aVtranslateX
p2225
aVtranslateY
p2226
aVtranslateZ
p2227
aVrotateX
p2228
aVrotateY
p2229
aVrotateZ
p2230
aVscaleX
p2231
aVscaleY
p2232
aVscaleZ
p2233
aVspace_world
p2234
aaI01
aF0
aF0
aF-2.8421709430404007e-14
aF-3.975693351829396e-16
aF-7.9513867036587919e-16
aF-5.2180975242760824e-16
aF1
aF1
aF0.99999999999999989
aF0
aa(lp2235
Vik_elbow_l_anim_space_switcher
p2236
a(lp2237
Vvisibility
p2238
aVtranslateX
p2239
aVtranslateY
p2240
aVtranslateZ
p2241
aVrotateX
p2242
aVrotateY
p2243
aVrotateZ
p2244
aVscaleX
p2245
aVscaleY
p2246
aVscaleZ
p2247
aVspace_world
p2248
aVspace_body_anim
p2249
aVspace_chest_ik_anim
p2250
aaI00
aF0
aF0
aF0
aF0
aF0
aF0
aF1
aF1
aF1
aF0
aF0
aF0
aa(lp2251
Vik_elbow_r_anim_space_switcher
p2252
a(lp2253
Vvisibility
p2254
aVtranslateX
p2255
aVtranslateY
p2256
aVtranslateZ
p2257
aVrotateX
p2258
aVrotateY
p2259
aVrotateZ
p2260
aVscaleX
p2261
aVscaleY
p2262
aVscaleZ
p2263
aVspace_world
p2264
aVspace_body_anim
p2265
aVspace_chest_ik_anim
p2266
aaI00
aF0
aF0
aF0
aF0
aF0
aF0
aF1
aF1
aF1
aF0
aF0
aF0
aa(lp2267
Vik_foot_anim_l_space_switcher
p2268
a(lp2269
Vvisibility
p2270
aVtranslateX
p2271
aVtranslateY
p2272
aVtranslateZ
p2273
aVrotateX
p2274
aVrotateY
p2275
aVrotateZ
p2276
aVscaleX
p2277
aVscaleY
p2278
aVscaleZ
p2279
aVspace_world
p2280
aVspace_body_anim
p2281
aaI01
aF0
aF0
aF0
aF0
aF0
aF0
aF1
aF1
aF1
aF0
aF0
aa(lp2282
Vik_foot_anim_r_space_switcher
p2283
a(lp2284
Vvisibility
p2285
aVtranslateX
p2286
aVtranslateY
p2287
aVtranslateZ
p2288
aVrotateX
p2289
aVrotateY
p2290
aVrotateZ
p2291
aVscaleX
p2292
aVscaleY
p2293
aVscaleZ
p2294
aVspace_world
p2295
aVspace_body_anim
p2296
aaI01
aF0
aF0
aF0
aF0
aF0
aF0
aF1
aF1
aF1
aF0
aF0
aa(lp2297
Vik_wrist_l_anim_space_switcher
p2298
a(lp2299
Vvisibility
p2300
aVtranslateX
p2301
aVtranslateY
p2302
aVtranslateZ
p2303
aVrotateX
p2304
aVrotateY
p2305
aVrotateZ
p2306
aVscaleX
p2307
aVscaleY
p2308
aVscaleZ
p2309
aVspace_world
p2310
aVspace_body_anim
p2311
aVspace_head_fk_anim
p2312
aVspace_chest_ik_anim
p2313
aaI00
aF0
aF0
aF0
aF0
aF0
aF0
aF1
aF1
aF1
aF0
aF0
aF0
aF0
aa(lp2314
Vik_wrist_r_anim_space_switcher
p2315
a(lp2316
Vvisibility
p2317
aVtranslateX
p2318
aVtranslateY
p2319
aVtranslateZ
p2320
aVrotateX
p2321
aVrotateY
p2322
aVrotateZ
p2323
aVscaleX
p2324
aVscaleY
p2325
aVscaleZ
p2326
aVspace_world
p2327
aVspace_body_anim
p2328
aVspace_head_fk_anim
p2329
aVspace_chest_ik_anim
p2330
aaI00
aF0
aF0
aF0
aF0
aF0
aF0
aF1
aF1
aF1
aF0
aF0
aF0
aF0
aa(lp2331
Vl_global_ik_anim_space_switcher
p2332
a(lp2333
Vvisibility
p2334
aVtranslateX
p2335
aVtranslateY
p2336
aVtranslateZ
p2337
aVrotateX
p2338
aVrotateY
p2339
aVrotateZ
p2340
aVscaleX
p2341
aVscaleY
p2342
aVscaleZ
p2343
aVspace_world
p2344
aaI01
aF0
aF0
aF0
aF0
aF0
aF0
aF1
aF1
aF1
aF0
aa(lp2345
Vmaster_anim_space_switcher
p2346
a(lp2347
Vvisibility
p2348
aVtranslateX
p2349
aVtranslateY
p2350
aVtranslateZ
p2351
aVrotateX
p2352
aVrotateY
p2353
aVrotateZ
p2354
aVscaleX
p2355
aVscaleY
p2356
aVscaleZ
p2357
aVspace_world
p2358
aaI01
aF0
aF0
aF0
aF0
aF0
aF0
aF1
aF1
aF1
aF0
aa(lp2359
Vorb_01_l_space_switcher
p2360
a(lp2361
Vvisibility
p2362
aVtranslateX
p2363
aVtranslateY
p2364
aVtranslateZ
p2365
aVrotateX
p2366
aVrotateY
p2367
aVrotateZ
p2368
aVscaleX
p2369
aVscaleY
p2370
aVscaleZ
p2371
aVspace_world
p2372
aaI01
aF2.4726765337367089
aF-11.820327104883123
aF10.32622142932567
aF-5.5400054378231482
aF0.3667109900155201
aF1.5961562786716916
aF1
aF1
aF1
aF0
aa(lp2373
Vorb_01_r_space_switcher
p2374
a(lp2375
Vvisibility
p2376
aVtranslateX
p2377
aVtranslateY
p2378
aVtranslateZ
p2379
aVrotateX
p2380
aVrotateY
p2381
aVrotateZ
p2382
aVscaleX
p2383
aVscaleY
p2384
aVscaleZ
p2385
aVspace_world
p2386
aaI01
aF2.4726765337367089
aF-11.820327104883123
aF10.32622142932567
aF-5.5400054378231482
aF0.3667109900155201
aF1.5961562786716916
aF1
aF1
aF1
aF0
aa(lp2387
Vorb_02_l_space_switcher
p2388
a(lp2389
Vvisibility
p2390
aVtranslateX
p2391
aVtranslateY
p2392
aVtranslateZ
p2393
aVrotateX
p2394
aVrotateY
p2395
aVrotateZ
p2396
aVscaleX
p2397
aVscaleY
p2398
aVscaleZ
p2399
aVspace_world
p2400
aaI01
aF2.4726765337367089
aF-11.820327104883123
aF10.32622142932567
aF-5.5400054378231482
aF0.3667109900155201
aF1.5961562786716916
aF1
aF1
aF1
aF0
aa(lp2401
Vorb_02_r_space_switcher
p2402
a(lp2403
Vvisibility
p2404
aVtranslateX
p2405
aVtranslateY
p2406
aVtranslateZ
p2407
aVrotateX
p2408
aVrotateY
p2409
aVrotateZ
p2410
aVscaleX
p2411
aVscaleY
p2412
aVscaleZ
p2413
aVspace_world
p2414
aaI01
aF2.4726765337367089
aF-11.820327104883123
aF10.32622142932567
aF-5.5400054378231482
aF0.3667109900155201
aF1.5961562786716916
aF1
aF1
aF1
aF0
aa(lp2415
Vorb_03_l_space_switcher
p2416
a(lp2417
Vvisibility
p2418
aVtranslateX
p2419
aVtranslateY
p2420
aVtranslateZ
p2421
aVrotateX
p2422
aVrotateY
p2423
aVrotateZ
p2424
aVscaleX
p2425
aVscaleY
p2426
aVscaleZ
p2427
aVspace_world
p2428
aaI01
aF2.4726765337367089
aF-11.820327104883123
aF10.32622142932567
aF-5.5400054378231482
aF0.3667109900155201
aF1.5961562786716916
aF1
aF1
aF1
aF0
aa(lp2429
Vorb_03_r_space_switcher
p2430
a(lp2431
Vvisibility
p2432
aVtranslateX
p2433
aVtranslateY
p2434
aVtranslateZ
p2435
aVrotateX
p2436
aVrotateY
p2437
aVrotateZ
p2438
aVscaleX
p2439
aVscaleY
p2440
aVscaleZ
p2441
aVspace_world
p2442
aaI01
aF2.4726765337367089
aF-11.820327104883123
aF10.32622142932567
aF-5.5400054378231482
aF0.3667109900155201
aF1.5961562786716916
aF1
aF1
aF1
aF0
aa(lp2443
Vorb_04_l_space_switcher
p2444
a(lp2445
Vvisibility
p2446
aVtranslateX
p2447
aVtranslateY
p2448
aVtranslateZ
p2449
aVrotateX
p2450
aVrotateY
p2451
aVrotateZ
p2452
aVscaleX
p2453
aVscaleY
p2454
aVscaleZ
p2455
aVspace_world
p2456
aaI01
aF2.4726765337367089
aF-11.820327104883123
aF10.32622142932567
aF-5.5400054378231482
aF0.3667109900155201
aF1.5961562786716916
aF1
aF1
aF1
aF0
aa(lp2457
Vorb_04_r_space_switcher
p2458
a(lp2459
Vvisibility
p2460
aVtranslateX
p2461
aVtranslateY
p2462
aVtranslateZ
p2463
aVrotateX
p2464
aVrotateY
p2465
aVrotateZ
p2466
aVscaleX
p2467
aVscaleY
p2468
aVscaleZ
p2469
aVspace_world
p2470
aaI01
aF2.4726765337367089
aF-11.820327104883123
aF10.32622142932567
aF-5.5400054378231482
aF0.3667109900155201
aF1.5961562786716916
aF1
aF1
aF1
aF0
aa(lp2471
Vorb_05_l_space_switcher
p2472
a(lp2473
Vvisibility
p2474
aVtranslateX
p2475
aVtranslateY
p2476
aVtranslateZ
p2477
aVrotateX
p2478
aVrotateY
p2479
aVrotateZ
p2480
aVscaleX
p2481
aVscaleY
p2482
aVscaleZ
p2483
aVspace_world
p2484
aaI01
aF2.4726765337367089
aF-11.820327104883123
aF10.32622142932567
aF-5.5400054378231482
aF0.3667109900155201
aF1.5961562786716916
aF1
aF1
aF1
aF0
aa(lp2485
Vorb_05_r_space_switcher
p2486
a(lp2487
Vvisibility
p2488
aVtranslateX
p2489
aVtranslateY
p2490
aVtranslateZ
p2491
aVrotateX
p2492
aVrotateY
p2493
aVrotateZ
p2494
aVscaleX
p2495
aVscaleY
p2496
aVscaleZ
p2497
aVspace_world
p2498
aaI01
aF2.4726765337367089
aF-11.820327104883123
aF10.32622142932567
aF-5.5400054378231482
aF0.3667109900155201
aF1.5961562786716916
aF1
aF1
aF1
aF0
aa(lp2499
Vorb_06_l_space_switcher
p2500
a(lp2501
Vvisibility
p2502
aVtranslateX
p2503
aVtranslateY
p2504
aVtranslateZ
p2505
aVrotateX
p2506
aVrotateY
p2507
aVrotateZ
p2508
aVscaleX
p2509
aVscaleY
p2510
aVscaleZ
p2511
aVspace_world
p2512
aaI01
aF2.4726765337367089
aF-11.820327104883123
aF10.32622142932567
aF-5.5400054378231482
aF0.3667109900155201
aF1.5961562786716916
aF1
aF1
aF1
aF0
aa(lp2513
Vorb_06_r_space_switcher
p2514
a(lp2515
Vvisibility
p2516
aVtranslateX
p2517
aVtranslateY
p2518
aVtranslateZ
p2519
aVrotateX
p2520
aVrotateY
p2521
aVrotateZ
p2522
aVscaleX
p2523
aVscaleY
p2524
aVscaleZ
p2525
aVspace_world
p2526
aaI01
aF2.4726765337367089
aF-11.820327104883123
aF10.32622142932567
aF-5.5400054378231482
aF0.3667109900155201
aF1.5961562786716916
aF1
aF1
aF1
aF0
aa(lp2527
Vorb_07_l_space_switcher
p2528
a(lp2529
Vvisibility
p2530
aVtranslateX
p2531
aVtranslateY
p2532
aVtranslateZ
p2533
aVrotateX
p2534
aVrotateY
p2535
aVrotateZ
p2536
aVscaleX
p2537
aVscaleY
p2538
aVscaleZ
p2539
aVspace_world
p2540
aaI01
aF2.4726765337367089
aF-11.820327104883123
aF10.32622142932567
aF-5.5400054378231482
aF0.3667109900155201
aF1.5961562786716916
aF1
aF1
aF1
aF0
aa(lp2541
Vorb_07_r_space_switcher
p2542
a(lp2543
Vvisibility
p2544
aVtranslateX
p2545
aVtranslateY
p2546
aVtranslateZ
p2547
aVrotateX
p2548
aVrotateY
p2549
aVrotateZ
p2550
aVscaleX
p2551
aVscaleY
p2552
aVscaleZ
p2553
aVspace_world
p2554
aaI01
aF2.4726765337367089
aF-11.820327104883123
aF10.32622142932567
aF-5.5400054378231482
aF0.3667109900155201
aF1.5961562786716916
aF1
aF1
aF1
aF0
aa(lp2555
Vorb_08_l_space_switcher
p2556
a(lp2557
Vvisibility
p2558
aVtranslateX
p2559
aVtranslateY
p2560
aVtranslateZ
p2561
aVrotateX
p2562
aVrotateY
p2563
aVrotateZ
p2564
aVscaleX
p2565
aVscaleY
p2566
aVscaleZ
p2567
aVspace_world
p2568
aaI01
aF2.4726765337367089
aF-11.820327104883123
aF10.32622142932567
aF-5.5400054378231482
aF0.3667109900155201
aF1.5961562786716916
aF1
aF1
aF1
aF0
aa(lp2569
Vorb_08_r_space_switcher
p2570
a(lp2571
Vvisibility
p2572
aVtranslateX
p2573
aVtranslateY
p2574
aVtranslateZ
p2575
aVrotateX
p2576
aVrotateY
p2577
aVrotateZ
p2578
aVscaleX
p2579
aVscaleY
p2580
aVscaleZ
p2581
aVspace_world
p2582
aaI01
aF2.4726765337367089
aF-11.820327104883123
aF10.32622142932567
aF-5.5400054378231482
aF0.3667109900155201
aF1.5961562786716916
aF1
aF1
aF1
aF0
aa(lp2583
Vorb_09_l_space_switcher
p2584
a(lp2585
Vvisibility
p2586
aVtranslateX
p2587
aVtranslateY
p2588
aVtranslateZ
p2589
aVrotateX
p2590
aVrotateY
p2591
aVrotateZ
p2592
aVscaleX
p2593
aVscaleY
p2594
aVscaleZ
p2595
aVspace_world
p2596
aaI01
aF2.4726765337367089
aF-11.820327104883123
aF10.32622142932567
aF-5.5400054378231482
aF0.3667109900155201
aF1.5961562786716916
aF1
aF1
aF1
aF0
aa(lp2597
Vorb_09_r_space_switcher
p2598
a(lp2599
Vvisibility
p2600
aVtranslateX
p2601
aVtranslateY
p2602
aVtranslateZ
p2603
aVrotateX
p2604
aVrotateY
p2605
aVrotateZ
p2606
aVscaleX
p2607
aVscaleY
p2608
aVscaleZ
p2609
aVspace_world
p2610
aaI01
aF2.4726765337367089
aF-11.820327104883123
aF10.32622142932567
aF-5.5400054378231482
aF0.3667109900155201
aF1.5961562786716916
aF1
aF1
aF1
aF0
aa(lp2611
Vorb_10_l_space_switcher
p2612
a(lp2613
Vvisibility
p2614
aVtranslateX
p2615
aVtranslateY
p2616
aVtranslateZ
p2617
aVrotateX
p2618
aVrotateY
p2619
aVrotateZ
p2620
aVscaleX
p2621
aVscaleY
p2622
aVscaleZ
p2623
aVspace_world
p2624
aaI01
aF2.4726765337367089
aF-11.820327104883123
aF10.32622142932567
aF-5.5400054378231482
aF0.3667109900155201
aF1.5961562786716916
aF1
aF1
aF1
aF0
aa(lp2625
Vorb_10_r_space_switcher
p2626
a(lp2627
Vvisibility
p2628
aVtranslateX
p2629
aVtranslateY
p2630
aVtranslateZ
p2631
aVrotateX
p2632
aVrotateY
p2633
aVrotateZ
p2634
aVscaleX
p2635
aVscaleY
p2636
aVscaleZ
p2637
aVspace_world
p2638
aaI01
aF2.4726765337367089
aF-11.820327104883123
aF10.32622142932567
aF-5.5400054378231482
aF0.3667109900155201
aF1.5961562786716916
aF1
aF1
aF1
aF0
aa(lp2639
Vorb_11_l_space_switcher
p2640
a(lp2641
Vvisibility
p2642
aVtranslateX
p2643
aVtranslateY
p2644
aVtranslateZ
p2645
aVrotateX
p2646
aVrotateY
p2647
aVrotateZ
p2648
aVscaleX
p2649
aVscaleY
p2650
aVscaleZ
p2651
aVspace_world
p2652
aaI01
aF2.4726765337367089
aF-11.820327104883123
aF10.32622142932567
aF-5.5400054378231482
aF0.3667109900155201
aF1.5961562786716916
aF1
aF1
aF1
aF0
aa(lp2653
Vorb_11_r_space_switcher
p2654
a(lp2655
Vvisibility
p2656
aVtranslateX
p2657
aVtranslateY
p2658
aVtranslateZ
p2659
aVrotateX
p2660
aVrotateY
p2661
aVrotateZ
p2662
aVscaleX
p2663
aVscaleY
p2664
aVscaleZ
p2665
aVspace_world
p2666
aaI01
aF2.4726765337367089
aF-11.820327104883123
aF10.32622142932567
aF-5.5400054378231482
aF0.3667109900155201
aF1.5961562786716916
aF1
aF1
aF1
aF0
aa(lp2667
Vorb_12_l_space_switcher
p2668
a(lp2669
Vvisibility
p2670
aVtranslateX
p2671
aVtranslateY
p2672
aVtranslateZ
p2673
aVrotateX
p2674
aVrotateY
p2675
aVrotateZ
p2676
aVscaleX
p2677
aVscaleY
p2678
aVscaleZ
p2679
aVspace_world
p2680
aaI01
aF2.4726765337367089
aF-11.820327104883123
aF10.32622142932567
aF-5.5400054378231482
aF0.3667109900155201
aF1.5961562786716916
aF1
aF1
aF1
aF0
aa(lp2681
Vorb_12_r_space_switcher
p2682
a(lp2683
Vvisibility
p2684
aVtranslateX
p2685
aVtranslateY
p2686
aVtranslateZ
p2687
aVrotateX
p2688
aVrotateY
p2689
aVrotateZ
p2690
aVscaleX
p2691
aVscaleY
p2692
aVscaleZ
p2693
aVspace_world
p2694
aaI01
aF2.4726765337367089
aF-11.820327104883123
aF10.32622142932567
aF-5.5400054378231482
aF0.3667109900155201
aF1.5961562786716916
aF1
aF1
aF1
aF0
aa(lp2695
Vorb_13_l_space_switcher
p2696
a(lp2697
Vvisibility
p2698
aVtranslateX
p2699
aVtranslateY
p2700
aVtranslateZ
p2701
aVrotateX
p2702
aVrotateY
p2703
aVrotateZ
p2704
aVscaleX
p2705
aVscaleY
p2706
aVscaleZ
p2707
aVspace_world
p2708
aaI01
aF2.4726765337367089
aF-11.820327104883123
aF10.32622142932567
aF-5.5400054378231482
aF0.3667109900155201
aF1.5961562786716916
aF1
aF1
aF1
aF0
aa(lp2709
Vorb_13_r_space_switcher
p2710
a(lp2711
Vvisibility
p2712
aVtranslateX
p2713
aVtranslateY
p2714
aVtranslateZ
p2715
aVrotateX
p2716
aVrotateY
p2717
aVrotateZ
p2718
aVscaleX
p2719
aVscaleY
p2720
aVscaleZ
p2721
aVspace_world
p2722
aaI01
aF2.4726765337367089
aF-11.820327104883123
aF10.32622142932567
aF-5.5400054378231482
aF0.3667109900155201
aF1.5961562786716916
aF1
aF1
aF1
aF0
aa(lp2723
Vorb_14_l_space_switcher
p2724
a(lp2725
Vvisibility
p2726
aVtranslateX
p2727
aVtranslateY
p2728
aVtranslateZ
p2729
aVrotateX
p2730
aVrotateY
p2731
aVrotateZ
p2732
aVscaleX
p2733
aVscaleY
p2734
aVscaleZ
p2735
aVspace_world
p2736
aaI01
aF2.4726765337367089
aF-11.820327104883123
aF10.32622142932567
aF-5.5400054378231482
aF0.3667109900155201
aF1.5961562786716916
aF1
aF1
aF1
aF0
aa(lp2737
Vorb_14_r_space_switcher
p2738
a(lp2739
Vvisibility
p2740
aVtranslateX
p2741
aVtranslateY
p2742
aVtranslateZ
p2743
aVrotateX
p2744
aVrotateY
p2745
aVrotateZ
p2746
aVscaleX
p2747
aVscaleY
p2748
aVscaleZ
p2749
aVspace_world
p2750
aaI01
aF2.4726765337367089
aF-11.820327104883123
aF10.32622142932567
aF-5.5400054378231482
aF0.3667109900155201
aF1.5961562786716916
aF1
aF1
aF1
aF0
aa(lp2751
Vr_global_ik_anim_space_switcher
p2752
a(lp2753
Vvisibility
p2754
aVtranslateX
p2755
aVtranslateY
p2756
aVtranslateZ
p2757
aVrotateX
p2758
aVrotateY
p2759
aVrotateZ
p2760
aVscaleX
p2761
aVscaleY
p2762
aVscaleZ
p2763
aVspace_world
p2764
aaI01
aF0
aF0
aF0
aF0
aF0
aF0
aF1
aF1
aF1
aF0
aa(lp2765
Vspine_01_space_switcher
p2766
a(lp2767
Vvisibility
p2768
aVtranslateX
p2769
aVtranslateY
p2770
aVtranslateZ
p2771
aVrotateX
p2772
aVrotateY
p2773
aVrotateZ
p2774
aVscaleX
p2775
aVscaleY
p2776
aVscaleZ
p2777
aVspace_world
p2778
aaI01
aF0
aF0
aF2.5243548967072378e-29
aF0
aF-5.649800061504203e-30
aF0
aF1
aF1
aF1
aF0
aa(lp2779
Vsword_1_l_space_switcher
p2780
a(lp2781
Vvisibility
p2782
aVtranslateX
p2783
aVtranslateY
p2784
aVtranslateZ
p2785
aVrotateX
p2786
aVrotateY
p2787
aVrotateZ
p2788
aVscaleX
p2789
aVscaleY
p2790
aVscaleZ
p2791
aVspace_world
p2792
aaI01
aF0
aF-1.8873791418627661e-15
aF-1.4210854715202004e-14
aF0
aF1.5902773407317588e-15
aF-3.9756933518293969e-16
aF0.99999999999999989
aF0.99999999999999989
aF1
aF0
aa(lp2793
Vsword_1_r_space_switcher
p2794
a(lp2795
Vvisibility
p2796
aVtranslateX
p2797
aVtranslateY
p2798
aVtranslateZ
p2799
aVrotateX
p2800
aVrotateY
p2801
aVrotateZ
p2802
aVscaleX
p2803
aVscaleY
p2804
aVscaleZ
p2805
aVspace_world
p2806
aaI01
aF-2.8421709430404007e-14
aF7.7715611723760958e-16
aF1.4210854715202004e-14
aF0
aF-0
aF3.9756933518293969e-16
aF0.99999999999999989
aF0.99999999999999978
aF0.99999999999999989
aF0
aa(lp2807
Vsword_2_l_space_switcher
p2808
a(lp2809
Vvisibility
p2810
aVtranslateX
p2811
aVtranslateY
p2812
aVtranslateZ
p2813
aVrotateX
p2814
aVrotateY
p2815
aVrotateZ
p2816
aVscaleX
p2817
aVscaleY
p2818
aVscaleZ
p2819
aVspace_world
p2820
aaI01
aF2.8421709430404007e-14
aF0
aF-4.2632564145606011e-14
aF0
aF1.5902773407317584e-15
aF0
aF1
aF1
aF1.0000000000000002
aF0
aa(lp2821
Vsword_2_r_space_switcher
p2822
a(lp2823
Vvisibility
p2824
aVtranslateX
p2825
aVtranslateY
p2826
aVtranslateZ
p2827
aVrotateX
p2828
aVrotateY
p2829
aVrotateZ
p2830
aVscaleX
p2831
aVscaleY
p2832
aVscaleZ
p2833
aVspace_world
p2834
aaI01
aF0
aF0
aF-1.4210854715202004e-14
aF9.9392333795734899e-17
aF-0
aF0
aF1
aF1
aF1
aF0
aa(lp2835
Vweapon_l_space_switcher
p2836
a(lp2837
Vvisibility
p2838
aVtranslateX
p2839
aVtranslateY
p2840
aVtranslateZ
p2841
aVrotateX
p2842
aVrotateY
p2843
aVrotateZ
p2844
aVscaleX
p2845
aVscaleY
p2846
aVscaleZ
p2847
aVspace_world
p2848
aaI01
aF0
aF2.8421709430404007e-14
aF1.7763568394002505e-15
aF0
aF-3.4942617350063047e-18
aF1.2424041724466859e-17
aF1.0000000000000002
aF1.0000000000000002
aF1.0000000000000002
aF0
aa(lp2849
Vweapon_r_space_switcher
p2850
a(lp2851
Vvisibility
p2852
aVtranslateX
p2853
aVtranslateY
p2854
aVtranslateZ
p2855
aVrotateX
p2856
aVrotateY
p2857
aVrotateZ
p2858
aVscaleX
p2859
aVscaleY
p2860
aVscaleZ
p2861
aVspace_world
p2862
aaI01
aF0
aF-2.8421709430404007e-14
aF0
aF0
aF1.8441936934755498e-18
aF-1.2424041724466862e-17
aF1
aF1
aF1
aF0
aa.