(lp1
(lp2
S'head_fk_anim'
p3
a(lp4
VtranslateX
p5
aVtranslateY
p6
aVtranslateZ
p7
aVrotateX
p8
aVrotateY
p9
aVrotateZ
p10
aVscaleX
p11
aVscaleY
p12
aVscaleZ
p13
aVfkOrientation
p14
aaF0
aF0
aF0
aF6.987124594245393
aF-0.9589250845653402
aF40.420167477053838
aF1
aF1
aF1
aI0
aa(lp15
S'neck_01_fk_anim'
p16
a(lp17
VtranslateX
p18
aVtranslateY
p19
aVtranslateZ
p20
aVrotateX
p21
aVrotateY
p22
aVrotateZ
p23
aVscaleX
p24
aVscaleY
p25
aVscaleZ
p26
aVfkOrientation
p27
aaF0
aF-7.1054273576010019e-15
aF0
aF10.157013934602185
aF27.433648706533088
aF13.913655355836347
aF1
aF1
aF0.99999999999999978
aI0
aa(lp28
S'spine_01_anim'
p29
a(lp30
Vlength
p31
aVtranslateY
p32
aVtranslateZ
p33
aVrotateX
p34
aVrotateY
p35
aVrotateZ
p36
aaF0
aF0
aF0
aF0
aF0
aF-13.397617839115302
aa(lp37
S'spine_02_anim'
p38
a(lp39
Vlength
p40
aVtranslateY
p41
aVtranslateZ
p42
aVrotateX
p43
aVrotateY
p44
aVrotateZ
p45
aaF0
aF0
aF0
aF1.220334718986922
aF3.0884960765095038
aF-20.955097037568368
aa(lp46
S'spine_03_anim'
p47
a(lp48
Vlength
p49
aVtranslateY
p50
aVtranslateZ
p51
aVrotateX
p52
aVrotateY
p53
aVrotateZ
p54
aaF0
aF0
aF0
aF-3.1095927483543955
aF1.0612580114206465
aF-9.032015568418382
aa(lp55
S'mid_ik_anim'
p56
a(lp57
VtranslateX
p58
aVtranslateY
p59
aVtranslateZ
p60
aVrotateX
p61
aVrotateY
p62
aVrotateZ
p63
aaF0
aF0
aF0
aF0
aF0
aF0
aa(lp64
S'chest_ik_anim'
p65
a(lp66
VtranslateX
p67
aVtranslateY
p68
aVtranslateZ
p69
aVrotateX
p70
aVrotateY
p71
aVrotateZ
p72
aVstretch
p73
aVsquash
p74
aVtwist_amount
p75
aVspine_01_twistAmount
p76
aVspine_02_twistAmount
p77
aVautoSpine
p78
aVrotationInfluence
p79
aaF0
aF0
aF0
aF0
aF0
aF0
aF0
aF0
aF1
aF0.33333333333333331
aF0.66666666666666663
aF0
aF0.25
aa(lp80
S'body_anim'
p81
a(lp82
VtranslateX
p83
aVtranslateY
p84
aVtranslateZ
p85
aVrotateX
p86
aVrotateY
p87
aVrotateZ
p88
aVl_vent_open
p89
aVr_vent_open
p90
aVl_unit_deploy
p91
aVr_unit_deploy
p92
aVl_ventA_deploy
p93
aVl_ventB_deploy
p94
aVl_ventC_deploy
p95
aVr_ventA_deploy
p96
aVr_ventB_deploy
p97
aVr_ventC_deploy
p98
aaF-29.572645559581094
aF-4.8335457277981417
aF-4.323757104464347
aF-33.68395130916462
aF4.8012825693995822
aF-19.727914748898215
aF0
aF0
aF0
aF0
aF0
aF0
aF0
aF0
aF0
aF0
aa(lp99
S'hip_anim'
p100
a(lp101
VtranslateX
p102
aVtranslateY
p103
aVtranslateZ
p104
aVrotateX
p105
aVrotateY
p106
aVrotateZ
p107
aVlTwistCtrlVis
p108
aVlCalfTwistCtrlVis
p109
aVrTwistCtrlVis
p110
aVrCalfTwistCtrlVis
p111
aVautoHips
p112
aaF0
aF8.8817841970012523e-16
aF1.2621774483536189e-29
aF2.4834672546596877
aF-8.7847641620463133
aF-4.6571998658308011
aI00
aI00
aI00
aI00
aF0
aa(lp113
S'clavicle_l_anim'
p114
a(lp115
VtranslateX
p116
aVtranslateY
p117
aVtranslateZ
p118
aVautoShoulders
p119
aVtwistCtrlVis
p120
aaF-0.025531230079380407
aF5.2389233578132739
aF5.7013404021901959
aF0
aI00
aa(lp121
S'clavicle_r_anim'
p122
a(lp123
VtranslateX
p124
aVtranslateY
p125
aVtranslateZ
p126
aVautoShoulders
p127
aVtwistCtrlVis
p128
aaF0.033541518294835315
aF7.0619887116881577
aF7.8868009046550025
aF0
aI00
aa(lp129
S'fk_arm_l_anim'
p130
a(lp131
VtranslateX
p132
aVtranslateY
p133
aVtranslateZ
p134
aVrotateX
p135
aVrotateY
p136
aVrotateZ
p137
aaF0
aF0
aF0
aF0
aF0
aF0
aa(lp138
S'fk_arm_r_anim'
p139
a(lp140
VtranslateX
p141
aVtranslateY
p142
aVtranslateZ
p143
aVrotateX
p144
aVrotateY
p145
aVrotateZ
p146
aaF0
aF0
aF0
aF0
aF0
aF0
aa(lp147
S'fk_elbow_l_anim'
p148
a(lp149
VtranslateX
p150
aVtranslateY
p151
aVtranslateZ
p152
aVrotateX
p153
aVrotateY
p154
aVrotateZ
p155
aaF0
aF0
aF0
aF0
aF0
aF0
aa(lp156
S'fk_elbow_r_anim'
p157
a(lp158
VtranslateX
p159
aVtranslateY
p160
aVtranslateZ
p161
aVrotateX
p162
aVrotateY
p163
aVrotateZ
p164
aaF0
aF0
aF0
aF0
aF0
aF0
aa(lp165
S'fk_wrist_l_anim'
p166
a(lp167
VtranslateX
p168
aVtranslateY
p169
aVtranslateZ
p170
aVrotateX
p171
aVrotateY
p172
aVrotateZ
p173
aaF0
aF0
aF0
aF0
aF0
aF0
aa(lp174
S'fk_wrist_r_anim'
p175
a(lp176
VtranslateX
p177
aVtranslateY
p178
aVtranslateZ
p179
aVrotateX
p180
aVrotateY
p181
aVrotateZ
p182
aaF0
aF0
aF0
aF0
aF0
aF0
aa(lp183
S'ik_elbow_l_anim'
p184
a(lp185
VtranslateX
p186
aVtranslateY
p187
aVtranslateZ
p188
aaF13.285838816225095
aF-52.142761964402752
aF-42.820560423573681
aa(lp189
S'ik_elbow_r_anim'
p190
a(lp191
VtranslateX
p192
aVtranslateY
p193
aVtranslateZ
p194
aaF16.608815542476947
aF15.459392919759285
aF-4.7819153273401156
aa(lp195
S'ik_wrist_l_anim'
p196
a(lp197
VtranslateX
p198
aVtranslateY
p199
aVtranslateZ
p200
aVrotateX
p201
aVrotateY
p202
aVrotateZ
p203
aVstretch
p204
aVsquash
p205
aVside
p206
aVmid_bend
p207
aVmid_swivel
p208
aVtip_pivot
p209
aVtip_swivel
p210
aaF-78.610024966816468
aF-91.814179135218978
aF-109.17853576154296
aF50.441137018334125
aF66.921639684640354
aF-19.68449334265846
aF0
aF0
aF0
aF0
aF0
aF0
aF0
aa(lp211
S'ik_wrist_r_anim'
p212
a(lp213
VtranslateX
p214
aVtranslateY
p215
aVtranslateZ
p216
aVrotateX
p217
aVrotateY
p218
aVrotateZ
p219
aVstretch
p220
aVsquash
p221
aVside
p222
aVmid_bend
p223
aVmid_swivel
p224
aVtip_pivot
p225
aVtip_swivel
p226
aaF52.798961202242211
aF31.486267373772307
aF-71.508624635530467
aF19.761511953186933
aF-45.362915473965209
aF-110.91015314924677
aF0
aF0
aF0
aF0
aF0
aF0
aF0
aa(lp227
S'fk_thigh_l_anim'
p228
a(lp229
VrotateX
p230
aVrotateY
p231
aVrotateZ
p232
aaF0
aF0
aF0
aa(lp233
S'fk_thigh_r_anim'
p234
a(lp235
VrotateX
p236
aVrotateY
p237
aVrotateZ
p238
aaF0
aF0
aF0
aa(lp239
S'fk_calf_l_anim'
p240
a(lp241
VrotateX
p242
aVrotateY
p243
aVrotateZ
p244
aaF0
aF0
aF0
aa(lp245
S'fk_calf_r_anim'
p246
a(lp247
VrotateX
p248
aVrotateY
p249
aVrotateZ
p250
aaF0
aF0
aF0
aa(lp251
S'fk_foot_l_anim'
p252
a(lp253
VrotateX
p254
aVrotateY
p255
aVrotateZ
p256
aaF0
aF0
aF0
aa(lp257
S'fk_foot_r_anim'
p258
a(lp259
VrotateX
p260
aVrotateY
p261
aVrotateZ
p262
aaF0
aF0
aF0
aa(lp263
S'fk_ball_l_anim'
p264
a(lp265
VrotateX
p266
aVrotateY
p267
aVrotateZ
p268
aaF0
aF0
aF0
aa(lp269
S'fk_ball_r_anim'
p270
a(lp271
VrotateX
p272
aVrotateY
p273
aVrotateZ
p274
aaF0
aF0
aF0
aa(lp275
S'ik_foot_anim_l'
p276
a(lp277
VtranslateX
p278
aVtranslateY
p279
aVtranslateZ
p280
aVrotateX
p281
aVrotateY
p282
aVrotateZ
p283
aVknee_twist
p284
aVstretch
p285
aVsquash
p286
aVtoeCtrlVis
p287
aaF-36.076314861239609
aF-53.798398180871203
aF0
aF0
aF0
aF-19.988301920154267
aF-22.099999999999998
aF0
aF0
aI00
aa(lp288
S'ik_foot_anim_r'
p289
a(lp290
VtranslateX
p291
aVtranslateY
p292
aVtranslateZ
p293
aVrotateX
p294
aVrotateY
p295
aVrotateZ
p296
aVknee_twist
p297
aVstretch
p298
aVsquash
p299
aVtoeCtrlVis
p300
aaF26.470169097547249
aF43.514691838287646
aF0.0030935876904081283
aF0.005867273051324659
aF-0.0049663727109010456
aF-77.786552457860694
aF68.399999999999991
aF0
aF0
aI00
aa(lp301
S'heel_ctrl_l'
p302
a(lp303
VrotateX
p304
aVrotateY
p305
aVrotateZ
p306
aVheelPivot
p307
aVballPivot
p308
aaF-4.500414989036176e-15
aF-1.2728430746716297e-14
aF-1.4945750967082041
aF0
aF0
aa(lp309
S'heel_ctrl_r'
p310
a(lp311
VrotateX
p312
aVrotateY
p313
aVrotateZ
p314
aVheelPivot
p315
aVballPivot
p316
aaF-5.0586230819437663
aF15.492707543170425
aF-32.343135591431249
aF0
aF0
aa(lp317
S'toe_wiggle_ctrl_l'
p318
a(lp319
VrotateX
p320
aVrotateY
p321
aVrotateZ
p322
aaF0
aF0
aF0
aa(lp323
S'toe_wiggle_ctrl_r'
p324
a(lp325
VrotateX
p326
aVrotateY
p327
aVrotateZ
p328
aaF-3.1794685459000318e-15
aF6.361109362927032e-15
aF-3.1805546814635187e-15
aa(lp329
S'toe_tip_ctrl_l'
p330
a(lp331
VrotateX
p332
aVrotateY
p333
aVrotateZ
p334
aaF0
aF0
aF0
aa(lp335
S'toe_tip_ctrl_r'
p336
a(lp337
VrotateX
p338
aVrotateY
p339
aVrotateZ
p340
aaF0
aF-6.361109362927032e-15
aF3.1805546814635195e-15
aa(lp341
S'master_anim'
p342
a(lp343
VtranslateX
p344
aVtranslateY
p345
aVtranslateZ
p346
aVrotateX
p347
aVrotateY
p348
aVrotateZ
p349
aaF0
aF0
aF0
aF0
aF0
aF0
aa(lp350
S'offset_anim'
p351
a(lp352
VtranslateX
p353
aVtranslateY
p354
aVtranslateZ
p355
aVrotateX
p356
aVrotateY
p357
aVrotateZ
p358
aaF0
aF0
aF0
aF0
aF0
aF0
aa(lp359
S'root_anim'
p360
a(lp361
VtranslateX
p362
aVtranslateY
p363
aVtranslateZ
p364
aVrotateX
p365
aVrotateY
p366
aVrotateZ
p367
aaF0
aF0
aF0
aF0
aF0
aF0
aa(lp368
S'upperarm_l_twist_anim'
p369
a(lp370
VtranslateX
p371
aVtranslateY
p372
aVtranslateZ
p373
aVrotateX
p374
aVrotateY
p375
aVrotateZ
p376
aVscaleX
p377
aVscaleY
p378
aVscaleZ
p379
aaF0
aF0
aF0
aF-43.273876860649942
aF0
aF0
aF1
aF1
aF1
aa(lp380
S'upperarm_r_twist_anim'
p381
a(lp382
VtranslateX
p383
aVtranslateY
p384
aVtranslateZ
p385
aVrotateX
p386
aVrotateY
p387
aVrotateZ
p388
aVscaleX
p389
aVscaleY
p390
aVscaleZ
p391
aaF0
aF0
aF0
aF11.521101925550566
aF0
aF0
aF1
aF1
aF1
aa(lp392
S'thigh_l_twist_anim'
p393
a(lp394
VtranslateX
p395
aVtranslateY
p396
aVtranslateZ
p397
aVrotateX
p398
aVrotateY
p399
aVrotateZ
p400
aaF0
aF0
aF0
aF0
aF0
aF0
aa(lp401
S'thigh_r_twist_anim'
p402
a(lp403
VtranslateX
p404
aVtranslateY
p405
aVtranslateZ
p406
aVrotateX
p407
aVrotateY
p408
aVrotateZ
p409
aaF0
aF0
aF0
aF0
aF0
aF0
aa(lp410
S'pinky_finger_fk_ctrl_1_l'
p411
a(lp412
VtranslateX
p413
aVtranslateY
p414
aVtranslateZ
p415
aVrotateX
p416
aVrotateY
p417
aVrotateZ
p418
aVsticky
p419
aaF0
aF0
aF0
aF0
aF0
aF67.465302944955894
aF0
aa(lp420
S'pinky_finger_fk_ctrl_1_r'
p421
a(lp422
VtranslateX
p423
aVtranslateY
p424
aVtranslateZ
p425
aVrotateX
p426
aVrotateY
p427
aVrotateZ
p428
aVsticky
p429
aaF0
aF0
aF0
aF0
aF0
aF67.465302944955894
aF0
aa(lp430
S'pinky_finger_fk_ctrl_2_l'
p431
a(lp432
VtranslateX
p433
aVtranslateY
p434
aVtranslateZ
p435
aVrotateX
p436
aVrotateY
p437
aVrotateZ
p438
aaF0
aF0
aF0
aF0
aF0
aF126.85537155640378
aa(lp439
S'pinky_finger_fk_ctrl_2_r'
p440
a(lp441
VtranslateX
p442
aVtranslateY
p443
aVtranslateZ
p444
aVrotateX
p445
aVrotateY
p446
aVrotateZ
p447
aaF0
aF0
aF0
aF0
aF0
aF126.85537155640378
aa(lp448
S'pinky_finger_fk_ctrl_3_l'
p449
a(lp450
VtranslateX
p451
aVtranslateY
p452
aVtranslateZ
p453
aVrotateX
p454
aVrotateY
p455
aVrotateZ
p456
aaF0
aF0
aF0
aF0
aF0
aF52.811381648203898
aa(lp457
S'pinky_finger_fk_ctrl_3_r'
p458
a(lp459
VtranslateX
p460
aVtranslateY
p461
aVtranslateZ
p462
aVrotateX
p463
aVrotateY
p464
aVrotateZ
p465
aaF0
aF0
aF0
aF0
aF0
aF52.811381648203898
aa(lp466
S'middle_finger_fk_ctrl_1_l'
p467
a(lp468
VtranslateX
p469
aVtranslateY
p470
aVtranslateZ
p471
aVrotateX
p472
aVrotateY
p473
aVrotateZ
p474
aVsticky
p475
aaF0
aF0
aF0
aF0
aF0
aF63.661206954731128
aF0
aa(lp476
S'middle_finger_fk_ctrl_1_r'
p477
a(lp478
VtranslateX
p479
aVtranslateY
p480
aVtranslateZ
p481
aVrotateX
p482
aVrotateY
p483
aVrotateZ
p484
aVsticky
p485
aaF0
aF0
aF0
aF0
aF0
aF63.661206954731128
aF0
aa(lp486
S'middle_finger_fk_ctrl_2_l'
p487
a(lp488
VtranslateX
p489
aVtranslateY
p490
aVtranslateZ
p491
aVrotateX
p492
aVrotateY
p493
aVrotateZ
p494
aaF0
aF0
aF0
aF0
aF0
aF133.59350062543939
aa(lp495
S'middle_finger_fk_ctrl_2_r'
p496
a(lp497
VtranslateX
p498
aVtranslateY
p499
aVtranslateZ
p500
aVrotateX
p501
aVrotateY
p502
aVrotateZ
p503
aaF0
aF0
aF0
aF0
aF0
aF133.59350062543939
aa(lp504
S'middle_finger_fk_ctrl_3_l'
p505
a(lp506
VtranslateX
p507
aVtranslateY
p508
aVtranslateZ
p509
aVrotateX
p510
aVrotateY
p511
aVrotateZ
p512
aaF0
aF0
aF0
aF0
aF0
aF0
aa(lp513
S'middle_finger_fk_ctrl_3_r'
p514
a(lp515
VtranslateX
p516
aVtranslateY
p517
aVtranslateZ
p518
aVrotateX
p519
aVrotateY
p520
aVrotateZ
p521
aaF0
aF0
aF0
aF0
aF0
aF0
aa(lp522
S'index_finger_fk_ctrl_1_l'
p523
a(lp524
VtranslateX
p525
aVtranslateY
p526
aVtranslateZ
p527
aVrotateX
p528
aVrotateY
p529
aVrotateZ
p530
aVsticky
p531
aaF0
aF0
aF0
aF10.830620356075823
aF-7.3355858286821753
aF69.113012273789167
aF0
aa(lp532
S'index_finger_fk_ctrl_1_r'
p533
a(lp534
VtranslateX
p535
aVtranslateY
p536
aVtranslateZ
p537
aVrotateX
p538
aVrotateY
p539
aVrotateZ
p540
aVsticky
p541
aaF0
aF0
aF0
aF10.830620356075823
aF-7.3355858286821753
aF69.113012273789167
aF0
aa(lp542
S'index_finger_fk_ctrl_2_l'
p543
a(lp544
VtranslateX
p545
aVtranslateY
p546
aVtranslateZ
p547
aVrotateX
p548
aVrotateY
p549
aVrotateZ
p550
aaF0
aF0
aF0
aF0
aF0
aF135.90676302855266
aa(lp551
S'index_finger_fk_ctrl_2_r'
p552
a(lp553
VtranslateX
p554
aVtranslateY
p555
aVtranslateZ
p556
aVrotateX
p557
aVrotateY
p558
aVrotateZ
p559
aaF0
aF0
aF0
aF0
aF0
aF135.90676302855266
aa(lp560
S'index_finger_fk_ctrl_3_l'
p561
a(lp562
VtranslateX
p563
aVtranslateY
p564
aVtranslateZ
p565
aVrotateX
p566
aVrotateY
p567
aVrotateZ
p568
aaF0
aF0
aF0
aF0
aF0
aF36.734456103288835
aa(lp569
S'index_finger_fk_ctrl_3_r'
p570
a(lp571
VtranslateX
p572
aVtranslateY
p573
aVtranslateZ
p574
aVrotateX
p575
aVrotateY
p576
aVrotateZ
p577
aaF0
aF0
aF0
aF0
aF0
aF36.734456103288835
aa(lp578
S'thumb_finger_fk_ctrl_1_l'
p579
a(lp580
VtranslateX
p581
aVtranslateY
p582
aVtranslateZ
p583
aVrotateX
p584
aVrotateY
p585
aVrotateZ
p586
aVsticky
p587
aaF0
aF0
aF0
aF7.2929083564820845
aF-8.856074823173179
aF-16.455722744949036
aF0
aa(lp588
S'thumb_finger_fk_ctrl_1_r'
p589
a(lp590
VtranslateX
p591
aVtranslateY
p592
aVtranslateZ
p593
aVrotateX
p594
aVrotateY
p595
aVrotateZ
p596
aVsticky
p597
aaF0
aF0
aF0
aF7.2929083564820845
aF-8.856074823173179
aF-16.455722744949036
aF0
aa(lp598
S'thumb_finger_fk_ctrl_2_l'
p599
a(lp600
VtranslateX
p601
aVtranslateY
p602
aVtranslateZ
p603
aVrotateX
p604
aVrotateY
p605
aVrotateZ
p606
aaF0
aF0
aF0
aF0
aF0
aF105.96004398419824
aa(lp607
S'thumb_finger_fk_ctrl_2_r'
p608
a(lp609
VtranslateX
p610
aVtranslateY
p611
aVtranslateZ
p612
aVrotateX
p613
aVrotateY
p614
aVrotateZ
p615
aaF0
aF0
aF0
aF0
aF0
aF105.96004398419824
aa(lp616
S'thumb_finger_fk_ctrl_3_l'
p617
a(lp618
VtranslateX
p619
aVtranslateY
p620
aVtranslateZ
p621
aVrotateX
p622
aVrotateY
p623
aVrotateZ
p624
aaF0
aF0
aF0
aF0
aF0
aF59.776097733833311
aa(lp625
S'thumb_finger_fk_ctrl_3_r'
p626
a(lp627
VtranslateX
p628
aVtranslateY
p629
aVtranslateZ
p630
aVrotateX
p631
aVrotateY
p632
aVrotateZ
p633
aaF0
aF0
aF0
aF0
aF0
aF59.776097733833311
aa(lp634
S'index_l_ik_anim'
p635
a(lp636
VtranslateX
p637
aVtranslateY
p638
aVtranslateZ
p639
aVrotateX
p640
aVrotateY
p641
aVrotateZ
p642
aVpoleVectorVis
p643
aaF0
aF0
aF0
aF0
aF0
aF0
aF0
aa(lp644
S'index_r_ik_anim'
p645
a(lp646
VtranslateX
p647
aVtranslateY
p648
aVtranslateZ
p649
aVrotateX
p650
aVrotateY
p651
aVrotateZ
p652
aVpoleVectorVis
p653
aaF0
aF0
aF0
aF0
aF0
aF0
aF0
aa(lp654
S'middle_l_ik_anim'
p655
a(lp656
VtranslateX
p657
aVtranslateY
p658
aVtranslateZ
p659
aVrotateX
p660
aVrotateY
p661
aVrotateZ
p662
aVpoleVectorVis
p663
aaF0
aF0
aF0
aF0
aF0
aF0
aF0
aa(lp664
S'middle_r_ik_anim'
p665
a(lp666
VtranslateX
p667
aVtranslateY
p668
aVtranslateZ
p669
aVrotateX
p670
aVrotateY
p671
aVrotateZ
p672
aVpoleVectorVis
p673
aaF0
aF0
aF0
aF0
aF0
aF0
aF0
aa(lp674
S'pinky_l_ik_anim'
p675
a(lp676
VtranslateX
p677
aVtranslateY
p678
aVtranslateZ
p679
aVrotateX
p680
aVrotateY
p681
aVrotateZ
p682
aVpoleVectorVis
p683
aaF0
aF0
aF0
aF0
aF0
aF0
aF0
aa(lp684
S'pinky_r_ik_anim'
p685
a(lp686
VtranslateX
p687
aVtranslateY
p688
aVtranslateZ
p689
aVrotateX
p690
aVrotateY
p691
aVrotateZ
p692
aVpoleVectorVis
p693
aaF0
aF0
aF0
aF0
aF0
aF0
aF0
aa(lp694
S'thumb_l_ik_anim'
p695
a(lp696
VtranslateX
p697
aVtranslateY
p698
aVtranslateZ
p699
aVrotateX
p700
aVrotateY
p701
aVrotateZ
p702
aVpoleVectorVis
p703
aaF0
aF0
aF0
aF0
aF0
aF0
aF0
aa(lp704
S'thumb_r_ik_anim'
p705
a(lp706
VtranslateX
p707
aVtranslateY
p708
aVtranslateZ
p709
aVrotateX
p710
aVrotateY
p711
aVrotateZ
p712
aVpoleVectorVis
p713
aaF0
aF0
aF0
aF0
aF0
aF0
aF0
aa(lp714
S'index_l_poleVector'
p715
a(lp716
VtranslateX
p717
aVtranslateY
p718
aVtranslateZ
p719
aVrotateX
p720
aVrotateY
p721
aVrotateZ
p722
aaF0
aF0
aF0
aF0
aF0
aF0
aa(lp723
S'index_r_poleVector'
p724
a(lp725
VtranslateX
p726
aVtranslateY
p727
aVtranslateZ
p728
aVrotateX
p729
aVrotateY
p730
aVrotateZ
p731
aaF0
aF0
aF0
aF0
aF0
aF0
aa(lp732
S'middle_l_poleVector'
p733
a(lp734
VtranslateX
p735
aVtranslateY
p736
aVtranslateZ
p737
aVrotateX
p738
aVrotateY
p739
aVrotateZ
p740
aaF0
aF0
aF0
aF0
aF0
aF0
aa(lp741
S'middle_r_poleVector'
p742
a(lp743
VtranslateX
p744
aVtranslateY
p745
aVtranslateZ
p746
aVrotateX
p747
aVrotateY
p748
aVrotateZ
p749
aaF0
aF0
aF0
aF0
aF0
aF0
aa(lp750
S'pinky_l_poleVector'
p751
a(lp752
VtranslateX
p753
aVtranslateY
p754
aVtranslateZ
p755
aVrotateX
p756
aVrotateY
p757
aVrotateZ
p758
aaF0
aF0
aF0
aF0
aF0
aF0
aa(lp759
S'pinky_r_poleVector'
p760
a(lp761
VtranslateX
p762
aVtranslateY
p763
aVtranslateZ
p764
aVrotateX
p765
aVrotateY
p766
aVrotateZ
p767
aaF0
aF0
aF0
aF0
aF0
aF0
aa(lp768
S'thumb_l_poleVector'
p769
a(lp770
VtranslateX
p771
aVtranslateY
p772
aVtranslateZ
p773
aVrotateX
p774
aVrotateY
p775
aVrotateZ
p776
aaF0
aF0
aF0
aF0
aF0
aF0
aa(lp777
S'thumb_r_poleVector'
p778
a(lp779
VtranslateX
p780
aVtranslateY
p781
aVtranslateZ
p782
aVrotateX
p783
aVrotateY
p784
aVrotateZ
p785
aaF0
aF0
aF0
aF0
aF0
aF0
aa(lp786
S'l_global_ik_anim'
p787
a(lp788
VtranslateX
p789
aVtranslateY
p790
aVtranslateZ
p791
aVrotateX
p792
aVrotateY
p793
aVrotateZ
p794
aaF0
aF0
aF0
aF0
aF0
aF0
aa(lp795
S'r_global_ik_anim'
p796
a(lp797
VtranslateX
p798
aVtranslateY
p799
aVtranslateZ
p800
aVrotateX
p801
aVrotateY
p802
aVrotateZ
p803
aaF0
aF0
aF0
aF0
aF0
aF0
aa(lp804
S'Rig_Settings'
p805
a(lp806
Vspine_ik
p807
aVspine_fk
p808
aVlLegMode
p809
aVlThighTwistAmount
p810
aVlCalfTwistAmount
p811
aVrLegMode
p812
aVrThighTwistAmount
p813
aVrCalfTwistAmount
p814
aVlFkArmOrient
p815
aVrFkArmOrient
p816
aVlArmMode
p817
aVlUpperarmTwistAmount
p818
aVrArmMode
p819
aVrUpperarmTwistAmount
p820
aVtentacle_l_fk
p821
aVtentacle_l_ik
p822
aVtentacle_l_dynamic
p823
aVtentacle_r_fk
p824
aVtentacle_r_ik
p825
aVtentacle_r_dynamic
p826
aVthrusterVent_l_fk
p827
aVthrusterVent_l_ik
p828
aVthrusterVent_l_dynamic
p829
aVthrusterVent_r_fk
p830
aVthrusterVent_r_ik
p831
aVthrusterVent_r_dynamic
p832
aaF0
aF1
aI1
aF0.90000000000000002
aF0.5
aI1
aF0.90000000000000002
aF0.5
aI0
aI0
aI1
aF0.90000000000000002
aI1
aF0.90000000000000002
aF1
aF0
aF0
aF1
aF0
aF0
aF1
aF0
aF0
aF1
aF0
aF0
aa(lp833
Vdagger_a_l_anim
p834
a(lp835
VtranslateX
p836
aVtranslateY
p837
aVtranslateZ
p838
aVrotateX
p839
aVrotateY
p840
aVrotateZ
p841
aVscaleX
p842
aVscaleY
p843
aVscaleZ
p844
aaF0
aF0
aF0
aF0
aF-1.987846675914698e-16
aF0
aF1
aF1
aF1
aa(lp845
Vdagger_a_r_anim
p846
a(lp847
VtranslateX
p848
aVtranslateY
p849
aVtranslateZ
p850
aVrotateX
p851
aVrotateY
p852
aVrotateZ
p853
aVscaleX
p854
aVscaleY
p855
aVscaleZ
p856
aaF0
aF0
aF-1.4210854715202004e-14
aF0
aF-1.987846675914698e-16
aF0
aF1
aF1
aF1
aa(lp857
Vdagger_b_l_anim
p858
a(lp859
VtranslateX
p860
aVtranslateY
p861
aVtranslateZ
p862
aVrotateX
p863
aVrotateY
p864
aVrotateZ
p865
aVscaleX
p866
aVscaleY
p867
aVscaleZ
p868
aaF0
aF0
aF0
aF0
aF-1.987846675914698e-16
aF0
aF1
aF1
aF1
aa(lp869
Vdagger_b_r_anim
p870
a(lp871
VtranslateX
p872
aVtranslateY
p873
aVtranslateZ
p874
aVrotateX
p875
aVrotateY
p876
aVrotateZ
p877
aVscaleX
p878
aVscaleY
p879
aVscaleZ
p880
aaF-2.8421709430404007e-14
aF0
aF1.4210854715202004e-14
aF0
aF-1.987846675914698e-16
aF0
aF1
aF1
aF1
aa(lp881
Vdagger_base_l_anim
p882
a(lp883
VtranslateX
p884
aVtranslateY
p885
aVtranslateZ
p886
aVrotateX
p887
aVrotateY
p888
aVrotateZ
p889
aVscaleX
p890
aVscaleY
p891
aVscaleZ
p892
aaF0
aF0
aF-1.4210854715202004e-14
aF-8.5415286855709671e-18
aF-1.987846675914698e-16
aF0
aF1
aF1
aF1
aa(lp893
Vdagger_base_r_anim
p894
a(lp895
VtranslateX
p896
aVtranslateY
p897
aVtranslateZ
p898
aVrotateX
p899
aVrotateY
p900
aVrotateZ
p901
aVscaleX
p902
aVscaleY
p903
aVscaleZ
p904
aaF0
aF0
aF0
aF-3.1060104311167156e-18
aF-0
aF0
aF1
aF1
aF1
aa(lp905
Vdagger_c_l_anim
p906
a(lp907
VtranslateX
p908
aVtranslateY
p909
aVtranslateZ
p910
aVrotateX
p911
aVrotateY
p912
aVrotateZ
p913
aVscaleX
p914
aVscaleY
p915
aVscaleZ
p916
aaF0
aF0
aF0
aF0
aF-1.987846675914698e-16
aF0
aF1
aF1
aF1
aa(lp917
Vdagger_c_r_anim
p918
a(lp919
VtranslateX
p920
aVtranslateY
p921
aVtranslateZ
p922
aVrotateX
p923
aVrotateY
p924
aVrotateZ
p925
aVscaleX
p926
aVscaleY
p927
aVscaleZ
p928
aaF2.8421709430404007e-14
aF1.7763568394002505e-15
aF-1.4210854715202004e-14
aF0
aF-1.987846675914698e-16
aF0
aF1
aF1
aF1
aa(lp929
VextensionA_l_anim
p930
a(lp931
VtranslateX
p932
aVtranslateY
p933
aVtranslateZ
p934
aVrotateX
p935
aVrotateY
p936
aVrotateZ
p937
aVscaleX
p938
aVscaleY
p939
aVscaleZ
p940
aaF-25.337
aF-0.437
aF0
aF0
aF9.9392333795734899e-17
aF3.975693351829396e-16
aF1
aF1
aF1
aa(lp941
VextensionA_r_anim
p942
a(lp943
VtranslateX
p944
aVtranslateY
p945
aVtranslateZ
p946
aVrotateX
p947
aVrotateY
p948
aVrotateZ
p949
aVscaleX
p950
aVscaleY
p951
aVscaleZ
p952
aaF25.337
aF0.437
aF0
aF0
aF-4.9696166897867449e-17
aF3.975693351829396e-16
aF1
aF1
aF1
aa(lp953
VextensionB_l_anim
p954
a(lp955
VtranslateX
p956
aVtranslateY
p957
aVtranslateZ
p958
aVrotateX
p959
aVrotateY
p960
aVrotateZ
p961
aVscaleX
p962
aVscaleY
p963
aVscaleZ
p964
aaF-25.337
aF0.437
aF0
aF1.5902773407317588e-15
aF9.9392333795734924e-17
aF0
aF0.99999999999999989
aF0.99999999999999989
aF0.99999999999999989
aa(lp965
VextensionB_r_anim
p966
a(lp967
VtranslateX
p968
aVtranslateY
p969
aVtranslateZ
p970
aVrotateX
p971
aVrotateY
p972
aVrotateZ
p973
aVscaleX
p974
aVscaleY
p975
aVscaleZ
p976
aaF25.337
aF-0.437
aF0
aF1.590277340731758e-15
aF-0
aF-3.975693351829396e-16
aF1
aF1.0000000000000002
aF1.0000000000000002
aa(lp977
VlowerArm_bottomPlateA_l_anim
p978
a(lp979
VtranslateX
p980
aVtranslateY
p981
aVtranslateZ
p982
aVrotateX
p983
aVrotateY
p984
aVrotateZ
p985
aVscaleX
p986
aVscaleY
p987
aVscaleZ
p988
aaF-2.8421709430404007e-14
aF0
aF-1.4210854715202004e-14
aF0
aF1.987846675914698e-16
aF0
aF1
aF1
aF1
aa(lp989
VlowerArm_bottomPlateA_r_anim
p990
a(lp991
VtranslateX
p992
aVtranslateY
p993
aVtranslateZ
p994
aVrotateX
p995
aVrotateY
p996
aVrotateZ
p997
aVscaleX
p998
aVscaleY
p999
aVscaleZ
p1000
aaF0
aF0
aF-1.4210854715202004e-14
aF-1.4908850069360235e-16
aF-1.987846675914698e-16
aF0
aF1
aF1
aF1
aa(lp1001
VlowerArm_bottomPlateB_l_anim
p1002
a(lp1003
VtranslateX
p1004
aVtranslateY
p1005
aVtranslateZ
p1006
aVrotateX
p1007
aVrotateY
p1008
aVrotateZ
p1009
aVscaleX
p1010
aVscaleY
p1011
aVscaleZ
p1012
aaF0
aF0
aF0
aF0
aF-1.987846675914698e-16
aF0
aF1
aF1
aF1
aa(lp1013
VlowerArm_bottomPlateB_r_anim
p1014
a(lp1015
VtranslateX
p1016
aVtranslateY
p1017
aVtranslateZ
p1018
aVrotateX
p1019
aVrotateY
p1020
aVrotateZ
p1021
aVscaleX
p1022
aVscaleY
p1023
aVscaleZ
p1024
aaF0
aF0
aF0
aF1.4908850069360235e-16
aF-1.987846675914698e-16
aF0
aF1
aF1
aF1
aa(lp1025
VlowerArm_topPlateA_l_anim
p1026
a(lp1027
VtranslateX
p1028
aVtranslateY
p1029
aVtranslateZ
p1030
aVrotateX
p1031
aVrotateY
p1032
aVrotateZ
p1033
aVscaleX
p1034
aVscaleY
p1035
aVscaleZ
p1036
aaF5.6843418860808015e-14
aF0
aF0
aF-1.7393658414253612e-16
aF1.987846675914699e-16
aF7.9513867036587959e-16
aF0.99999999999999967
aF0.99999999999999989
aF0.99999999999999989
aa(lp1037
VlowerArm_topPlateA_r_anim
p1038
a(lp1039
VtranslateX
p1040
aVtranslateY
p1041
aVtranslateZ
p1042
aVrotateX
p1043
aVrotateY
p1044
aVrotateZ
p1045
aVscaleX
p1046
aVscaleY
p1047
aVscaleZ
p1048
aaF0
aF0
aF0
aF-1.4908850069360235e-16
aF-0
aF-1.5902773407317584e-15
aF1
aF1
aF1
aa(lp1049
VlowerArm_topPlateB_l_anim
p1050
a(lp1051
VtranslateX
p1052
aVtranslateY
p1053
aVtranslateZ
p1054
aVrotateX
p1055
aVrotateY
p1056
aVrotateZ
p1057
aVscaleX
p1058
aVscaleY
p1059
aVscaleZ
p1060
aaF0
aF0
aF0
aF-2.7332891793827095e-16
aF-1.987846675914698e-16
aF0
aF1
aF1
aF1
aa(lp1061
VlowerArm_topPlateB_r_anim
p1062
a(lp1063
VtranslateX
p1064
aVtranslateY
p1065
aVtranslateZ
p1066
aVrotateX
p1067
aVrotateY
p1068
aVrotateZ
p1069
aVscaleX
p1070
aVscaleY
p1071
aVscaleZ
p1072
aaF0
aF7.1054273576010019e-15
aF0
aF9.9392333795734948e-17
aF1.987846675914699e-16
aF0
aF0.99999999999999967
aF0.99999999999999967
aF0.99999999999999967
aa(lp1073
VpivotA_l_anim
p1074
a(lp1075
VtranslateX
p1076
aVtranslateY
p1077
aVtranslateZ
p1078
aVrotateX
p1079
aVrotateY
p1080
aVrotateZ
p1081
aVscaleX
p1082
aVscaleY
p1083
aVscaleZ
p1084
aaF-1.4210854715202004e-14
aF0
aF7.1054273576010019e-15
aF0
aF180
aF0
aF1
aF1
aF0.99999999999999989
aa(lp1085
VpivotA_r_anim
p1086
a(lp1087
VtranslateX
p1088
aVtranslateY
p1089
aVtranslateZ
p1090
aVrotateX
p1091
aVrotateY
p1092
aVrotateZ
p1093
aVscaleX
p1094
aVscaleY
p1095
aVscaleZ
p1096
aaF0
aF0
aF0
aF0
aF180
aF3.975693351829396e-16
aF1
aF1
aF1
aa(lp1097
VpivotB_l_anim
p1098
a(lp1099
VtranslateX
p1100
aVtranslateY
p1101
aVtranslateZ
p1102
aVrotateX
p1103
aVrotateY
p1104
aVrotateZ
p1105
aVscaleX
p1106
aVscaleY
p1107
aVscaleZ
p1108
aaF-1.4210854715202004e-14
aF2.8421709430404007e-14
aF0
aF0
aF180
aF0
aF0.99999999999999989
aF1
aF0.99999999999999989
aa(lp1109
VpivotB_r_anim
p1110
a(lp1111
VtranslateX
p1112
aVtranslateY
p1113
aVtranslateZ
p1114
aVrotateX
p1115
aVrotateY
p1116
aVrotateZ
p1117
aVscaleX
p1118
aVscaleY
p1119
aVscaleZ
p1120
aaF1.4210854715202004e-14
aF0
aF-1.4210854715202004e-14
aF1.590277340731758e-15
aF180
aF-3.975693351829396e-16
aF1
aF1.0000000000000002
aF1.0000000000000002
aa(lp1121
VshoulderPad_l_anim
p1122
a(lp1123
VtranslateX
p1124
aVtranslateY
p1125
aVtranslateZ
p1126
aVrotateX
p1127
aVrotateY
p1128
aVrotateZ
p1129
aVchainAttach
p1130
aVchainStartEnvelope
p1131
aVchainStartFrame
p1132
aVchainStiffness
p1133
aVchainDamping
p1134
aVchainGravity
p1135
aVchainIteration
p1136
aVchainCollide
p1137
aVchainWidthBase
p1138
aVchainWidthExtremity
p1139
aVchainCollideGround
p1140
aVchainCollideGroundHeight
p1141
aaF-2.8421709430404007e-14
aF0
aF3.5527136788005009e-15
aF9.8130517058093738e-17
aF-0
aF0
aI1
aF0
aF1
aF0.10000000000000001
aF0.20000000000000001
aF1
aI1
aI00
aF1
aF1
aI00
aF0
aa(lp1142
VshoulderPad_r_anim
p1143
a(lp1144
VtranslateX
p1145
aVtranslateY
p1146
aVtranslateZ
p1147
aVrotateX
p1148
aVrotateY
p1149
aVrotateZ
p1150
aVchainAttach
p1151
aVchainStartEnvelope
p1152
aVchainStartFrame
p1153
aVchainStiffness
p1154
aVchainDamping
p1155
aVchainGravity
p1156
aVchainIteration
p1157
aVchainCollide
p1158
aVchainWidthBase
p1159
aVchainWidthExtremity
p1160
aVchainCollideGround
p1161
aVchainCollideGroundHeight
p1162
aaF0
aF8.8817841970012523e-16
aF0
aF-9.8615831187955744e-17
aF2.4848083448933725e-17
aF-2.4848083448933725e-17
aI1
aF0
aF1
aF0.10000000000000001
aF0.20000000000000001
aF1
aI1
aI00
aF1
aF1
aI00
aF0
aa(lp1163
Vsword_handle_l_anim
p1164
a(lp1165
VtranslateX
p1166
aVtranslateY
p1167
aVtranslateZ
p1168
aVrotateX
p1169
aVrotateY
p1170
aVrotateZ
p1171
aVscaleX
p1172
aVscaleY
p1173
aVscaleZ
p1174
aaF-7.5
aF1
aF-7.1054273576010019e-15
aF-1.5902773407317584e-15
aF90
aF0
aF1
aF1
aF1
aa(lp1175
Vsword_handle_r_anim
p1176
a(lp1177
VtranslateX
p1178
aVtranslateY
p1179
aVtranslateZ
p1180
aVrotateX
p1181
aVrotateY
p1182
aVrotateZ
p1183
aVscaleX
p1184
aVscaleY
p1185
aVscaleZ
p1186
aaF7.5
aF1
aF0
aF3.180554681463516e-15
aF90
aF7.9513867036587899e-16
aF1.0000000000000002
aF1.0000000000000002
aF1.0000000000000002
aa(lp1187
Vsword_root_l_anim
p1188
a(lp1189
VtranslateX
p1190
aVtranslateY
p1191
aVtranslateZ
p1192
aVrotateX
p1193
aVrotateY
p1194
aVrotateZ
p1195
aVscaleX
p1196
aVscaleY
p1197
aVscaleZ
p1198
aVsword_deploy
p1199
aVsword_open
p1200
aVsword_extend
p1201
aaF0
aF0
aF0
aF-1.5902773407317584e-15
aF-0
aF0
aF1
aF1
aF1
aF10
aF10
aF10
aa(lp1202
Vsword_root_r_anim
p1203
a(lp1204
VtranslateX
p1205
aVtranslateY
p1206
aVtranslateZ
p1207
aVrotateX
p1208
aVrotateY
p1209
aVrotateZ
p1210
aVscaleX
p1211
aVscaleY
p1212
aVscaleZ
p1213
aVsword_deploy
p1214
aVsword_open
p1215
aVsword_extend
p1216
aaF1.4210854715202004e-14
aF0
aF0
aF0
aF4.9696166897867474e-17
aF7.9513867036587959e-16
aF0.99999999999999967
aF0.99999999999999989
aF0.99999999999999967
aF10
aF10
aF10
aa(lp1217
Vtentacle_l_dyn_anim
p1218
a(lp1219
VtranslateX
p1220
aVtranslateY
p1221
aVtranslateZ
p1222
aVrotateX
p1223
aVrotateY
p1224
aVrotateZ
p1225
aVchainAttach
p1226
aVchainStartEnvelope
p1227
aVchainStartFrame
p1228
aVchainStiffness
p1229
aVchainDamping
p1230
aVchainGravity
p1231
aVchainIteration
p1232
aVchainCollide
p1233
aVchainWidthBase
p1234
aVchainWidthExtremity
p1235
aVchainCollideGround
p1236
aVchainCollideGroundHeight
p1237
aaF0
aF0
aF0
aF0
aF0
aF0
aI0
aF0
aF0
aF0
aF0
aF0
aI0
aI00
aF0
aF0
aI00
aF0
aa(lp1238
Vtentacle_l_ik_2_anim
p1239
a(lp1240
VtranslateX
p1241
aVtranslateY
p1242
aVtranslateZ
p1243
aVrotateX
p1244
aVrotateY
p1245
aVrotateZ
p1246
aaF0
aF0
aF0
aF0
aF0
aF0
aa(lp1247
Vtentacle_l_ik_3_anim
p1248
a(lp1249
VtranslateX
p1250
aVtranslateY
p1251
aVtranslateZ
p1252
aVrotateX
p1253
aVrotateY
p1254
aVrotateZ
p1255
aaF0
aF0
aF0
aF0
aF0
aF0
aa(lp1256
Vtentacle_l_ik_4_anim
p1257
a(lp1258
VtranslateX
p1259
aVtranslateY
p1260
aVtranslateZ
p1261
aVrotateX
p1262
aVrotateY
p1263
aVrotateZ
p1264
aaF0
aF0
aF0
aF0
aF0
aF0
aa(lp1265
Vtentacle_l_ik_5_anim
p1266
a(lp1267
VtranslateX
p1268
aVtranslateY
p1269
aVtranslateZ
p1270
aVrotateX
p1271
aVrotateY
p1272
aVrotateZ
p1273
aaF0
aF0
aF0
aF0
aF0
aF0
aa(lp1274
Vtentacle_l_ik_6_anim
p1275
a(lp1276
VtranslateX
p1277
aVtranslateY
p1278
aVtranslateZ
p1279
aVrotateX
p1280
aVrotateY
p1281
aVrotateZ
p1282
aaF0
aF0
aF0
aF0
aF0
aF0
aa(lp1283
Vtentacle_l_ik_7_anim
p1284
a(lp1285
VtranslateX
p1286
aVtranslateY
p1287
aVtranslateZ
p1288
aVrotateX
p1289
aVrotateY
p1290
aVrotateZ
p1291
aaF0
aF0
aF0
aF0
aF0
aF0
aa(lp1292
Vtentacle_l_ik_8_anim
p1293
a(lp1294
VtranslateX
p1295
aVtranslateY
p1296
aVtranslateZ
p1297
aVrotateX
p1298
aVrotateY
p1299
aVrotateZ
p1300
aaF0
aF0
aF0
aF0
aF0
aF0
aa(lp1301
Vtentacle_l_ik_9_anim
p1302
a(lp1303
VtranslateX
p1304
aVtranslateY
p1305
aVtranslateZ
p1306
aVrotateX
p1307
aVrotateY
p1308
aVrotateZ
p1309
aaF0
aF0
aF0
aF0
aF0
aF0
aa(lp1310
Vtentacle_l_ik_10_anim
p1311
a(lp1312
VtranslateX
p1313
aVtranslateY
p1314
aVtranslateZ
p1315
aVrotateX
p1316
aVrotateY
p1317
aVrotateZ
p1318
aVclusterControlVis
p1319
aaF0
aF0
aF0
aF0
aF0
aF0
aI00
aa(lp1320
Vtentacle_l_ik_base_anim
p1321
a(lp1322
VtranslateX
p1323
aVtranslateY
p1324
aVtranslateZ
p1325
aVrotateX
p1326
aVrotateY
p1327
aVrotateZ
p1328
aVglobal_scale
p1329
aaF0
aF0
aF0
aF0
aF0
aF0
aF1
aa(lp1330
Vfk_tentacle_l_01_anim
p1331
a(lp1332
VtranslateX
p1333
aVtranslateY
p1334
aVtranslateZ
p1335
aVrotateX
p1336
aVrotateY
p1337
aVrotateZ
p1338
aVglobal_scale
p1339
aVlagMode
p1340
aaF-1.4210854715202004e-14
aF-2.8421709430404007e-14
aF0
aF106.083656517516
aF26.058541357433651
aF17.662656212836126
aF1
aF0
aa(lp1341
Vtentacle_l_cv_0_anim
p1342
a(lp1343
VtranslateX
p1344
aVtranslateY
p1345
aVtranslateZ
p1346
aaF0
aF0
aF0
aa(lp1347
Vfk_tentacle_l_02_anim
p1348
a(lp1349
VtranslateX
p1350
aVtranslateY
p1351
aVtranslateZ
p1352
aVrotateX
p1353
aVrotateY
p1354
aVrotateZ
p1355
aaF0
aF-2.8421709430404007e-14
aF-5.6843418860808015e-14
aF-5.8299085158057897
aF-0.77382711503039736
aF-7.5348643136848077
aa(lp1356
Vtentacle_l_cv_1_anim
p1357
a(lp1358
VtranslateX
p1359
aVtranslateY
p1360
aVtranslateZ
p1361
aaF0
aF0
aF0
aa(lp1362
Vfk_tentacle_l_03_anim
p1363
a(lp1364
VtranslateX
p1365
aVtranslateY
p1366
aVtranslateZ
p1367
aVrotateX
p1368
aVrotateY
p1369
aVrotateZ
p1370
aaF0
aF0
aF0
aF-23.042656934156287
aF-3.0674699145815274
aF1.1599159084255048
aa(lp1371
Vtentacle_l_cv_2_anim
p1372
a(lp1373
VtranslateX
p1374
aVtranslateY
p1375
aVtranslateZ
p1376
aaF0
aF0
aF0
aa(lp1377
Vfk_tentacle_l_04_anim
p1378
a(lp1379
VtranslateX
p1380
aVtranslateY
p1381
aVtranslateZ
p1382
aVrotateX
p1383
aVrotateY
p1384
aVrotateZ
p1385
aaF-1.4210854715202004e-14
aF2.8421709430404007e-14
aF-2.8421709430404007e-14
aF-27.632238972758255
aF-1.6413586447979409
aF-3.9667286758610203
aa(lp1386
Vtentacle_l_cv_3_anim
p1387
a(lp1388
VtranslateX
p1389
aVtranslateY
p1390
aVtranslateZ
p1391
aaF0
aF0
aF0
aa(lp1392
Vfk_tentacle_l_05_anim
p1393
a(lp1394
VtranslateX
p1395
aVtranslateY
p1396
aVtranslateZ
p1397
aVrotateX
p1398
aVrotateY
p1399
aVrotateZ
p1400
aaF0
aF-1.4210854715202004e-14
aF0
aF-27.702657491384343
aF-1.8076814231891072
aF-4.1048834536521879
aa(lp1401
Vtentacle_l_cv_4_anim
p1402
a(lp1403
VtranslateX
p1404
aVtranslateY
p1405
aVtranslateZ
p1406
aaF0
aF0
aF0
aa(lp1407
Vfk_tentacle_l_06_anim
p1408
a(lp1409
VtranslateX
p1410
aVtranslateY
p1411
aVtranslateZ
p1412
aVrotateX
p1413
aVrotateY
p1414
aVrotateZ
p1415
aaF0
aF-1.4210854715202004e-14
aF0
aF-10.55017273130828
aF0.11802903009755231
aF-1.0667836213355046
aa(lp1416
Vtentacle_l_cv_5_anim
p1417
a(lp1418
VtranslateX
p1419
aVtranslateY
p1420
aVtranslateZ
p1421
aaF0
aF0
aF0
aa(lp1422
Vfk_tentacle_l_07_anim
p1423
a(lp1424
VtranslateX
p1425
aVtranslateY
p1426
aVtranslateZ
p1427
aVrotateX
p1428
aVrotateY
p1429
aVrotateZ
p1430
aaF0
aF1.4210854715202004e-14
aF0
aF-10.56924900073178
aF0.31520410025017398
aF-0.011652809301377444
aa(lp1431
Vtentacle_l_cv_6_anim
p1432
a(lp1433
VtranslateX
p1434
aVtranslateY
p1435
aVtranslateZ
p1436
aaF0
aF0
aF0
aa(lp1437
Vfk_tentacle_l_08_anim
p1438
a(lp1439
VtranslateX
p1440
aVtranslateY
p1441
aVtranslateZ
p1442
aVrotateX
p1443
aVrotateY
p1444
aVrotateZ
p1445
aaF0
aF0
aF0
aF-10.552599321467415
aF-0.59741298400254317
aF-2.7842623988865807
aa(lp1446
Vtentacle_l_cv_7_anim
p1447
a(lp1448
VtranslateX
p1449
aVtranslateY
p1450
aVtranslateZ
p1451
aaF0
aF0
aF0
aa(lp1452
Vfk_tentacle_l_09_anim
p1453
a(lp1454
VtranslateX
p1455
aVtranslateY
p1456
aVtranslateZ
p1457
aVrotateX
p1458
aVrotateY
p1459
aVrotateZ
p1460
aaF0
aF0
aF0
aF-10.567940096160292
aF0.17083269677397731
aF1.3348464989577802
aa(lp1461
Vtentacle_l_cv_8_anim
p1462
a(lp1463
VtranslateX
p1464
aVtranslateY
p1465
aVtranslateZ
p1466
aaF0
aF0
aF0
aa(lp1467
Vfk_tentacle_l_010_anim
p1468
a(lp1469
VtranslateX
p1470
aVtranslateY
p1471
aVtranslateZ
p1472
aVrotateX
p1473
aVrotateY
p1474
aVrotateZ
p1475
aaF0
aF7.1054273576010019e-15
aF0
aF-9.4328591321509219
aF-0.35030161836390727
aF-1.6420619199132229
aa(lp1476
Vtentacle_l_cv_9_anim
p1477
a(lp1478
VtranslateX
p1479
aVtranslateY
p1480
aVtranslateZ
p1481
aaF0
aF0
aF0
aa(lp1482
Vfk_tentacle_l_011_anim
p1483
a(lp1484
VtranslateX
p1485
aVtranslateY
p1486
aVtranslateZ
p1487
aVrotateX
p1488
aVrotateY
p1489
aVrotateZ
p1490
aaF1.4210854715202004e-14
aF-2.1316282072803006e-14
aF0
aF-5.6027915276930331
aF-0.61696542945265465
aF-0.47780543041395246
aa(lp1491
Vtentacle_l_cv_10_anim
p1492
a(lp1493
VtranslateX
p1494
aVtranslateY
p1495
aVtranslateZ
p1496
aaF0
aF0
aF0
aa(lp1497
Vfk_tentacle_l_012_anim
p1498
a(lp1499
VtranslateX
p1500
aVtranslateY
p1501
aVtranslateZ
p1502
aVrotateX
p1503
aVrotateY
p1504
aVrotateZ
p1505
aaF0
aF7.1054273576010019e-15
aF0
aF-4.0021020547140855
aF-0.2246393398130834
aF-3.9556442522493467
aa(lp1506
Vtentacle_l_cv_11_anim
p1507
a(lp1508
VtranslateX
p1509
aVtranslateY
p1510
aVtranslateZ
p1511
aaF0
aF0
aF0
aa(lp1512
Vfk_tentacle_l_013_anim
p1513
a(lp1514
VtranslateX
p1515
aVtranslateY
p1516
aVtranslateZ
p1517
aVrotateX
p1518
aVrotateY
p1519
aVrotateZ
p1520
aaF0
aF3.5527136788005009e-15
aF0
aF-2.2192171208843385
aF-0.089406659354216558
aF-3.2089725298260854
aa(lp1521
Vtentacle_l_cv_12_anim
p1522
a(lp1523
VtranslateX
p1524
aVtranslateY
p1525
aVtranslateZ
p1526
aaF0
aF0
aF0
aa(lp1527
Vfk_tentacle_l_014_anim
p1528
a(lp1529
VtranslateX
p1530
aVtranslateY
p1531
aVtranslateZ
p1532
aVrotateX
p1533
aVrotateY
p1534
aVrotateZ
p1535
aaF0
aF3.5527136788005009e-15
aF0
aF-3.5693303107503298
aF-0.31299645959735523
aF-5.3520900757559362
aa(lp1536
Vtentacle_l_cv_13_anim
p1537
a(lp1538
VtranslateX
p1539
aVtranslateY
p1540
aVtranslateZ
p1541
aaF0
aF0
aF0
aa(lp1542
Vfk_tentacle_l_015_anim
p1543
a(lp1544
VtranslateX
p1545
aVtranslateY
p1546
aVtranslateZ
p1547
aVrotateX
p1548
aVrotateY
p1549
aVrotateZ
p1550
aaF0
aF3.5527136788005009e-15
aF2.8421709430404007e-14
aF-3.642593354513926
aF1.5902773407317584e-15
aF-5.8396360832477958
aa(lp1551
Vtentacle_l_cv_14_anim
p1552
a(lp1553
VtranslateX
p1554
aVtranslateY
p1555
aVtranslateZ
p1556
aaF0
aF0
aF0
aa(lp1557
Vfk_tentacle_l_016_anim
p1558
a(lp1559
VtranslateX
p1560
aVtranslateY
p1561
aVtranslateZ
p1562
aVrotateX
p1563
aVrotateY
p1564
aVrotateZ
p1565
aaF1.4210854715202004e-14
aF0
aF2.8421709430404007e-14
aF-3.6425933545139362
aF1.5902773407317584e-15
aF-14.80676717257054
aa(lp1566
Vtentacle_l_cv_15_anim
p1567
a(lp1568
VtranslateX
p1569
aVtranslateY
p1570
aVtranslateZ
p1571
aaF0
aF0
aF0
aa(lp1572
Vfk_tentacle_l_017_anim
p1573
a(lp1574
VtranslateX
p1575
aVtranslateY
p1576
aVtranslateZ
p1577
aVrotateX
p1578
aVrotateY
p1579
aVrotateZ
p1580
aaF0
aF0
aF0
aF0
aF1.5902773407317584e-15
aF-8.9671310893227378
aa(lp1581
Vtentacle_l_cv_16_anim
p1582
a(lp1583
VtranslateX
p1584
aVtranslateY
p1585
aVtranslateZ
p1586
aaF0
aF0
aF0
aa(lp1587
Vfk_tentacle_l_018_anim
p1588
a(lp1589
VtranslateX
p1590
aVtranslateY
p1591
aVtranslateZ
p1592
aVrotateX
p1593
aVrotateY
p1594
aVrotateZ
p1595
aaF0
aF-7.1054273576010019e-15
aF0
aF0
aF1.5902773407317584e-15
aF-8.9671310893227378
aa(lp1596
Vtentacle_l_cv_17_anim
p1597
a(lp1598
VtranslateX
p1599
aVtranslateY
p1600
aVtranslateZ
p1601
aaF0
aF0
aF0
aa(lp1602
Vfk_tentacle_l_019_anim
p1603
a(lp1604
VtranslateX
p1605
aVtranslateY
p1606
aVtranslateZ
p1607
aVrotateX
p1608
aVrotateY
p1609
aVrotateZ
p1610
aaF0
aF0
aF0
aF0
aF1.5902773407317584e-15
aF-8.9671310893227378
aa(lp1611
Vtentacle_l_cv_18_anim
p1612
a(lp1613
VtranslateX
p1614
aVtranslateY
p1615
aVtranslateZ
p1616
aaF0
aF0
aF0
aa(lp1617
Vfk_tentacle_l_020_anim
p1618
a(lp1619
VtranslateX
p1620
aVtranslateY
p1621
aVtranslateZ
p1622
aVrotateX
p1623
aVrotateY
p1624
aVrotateZ
p1625
aaF1.4210854715202004e-14
aF2.1316282072803006e-14
aF2.8421709430404007e-14
aF0
aF1.5902773407317584e-15
aF-8.9671310893227378
aa(lp1626
Vtentacle_l_cv_19_anim
p1627
a(lp1628
VtranslateX
p1629
aVtranslateY
p1630
aVtranslateZ
p1631
aaF0
aF0
aF0
aa(lp1632
Vtentacle_r_dyn_anim
p1633
a(lp1634
VtranslateX
p1635
aVtranslateY
p1636
aVtranslateZ
p1637
aVrotateX
p1638
aVrotateY
p1639
aVrotateZ
p1640
aVchainAttach
p1641
aVchainStartEnvelope
p1642
aVchainStartFrame
p1643
aVchainStiffness
p1644
aVchainDamping
p1645
aVchainGravity
p1646
aVchainIteration
p1647
aVchainCollide
p1648
aVchainWidthBase
p1649
aVchainWidthExtremity
p1650
aVchainCollideGround
p1651
aVchainCollideGroundHeight
p1652
aaF0
aF0
aF0
aF0
aF0
aF0
aI0
aF0
aF0
aF0
aF0
aF0
aI0
aI00
aF0
aF0
aI00
aF0
aa(lp1653
Vtentacle_r_ik_2_anim
p1654
a(lp1655
VtranslateX
p1656
aVtranslateY
p1657
aVtranslateZ
p1658
aVrotateX
p1659
aVrotateY
p1660
aVrotateZ
p1661
aaF0
aF0
aF0
aF0
aF0
aF0
aa(lp1662
Vtentacle_r_ik_3_anim
p1663
a(lp1664
VtranslateX
p1665
aVtranslateY
p1666
aVtranslateZ
p1667
aVrotateX
p1668
aVrotateY
p1669
aVrotateZ
p1670
aaF0
aF0
aF0
aF0
aF0
aF0
aa(lp1671
Vtentacle_r_ik_4_anim
p1672
a(lp1673
VtranslateX
p1674
aVtranslateY
p1675
aVtranslateZ
p1676
aVrotateX
p1677
aVrotateY
p1678
aVrotateZ
p1679
aaF0
aF0
aF0
aF0
aF0
aF0
aa(lp1680
Vtentacle_r_ik_5_anim
p1681
a(lp1682
VtranslateX
p1683
aVtranslateY
p1684
aVtranslateZ
p1685
aVrotateX
p1686
aVrotateY
p1687
aVrotateZ
p1688
aaF0
aF0
aF0
aF0
aF0
aF0
aa(lp1689
Vtentacle_r_ik_6_anim
p1690
a(lp1691
VtranslateX
p1692
aVtranslateY
p1693
aVtranslateZ
p1694
aVrotateX
p1695
aVrotateY
p1696
aVrotateZ
p1697
aaF0
aF0
aF0
aF0
aF0
aF0
aa(lp1698
Vtentacle_r_ik_7_anim
p1699
a(lp1700
VtranslateX
p1701
aVtranslateY
p1702
aVtranslateZ
p1703
aVrotateX
p1704
aVrotateY
p1705
aVrotateZ
p1706
aaF0
aF0
aF0
aF0
aF0
aF0
aa(lp1707
Vtentacle_r_ik_8_anim
p1708
a(lp1709
VtranslateX
p1710
aVtranslateY
p1711
aVtranslateZ
p1712
aVrotateX
p1713
aVrotateY
p1714
aVrotateZ
p1715
aaF0
aF0
aF0
aF0
aF0
aF0
aa(lp1716
Vtentacle_r_ik_9_anim
p1717
a(lp1718
VtranslateX
p1719
aVtranslateY
p1720
aVtranslateZ
p1721
aVrotateX
p1722
aVrotateY
p1723
aVrotateZ
p1724
aaF0
aF0
aF0
aF0
aF0
aF0
aa(lp1725
Vtentacle_r_ik_10_anim
p1726
a(lp1727
VtranslateX
p1728
aVtranslateY
p1729
aVtranslateZ
p1730
aVrotateX
p1731
aVrotateY
p1732
aVrotateZ
p1733
aVclusterControlVis
p1734
aaF0
aF0
aF0
aF0
aF0
aF0
aI00
aa(lp1735
Vtentacle_r_ik_base_anim
p1736
a(lp1737
VtranslateX
p1738
aVtranslateY
p1739
aVtranslateZ
p1740
aVrotateX
p1741
aVrotateY
p1742
aVrotateZ
p1743
aVglobal_scale
p1744
aaF0
aF0
aF0
aF0
aF0
aF0
aF0.99999999999999967
aa(lp1745
Vfk_tentacle_r_01_anim
p1746
a(lp1747
VtranslateX
p1748
aVtranslateY
p1749
aVtranslateZ
p1750
aVrotateX
p1751
aVrotateY
p1752
aVrotateZ
p1753
aVglobal_scale
p1754
aVlagMode
p1755
aaF0
aF0
aF1.4210854715202004e-14
aF90.669440395732011
aF7.9513867036587919e-16
aF0
aF1.0000000000000004
aF0
aa(lp1756
Vtentacle_r_cv_0_anim
p1757
a(lp1758
VtranslateX
p1759
aVtranslateY
p1760
aVtranslateZ
p1761
aaF0
aF0
aF0
aa(lp1762
Vfk_tentacle_r_02_anim
p1763
a(lp1764
VtranslateX
p1765
aVtranslateY
p1766
aVtranslateZ
p1767
aVrotateX
p1768
aVrotateY
p1769
aVrotateZ
p1770
aaF1.4210854715202004e-14
aF-2.8421709430404007e-14
aF0
aF10.780365820694607
aF1.8913525598455561
aF-9.146637994546186
aa(lp1771
Vtentacle_r_cv_1_anim
p1772
a(lp1773
VtranslateX
p1774
aVtranslateY
p1775
aVtranslateZ
p1776
aaF0
aF0
aF0
aa(lp1777
Vfk_tentacle_r_03_anim
p1778
a(lp1779
VtranslateX
p1780
aVtranslateY
p1781
aVtranslateZ
p1782
aVrotateX
p1783
aVrotateY
p1784
aVrotateZ
p1785
aaF1.4210854715202004e-14
aF-2.8421709430404007e-14
aF-2.8421709430404007e-14
aF-2.598775669952909
aF7.4559104560275458
aF4.7454939733078945
aa(lp1786
Vtentacle_r_cv_2_anim
p1787
a(lp1788
VtranslateX
p1789
aVtranslateY
p1790
aVtranslateZ
p1791
aaF0
aF0
aF0
aa(lp1792
Vfk_tentacle_r_04_anim
p1793
a(lp1794
VtranslateX
p1795
aVtranslateY
p1796
aVtranslateZ
p1797
aVrotateX
p1798
aVrotateY
p1799
aVrotateZ
p1800
aaF-1.4210854715202004e-14
aF-4.2632564145606011e-14
aF0
aF-19.904327211603977
aF3.6466269985790154
aF5.2358584826711585
aa(lp1801
Vtentacle_r_cv_3_anim
p1802
a(lp1803
VtranslateX
p1804
aVtranslateY
p1805
aVtranslateZ
p1806
aaF0
aF0
aF0
aa(lp1807
Vfk_tentacle_r_05_anim
p1808
a(lp1809
VtranslateX
p1810
aVtranslateY
p1811
aVtranslateZ
p1812
aVrotateX
p1813
aVrotateY
p1814
aVrotateZ
p1815
aaF-1.4210854715202004e-14
aF1.4210854715202004e-14
aF0
aF-19.717265942492229
aF3.3128955011822643
aF9.1597890629572145
aa(lp1816
Vtentacle_r_cv_4_anim
p1817
a(lp1818
VtranslateX
p1819
aVtranslateY
p1820
aVtranslateZ
p1821
aaF0
aF0
aF0
aa(lp1822
Vfk_tentacle_r_06_anim
p1823
a(lp1824
VtranslateX
p1825
aVtranslateY
p1826
aVtranslateZ
p1827
aVrotateX
p1828
aVrotateY
p1829
aVrotateZ
p1830
aaF1.4210854715202004e-14
aF0
aF0
aF-19.933003797077351
aF1.4382429163983019
aF3.9592325111019142
aa(lp1831
Vtentacle_r_cv_5_anim
p1832
a(lp1833
VtranslateX
p1834
aVtranslateY
p1835
aVtranslateZ
p1836
aaF0
aF0
aF0
aa(lp1837
Vfk_tentacle_r_07_anim
p1838
a(lp1839
VtranslateX
p1840
aVtranslateY
p1841
aVtranslateZ
p1842
aVrotateX
p1843
aVrotateY
p1844
aVrotateZ
p1845
aaF0
aF0
aF0
aF-19.910987922581118
aF1.7270369777622763
aF4.7563517650301392
aa(lp1846
Vtentacle_r_cv_6_anim
p1847
a(lp1848
VtranslateX
p1849
aVtranslateY
p1850
aVtranslateZ
p1851
aaF0
aF0
aF0
aa(lp1852
Vfk_tentacle_r_08_anim
p1853
a(lp1854
VtranslateX
p1855
aVtranslateY
p1856
aVtranslateZ
p1857
aVrotateX
p1858
aVrotateY
p1859
aVrotateZ
p1860
aaF0
aF-1.4210854715202004e-14
aF0
aF-19.95024358355807
aF1.1627167179290636
aF3.1996401714013496
aa(lp1861
Vtentacle_r_cv_7_anim
p1862
a(lp1863
VtranslateX
p1864
aVtranslateY
p1865
aVtranslateZ
p1866
aaF0
aF0
aF0
aa(lp1867
Vfk_tentacle_r_09_anim
p1868
a(lp1869
VtranslateX
p1870
aVtranslateY
p1871
aVtranslateZ
p1872
aVrotateX
p1873
aVrotateY
p1874
aVrotateZ
p1875
aaF0
aF0
aF0
aF-11.782660665858476
aF-0.066834136959324081
aF-0.32039791641367926
aa(lp1876
Vtentacle_r_cv_8_anim
p1877
a(lp1878
VtranslateX
p1879
aVtranslateY
p1880
aVtranslateZ
p1881
aaF0
aF0
aF0
aa(lp1882
Vfk_tentacle_r_010_anim
p1883
a(lp1884
VtranslateX
p1885
aVtranslateY
p1886
aVtranslateZ
p1887
aVrotateX
p1888
aVrotateY
p1889
aVrotateZ
p1890
aaF1.4210854715202004e-14
aF-7.1054273576010019e-15
aF-2.8421709430404007e-14
aF-11.628164798691017
aF-0.15997111582521023
aF-0.81152912650105558
aa(lp1891
Vtentacle_r_cv_9_anim
p1892
a(lp1893
VtranslateX
p1894
aVtranslateY
p1895
aVtranslateZ
p1896
aaF0
aF0
aF0
aa(lp1897
Vfk_tentacle_r_011_anim
p1898
a(lp1899
VtranslateX
p1900
aVtranslateY
p1901
aVtranslateZ
p1902
aVrotateX
p1903
aVrotateY
p1904
aVrotateZ
p1905
aaF0
aF7.1054273576010019e-15
aF0
aF-8.7893016552567484
aF-0.38188034936434162
aF-4.0209823373035496
aa(lp1906
Vtentacle_r_cv_10_anim
p1907
a(lp1908
VtranslateX
p1909
aVtranslateY
p1910
aVtranslateZ
p1911
aaF0
aF0
aF0
aa(lp1912
Vfk_tentacle_r_012_anim
p1913
a(lp1914
VtranslateX
p1915
aVtranslateY
p1916
aVtranslateZ
p1917
aVrotateX
p1918
aVrotateY
p1919
aVrotateZ
p1920
aaF0
aF1.4210854715202004e-14
aF0
aF-5.1364519847955981
aF0.187290060899855
aF-2.7462211319017547
aa(lp1921
Vtentacle_r_cv_11_anim
p1922
a(lp1923
VtranslateX
p1924
aVtranslateY
p1925
aVtranslateZ
p1926
aaF0
aF0
aF0
aa(lp1927
Vfk_tentacle_r_013_anim
p1928
a(lp1929
VtranslateX
p1930
aVtranslateY
p1931
aVtranslateZ
p1932
aVrotateX
p1933
aVrotateY
p1934
aVrotateZ
p1935
aaF0
aF3.5527136788005009e-15
aF5.6843418860808015e-14
aF-7.0192200222579437
aF-0.10053933895265242
aF-3.2859298077670736
aa(lp1936
Vtentacle_r_cv_12_anim
p1937
a(lp1938
VtranslateX
p1939
aVtranslateY
p1940
aVtranslateZ
p1941
aaF0
aF0
aF0
aa(lp1942
Vfk_tentacle_r_014_anim
p1943
a(lp1944
VtranslateX
p1945
aVtranslateY
p1946
aVtranslateZ
p1947
aVrotateX
p1948
aVrotateY
p1949
aVrotateZ
p1950
aaF1.4210854715202004e-14
aF-1.0658141036401503e-14
aF-2.8421709430404007e-14
aF-6.6818756762966593
aF-0.36825054688148862
aF-8.3476496834178651
aa(lp1951
Vtentacle_r_cv_13_anim
p1952
a(lp1953
VtranslateX
p1954
aVtranslateY
p1955
aVtranslateZ
p1956
aaF0
aF0
aF0
aa(lp1957
Vfk_tentacle_r_015_anim
p1958
a(lp1959
VtranslateX
p1960
aVtranslateY
p1961
aVtranslateZ
p1962
aVrotateX
p1963
aVrotateY
p1964
aVrotateZ
p1965
aaF-1.4210854715202004e-14
aF0
aF2.8421709430404007e-14
aF-5.2098236004068923
aF-0.085950641993780302
aF-13.693272832420554
aa(lp1966
Vtentacle_r_cv_14_anim
p1967
a(lp1968
VtranslateX
p1969
aVtranslateY
p1970
aVtranslateZ
p1971
aaF0
aF0
aF0
aa(lp1972
Vfk_tentacle_r_016_anim
p1973
a(lp1974
VtranslateX
p1975
aVtranslateY
p1976
aVtranslateZ
p1977
aVrotateX
p1978
aVrotateY
p1979
aVrotateZ
p1980
aaF0
aF7.1054273576010019e-15
aF-2.8421709430404007e-14
aF-9.4146241228635326
aF-0.10892443812639754
aF-15.985636180992213
aa(lp1981
Vtentacle_r_cv_15_anim
p1982
a(lp1983
VtranslateX
p1984
aVtranslateY
p1985
aVtranslateZ
p1986
aaF0
aF0
aF0
aa(lp1987
Vfk_tentacle_r_017_anim
p1988
a(lp1989
VtranslateX
p1990
aVtranslateY
p1991
aVtranslateZ
p1992
aVrotateX
p1993
aVrotateY
p1994
aVrotateZ
p1995
aaF0
aF-3.5527136788005009e-15
aF2.8421709430404007e-14
aF-8.7714569536271672
aF1.122698275886489
aF-3.5417444717810684
aa(lp1996
Vtentacle_r_cv_16_anim
p1997
a(lp1998
VtranslateX
p1999
aVtranslateY
p2000
aVtranslateZ
p2001
aaF0
aF0
aF0
aa(lp2002
Vfk_tentacle_r_018_anim
p2003
a(lp2004
VtranslateX
p2005
aVtranslateY
p2006
aVtranslateZ
p2007
aVrotateX
p2008
aVrotateY
p2009
aVrotateZ
p2010
aaF0
aF7.1054273576010019e-15
aF0
aF-15.962306888175126
aF4.5058323857234681
aF7.4345652566770974
aa(lp2011
Vtentacle_r_cv_17_anim
p2012
a(lp2013
VtranslateX
p2014
aVtranslateY
p2015
aVtranslateZ
p2016
aaF0
aF0
aF0
aa(lp2017
Vfk_tentacle_r_019_anim
p2018
a(lp2019
VtranslateX
p2020
aVtranslateY
p2021
aVtranslateZ
p2022
aVrotateX
p2023
aVrotateY
p2024
aVrotateZ
p2025
aaF0
aF0
aF-2.8421709430404007e-14
aF-15.962306888175126
aF4.5058323857234681
aF7.4345652566770974
aa(lp2026
Vtentacle_r_cv_18_anim
p2027
a(lp2028
VtranslateX
p2029
aVtranslateY
p2030
aVtranslateZ
p2031
aaF0
aF0
aF0
aa(lp2032
Vfk_tentacle_r_020_anim
p2033
a(lp2034
VtranslateX
p2035
aVtranslateY
p2036
aVtranslateZ
p2037
aVrotateX
p2038
aVrotateY
p2039
aVrotateZ
p2040
aaF0
aF-7.1054273576010019e-15
aF2.8421709430404007e-14
aF-15.962306888175126
aF4.5058323857234681
aF7.4345652566770974
aa(lp2041
Vtentacle_r_cv_19_anim
p2042
a(lp2043
VtranslateX
p2044
aVtranslateY
p2045
aVtranslateZ
p2046
aaF0
aF0
aF0
aa(lp2047
VthrusterVent_l_dyn_anim
p2048
a(lp2049
VtranslateX
p2050
aVtranslateY
p2051
aVtranslateZ
p2052
aVrotateX
p2053
aVrotateY
p2054
aVrotateZ
p2055
aVchainAttach
p2056
aVchainStartEnvelope
p2057
aVchainStartFrame
p2058
aVchainStiffness
p2059
aVchainDamping
p2060
aVchainGravity
p2061
aVchainIteration
p2062
aVchainCollide
p2063
aVchainWidthBase
p2064
aVchainWidthExtremity
p2065
aVchainCollideGround
p2066
aVchainCollideGroundHeight
p2067
aaF0
aF0
aF0
aF0
aF0
aF0
aI1
aF1
aF1
aF0.10000000000000001
aF0.20000000000000001
aF1
aI1
aI00
aF1
aF1
aI00
aF0
aa(lp2068
VthrusterVent_l_ik_2_anim
p2069
a(lp2070
VtranslateX
p2071
aVtranslateY
p2072
aVtranslateZ
p2073
aVrotateX
p2074
aVrotateY
p2075
aVrotateZ
p2076
aaF0
aF0
aF0
aF0
aF0
aF0
aa(lp2077
VthrusterVent_l_ik_3_anim
p2078
a(lp2079
VtranslateX
p2080
aVtranslateY
p2081
aVtranslateZ
p2082
aVrotateX
p2083
aVrotateY
p2084
aVrotateZ
p2085
aVclusterControlVis
p2086
aaF0
aF0
aF0
aF0
aF0
aF0
aI00
aa(lp2087
VthrusterVent_l_ik_base_anim
p2088
a(lp2089
VtranslateX
p2090
aVtranslateY
p2091
aVtranslateZ
p2092
aVrotateX
p2093
aVrotateY
p2094
aVrotateZ
p2095
aVglobal_scale
p2096
aaF0
aF0
aF0
aF0
aF0
aF0
aF1
aa(lp2097
Vfk_thrusterVent_l_01_anim
p2098
a(lp2099
VtranslateX
p2100
aVtranslateY
p2101
aVtranslateZ
p2102
aVrotateX
p2103
aVrotateY
p2104
aVrotateZ
p2105
aVglobal_scale
p2106
aVlagMode
p2107
aaF0
aF0
aF0
aF0
aF-0
aF0
aF1
aF0
aa(lp2108
VthrusterVent_l_cv_0_anim
p2109
a(lp2110
VtranslateX
p2111
aVtranslateY
p2112
aVtranslateZ
p2113
aaF0
aF0
aF0
aa(lp2114
Vfk_thrusterVent_l_02_anim
p2115
a(lp2116
VtranslateX
p2117
aVtranslateY
p2118
aVtranslateZ
p2119
aVrotateX
p2120
aVrotateY
p2121
aVrotateZ
p2122
aaF0
aF0
aF0
aF0
aF-0
aF0
aa(lp2123
VthrusterVent_l_cv_1_anim
p2124
a(lp2125
VtranslateX
p2126
aVtranslateY
p2127
aVtranslateZ
p2128
aaF0
aF0
aF0
aa(lp2129
VthrusterVent_r_dyn_anim
p2130
a(lp2131
VtranslateX
p2132
aVtranslateY
p2133
aVtranslateZ
p2134
aVrotateX
p2135
aVrotateY
p2136
aVrotateZ
p2137
aVchainAttach
p2138
aVchainStartEnvelope
p2139
aVchainStartFrame
p2140
aVchainStiffness
p2141
aVchainDamping
p2142
aVchainGravity
p2143
aVchainIteration
p2144
aVchainCollide
p2145
aVchainWidthBase
p2146
aVchainWidthExtremity
p2147
aVchainCollideGround
p2148
aVchainCollideGroundHeight
p2149
aaF0
aF0
aF0
aF0
aF0
aF0
aI1
aF1
aF1
aF0.10000000000000001
aF0.20000000000000001
aF1
aI1
aI00
aF1
aF1
aI00
aF0
aa(lp2150
VthrusterVent_r_ik_2_anim
p2151
a(lp2152
VtranslateX
p2153
aVtranslateY
p2154
aVtranslateZ
p2155
aVrotateX
p2156
aVrotateY
p2157
aVrotateZ
p2158
aaF-8.8817841970012523e-16
aF0
aF2.8421709430404007e-14
aF0
aF0
aF0
aa(lp2159
VthrusterVent_r_ik_3_anim
p2160
a(lp2161
VtranslateX
p2162
aVtranslateY
p2163
aVtranslateZ
p2164
aVrotateX
p2165
aVrotateY
p2166
aVrotateZ
p2167
aVclusterControlVis
p2168
aaF-8.8817841970012523e-16
aF7.1054273576010019e-15
aF0
aF0
aF0
aF0
aI00
aa(lp2169
VthrusterVent_r_ik_base_anim
p2170
a(lp2171
VtranslateX
p2172
aVtranslateY
p2173
aVtranslateZ
p2174
aVrotateX
p2175
aVrotateY
p2176
aVrotateZ
p2177
aVglobal_scale
p2178
aaF-8.8817841970012523e-16
aF0
aF0
aF0
aF0
aF0
aF1
aa(lp2179
Vfk_thrusterVent_r_01_anim
p2180
a(lp2181
VtranslateX
p2182
aVtranslateY
p2183
aVtranslateZ
p2184
aVrotateX
p2185
aVrotateY
p2186
aVrotateZ
p2187
aVglobal_scale
p2188
aVlagMode
p2189
aaF0
aF-1.7763568394002505e-15
aF0
aF0
aF-0
aF0
aF1
aF0
aa(lp2190
VthrusterVent_r_cv_0_anim
p2191
a(lp2192
VtranslateX
p2193
aVtranslateY
p2194
aVtranslateZ
p2195
aaF0
aF0
aF0
aa(lp2196
Vfk_thrusterVent_r_02_anim
p2197
a(lp2198
VtranslateX
p2199
aVtranslateY
p2200
aVtranslateZ
p2201
aVrotateX
p2202
aVrotateY
p2203
aVrotateZ
p2204
aaF0
aF0
aF0
aF0
aF-0
aF0
aa(lp2205
VthrusterVent_r_cv_1_anim
p2206
a(lp2207
VtranslateX
p2208
aVtranslateY
p2209
aVtranslateZ
p2210
aaF0
aF0
aF0
aa(lp2211
Vthruster_a_l_anim
p2212
a(lp2213
VtranslateX
p2214
aVtranslateY
p2215
aVtranslateZ
p2216
aVrotateX
p2217
aVrotateY
p2218
aVrotateZ
p2219
aVscaleX
p2220
aVscaleY
p2221
aVscaleZ
p2222
aaF-0.037999999999999999
aF-5.0890000000000004
aF-0.79000000000000004
aF-0.40500000000000003
aF-0.10500000000000001
aF-0.16700000000000001
aF1
aF0.434
aF1
aa(lp2223
Vthruster_a_r_anim
p2224
a(lp2225
VtranslateX
p2226
aVtranslateY
p2227
aVtranslateZ
p2228
aVrotateX
p2229
aVrotateY
p2230
aVrotateZ
p2231
aVscaleX
p2232
aVscaleY
p2233
aVscaleZ
p2234
aaF0.037999999999999999
aF5.0890000000000004
aF0.79000000000000004
aF-0.40500000000000003
aF-0.10500000000000001
aF-0.16700000000000001
aF1
aF0.434
aF1
aa(lp2235
Vthruster_b_l_anim
p2236
a(lp2237
VtranslateX
p2238
aVtranslateY
p2239
aVtranslateZ
p2240
aVrotateX
p2241
aVrotateY
p2242
aVrotateZ
p2243
aVscaleX
p2244
aVscaleY
p2245
aVscaleZ
p2246
aaF-0.037999999999999999
aF-5.0890000000000004
aF-0.79000000000000004
aF-0.40500000000000003
aF-0.10500000000000001
aF-0.16700000000000001
aF1
aF0.434
aF1
aa(lp2247
Vthruster_b_r_anim
p2248
a(lp2249
VtranslateX
p2250
aVtranslateY
p2251
aVtranslateZ
p2252
aVrotateX
p2253
aVrotateY
p2254
aVrotateZ
p2255
aVscaleX
p2256
aVscaleY
p2257
aVscaleZ
p2258
aaF0.037999999999999999
aF5.0890000000000004
aF0.79000000000000004
aF-0.40500000000000003
aF-0.10500000000000001
aF-0.16700000000000001
aF1
aF0.434
aF1
aa(lp2259
Vthruster_c_l_anim
p2260
a(lp2261
VtranslateX
p2262
aVtranslateY
p2263
aVtranslateZ
p2264
aVrotateX
p2265
aVrotateY
p2266
aVrotateZ
p2267
aVscaleX
p2268
aVscaleY
p2269
aVscaleZ
p2270
aaF-0.037999999999999999
aF-5.0890000000000004
aF-0.79000000000000004
aF-0.40500000000000003
aF-0.10500000000000001
aF-0.16700000000000001
aF1
aF0.434
aF1
aa(lp2271
Vthruster_c_r_anim
p2272
a(lp2273
VtranslateX
p2274
aVtranslateY
p2275
aVtranslateZ
p2276
aVrotateX
p2277
aVrotateY
p2278
aVrotateZ
p2279
aVscaleX
p2280
aVscaleY
p2281
aVscaleZ
p2282
aaF0.037999999999999999
aF5.0890000000000004
aF0.79000000000000004
aF-0.40500000000000003
aF-0.10500000000000001
aF-0.16700000000000001
aF1
aF0.434
aF1
aa(lp2283
Vthruster_casing_l_anim
p2284
a(lp2285
VtranslateX
p2286
aVtranslateY
p2287
aVtranslateZ
p2288
aVrotateX
p2289
aVrotateY
p2290
aVrotateZ
p2291
aVscaleX
p2292
aVscaleY
p2293
aVscaleZ
p2294
aaF0
aF-9.0459999999999994
aF-1.0649999999999999
aF95.625
aF0
aF0
aF0.39800000000000002
aF0.39800000000000002
aF0.39800000000000002
aa(lp2295
Vthruster_casing_r_anim
p2296
a(lp2297
VtranslateX
p2298
aVtranslateY
p2299
aVtranslateZ
p2300
aVrotateX
p2301
aVrotateY
p2302
aVrotateZ
p2303
aVscaleX
p2304
aVscaleY
p2305
aVscaleZ
p2306
aaF0
aF9.0459999999999994
aF1.0649999999999999
aF95.625
aF0
aF0
aF0.39800000000000002
aF0.39800000000000002
aF0.39800000000000002
aa(lp2307
Vweapon_l_anim
p2308
a(lp2309
VtranslateX
p2310
aVtranslateY
p2311
aVtranslateZ
p2312
aVrotateX
p2313
aVrotateY
p2314
aVrotateZ
p2315
aVscaleX
p2316
aVscaleY
p2317
aVscaleZ
p2318
aVtop_open
p2319
aVbottom_open
p2320
aVdaggers_deploy
p2321
aVdaggerA_swing
p2322
aVdaggerB_swing
p2323
aVdaggerC_swing
p2324
aaF-5.6843418860808015e-14
aF1.4210854715202004e-14
aF4.9737991503207013e-14
aF3.963172589481557
aF-21.127297220002738
aF20.012228697658145
aF1
aF0.99999999999999989
aF0.99999999999999989
aF0
aF0
aF0
aF0
aF0
aF0
aa(lp2325
Vweapon_r_anim
p2326
a(lp2327
VtranslateX
p2328
aVtranslateY
p2329
aVtranslateZ
p2330
aVrotateX
p2331
aVrotateY
p2332
aVrotateZ
p2333
aVscaleX
p2334
aVscaleY
p2335
aVscaleZ
p2336
aVtop_open
p2337
aVbottom_open
p2338
aVdaggers_deploy
p2339
aVdaggerA_swing
p2340
aVdaggerB_swing
p2341
aVdaggerC_swing
p2342
aaF-1.6912003392377528e-05
aF0.0002687073769465087
aF0.00015195299393155892
aF-81.407431316804576
aF4.0925137356278096
aF40.273112103516503
aF1
aF1
aF1
aF0
aF0
aF0
aF0
aF0
aF0
aa(lp2343
Vbody_anim_space_switcher
p2344
a(lp2345
Vvisibility
p2346
aVtranslateX
p2347
aVtranslateY
p2348
aVtranslateZ
p2349
aVrotateX
p2350
aVrotateY
p2351
aVrotateZ
p2352
aVscaleX
p2353
aVscaleY
p2354
aVscaleZ
p2355
aVspace_world
p2356
aaI01
aF0
aF0
aF0
aF0
aF0
aF0
aF1
aF1
aF1
aF0
aa(lp2357
Vchest_ik_anim_space_switcher
p2358
a(lp2359
Vvisibility
p2360
aVtranslateX
p2361
aVtranslateY
p2362
aVtranslateZ
p2363
aVrotateX
p2364
aVrotateY
p2365
aVrotateZ
p2366
aVscaleX
p2367
aVscaleY
p2368
aVscaleZ
p2369
aVspace_world
p2370
aVspace_chest_ik_world_aligned
p2371
aaI01
aF0
aF-3.5527136788005009e-15
aF-5.0487097934144756e-29
aF7.0622500768802555e-31
aF5.6498000615042044e-30
aF0
aF0.99999999999999989
aF0.99999999999999989
aF1
aF0
aF0
aa(lp2372
Vdagger_a_l_anim_space_switcher
p2373
a(lp2374
Vvisibility
p2375
aVtranslateX
p2376
aVtranslateY
p2377
aVtranslateZ
p2378
aVrotateX
p2379
aVrotateY
p2380
aVrotateZ
p2381
aVscaleX
p2382
aVscaleY
p2383
aVscaleZ
p2384
aVspace_world
p2385
aaI01
aF0
aF0
aF0
aF2.2518575625596189e-17
aF-1.987846675914698e-16
aF0
aF1
aF1
aF1
aF0
aa(lp2386
Vdagger_a_r_anim_space_switcher
p2387
a(lp2388
Vvisibility
p2389
aVtranslateX
p2390
aVtranslateY
p2391
aVtranslateZ
p2392
aVrotateX
p2393
aVrotateY
p2394
aVrotateZ
p2395
aVscaleX
p2396
aVscaleY
p2397
aVscaleZ
p2398
aVspace_world
p2399
aaI01
aF-2.8421709430404007e-14
aF-3.5527136788005009e-15
aF1.4210854715202004e-14
aF3.1060104311167148e-18
aF-0
aF0
aF1
aF1.0000000000000002
aF1.0000000000000002
aF0
aa(lp2400
Vdagger_b_l_anim_space_switcher
p2401
a(lp2402
Vvisibility
p2403
aVtranslateX
p2404
aVtranslateY
p2405
aVtranslateZ
p2406
aVrotateX
p2407
aVrotateY
p2408
aVrotateZ
p2409
aVscaleX
p2410
aVscaleY
p2411
aVscaleZ
p2412
aVspace_world
p2413
aaI01
aF0
aF0
aF0
aF2.2518575625596189e-17
aF-1.987846675914698e-16
aF0
aF1
aF1
aF1
aF0
aa(lp2414
Vdagger_b_r_anim_space_switcher
p2415
a(lp2416
Vvisibility
p2417
aVtranslateX
p2418
aVtranslateY
p2419
aVtranslateZ
p2420
aVrotateX
p2421
aVrotateY
p2422
aVrotateZ
p2423
aVscaleX
p2424
aVscaleY
p2425
aVscaleZ
p2426
aVspace_world
p2427
aaI01
aF2.8421709430404007e-14
aF0
aF0
aF3.1060104311167148e-18
aF-0
aF0
aF1
aF1.0000000000000002
aF1.0000000000000002
aF0
aa(lp2428
Vdagger_base_l_anim_space_switcher
p2429
a(lp2430
Vvisibility
p2431
aVtranslateX
p2432
aVtranslateY
p2433
aVtranslateZ
p2434
aVrotateX
p2435
aVrotateY
p2436
aVrotateZ
p2437
aVscaleX
p2438
aVscaleY
p2439
aVscaleZ
p2440
aVspace_world
p2441
aaI01
aF2.8421709430404007e-14
aF0
aF0
aF-8.5415286855709671e-18
aF-1.987846675914698e-16
aF0
aF1
aF1
aF1
aF0
aa(lp2442
Vdagger_base_r_anim_space_switcher
p2443
a(lp2444
Vvisibility
p2445
aVtranslateX
p2446
aVtranslateY
p2447
aVtranslateZ
p2448
aVrotateX
p2449
aVrotateY
p2450
aVrotateZ
p2451
aVscaleX
p2452
aVscaleY
p2453
aVscaleZ
p2454
aVspace_world
p2455
aaI01
aF2.8421709430404007e-14
aF1.7763568394002505e-15
aF1.4210854715202004e-14
aF6.2120208622334312e-18
aF-1.987846675914698e-16
aF0
aF1
aF1
aF1.0000000000000002
aF0
aa(lp2456
Vdagger_c_l_anim_space_switcher
p2457
a(lp2458
Vvisibility
p2459
aVtranslateX
p2460
aVtranslateY
p2461
aVtranslateZ
p2462
aVrotateX
p2463
aVrotateY
p2464
aVrotateZ
p2465
aVscaleX
p2466
aVscaleY
p2467
aVscaleZ
p2468
aVspace_world
p2469
aaI01
aF-2.8421709430404007e-14
aF0
aF0
aF2.2518575625596189e-17
aF-1.987846675914698e-16
aF0
aF1
aF1
aF1
aF0
aa(lp2470
Vdagger_c_r_anim_space_switcher
p2471
a(lp2472
Vvisibility
p2473
aVtranslateX
p2474
aVtranslateY
p2475
aVtranslateZ
p2476
aVrotateX
p2477
aVrotateY
p2478
aVrotateZ
p2479
aVscaleX
p2480
aVscaleY
p2481
aVscaleZ
p2482
aVspace_world
p2483
aaI01
aF0
aF0
aF1.4210854715202004e-14
aF3.1060104311167148e-18
aF-0
aF0
aF1
aF1.0000000000000002
aF1.0000000000000002
aF0
aa(lp2484
VextensionA_l_anim_space_switcher
p2485
a(lp2486
Vvisibility
p2487
aVtranslateX
p2488
aVtranslateY
p2489
aVtranslateZ
p2490
aVrotateX
p2491
aVrotateY
p2492
aVrotateZ
p2493
aVscaleX
p2494
aVscaleY
p2495
aVscaleZ
p2496
aVspace_world
p2497
aaI01
aF0
aF0
aF7.1054273576010019e-15
aF0
aF9.9392333795734899e-17
aF3.975693351829396e-16
aF1
aF1
aF1
aF0
aa(lp2498
VextensionA_r_anim_space_switcher
p2499
a(lp2500
Vvisibility
p2501
aVtranslateX
p2502
aVtranslateY
p2503
aVtranslateZ
p2504
aVrotateX
p2505
aVrotateY
p2506
aVrotateZ
p2507
aVscaleX
p2508
aVscaleY
p2509
aVscaleZ
p2510
aVspace_world
p2511
aaI01
aF0
aF-2.8421709430404007e-14
aF-7.1054273576010019e-15
aF0
aF-4.9696166897867449e-17
aF3.975693351829396e-16
aF1
aF1
aF1
aF0
aa(lp2512
VextensionB_l_anim_space_switcher
p2513
a(lp2514
Vvisibility
p2515
aVtranslateX
p2516
aVtranslateY
p2517
aVtranslateZ
p2518
aVrotateX
p2519
aVrotateY
p2520
aVrotateZ
p2521
aVscaleX
p2522
aVscaleY
p2523
aVscaleZ
p2524
aVspace_world
p2525
aaI01
aF-1.4210854715202004e-14
aF2.8421709430404007e-14
aF7.1054273576010019e-15
aF1.590277340731758e-15
aF4.9696166897867449e-17
aF-3.975693351829396e-16
aF1
aF1.0000000000000002
aF1.0000000000000002
aF0
aa(lp2526
VextensionB_r_anim_space_switcher
p2527
a(lp2528
Vvisibility
p2529
aVtranslateX
p2530
aVtranslateY
p2531
aVtranslateZ
p2532
aVrotateX
p2533
aVrotateY
p2534
aVrotateZ
p2535
aVscaleX
p2536
aVscaleY
p2537
aVscaleZ
p2538
aVspace_world
p2539
aaI01
aF0
aF2.8421709430404007e-14
aF0
aF0
aF-0
aF-3.975693351829396e-16
aF1
aF1.0000000000000002
aF1.0000000000000002
aF0
aa(lp2540
Vik_elbow_l_anim_space_switcher
p2541
a(lp2542
Vvisibility
p2543
aVtranslateX
p2544
aVtranslateY
p2545
aVtranslateZ
p2546
aVrotateX
p2547
aVrotateY
p2548
aVrotateZ
p2549
aVscaleX
p2550
aVscaleY
p2551
aVscaleZ
p2552
aVspace_world
p2553
aVspace_body_anim
p2554
aVspace_chest_ik_anim
p2555
aaI01
aF0
aF0
aF0
aF0
aF0
aF0
aF1
aF1
aF1
aF0
aF0
aF0
aa(lp2556
Vik_elbow_r_anim_space_switcher
p2557
a(lp2558
Vvisibility
p2559
aVtranslateX
p2560
aVtranslateY
p2561
aVtranslateZ
p2562
aVrotateX
p2563
aVrotateY
p2564
aVrotateZ
p2565
aVscaleX
p2566
aVscaleY
p2567
aVscaleZ
p2568
aVspace_world
p2569
aVspace_body_anim
p2570
aVspace_chest_ik_anim
p2571
aaI01
aF0
aF0
aF0
aF0
aF0
aF0
aF1
aF1
aF1
aF0
aF0
aF0
aa(lp2572
Vik_foot_anim_l_space_switcher
p2573
a(lp2574
Vvisibility
p2575
aVtranslateX
p2576
aVtranslateY
p2577
aVtranslateZ
p2578
aVrotateX
p2579
aVrotateY
p2580
aVrotateZ
p2581
aVscaleX
p2582
aVscaleY
p2583
aVscaleZ
p2584
aVspace_world
p2585
aVspace_body_anim
p2586
aaI01
aF0
aF0
aF0
aF0
aF0
aF0
aF1
aF1
aF1
aF0
aF0
aa(lp2587
Vik_foot_anim_r_space_switcher
p2588
a(lp2589
Vvisibility
p2590
aVtranslateX
p2591
aVtranslateY
p2592
aVtranslateZ
p2593
aVrotateX
p2594
aVrotateY
p2595
aVrotateZ
p2596
aVscaleX
p2597
aVscaleY
p2598
aVscaleZ
p2599
aVspace_world
p2600
aVspace_body_anim
p2601
aaI01
aF0
aF0
aF0
aF0
aF0
aF0
aF1
aF1
aF1
aF0
aF0
aa(lp2602
Vik_wrist_l_anim_space_switcher
p2603
a(lp2604
Vvisibility
p2605
aVtranslateX
p2606
aVtranslateY
p2607
aVtranslateZ
p2608
aVrotateX
p2609
aVrotateY
p2610
aVrotateZ
p2611
aVscaleX
p2612
aVscaleY
p2613
aVscaleZ
p2614
aVspace_world
p2615
aVspace_body_anim
p2616
aVspace_head_fk_anim
p2617
aVspace_chest_ik_anim
p2618
aaI01
aF0
aF0
aF0
aF0
aF0
aF0
aF1
aF1
aF1
aF0
aF0
aF0
aF0
aa(lp2619
Vik_wrist_r_anim_space_switcher
p2620
a(lp2621
Vvisibility
p2622
aVtranslateX
p2623
aVtranslateY
p2624
aVtranslateZ
p2625
aVrotateX
p2626
aVrotateY
p2627
aVrotateZ
p2628
aVscaleX
p2629
aVscaleY
p2630
aVscaleZ
p2631
aVspace_world
p2632
aVspace_body_anim
p2633
aVspace_head_fk_anim
p2634
aVspace_chest_ik_anim
p2635
aaI01
aF0
aF0
aF0
aF0
aF0
aF0
aF1
aF1
aF1
aF0
aF0
aF0
aF0
aa(lp2636
Vl_global_ik_anim_space_switcher
p2637
a(lp2638
Vvisibility
p2639
aVtranslateX
p2640
aVtranslateY
p2641
aVtranslateZ
p2642
aVrotateX
p2643
aVrotateY
p2644
aVrotateZ
p2645
aVscaleX
p2646
aVscaleY
p2647
aVscaleZ
p2648
aVspace_world
p2649
aaI01
aF0
aF0
aF0
aF0
aF0
aF0
aF1
aF1
aF1
aF0
aa(lp2650
VlowerArm_bottomPlateA_l_anim_space_switcher
p2651
a(lp2652
Vvisibility
p2653
aVtranslateX
p2654
aVtranslateY
p2655
aVtranslateZ
p2656
aVrotateX
p2657
aVrotateY
p2658
aVrotateZ
p2659
aVscaleX
p2660
aVscaleY
p2661
aVscaleZ
p2662
aVspace_world
p2663
aaI01
aF-2.8421709430404007e-14
aF-7.1054273576010019e-15
aF1.4210854715202004e-14
aF-2.4848083448933725e-17
aF-0
aF-7.9513867036587919e-16
aF1
aF1
aF1.0000000000000002
aF0
aa(lp2664
VlowerArm_bottomPlateA_r_anim_space_switcher
p2665
a(lp2666
Vvisibility
p2667
aVtranslateX
p2668
aVtranslateY
p2669
aVtranslateZ
p2670
aVrotateX
p2671
aVrotateY
p2672
aVrotateZ
p2673
aVscaleX
p2674
aVscaleY
p2675
aVscaleZ
p2676
aVspace_world
p2677
aaI01
aF0
aF-7.1054273576010019e-15
aF-1.4210854715202004e-14
aF-1.4908850069360235e-16
aF-1.987846675914698e-16
aF0
aF1
aF1
aF1
aF0
aa(lp2678
VlowerArm_bottomPlateB_l_anim_space_switcher
p2679
a(lp2680
Vvisibility
p2681
aVtranslateX
p2682
aVtranslateY
p2683
aVtranslateZ
p2684
aVrotateX
p2685
aVrotateY
p2686
aVrotateZ
p2687
aVscaleX
p2688
aVscaleY
p2689
aVscaleZ
p2690
aVspace_world
p2691
aaI01
aF0
aF-7.1054273576010019e-15
aF0
aF0
aF-1.987846675914698e-16
aF0
aF1
aF1
aF1
aF0
aa(lp2692
VlowerArm_bottomPlateB_r_anim_space_switcher
p2693
a(lp2694
Vvisibility
p2695
aVtranslateX
p2696
aVtranslateY
p2697
aVtranslateZ
p2698
aVrotateX
p2699
aVrotateY
p2700
aVrotateZ
p2701
aVscaleX
p2702
aVscaleY
p2703
aVscaleZ
p2704
aVspace_world
p2705
aaI01
aF0
aF0
aF-1.4210854715202004e-14
aF1.4908850069360235e-16
aF-1.987846675914698e-16
aF0
aF1
aF1
aF1
aF0
aa(lp2706
VlowerArm_topPlateA_l_anim_space_switcher
p2707
a(lp2708
Vvisibility
p2709
aVtranslateX
p2710
aVtranslateY
p2711
aVtranslateZ
p2712
aVrotateX
p2713
aVrotateY
p2714
aVrotateZ
p2715
aVscaleX
p2716
aVscaleY
p2717
aVscaleZ
p2718
aVspace_world
p2719
aaI01
aF2.8421709430404007e-14
aF0
aF0
aF-1.490885006936024e-16
aF-0
aF7.9513867036587939e-16
aF0.99999999999999989
aF0.99999999999999989
aF0.99999999999999989
aF0
aa(lp2720
VlowerArm_topPlateA_r_anim_space_switcher
p2721
a(lp2722
Vvisibility
p2723
aVtranslateX
p2724
aVtranslateY
p2725
aVtranslateZ
p2726
aVrotateX
p2727
aVrotateY
p2728
aVrotateZ
p2729
aVscaleX
p2730
aVscaleY
p2731
aVscaleZ
p2732
aVspace_world
p2733
aaI01
aF0
aF0
aF-1.4210854715202004e-14
aF-1.4908850069360235e-16
aF-0
aF-1.5902773407317584e-15
aF1
aF1
aF1
aF0
aa(lp2734
VlowerArm_topPlateB_l_anim_space_switcher
p2735
a(lp2736
Vvisibility
p2737
aVtranslateX
p2738
aVtranslateY
p2739
aVtranslateZ
p2740
aVrotateX
p2741
aVrotateY
p2742
aVrotateZ
p2743
aVscaleX
p2744
aVscaleY
p2745
aVscaleZ
p2746
aVspace_world
p2747
aaI01
aF0
aF0
aF0
aF-2.484808344893373e-16
aF1.987846675914698e-16
aF0
aF1
aF0.99999999999999989
aF1
aF0
aa(lp2748
VlowerArm_topPlateB_r_anim_space_switcher
p2749
a(lp2750
Vvisibility
p2751
aVtranslateX
p2752
aVtranslateY
p2753
aVtranslateZ
p2754
aVrotateX
p2755
aVrotateY
p2756
aVrotateZ
p2757
aVscaleX
p2758
aVscaleY
p2759
aVscaleZ
p2760
aVspace_world
p2761
aaI01
aF0
aF0
aF1.4210854715202004e-14
aF-9.9392333795734924e-17
aF-0
aF0
aF1
aF0.99999999999999989
aF0.99999999999999989
aF0
aa(lp2762
Vmaster_anim_space_switcher
p2763
a(lp2764
Vvisibility
p2765
aVtranslateX
p2766
aVtranslateY
p2767
aVtranslateZ
p2768
aVrotateX
p2769
aVrotateY
p2770
aVrotateZ
p2771
aVscaleX
p2772
aVscaleY
p2773
aVscaleZ
p2774
aVspace_world
p2775
aaI01
aF0
aF0
aF0
aF0
aF0
aF0
aF1
aF1
aF1
aF0
aa(lp2776
VpivotA_l_anim_space_switcher
p2777
a(lp2778
Vvisibility
p2779
aVtranslateX
p2780
aVtranslateY
p2781
aVtranslateZ
p2782
aVrotateX
p2783
aVrotateY
p2784
aVrotateZ
p2785
aVscaleX
p2786
aVscaleY
p2787
aVscaleZ
p2788
aVspace_world
p2789
aaI01
aF1.4210854715202004e-14
aF0
aF0
aF0
aF4.9696166897867449e-17
aF3.975693351829396e-16
aF1
aF1
aF1.0000000000000002
aF0
aa(lp2790
VpivotA_r_anim_space_switcher
p2791
a(lp2792
Vvisibility
p2793
aVtranslateX
p2794
aVtranslateY
p2795
aVtranslateZ
p2796
aVrotateX
p2797
aVrotateY
p2798
aVrotateZ
p2799
aVscaleX
p2800
aVscaleY
p2801
aVscaleZ
p2802
aVspace_world
p2803
aaI01
aF-1.4210854715202004e-14
aF2.8421709430404007e-14
aF0
aF0
aF-4.9696166897867449e-17
aF3.975693351829396e-16
aF1
aF1
aF1
aF0
aa(lp2804
VpivotB_l_anim_space_switcher
p2805
a(lp2806
Vvisibility
p2807
aVtranslateX
p2808
aVtranslateY
p2809
aVtranslateZ
p2810
aVrotateX
p2811
aVrotateY
p2812
aVrotateZ
p2813
aVscaleX
p2814
aVscaleY
p2815
aVscaleZ
p2816
aVspace_world
p2817
aaI01
aF0
aF2.8421709430404007e-14
aF7.1054273576010019e-15
aF1.5902773407317584e-15
aF4.9696166897867449e-17
aF0
aF1
aF1
aF1.0000000000000002
aF0
aa(lp2818
VpivotB_r_anim_space_switcher
p2819
a(lp2820
Vvisibility
p2821
aVtranslateX
p2822
aVtranslateY
p2823
aVtranslateZ
p2824
aVrotateX
p2825
aVrotateY
p2826
aVrotateZ
p2827
aVscaleX
p2828
aVscaleY
p2829
aVscaleZ
p2830
aVspace_world
p2831
aaI01
aF0
aF-5.6843418860808015e-14
aF-7.1054273576010019e-15
aF0
aF-4.9696166897867449e-17
aF-3.975693351829396e-16
aF1
aF1.0000000000000002
aF1.0000000000000002
aF0
aa(lp2832
Vr_global_ik_anim_space_switcher
p2833
a(lp2834
Vvisibility
p2835
aVtranslateX
p2836
aVtranslateY
p2837
aVtranslateZ
p2838
aVrotateX
p2839
aVrotateY
p2840
aVrotateZ
p2841
aVscaleX
p2842
aVscaleY
p2843
aVscaleZ
p2844
aVspace_world
p2845
aaI01
aF0
aF0
aF0
aF0
aF0
aF0
aF1
aF1
aF1
aF0
aa(lp2846
Vspine_01_space_switcher
p2847
a(lp2848
Vvisibility
p2849
aVtranslateX
p2850
aVtranslateY
p2851
aVtranslateZ
p2852
aVrotateX
p2853
aVrotateY
p2854
aVrotateZ
p2855
aVscaleX
p2856
aVscaleY
p2857
aVscaleZ
p2858
aVspace_world
p2859
aaI01
aF0
aF0
aF0
aF0
aF-5.649800061504203e-30
aF0
aF1
aF1
aF1
aF0
aa(lp2860
Vsword_handle_l_anim_space_switcher
p2861
a(lp2862
Vvisibility
p2863
aVtranslateX
p2864
aVtranslateY
p2865
aVtranslateZ
p2866
aVrotateX
p2867
aVrotateY
p2868
aVrotateZ
p2869
aVscaleX
p2870
aVscaleY
p2871
aVscaleZ
p2872
aVspace_world
p2873
aaI01
aF0
aF5.6843418860808015e-14
aF-7.1054273576010019e-15
aF-1.5902773407317584e-15
aF-0
aF0
aF1
aF1
aF1
aF0
aa(lp2874
Vsword_handle_r_anim_space_switcher
p2875
a(lp2876
Vvisibility
p2877
aVtranslateX
p2878
aVtranslateY
p2879
aVtranslateZ
p2880
aVrotateX
p2881
aVrotateY
p2882
aVrotateZ
p2883
aVscaleX
p2884
aVscaleY
p2885
aVscaleZ
p2886
aVspace_world
p2887
aaI01
aF1.4210854715202004e-14
aF2.8421709430404007e-14
aF0
aF0
aF-4.9696166897867449e-17
aF3.975693351829396e-16
aF1
aF1.0000000000000002
aF1
aF0
aa(lp2888
Vsword_root_l_anim_space_switcher
p2889
a(lp2890
Vvisibility
p2891
aVtranslateX
p2892
aVtranslateY
p2893
aVtranslateZ
p2894
aVrotateX
p2895
aVrotateY
p2896
aVrotateZ
p2897
aVscaleX
p2898
aVscaleY
p2899
aVscaleZ
p2900
aVspace_world
p2901
aaI01
aF0
aF5.6843418860808015e-14
aF0
aF-1.5902773407317584e-15
aF-0
aF0
aF1
aF1
aF1
aF0
aa(lp2902
Vsword_root_r_anim_space_switcher
p2903
a(lp2904
Vvisibility
p2905
aVtranslateX
p2906
aVtranslateY
p2907
aVtranslateZ
p2908
aVrotateX
p2909
aVrotateY
p2910
aVrotateZ
p2911
aVscaleX
p2912
aVscaleY
p2913
aVscaleZ
p2914
aVspace_world
p2915
aaI01
aF1.4210854715202004e-14
aF0
aF0
aF1.5902773407317584e-15
aF4.9696166897867462e-17
aF0
aF0.99999999999999989
aF1
aF0.99999999999999989
aF0
aa(lp2916
Vthruster_a_l_anim_space_switcher
p2917
a(lp2918
Vvisibility
p2919
aVtranslateX
p2920
aVtranslateY
p2921
aVtranslateZ
p2922
aVrotateX
p2923
aVrotateY
p2924
aVrotateZ
p2925
aVscaleX
p2926
aVscaleY
p2927
aVscaleZ
p2928
aVspace_world
p2929
aaI01
aF-7.1054273576010019e-15
aF-7.1054273576010019e-15
aF-2.8421709430404007e-14
aF0
aF-0
aF7.9513867036587899e-16
aF1.0000000000000002
aF1.0000000000000002
aF1.0000000000000002
aF0
aa(lp2930
Vthruster_a_r_anim_space_switcher
p2931
a(lp2932
Vvisibility
p2933
aVtranslateX
p2934
aVtranslateY
p2935
aVtranslateZ
p2936
aVrotateX
p2937
aVrotateY
p2938
aVrotateZ
p2939
aVscaleX
p2940
aVscaleY
p2941
aVscaleZ
p2942
aVspace_world
p2943
aaI01
aF0
aF-7.1054273576010019e-15
aF-2.8421709430404007e-14
aF0
aF0
aF0
aF1
aF1
aF1
aF0
aa(lp2944
Vthruster_b_l_anim_space_switcher
p2945
a(lp2946
Vvisibility
p2947
aVtranslateX
p2948
aVtranslateY
p2949
aVtranslateZ
p2950
aVrotateX
p2951
aVrotateY
p2952
aVrotateZ
p2953
aVscaleX
p2954
aVscaleY
p2955
aVscaleZ
p2956
aVspace_world
p2957
aaI01
aF0
aF-3.5527136788005009e-15
aF-2.8421709430404007e-14
aF0
aF3.1805546814635176e-15
aF3.1805546814635176e-15
aF0.99999999999999989
aF0.99999999999999989
aF0.99999999999999978
aF0
aa(lp2958
Vthruster_b_r_anim_space_switcher
p2959
a(lp2960
Vvisibility
p2961
aVtranslateX
p2962
aVtranslateY
p2963
aVtranslateZ
p2964
aVrotateX
p2965
aVrotateY
p2966
aVrotateZ
p2967
aVscaleX
p2968
aVscaleY
p2969
aVscaleZ
p2970
aVspace_world
p2971
aaI01
aF0
aF0
aF2.8421709430404007e-14
aF1.5902773407317588e-15
aF-0
aF3.1805546814635176e-15
aF0.99999999999999989
aF0.99999999999999989
aF1
aF0
aa(lp2972
Vthruster_c_l_anim_space_switcher
p2973
a(lp2974
Vvisibility
p2975
aVtranslateX
p2976
aVtranslateY
p2977
aVtranslateZ
p2978
aVrotateX
p2979
aVrotateY
p2980
aVrotateZ
p2981
aVscaleX
p2982
aVscaleY
p2983
aVscaleZ
p2984
aVspace_world
p2985
aaI01
aF-7.1054273576010019e-15
aF-3.5527136788005009e-15
aF0
aF1.5902773407317584e-15
aF1.5902773407317584e-15
aF-3.975693351829396e-16
aF1
aF1
aF1
aF0
aa(lp2986
Vthruster_c_r_anim_space_switcher
p2987
a(lp2988
Vvisibility
p2989
aVtranslateX
p2990
aVtranslateY
p2991
aVtranslateZ
p2992
aVrotateX
p2993
aVrotateY
p2994
aVrotateZ
p2995
aVscaleX
p2996
aVscaleY
p2997
aVscaleZ
p2998
aVspace_world
p2999
aaI01
aF-7.1054273576010019e-15
aF0
aF-5.6843418860808015e-14
aF-1.5902773407317588e-15
aF3.1805546814635168e-15
aF2.3854160110976376e-15
aF1
aF0.99999999999999978
aF1
aF0
aa(lp3000
Vthruster_casing_l_anim_space_switcher
p3001
a(lp3002
Vvisibility
p3003
aVtranslateX
p3004
aVtranslateY
p3005
aVtranslateZ
p3006
aVrotateX
p3007
aVrotateY
p3008
aVrotateZ
p3009
aVscaleX
p3010
aVscaleY
p3011
aVscaleZ
p3012
aVspace_world
p3013
aaI01
aF0
aF0
aF0
aF0
aF0
aF0
aF1
aF1
aF1
aF0
aa(lp3014
Vthruster_casing_r_anim_space_switcher
p3015
a(lp3016
Vvisibility
p3017
aVtranslateX
p3018
aVtranslateY
p3019
aVtranslateZ
p3020
aVrotateX
p3021
aVrotateY
p3022
aVrotateZ
p3023
aVscaleX
p3024
aVscaleY
p3025
aVscaleZ
p3026
aVspace_world
p3027
aaI01
aF-8.8817841970012523e-16
aF-3.5527136788005009e-15
aF0
aF0
aF0
aF0
aF1
aF1
aF1
aF0
aa(lp3028
Vweapon_l_anim_space_switcher
p3029
a(lp3030
Vvisibility
p3031
aVtranslateX
p3032
aVtranslateY
p3033
aVtranslateZ
p3034
aVrotateX
p3035
aVrotateY
p3036
aVrotateZ
p3037
aVscaleX
p3038
aVscaleY
p3039
aVscaleZ
p3040
aVspace_world
p3041
aVspace_driver_hand_l
p3042
aaI01
aF0
aF0
aF-7.1054273576010019e-15
aF0
aF-7.4544250346801174e-17
aF0
aF1
aF1.0000000000000002
aF1.0000000000000002
aF0
aF0
aa(lp3043
Vweapon_r_anim_space_switcher
p3044
a(lp3045
Vvisibility
p3046
aVtranslateX
p3047
aVtranslateY
p3048
aVtranslateZ
p3049
aVrotateX
p3050
aVrotateY
p3051
aVrotateZ
p3052
aVscaleX
p3053
aVscaleY
p3054
aVscaleZ
p3055
aVspace_world
p3056
aVspace_driver_hand_r
p3057
aaI01
aF-1.4210854715202004e-14
aF-5.6843418860808015e-14
aF0
aF0
aF0
aF0
aF1
aF1
aF1
aF0
aF0
aa.