(lp1
(lp2
S'head_fk_anim'
p3
a(lp4
VrotateX
p5
aVrotateY
p6
aVrotateZ
p7
aVfkOrientation
p8
aaF1.6836085320683147
aF-2.7654573122013888
aF60.826158033589593
aI0
aa(lp9
S'neck_01_fk_anim'
p10
a(lp11
VrotateX
p12
aVrotateY
p13
aVrotateZ
p14
aVfkOrientation
p15
aaF0.35610818614901624
aF5.0570020394784407
aF6.4135705026907219
aI0
aa(lp16
S'spine_01_anim'
p17
a(lp18
Vlength
p19
aVtranslateY
p20
aVtranslateZ
p21
aVrotateX
p22
aVrotateY
p23
aVrotateZ
p24
aaF0
aF0
aF0
aF0
aF0
aF-56.16607486590491
aa(lp25
S'spine_02_anim'
p26
a(lp27
Vlength
p28
aVtranslateY
p29
aVtranslateZ
p30
aVrotateX
p31
aVrotateY
p32
aVrotateZ
p33
aaF0
aF0
aF0
aF4.6266581089038716
aF3.297613973570356
aF-54.59479776883083
aa(lp34
S'spine_03_anim'
p35
a(lp36
Vlength
p37
aVtranslateY
p38
aVtranslateZ
p39
aVrotateX
p40
aVrotateY
p41
aVrotateZ
p42
aaF0.9203735600981171
aF-4.4483385793247514
aF-0.55069188546001657
aF0.65208224119593472
aF1.7702592784664115
aF-20.225240554745838
aa(lp43
S'mid_ik_anim'
p44
a(lp45
VtranslateX
p46
aVtranslateY
p47
aVtranslateZ
p48
aVrotateX
p49
aVrotateY
p50
aVrotateZ
p51
aaF0
aF0
aF0
aF0
aF0
aF0
aa(lp52
S'chest_ik_anim'
p53
a(lp54
VtranslateX
p55
aVtranslateY
p56
aVtranslateZ
p57
aVrotateX
p58
aVrotateY
p59
aVrotateZ
p60
aVstretch
p61
aVtwist_amount
p62
aVspine_01_twistAmount
p63
aVspine_02_twistAmount
p64
aVautoSpine
p65
aVrotationInfluence
p66
aaF0
aF0
aF0
aF0
aF0
aF0
aF0
aF1
aF0.33333333333333331
aF0.66666666666666663
aF0
aF0.25
aa(lp67
S'body_anim'
p68
a(lp69
VtranslateX
p70
aVtranslateY
p71
aVtranslateZ
p72
aVrotateX
p73
aVrotateY
p74
aVrotateZ
p75
aaF14.690285037801702
aF-15.6945167481041
aF-2.8841714245364489
aF-10.263743383979785
aF-0.41275564769462553
aF43.512687846156858
aa(lp76
S'hip_anim'
p77
a(lp78
VtranslateX
p79
aVtranslateY
p80
aVtranslateZ
p81
aVrotateX
p82
aVrotateY
p83
aVrotateZ
p84
aVlTwistCtrlVis
p85
aVlCalfTwistCtrlVis
p86
aVrTwistCtrlVis
p87
aVrCalfTwistCtrlVis
p88
aVautoHips
p89
aaF0
aF0
aF0
aF-0.11469397399849084
aF-1.4568595003536275
aF-4.5019213838637224
aI00
aI00
aI00
aI00
aF0
aa(lp90
S'clavicle_l_anim'
p91
a(lp92
VtranslateX
p93
aVtranslateY
p94
aVtranslateZ
p95
aVautoShoulders
p96
aVtwistCtrlVis
p97
aaF-3.117719665876435
aF8.6906756120507449
aF0.55139204726337887
aF0
aI00
aa(lp98
S'clavicle_r_anim'
p99
a(lp100
VtranslateX
p101
aVtranslateY
p102
aVtranslateZ
p103
aVautoShoulders
p104
aVtwistCtrlVis
p105
aaF0.24238810776664063
aF6.8577867195409654
aF3.8984545456635362
aF0
aI00
aa(lp106
S'fk_arm_l_anim'
p107
a(lp108
VtranslateX
p109
aVtranslateY
p110
aVtranslateZ
p111
aVrotateX
p112
aVrotateY
p113
aVrotateZ
p114
aaF0
aF0
aF0
aF0
aF0
aF0
aa(lp115
S'fk_arm_r_anim'
p116
a(lp117
VtranslateX
p118
aVtranslateY
p119
aVtranslateZ
p120
aVrotateX
p121
aVrotateY
p122
aVrotateZ
p123
aaF0
aF0
aF0
aF0
aF0
aF0
aa(lp124
S'fk_elbow_l_anim'
p125
a(lp126
VtranslateX
p127
aVtranslateY
p128
aVtranslateZ
p129
aVrotateX
p130
aVrotateY
p131
aVrotateZ
p132
aaF0
aF0
aF0
aF0
aF0
aF0
aa(lp133
S'fk_elbow_r_anim'
p134
a(lp135
VtranslateX
p136
aVtranslateY
p137
aVtranslateZ
p138
aVrotateX
p139
aVrotateY
p140
aVrotateZ
p141
aaF0
aF0
aF0
aF0
aF0
aF0
aa(lp142
S'fk_wrist_l_anim'
p143
a(lp144
VtranslateX
p145
aVtranslateY
p146
aVtranslateZ
p147
aVrotateX
p148
aVrotateY
p149
aVrotateZ
p150
aaF0
aF0
aF0
aF0
aF0
aF0
aa(lp151
S'fk_wrist_r_anim'
p152
a(lp153
VtranslateX
p154
aVtranslateY
p155
aVtranslateZ
p156
aVrotateX
p157
aVrotateY
p158
aVrotateZ
p159
aaF0
aF0
aF0
aF0
aF0
aF0
aa(lp160
S'ik_elbow_l_anim'
p161
a(lp162
VtranslateX
p163
aVtranslateY
p164
aVtranslateZ
p165
aaF-22.90170328328546
aF-19.348070359684336
aF45.265729914016084
aa(lp166
S'ik_elbow_r_anim'
p167
a(lp168
VtranslateX
p169
aVtranslateY
p170
aVtranslateZ
p171
aaF-0.14445789912493015
aF18.972419700056001
aF46.926824661422565
aa(lp172
S'ik_wrist_l_anim'
p173
a(lp174
VtranslateX
p175
aVtranslateY
p176
aVtranslateZ
p177
aVrotateX
p178
aVrotateY
p179
aVrotateZ
p180
aVstretch
p181
aVbias
p182
aVside
p183
aVmid_bend
p184
aVmid_swivel
p185
aVtip_pivot
p186
aVtip_swivel
p187
aaF-18.505982687585291
aF-30.73898428112804
aF3.1918424354971688
aF-317.30290391312536
aF3.6162936659149536
aF-318.29194456538397
aF0
aF1
aF0
aF0
aF0
aF0
aF0
aa(lp188
S'ik_wrist_r_anim'
p189
a(lp190
VtranslateX
p191
aVtranslateY
p192
aVtranslateZ
p193
aVrotateX
p194
aVrotateY
p195
aVrotateZ
p196
aVstretch
p197
aVbias
p198
aVside
p199
aVmid_bend
p200
aVmid_swivel
p201
aVtip_pivot
p202
aVtip_swivel
p203
aaF22.037195941244295
aF-45.64290870243611
aF-9.922709661141031
aF-150.99170828552258
aF-182.00643052493197
aF161.67813168310454
aF0
aF1
aF0
aF0
aF0
aF0
aF0
aa(lp204
S'fk_thigh_l_anim'
p205
a(lp206
VrotateX
p207
aVrotateY
p208
aVrotateZ
p209
aaF0
aF0
aF0
aa(lp210
S'fk_thigh_r_anim'
p211
a(lp212
VrotateX
p213
aVrotateY
p214
aVrotateZ
p215
aaF0
aF0
aF0
aa(lp216
S'fk_calf_l_anim'
p217
a(lp218
VrotateX
p219
aVrotateY
p220
aVrotateZ
p221
aaF0
aF0
aF0
aa(lp222
S'fk_calf_r_anim'
p223
a(lp224
VrotateX
p225
aVrotateY
p226
aVrotateZ
p227
aaF0
aF0
aF0
aa(lp228
S'fk_foot_l_anim'
p229
a(lp230
VrotateX
p231
aVrotateY
p232
aVrotateZ
p233
aaF0
aF0
aF0
aa(lp234
S'fk_foot_r_anim'
p235
a(lp236
VrotateX
p237
aVrotateY
p238
aVrotateZ
p239
aaF0
aF0
aF0
aa(lp240
S'fk_ball_l_anim'
p241
a(lp242
VrotateX
p243
aVrotateY
p244
aVrotateZ
p245
aaF0
aF0
aF0
aa(lp246
S'fk_ball_r_anim'
p247
a(lp248
VrotateX
p249
aVrotateY
p250
aVrotateZ
p251
aaF0
aF0
aF0
aa(lp252
S'ik_foot_anim_l'
p253
a(lp254
VtranslateX
p255
aVtranslateY
p256
aVtranslateZ
p257
aVrotateX
p258
aVrotateY
p259
aVrotateZ
p260
aVknee_twist
p261
aVstretch
p262
aVbias
p263
aVtoeCtrlVis
p264
aaF-27.11390054464902
aF-38.752799643955647
aF114.68686039159752
aF51.189968059243981
aF25.854817041743885
aF11.180888675246477
aF9.5
aF0
aF1
aI00
aa(lp265
S'ik_foot_anim_r'
p266
a(lp267
VtranslateX
p268
aVtranslateY
p269
aVtranslateZ
p270
aVrotateX
p271
aVrotateY
p272
aVrotateZ
p273
aVknee_twist
p274
aVstretch
p275
aVbias
p276
aVtoeCtrlVis
p277
aaF26.895346040829558
aF-27.178653706502462
aF116.43860560778595
aF71.242389279079248
aF-14.424519349604898
aF-53.134792558833531
aF34.899999999999999
aF0
aF1
aI00
aa(lp278
S'heel_ctrl_l'
p279
a(lp280
VrotateX
p281
aVrotateY
p282
aVrotateZ
p283
aVheelPivot
p284
aVballPivot
p285
aaF0
aF0
aF0
aF0
aF0
aa(lp286
S'heel_ctrl_r'
p287
a(lp288
VrotateX
p289
aVrotateY
p290
aVrotateZ
p291
aVheelPivot
p292
aVballPivot
p293
aaF4.9817803072520928
aF12.175167388277885
aF-6.652458001698049
aF0
aF0
aa(lp294
S'toe_wiggle_ctrl_l'
p295
a(lp296
VrotateX
p297
aVrotateY
p298
aVrotateZ
p299
aaF0
aF0
aF-20.872615148186728
aa(lp300
S'toe_wiggle_ctrl_r'
p301
a(lp302
VrotateX
p303
aVrotateY
p304
aVrotateZ
p305
aaF0
aF0
aF-17.145874017165987
aa(lp306
S'toe_tip_ctrl_l'
p307
a(lp308
VrotateX
p309
aVrotateY
p310
aVrotateZ
p311
aaF0
aF0
aF0
aa(lp312
S'toe_tip_ctrl_r'
p313
a(lp314
VrotateX
p315
aVrotateY
p316
aVrotateZ
p317
aaF0
aF0
aF0
aa(lp318
S'master_anim'
p319
a(lp320
VtranslateX
p321
aVtranslateY
p322
aVtranslateZ
p323
aVrotateX
p324
aVrotateY
p325
aVrotateZ
p326
aaF0
aF0
aF0
aF0
aF0
aF0
aa(lp327
S'offset_anim'
p328
a(lp329
VtranslateX
p330
aVtranslateY
p331
aVtranslateZ
p332
aVrotateX
p333
aVrotateY
p334
aVrotateZ
p335
aaF0
aF0
aF0
aF0
aF0
aF0
aa(lp336
S'root_anim'
p337
a(lp338
VtranslateX
p339
aVtranslateY
p340
aVtranslateZ
p341
aVrotateX
p342
aVrotateY
p343
aVrotateZ
p344
aaF0
aF0
aF0
aF0
aF0
aF0
aa(lp345
S'upperarm_l_twist_anim'
p346
a(lp347
VtranslateX
p348
aVtranslateY
p349
aVtranslateZ
p350
aVrotateX
p351
aVrotateY
p352
aVrotateZ
p353
aaF0
aF0
aF0
aF-46.452155372347725
aF0
aF0
aa(lp354
S'upperarm_r_twist_anim'
p355
a(lp356
VtranslateX
p357
aVtranslateY
p358
aVtranslateZ
p359
aVrotateX
p360
aVrotateY
p361
aVrotateZ
p362
aaF0
aF0
aF0
aF47.769015300704311
aF0
aF0
aa(lp363
S'thigh_l_twist_anim'
p364
a(lp365
VtranslateX
p366
aVtranslateY
p367
aVtranslateZ
p368
aVrotateX
p369
aVrotateY
p370
aVrotateZ
p371
aaF0
aF0
aF0
aF0
aF0
aF0
aa(lp372
S'thigh_r_twist_anim'
p373
a(lp374
VtranslateX
p375
aVtranslateY
p376
aVtranslateZ
p377
aVrotateX
p378
aVrotateY
p379
aVrotateZ
p380
aaF0
aF0
aF0
aF0
aF0
aF0
aa(lp381
S'pinky_finger_fk_ctrl_1_l'
p382
a(lp383
VtranslateX
p384
aVtranslateY
p385
aVtranslateZ
p386
aVrotateX
p387
aVrotateY
p388
aVrotateZ
p389
aVsticky
p390
aaF0
aF0
aF0
aF0
aF0
aF67.465302944955894
aF0
aa(lp391
S'pinky_finger_fk_ctrl_1_r'
p392
a(lp393
VtranslateX
p394
aVtranslateY
p395
aVtranslateZ
p396
aVrotateX
p397
aVrotateY
p398
aVrotateZ
p399
aVsticky
p400
aaF0
aF0
aF0
aF0
aF0
aF67.465302944955894
aF0
aa(lp401
S'pinky_finger_fk_ctrl_2_l'
p402
a(lp403
VtranslateX
p404
aVtranslateY
p405
aVtranslateZ
p406
aVrotateX
p407
aVrotateY
p408
aVrotateZ
p409
aaF0
aF0
aF0
aF0
aF0
aF126.85537155640378
aa(lp410
S'pinky_finger_fk_ctrl_2_r'
p411
a(lp412
VtranslateX
p413
aVtranslateY
p414
aVtranslateZ
p415
aVrotateX
p416
aVrotateY
p417
aVrotateZ
p418
aaF0
aF0
aF0
aF0
aF0
aF126.85537155640378
aa(lp419
S'pinky_finger_fk_ctrl_3_l'
p420
a(lp421
VtranslateX
p422
aVtranslateY
p423
aVtranslateZ
p424
aVrotateX
p425
aVrotateY
p426
aVrotateZ
p427
aaF0
aF0
aF0
aF0
aF0
aF52.811381648203898
aa(lp428
S'pinky_finger_fk_ctrl_3_r'
p429
a(lp430
VtranslateX
p431
aVtranslateY
p432
aVtranslateZ
p433
aVrotateX
p434
aVrotateY
p435
aVrotateZ
p436
aaF0
aF0
aF0
aF0
aF0
aF52.811381648203891
aa(lp437
S'middle_finger_fk_ctrl_1_l'
p438
a(lp439
VtranslateX
p440
aVtranslateY
p441
aVtranslateZ
p442
aVrotateX
p443
aVrotateY
p444
aVrotateZ
p445
aVsticky
p446
aaF0
aF0
aF0
aF0
aF0
aF63.661206954731128
aF0
aa(lp447
S'middle_finger_fk_ctrl_1_r'
p448
a(lp449
VtranslateX
p450
aVtranslateY
p451
aVtranslateZ
p452
aVrotateX
p453
aVrotateY
p454
aVrotateZ
p455
aVsticky
p456
aaF0
aF0
aF0
aF0
aF0
aF63.661206954731128
aF0
aa(lp457
S'middle_finger_fk_ctrl_2_l'
p458
a(lp459
VtranslateX
p460
aVtranslateY
p461
aVtranslateZ
p462
aVrotateX
p463
aVrotateY
p464
aVrotateZ
p465
aaF0
aF0
aF0
aF0
aF0
aF133.59350062543939
aa(lp466
S'middle_finger_fk_ctrl_2_r'
p467
a(lp468
VtranslateX
p469
aVtranslateY
p470
aVtranslateZ
p471
aVrotateX
p472
aVrotateY
p473
aVrotateZ
p474
aaF0
aF0
aF0
aF0
aF0
aF133.59350062543939
aa(lp475
S'middle_finger_fk_ctrl_3_l'
p476
a(lp477
VtranslateX
p478
aVtranslateY
p479
aVtranslateZ
p480
aVrotateX
p481
aVrotateY
p482
aVrotateZ
p483
aaF0
aF0
aF0
aF0
aF0
aF0
aa(lp484
S'middle_finger_fk_ctrl_3_r'
p485
a(lp486
VtranslateX
p487
aVtranslateY
p488
aVtranslateZ
p489
aVrotateX
p490
aVrotateY
p491
aVrotateZ
p492
aaF0
aF0
aF0
aF0
aF0
aF0
aa(lp493
S'index_finger_fk_ctrl_1_l'
p494
a(lp495
VtranslateX
p496
aVtranslateY
p497
aVtranslateZ
p498
aVrotateX
p499
aVrotateY
p500
aVrotateZ
p501
aVsticky
p502
aaF0
aF0
aF0
aF10.830620356075823
aF-7.3355858286821753
aF69.113012273789167
aF0
aa(lp503
S'index_finger_fk_ctrl_1_r'
p504
a(lp505
VtranslateX
p506
aVtranslateY
p507
aVtranslateZ
p508
aVrotateX
p509
aVrotateY
p510
aVrotateZ
p511
aVsticky
p512
aaF0
aF0
aF0
aF10.830620356075821
aF-7.3355858286821753
aF69.113012273789167
aF0
aa(lp513
S'index_finger_fk_ctrl_2_l'
p514
a(lp515
VtranslateX
p516
aVtranslateY
p517
aVtranslateZ
p518
aVrotateX
p519
aVrotateY
p520
aVrotateZ
p521
aaF0
aF0
aF0
aF0
aF0
aF135.90676302855266
aa(lp522
S'index_finger_fk_ctrl_2_r'
p523
a(lp524
VtranslateX
p525
aVtranslateY
p526
aVtranslateZ
p527
aVrotateX
p528
aVrotateY
p529
aVrotateZ
p530
aaF0
aF0
aF0
aF0
aF0
aF135.90676302855266
aa(lp531
S'index_finger_fk_ctrl_3_l'
p532
a(lp533
VtranslateX
p534
aVtranslateY
p535
aVtranslateZ
p536
aVrotateX
p537
aVrotateY
p538
aVrotateZ
p539
aaF0
aF0
aF0
aF0
aF0
aF36.734456103288835
aa(lp540
S'index_finger_fk_ctrl_3_r'
p541
a(lp542
VtranslateX
p543
aVtranslateY
p544
aVtranslateZ
p545
aVrotateX
p546
aVrotateY
p547
aVrotateZ
p548
aaF0
aF0
aF0
aF0
aF0
aF36.734456103288835
aa(lp549
S'thumb_finger_fk_ctrl_1_l'
p550
a(lp551
VtranslateX
p552
aVtranslateY
p553
aVtranslateZ
p554
aVrotateX
p555
aVrotateY
p556
aVrotateZ
p557
aVsticky
p558
aaF0
aF0
aF0
aF7.2929083564820845
aF-8.856074823173179
aF-16.455722744949036
aF0
aa(lp559
S'thumb_finger_fk_ctrl_1_r'
p560
a(lp561
VtranslateX
p562
aVtranslateY
p563
aVtranslateZ
p564
aVrotateX
p565
aVrotateY
p566
aVrotateZ
p567
aVsticky
p568
aaF0
aF0
aF0
aF7.2929083564820845
aF-8.856074823173179
aF-16.455722744949036
aF0
aa(lp569
S'thumb_finger_fk_ctrl_2_l'
p570
a(lp571
VtranslateX
p572
aVtranslateY
p573
aVtranslateZ
p574
aVrotateX
p575
aVrotateY
p576
aVrotateZ
p577
aaF0
aF0
aF0
aF0
aF0
aF105.96004398419824
aa(lp578
S'thumb_finger_fk_ctrl_2_r'
p579
a(lp580
VtranslateX
p581
aVtranslateY
p582
aVtranslateZ
p583
aVrotateX
p584
aVrotateY
p585
aVrotateZ
p586
aaF0
aF0
aF0
aF0
aF0
aF105.96004398419824
aa(lp587
S'thumb_finger_fk_ctrl_3_l'
p588
a(lp589
VtranslateX
p590
aVtranslateY
p591
aVtranslateZ
p592
aVrotateX
p593
aVrotateY
p594
aVrotateZ
p595
aaF0
aF0
aF0
aF0
aF0
aF59.776097733833311
aa(lp596
S'thumb_finger_fk_ctrl_3_r'
p597
a(lp598
VtranslateX
p599
aVtranslateY
p600
aVtranslateZ
p601
aVrotateX
p602
aVrotateY
p603
aVrotateZ
p604
aaF0
aF0
aF0
aF0
aF0
aF59.776097733833311
aa(lp605
S'index_l_ik_anim'
p606
a(lp607
VtranslateX
p608
aVtranslateY
p609
aVtranslateZ
p610
aVrotateX
p611
aVrotateY
p612
aVrotateZ
p613
aVpoleVectorVis
p614
aaF0
aF0
aF0
aF0
aF0
aF0
aF0
aa(lp615
S'index_r_ik_anim'
p616
a(lp617
VtranslateX
p618
aVtranslateY
p619
aVtranslateZ
p620
aVrotateX
p621
aVrotateY
p622
aVrotateZ
p623
aVpoleVectorVis
p624
aaF0
aF0
aF0
aF0
aF0
aF0
aF0
aa(lp625
S'middle_l_ik_anim'
p626
a(lp627
VtranslateX
p628
aVtranslateY
p629
aVtranslateZ
p630
aVrotateX
p631
aVrotateY
p632
aVrotateZ
p633
aVpoleVectorVis
p634
aaF0
aF0
aF0
aF0
aF0
aF0
aF0
aa(lp635
S'middle_r_ik_anim'
p636
a(lp637
VtranslateX
p638
aVtranslateY
p639
aVtranslateZ
p640
aVrotateX
p641
aVrotateY
p642
aVrotateZ
p643
aVpoleVectorVis
p644
aaF0
aF0
aF0
aF0
aF0
aF0
aF0
aa(lp645
S'pinky_l_ik_anim'
p646
a(lp647
VtranslateX
p648
aVtranslateY
p649
aVtranslateZ
p650
aVrotateX
p651
aVrotateY
p652
aVrotateZ
p653
aVpoleVectorVis
p654
aaF0
aF0
aF0
aF0
aF0
aF0
aF0
aa(lp655
S'pinky_r_ik_anim'
p656
a(lp657
VtranslateX
p658
aVtranslateY
p659
aVtranslateZ
p660
aVrotateX
p661
aVrotateY
p662
aVrotateZ
p663
aVpoleVectorVis
p664
aaF0
aF0
aF0
aF0
aF0
aF0
aF0
aa(lp665
S'thumb_l_ik_anim'
p666
a(lp667
VtranslateX
p668
aVtranslateY
p669
aVtranslateZ
p670
aVrotateX
p671
aVrotateY
p672
aVrotateZ
p673
aVpoleVectorVis
p674
aaF0
aF0
aF0
aF0
aF0
aF0
aF0
aa(lp675
S'thumb_r_ik_anim'
p676
a(lp677
VtranslateX
p678
aVtranslateY
p679
aVtranslateZ
p680
aVrotateX
p681
aVrotateY
p682
aVrotateZ
p683
aVpoleVectorVis
p684
aaF0
aF0
aF0
aF0
aF0
aF0
aF0
aa(lp685
S'index_l_poleVector'
p686
a(lp687
VtranslateX
p688
aVtranslateY
p689
aVtranslateZ
p690
aVrotateX
p691
aVrotateY
p692
aVrotateZ
p693
aaF0
aF0
aF0
aF0
aF0
aF0
aa(lp694
S'index_r_poleVector'
p695
a(lp696
VtranslateX
p697
aVtranslateY
p698
aVtranslateZ
p699
aVrotateX
p700
aVrotateY
p701
aVrotateZ
p702
aaF0
aF0
aF0
aF0
aF0
aF0
aa(lp703
S'middle_l_poleVector'
p704
a(lp705
VtranslateX
p706
aVtranslateY
p707
aVtranslateZ
p708
aVrotateX
p709
aVrotateY
p710
aVrotateZ
p711
aaF0
aF0
aF0
aF0
aF0
aF0
aa(lp712
S'middle_r_poleVector'
p713
a(lp714
VtranslateX
p715
aVtranslateY
p716
aVtranslateZ
p717
aVrotateX
p718
aVrotateY
p719
aVrotateZ
p720
aaF0
aF0
aF0
aF0
aF0
aF0
aa(lp721
S'pinky_l_poleVector'
p722
a(lp723
VtranslateX
p724
aVtranslateY
p725
aVtranslateZ
p726
aVrotateX
p727
aVrotateY
p728
aVrotateZ
p729
aaF0
aF0
aF0
aF0
aF0
aF0
aa(lp730
S'pinky_r_poleVector'
p731
a(lp732
VtranslateX
p733
aVtranslateY
p734
aVtranslateZ
p735
aVrotateX
p736
aVrotateY
p737
aVrotateZ
p738
aaF0
aF0
aF0
aF0
aF0
aF0
aa(lp739
S'thumb_l_poleVector'
p740
a(lp741
VtranslateX
p742
aVtranslateY
p743
aVtranslateZ
p744
aVrotateX
p745
aVrotateY
p746
aVrotateZ
p747
aaF0
aF0
aF0
aF0
aF0
aF0
aa(lp748
S'thumb_r_poleVector'
p749
a(lp750
VtranslateX
p751
aVtranslateY
p752
aVtranslateZ
p753
aVrotateX
p754
aVrotateY
p755
aVrotateZ
p756
aaF0
aF0
aF0
aF0
aF0
aF0
aa(lp757
S'l_global_ik_anim'
p758
a(lp759
VtranslateX
p760
aVtranslateY
p761
aVtranslateZ
p762
aVrotateX
p763
aVrotateY
p764
aVrotateZ
p765
aaF0
aF0
aF0
aF0
aF0
aF0
aa(lp766
S'r_global_ik_anim'
p767
a(lp768
VtranslateX
p769
aVtranslateY
p770
aVtranslateZ
p771
aVrotateX
p772
aVrotateY
p773
aVrotateZ
p774
aaF0
aF0
aF0
aF0
aF0
aF0
aa(lp775
S'Rig_Settings'
p776
a(lp777
Vspine_ik
p778
aVspine_fk
p779
aVlLegMode
p780
aVlThighTwistAmount
p781
aVlCalfTwistAmount
p782
aVrLegMode
p783
aVrThighTwistAmount
p784
aVrCalfTwistAmount
p785
aVlFkArmOrient
p786
aVrFkArmOrient
p787
aVlArmMode
p788
aVlUpperarmTwistAmount
p789
aVrArmMode
p790
aVrUpperarmTwistAmount
p791
aVtentacle_r_fk
p792
aVtentacle_r_ik
p793
aVtentacle_r_dynamic
p794
aVtentacle_l_fk
p795
aVtentacle_l_ik
p796
aVtentacle_l_dynamic
p797
aaF0
aF1
aI1
aF0.90000000000000002
aF0.5
aI1
aF0.90000000000000002
aF0.5
aI0
aI0
aI1
aF0.90000000000000002
aI1
aF0.90000000000000002
aF1
aF0
aF0
aF1
aF0
aF0
aa(lp798
Vorb_03_r_anim
p799
a(lp800
VtranslateX
p801
aVtranslateY
p802
aVtranslateZ
p803
aVrotateX
p804
aVrotateY
p805
aVrotateZ
p806
aaF0
aF0
aF0
aF0
aF0
aF0
aa(lp807
Vorb_11_l_anim
p808
a(lp809
VtranslateX
p810
aVtranslateY
p811
aVtranslateZ
p812
aVrotateX
p813
aVrotateY
p814
aVrotateZ
p815
aaF0
aF0
aF0
aF0
aF0
aF0
aa(lp816
Vorb_04_r_anim
p817
a(lp818
VtranslateX
p819
aVtranslateY
p820
aVtranslateZ
p821
aVrotateX
p822
aVrotateY
p823
aVrotateZ
p824
aaF0
aF0
aF0
aF0
aF0
aF0
aa(lp825
Vtentacle_r_dyn_anim
p826
a(lp827
VtranslateX
p828
aVtranslateY
p829
aVtranslateZ
p830
aVrotateX
p831
aVrotateY
p832
aVrotateZ
p833
aVchainAttach
p834
aVchainStartEnvelope
p835
aVchainStartFrame
p836
aVchainStiffness
p837
aVchainDamping
p838
aVchainGravity
p839
aVchainIteration
p840
aVchainCollide
p841
aVchainWidthBase
p842
aVchainWidthExtremity
p843
aVchainCollideGround
p844
aVchainCollideGroundHeight
p845
aaF0
aF0
aF0
aF0
aF0
aF0
aI1
aF1
aF1
aF0.10000000000000001
aF0.20000000000000001
aF1
aI1
aI00
aF1
aF1
aI00
aF0
aa(lp846
Vtentacle_r_ik_2_anim
p847
a(lp848
VtranslateX
p849
aVtranslateY
p850
aVtranslateZ
p851
aVrotateX
p852
aVrotateY
p853
aVrotateZ
p854
aaF0
aF2.8421709430404007e-14
aF0
aF0
aF-0
aF-4.7708320221952752e-15
aa(lp855
Vtentacle_r_ik_3_anim
p856
a(lp857
VtranslateX
p858
aVtranslateY
p859
aVtranslateZ
p860
aVrotateX
p861
aVrotateY
p862
aVrotateZ
p863
aaF1.4210854715202004e-14
aF2.8421709430404007e-14
aF2.8421709430404007e-14
aF3.180554681463516e-15
aF-0
aF-3.180554681463516e-15
aa(lp864
Vtentacle_r_ik_4_anim
p865
a(lp866
VtranslateX
p867
aVtranslateY
p868
aVtranslateZ
p869
aVrotateX
p870
aVrotateY
p871
aVrotateZ
p872
aaF1.4210854715202004e-14
aF0
aF0
aF3.180554681463516e-15
aF-0
aF-3.180554681463516e-15
aa(lp873
Vtentacle_r_ik_5_anim
p874
a(lp875
VtranslateX
p876
aVtranslateY
p877
aVtranslateZ
p878
aVrotateX
p879
aVrotateY
p880
aVrotateZ
p881
aaF1.4210854715202004e-14
aF2.8421709430404007e-14
aF0
aF3.180554681463516e-15
aF-0
aF-3.180554681463516e-15
aa(lp882
Vtentacle_r_ik_6_anim
p883
a(lp884
VtranslateX
p885
aVtranslateY
p886
aVtranslateZ
p887
aVrotateX
p888
aVrotateY
p889
aVrotateZ
p890
aaF0
aF-7.1054273576010019e-15
aF0
aF3.180554681463516e-15
aF-0
aF-3.180554681463516e-15
aa(lp891
Vtentacle_r_ik_7_anim
p892
a(lp893
VtranslateX
p894
aVtranslateY
p895
aVtranslateZ
p896
aVrotateX
p897
aVrotateY
p898
aVrotateZ
p899
aaF-1.4210854715202004e-14
aF1.4210854715202004e-14
aF0
aF3.180554681463516e-15
aF-0
aF-3.180554681463516e-15
aa(lp900
Vtentacle_r_ik_8_anim
p901
a(lp902
VtranslateX
p903
aVtranslateY
p904
aVtranslateZ
p905
aVrotateX
p906
aVrotateY
p907
aVrotateZ
p908
aaF0
aF1.0880185641326534e-14
aF0
aF3.180554681463516e-15
aF-0
aF-3.180554681463516e-15
aa(lp909
Vtentacle_r_ik_9_anim
p910
a(lp911
VtranslateX
p912
aVtranslateY
p913
aVtranslateZ
p914
aVrotateX
p915
aVrotateY
p916
aVrotateZ
p917
aaF1.4210854715202004e-14
aF-3.5527136788005009e-15
aF-2.8421709430404007e-14
aF3.180554681463516e-15
aF-0
aF-3.180554681463516e-15
aa(lp918
Vtentacle_r_ik_10_anim
p919
a(lp920
VtranslateX
p921
aVtranslateY
p922
aVtranslateZ
p923
aVrotateX
p924
aVrotateY
p925
aVrotateZ
p926
aVclusterControlVis
p927
aaF0
aF-1.4210854715202004e-14
aF0
aF3.180554681463516e-15
aF-0
aF-3.180554681463516e-15
aI00
aa(lp928
Vtentacle_r_ik_base_anim
p929
a(lp930
VtranslateX
p931
aVtranslateY
p932
aVtranslateZ
p933
aVrotateX
p934
aVrotateY
p935
aVrotateZ
p936
aaF1.4210854715202004e-14
aF5.6843418860808015e-14
aF0
aF0
aF7.9513867036587919e-16
aF1.5902773407317584e-15
aa(lp937
Vfk_tentacle_r_01_anim
p938
a(lp939
VtranslateX
p940
aVtranslateY
p941
aVtranslateZ
p942
aVrotateX
p943
aVrotateY
p944
aVrotateZ
p945
aVlagMode
p946
aaF0
aF0
aF0
aF96.384142173572386
aF22.973568504271327
aF2.5005465850510289
aF0
aa(lp947
Vtentacle_r_cv_0_anim
p948
a(lp949
VtranslateX
p950
aVtranslateY
p951
aVtranslateZ
p952
aaF0
aF0
aF0
aa(lp953
Vfk_tentacle_r_02_anim
p954
a(lp955
VtranslateX
p956
aVtranslateY
p957
aVtranslateZ
p958
aVrotateX
p959
aVrotateY
p960
aVrotateZ
p961
aaF0
aF0
aF0
aF-4.8408635644983917
aF0.67532567099211005
aF7.9229569221522382
aa(lp962
Vtentacle_r_cv_1_anim
p963
a(lp964
VtranslateX
p965
aVtranslateY
p966
aVtranslateZ
p967
aaF0
aF0
aF0
aa(lp968
Vfk_tentacle_r_03_anim
p969
a(lp970
VtranslateX
p971
aVtranslateY
p972
aVtranslateZ
p973
aVrotateX
p974
aVrotateY
p975
aVrotateZ
p976
aaF0
aF0
aF0
aF19.659473585162985
aF2.8414434156068937
aF-2.3660975488599081
aa(lp977
Vtentacle_r_cv_2_anim
p978
a(lp979
VtranslateX
p980
aVtranslateY
p981
aVtranslateZ
p982
aaF0
aF0
aF0
aa(lp983
Vfk_tentacle_r_04_anim
p984
a(lp985
VtranslateX
p986
aVtranslateY
p987
aVtranslateZ
p988
aVrotateX
p989
aVrotateY
p990
aVrotateZ
p991
aaF0
aF0
aF0
aF6.9766039225648786
aF2.2324930800861589
aF9.0011909743448957
aa(lp992
Vtentacle_r_cv_3_anim
p993
a(lp994
VtranslateX
p995
aVtranslateY
p996
aVtranslateZ
p997
aaF0
aF0
aF0
aa(lp998
Vfk_tentacle_r_05_anim
p999
a(lp1000
VtranslateX
p1001
aVtranslateY
p1002
aVtranslateZ
p1003
aVrotateX
p1004
aVrotateY
p1005
aVrotateZ
p1006
aaF0
aF0
aF0
aF-13.619502800179943
aF3.2358045891807508
aF13.114301589774181
aa(lp1007
Vtentacle_r_cv_4_anim
p1008
a(lp1009
VtranslateX
p1010
aVtranslateY
p1011
aVtranslateZ
p1012
aaF0
aF0
aF0
aa(lp1013
Vfk_tentacle_r_06_anim
p1014
a(lp1015
VtranslateX
p1016
aVtranslateY
p1017
aVtranslateZ
p1018
aVrotateX
p1019
aVrotateY
p1020
aVrotateZ
p1021
aaF0
aF0
aF0
aF-13.602748941985592
aF3.3067781105363503
aF13.407899656082179
aa(lp1022
Vtentacle_r_cv_5_anim
p1023
a(lp1024
VtranslateX
p1025
aVtranslateY
p1026
aVtranslateZ
p1027
aaF0
aF0
aF0
aa(lp1028
Vfk_tentacle_r_07_anim
p1029
a(lp1030
VtranslateX
p1031
aVtranslateY
p1032
aVtranslateZ
p1033
aVrotateX
p1034
aVrotateY
p1035
aVrotateZ
p1036
aaF0
aF0
aF0
aF-13.968091942302527
aF0.81792880397115431
aF3.284618950891173
aa(lp1037
Vtentacle_r_cv_6_anim
p1038
a(lp1039
VtranslateX
p1040
aVtranslateY
p1041
aVtranslateZ
p1042
aaF0
aF0
aF0
aa(lp1043
Vfk_tentacle_r_08_anim
p1044
a(lp1045
VtranslateX
p1046
aVtranslateY
p1047
aVtranslateZ
p1048
aVrotateX
p1049
aVrotateY
p1050
aVrotateZ
p1051
aaF0
aF0
aF0
aF-13.98919891045559
aF0.25873283118910589
aF1.038437474355421
aa(lp1052
Vtentacle_r_cv_7_anim
p1053
a(lp1054
VtranslateX
p1055
aVtranslateY
p1056
aVtranslateZ
p1057
aaF0
aF0
aF0
aa(lp1058
Vfk_tentacle_r_09_anim
p1059
a(lp1060
VtranslateX
p1061
aVtranslateY
p1062
aVtranslateZ
p1063
aVrotateX
p1064
aVrotateY
p1065
aVrotateZ
p1066
aaF0
aF0
aF0
aF-13.991543635333615
aF0
aF0
aa(lp1067
Vtentacle_r_cv_8_anim
p1068
a(lp1069
VtranslateX
p1070
aVtranslateY
p1071
aVtranslateZ
p1072
aaF0
aF0
aF0
aa(lp1073
Vfk_tentacle_r_010_anim
p1074
a(lp1075
VtranslateX
p1076
aVtranslateY
p1077
aVtranslateZ
p1078
aVrotateX
p1079
aVrotateY
p1080
aVrotateZ
p1081
aaF0
aF0
aF0
aF-7.883923706176275
aF0.30096263610353813
aF2.1723485019744251
aa(lp1082
Vtentacle_r_cv_9_anim
p1083
a(lp1084
VtranslateX
p1085
aVtranslateY
p1086
aVtranslateZ
p1087
aaF0
aF0
aF0
aa(lp1088
Vfk_tentacle_r_011_anim
p1089
a(lp1090
VtranslateX
p1091
aVtranslateY
p1092
aVtranslateZ
p1093
aVrotateX
p1094
aVrotateY
p1095
aVrotateZ
p1096
aaF0
aF0
aF0
aF-21.854684908207513
aF1.1037034243355834
aF2.7495526440786522
aa(lp1097
Vtentacle_r_cv_10_anim
p1098
a(lp1099
VtranslateX
p1100
aVtranslateY
p1101
aVtranslateZ
p1102
aaF0
aF0
aF0
aa(lp1103
Vfk_tentacle_r_012_anim
p1104
a(lp1105
VtranslateX
p1106
aVtranslateY
p1107
aVtranslateZ
p1108
aVrotateX
p1109
aVrotateY
p1110
aVrotateZ
p1111
aaF0
aF0
aF0
aF-15.508023246241702
aF0
aF0
aa(lp1112
Vtentacle_r_cv_11_anim
p1113
a(lp1114
VtranslateX
p1115
aVtranslateY
p1116
aVtranslateZ
p1117
aaF0
aF0
aF0
aa(lp1118
Vfk_tentacle_r_013_anim
p1119
a(lp1120
VtranslateX
p1121
aVtranslateY
p1122
aVtranslateZ
p1123
aVrotateX
p1124
aVrotateY
p1125
aVrotateZ
p1126
aaF0
aF0
aF0
aF-13.156301621888417
aF0
aF0
aa(lp1127
Vtentacle_r_cv_12_anim
p1128
a(lp1129
VtranslateX
p1130
aVtranslateY
p1131
aVtranslateZ
p1132
aaF0
aF0
aF0
aa(lp1133
Vfk_tentacle_r_014_anim
p1134
a(lp1135
VtranslateX
p1136
aVtranslateY
p1137
aVtranslateZ
p1138
aVrotateX
p1139
aVrotateY
p1140
aVrotateZ
p1141
aaF0
aF0
aF0
aF-8.6690680593603826
aF0
aF0
aa(lp1142
Vtentacle_r_cv_13_anim
p1143
a(lp1144
VtranslateX
p1145
aVtranslateY
p1146
aVtranslateZ
p1147
aaF0
aF0
aF0
aa(lp1148
Vfk_tentacle_r_015_anim
p1149
a(lp1150
VtranslateX
p1151
aVtranslateY
p1152
aVtranslateZ
p1153
aVrotateX
p1154
aVrotateY
p1155
aVrotateZ
p1156
aaF0
aF0
aF0
aF-8.6115950567641129
aF0
aF0
aa(lp1157
Vtentacle_r_cv_14_anim
p1158
a(lp1159
VtranslateX
p1160
aVtranslateY
p1161
aVtranslateZ
p1162
aaF0
aF0
aF0
aa(lp1163
Vfk_tentacle_r_016_anim
p1164
a(lp1165
VtranslateX
p1166
aVtranslateY
p1167
aVtranslateZ
p1168
aVrotateX
p1169
aVrotateY
p1170
aVrotateZ
p1171
aaF0
aF0
aF0
aF-3.4128668641755993
aF1.0701212098328992
aF7.7692556135186175
aa(lp1172
Vtentacle_r_cv_15_anim
p1173
a(lp1174
VtranslateX
p1175
aVtranslateY
p1176
aVtranslateZ
p1177
aaF0
aF0
aF0
aa(lp1178
Vfk_tentacle_r_017_anim
p1179
a(lp1180
VtranslateX
p1181
aVtranslateY
p1182
aVtranslateZ
p1183
aVrotateX
p1184
aVrotateY
p1185
aVrotateZ
p1186
aaF0
aF0
aF0
aF-3.2661167450353417
aF1.0500990353671074
aF7.7719706913008979
aa(lp1187
Vtentacle_r_cv_16_anim
p1188
a(lp1189
VtranslateX
p1190
aVtranslateY
p1191
aVtranslateZ
p1192
aaF0
aF0
aF0
aa(lp1193
Vfk_tentacle_r_018_anim
p1194
a(lp1195
VtranslateX
p1196
aVtranslateY
p1197
aVtranslateZ
p1198
aVrotateX
p1199
aVrotateY
p1200
aVrotateZ
p1201
aaF0
aF0
aF0
aF-3.2661167450353417
aF1.0500990353671074
aF7.7719706913008979
aa(lp1202
Vtentacle_r_cv_17_anim
p1203
a(lp1204
VtranslateX
p1205
aVtranslateY
p1206
aVtranslateZ
p1207
aaF0
aF0
aF0
aa(lp1208
Vfk_tentacle_r_019_anim
p1209
a(lp1210
VtranslateX
p1211
aVtranslateY
p1212
aVtranslateZ
p1213
aVrotateX
p1214
aVrotateY
p1215
aVrotateZ
p1216
aaF0
aF0
aF0
aF-3.2661167450353417
aF1.0500990353671074
aF7.7719706913008979
aa(lp1217
Vtentacle_r_cv_18_anim
p1218
a(lp1219
VtranslateX
p1220
aVtranslateY
p1221
aVtranslateZ
p1222
aaF0
aF0
aF0
aa(lp1223
Vfk_tentacle_r_020_anim
p1224
a(lp1225
VtranslateX
p1226
aVtranslateY
p1227
aVtranslateZ
p1228
aVrotateX
p1229
aVrotateY
p1230
aVrotateZ
p1231
aaF0
aF0
aF0
aF-3.2661167450353417
aF1.0500990353671074
aF7.7719706913008979
aa(lp1232
Vtentacle_r_cv_19_anim
p1233
a(lp1234
VtranslateX
p1235
aVtranslateY
p1236
aVtranslateZ
p1237
aaF0
aF0
aF0
aa(lp1238
Vweapon_l_anim
p1239
a(lp1240
VtranslateX
p1241
aVtranslateY
p1242
aVtranslateZ
p1243
aVrotateX
p1244
aVrotateY
p1245
aVrotateZ
p1246
aaF0
aF0
aF0
aF0
aF0
aF0
aa(lp1247
Vdagger_3_r_anim
p1248
a(lp1249
VtranslateX
p1250
aVtranslateY
p1251
aVtranslateZ
p1252
aVrotateX
p1253
aVrotateY
p1254
aVrotateZ
p1255
aVblendParent1
p1256
aaF0
aF0
aF0
aF0
aF0
aF0
aF0
aa(lp1257
Vorb_13_r_anim
p1258
a(lp1259
VtranslateX
p1260
aVtranslateY
p1261
aVtranslateZ
p1262
aVrotateX
p1263
aVrotateY
p1264
aVrotateZ
p1265
aaF0
aF0
aF0
aF0
aF0
aF0
aa(lp1266
Vorb_05_r_anim
p1267
a(lp1268
VtranslateX
p1269
aVtranslateY
p1270
aVtranslateZ
p1271
aVrotateX
p1272
aVrotateY
p1273
aVrotateZ
p1274
aaF0
aF0
aF0
aF0
aF0
aF0
aa(lp1275
Vtentacle_l_dyn_anim
p1276
a(lp1277
VtranslateX
p1278
aVtranslateY
p1279
aVtranslateZ
p1280
aVrotateX
p1281
aVrotateY
p1282
aVrotateZ
p1283
aVchainAttach
p1284
aVchainStartEnvelope
p1285
aVchainStartFrame
p1286
aVchainStiffness
p1287
aVchainDamping
p1288
aVchainGravity
p1289
aVchainIteration
p1290
aVchainCollide
p1291
aVchainWidthBase
p1292
aVchainWidthExtremity
p1293
aVchainCollideGround
p1294
aVchainCollideGroundHeight
p1295
aaF0
aF0
aF0
aF0
aF0
aF0
aI1
aF1
aF1
aF0.10000000000000001
aF0.20000000000000001
aF1
aI1
aI00
aF1
aF1
aI00
aF0
aa(lp1296
Vtentacle_l_ik_2_anim
p1297
a(lp1298
VtranslateX
p1299
aVtranslateY
p1300
aVtranslateZ
p1301
aVrotateX
p1302
aVrotateY
p1303
aVrotateZ
p1304
aaF1.4210854715202004e-14
aF0
aF0
aF0
aF0
aF0
aa(lp1305
Vtentacle_l_ik_3_anim
p1306
a(lp1307
VtranslateX
p1308
aVtranslateY
p1309
aVtranslateZ
p1310
aVrotateX
p1311
aVrotateY
p1312
aVrotateZ
p1313
aaF-1.4210854715202004e-14
aF2.8421709430404007e-14
aF2.8421709430404007e-14
aF6.3611093629270335e-15
aF1.5902773407317584e-15
aF3.1805546814635168e-15
aa(lp1314
Vtentacle_l_ik_4_anim
p1315
a(lp1316
VtranslateX
p1317
aVtranslateY
p1318
aVtranslateZ
p1319
aVrotateX
p1320
aVrotateY
p1321
aVrotateZ
p1322
aaF0
aF0
aF0
aF6.3611093629270335e-15
aF1.5902773407317584e-15
aF3.1805546814635168e-15
aa(lp1323
Vtentacle_l_ik_5_anim
p1324
a(lp1325
VtranslateX
p1326
aVtranslateY
p1327
aVtranslateZ
p1328
aVrotateX
p1329
aVrotateY
p1330
aVrotateZ
p1331
aaF-1.4210854715202004e-14
aF2.8421709430404007e-14
aF0
aF6.3611093629270335e-15
aF1.5902773407317584e-15
aF3.1805546814635168e-15
aa(lp1332
Vtentacle_l_ik_6_anim
p1333
a(lp1334
VtranslateX
p1335
aVtranslateY
p1336
aVtranslateZ
p1337
aVrotateX
p1338
aVrotateY
p1339
aVrotateZ
p1340
aaF-1.4210854715202004e-14
aF7.1054273576010019e-15
aF2.8421709430404007e-14
aF6.3611093629270335e-15
aF1.5902773407317584e-15
aF3.1805546814635168e-15
aa(lp1341
Vtentacle_l_ik_7_anim
p1342
a(lp1343
VtranslateX
p1344
aVtranslateY
p1345
aVtranslateZ
p1346
aVrotateX
p1347
aVrotateY
p1348
aVrotateZ
p1349
aaF0
aF1.4210854715202004e-14
aF2.8421709430404007e-14
aF6.3611093629270335e-15
aF1.5902773407317584e-15
aF3.1805546814635168e-15
aa(lp1350
Vtentacle_l_ik_8_anim
p1351
a(lp1352
VtranslateX
p1353
aVtranslateY
p1354
aVtranslateZ
p1355
aVrotateX
p1356
aVrotateY
p1357
aVrotateZ
p1358
aaF-1.4210854715202004e-14
aF6.8833827526759706e-15
aF0
aF6.3611093629270335e-15
aF1.5902773407317584e-15
aF3.1805546814635168e-15
aa(lp1359
Vtentacle_l_ik_9_anim
p1360
a(lp1361
VtranslateX
p1362
aVtranslateY
p1363
aVtranslateZ
p1364
aVrotateX
p1365
aVrotateY
p1366
aVrotateZ
p1367
aaF0
aF1.0658141036401503e-14
aF0
aF6.3611093629270335e-15
aF1.5902773407317584e-15
aF3.1805546814635168e-15
aa(lp1368
Vtentacle_l_ik_10_anim
p1369
a(lp1370
VtranslateX
p1371
aVtranslateY
p1372
aVtranslateZ
p1373
aVrotateX
p1374
aVrotateY
p1375
aVrotateZ
p1376
aVclusterControlVis
p1377
aaF0
aF-7.1054273576010019e-15
aF0
aF6.3611093629270335e-15
aF1.5902773407317584e-15
aF3.1805546814635168e-15
aI00
aa(lp1378
Vtentacle_l_ik_base_anim
p1379
a(lp1380
VtranslateX
p1381
aVtranslateY
p1382
aVtranslateZ
p1383
aVrotateX
p1384
aVrotateY
p1385
aVrotateZ
p1386
aaF1.4210854715202004e-14
aF5.6843418860808015e-14
aF0
aF0
aF-7.9513867036587919e-16
aF1.5902773407317584e-15
aa(lp1387
Vfk_tentacle_l_01_anim
p1388
a(lp1389
VtranslateX
p1390
aVtranslateY
p1391
aVtranslateZ
p1392
aVrotateX
p1393
aVrotateY
p1394
aVrotateZ
p1395
aVlagMode
p1396
aaF0
aF0
aF0
aF96.384142173572386
aF22.973568504271327
aF2.5005465850510284
aF0
aa(lp1397
Vtentacle_l_cv_0_anim
p1398
a(lp1399
VtranslateX
p1400
aVtranslateY
p1401
aVtranslateZ
p1402
aaF0
aF0
aF0
aa(lp1403
Vfk_tentacle_l_02_anim
p1404
a(lp1405
VtranslateX
p1406
aVtranslateY
p1407
aVtranslateZ
p1408
aVrotateX
p1409
aVrotateY
p1410
aVrotateZ
p1411
aaF0
aF0
aF0
aF-4.8408635644983917
aF0.67532567099211005
aF7.9229569221522382
aa(lp1412
Vtentacle_l_cv_1_anim
p1413
a(lp1414
VtranslateX
p1415
aVtranslateY
p1416
aVtranslateZ
p1417
aaF0
aF0
aF0
aa(lp1418
Vfk_tentacle_l_03_anim
p1419
a(lp1420
VtranslateX
p1421
aVtranslateY
p1422
aVtranslateZ
p1423
aVrotateX
p1424
aVrotateY
p1425
aVrotateZ
p1426
aaF0
aF0
aF0
aF8.1566790081501086
aF-0.74016377993176918
aF5.1499780234443078
aa(lp1427
Vtentacle_l_cv_2_anim
p1428
a(lp1429
VtranslateX
p1430
aVtranslateY
p1431
aVtranslateZ
p1432
aaF0
aF0
aF0
aa(lp1433
Vfk_tentacle_l_04_anim
p1434
a(lp1435
VtranslateX
p1436
aVtranslateY
p1437
aVtranslateZ
p1438
aVrotateX
p1439
aVrotateY
p1440
aVrotateZ
p1441
aaF0
aF0
aF0
aF-13.374708799514078
aF4.1465662331494553
aF16.915194480076813
aa(lp1442
Vtentacle_l_cv_3_anim
p1443
a(lp1444
VtranslateX
p1445
aVtranslateY
p1446
aVtranslateZ
p1447
aaF0
aF0
aF0
aa(lp1448
Vfk_tentacle_l_05_anim
p1449
a(lp1450
VtranslateX
p1451
aVtranslateY
p1452
aVtranslateZ
p1453
aVrotateX
p1454
aVrotateY
p1455
aVrotateZ
p1456
aaF0
aF0
aF0
aF-13.815797174999064
aF2.2324930800861353
aF9.0011909743448921
aa(lp1457
Vtentacle_l_cv_4_anim
p1458
a(lp1459
VtranslateX
p1460
aVtranslateY
p1461
aVtranslateZ
p1462
aaF0
aF0
aF0
aa(lp1463
Vfk_tentacle_l_06_anim
p1464
a(lp1465
VtranslateX
p1466
aVtranslateY
p1467
aVtranslateZ
p1468
aVrotateX
p1469
aVrotateY
p1470
aVrotateZ
p1471
aaF0
aF0
aF0
aF-13.815797174999064
aF2.2324930800861353
aF9.0011909743448921
aa(lp1472
Vtentacle_l_cv_5_anim
p1473
a(lp1474
VtranslateX
p1475
aVtranslateY
p1476
aVtranslateZ
p1477
aaF0
aF0
aF0
aa(lp1478
Vfk_tentacle_l_07_anim
p1479
a(lp1480
VtranslateX
p1481
aVtranslateY
p1482
aVtranslateZ
p1483
aVrotateX
p1484
aVrotateY
p1485
aVrotateZ
p1486
aaF0
aF0
aF0
aF-13.991543635333615
aF0
aF0
aa(lp1487
Vtentacle_l_cv_6_anim
p1488
a(lp1489
VtranslateX
p1490
aVtranslateY
p1491
aVtranslateZ
p1492
aaF0
aF0
aF0
aa(lp1493
Vfk_tentacle_l_08_anim
p1494
a(lp1495
VtranslateX
p1496
aVtranslateY
p1497
aVtranslateZ
p1498
aVrotateX
p1499
aVrotateY
p1500
aVrotateZ
p1501
aaF0
aF0
aF0
aF-13.950581317053517
aF1.0806214554838791
aF4.3415303919672574
aa(lp1502
Vtentacle_l_cv_7_anim
p1503
a(lp1504
VtranslateX
p1505
aVtranslateY
p1506
aVtranslateZ
p1507
aaF0
aF0
aF0
aa(lp1508
Vfk_tentacle_l_09_anim
p1509
a(lp1510
VtranslateX
p1511
aVtranslateY
p1512
aVtranslateZ
p1513
aVrotateX
p1514
aVrotateY
p1515
aVrotateZ
p1516
aaF0
aF0
aF0
aF-13.962891576795862
aF0.90398795539605004
aF3.6307091058024503
aa(lp1517
Vtentacle_l_cv_8_anim
p1518
a(lp1519
VtranslateX
p1520
aVtranslateY
p1521
aVtranslateZ
p1522
aaF0
aF0
aF0
aa(lp1523
Vfk_tentacle_l_010_anim
p1524
a(lp1525
VtranslateX
p1526
aVtranslateY
p1527
aVtranslateZ
p1528
aVrotateX
p1529
aVrotateY
p1530
aVrotateZ
p1531
aaF0
aF0
aF0
aF-7.8674350217784133
aF0.59324532535750285
aF4.2851265892582378
aa(lp1532
Vtentacle_l_cv_9_anim
p1533
a(lp1534
VtranslateX
p1535
aVtranslateY
p1536
aVtranslateZ
p1537
aaF0
aF0
aF0
aa(lp1538
Vfk_tentacle_l_011_anim
p1539
a(lp1540
VtranslateX
p1541
aVtranslateY
p1542
aVtranslateZ
p1543
aVrotateX
p1544
aVrotateY
p1545
aVrotateZ
p1546
aaF0
aF0
aF0
aF-21.854684908207513
aF1.1037034243355834
aF2.7495526440786522
aa(lp1547
Vtentacle_l_cv_10_anim
p1548
a(lp1549
VtranslateX
p1550
aVtranslateY
p1551
aVtranslateZ
p1552
aaF0
aF0
aF0
aa(lp1553
Vfk_tentacle_l_012_anim
p1554
a(lp1555
VtranslateX
p1556
aVtranslateY
p1557
aVtranslateZ
p1558
aVrotateX
p1559
aVrotateY
p1560
aVrotateZ
p1561
aaF0
aF0
aF0
aF-21.881173482274306
aF0
aF0
aa(lp1562
Vtentacle_l_cv_11_anim
p1563
a(lp1564
VtranslateX
p1565
aVtranslateY
p1566
aVtranslateZ
p1567
aaF0
aF0
aF0
aa(lp1568
Vfk_tentacle_l_013_anim
p1569
a(lp1570
VtranslateX
p1571
aVtranslateY
p1572
aVtranslateZ
p1573
aVrotateX
p1574
aVrotateY
p1575
aVrotateZ
p1576
aaF0
aF0
aF0
aF-7.873440740638852
aF-0.5067628232451804
aF-3.6594873845825981
aa(lp1577
Vtentacle_l_cv_12_anim
p1578
a(lp1579
VtranslateX
p1580
aVtranslateY
p1581
aVtranslateZ
p1582
aaF0
aF0
aF0
aa(lp1583
Vfk_tentacle_l_014_anim
p1584
a(lp1585
VtranslateX
p1586
aVtranslateY
p1587
aVtranslateZ
p1588
aVrotateX
p1589
aVrotateY
p1590
aVrotateZ
p1591
aaF0
aF0
aF0
aF-7.8266787156981028
aF-0.99777732908276406
aF-7.219986476805051
aa(lp1592
Vtentacle_l_cv_13_anim
p1593
a(lp1594
VtranslateX
p1595
aVtranslateY
p1596
aVtranslateZ
p1597
aaF0
aF0
aF0
aa(lp1598
Vfk_tentacle_l_015_anim
p1599
a(lp1600
VtranslateX
p1601
aVtranslateY
p1602
aVtranslateZ
p1603
aVrotateX
p1604
aVrotateY
p1605
aVrotateZ
p1606
aaF0
aF0
aF0
aF-7.8406295522714853
aF-0.88070149348996318
aF-6.3689311046309989
aa(lp1607
Vtentacle_l_cv_14_anim
p1608
a(lp1609
VtranslateX
p1610
aVtranslateY
p1611
aVtranslateZ
p1612
aaF0
aF0
aF0
aa(lp1613
Vfk_tentacle_l_016_anim
p1614
a(lp1615
VtranslateX
p1616
aVtranslateY
p1617
aVtranslateZ
p1618
aVrotateX
p1619
aVrotateY
p1620
aVrotateZ
p1621
aaF0
aF0
aF0
aF-7.8887711658407662
aF0.11676850361921634
aF0.84265701125606307
aa(lp1622
Vtentacle_l_cv_15_anim
p1623
a(lp1624
VtranslateX
p1625
aVtranslateY
p1626
aVtranslateZ
p1627
aaF0
aF0
aF0
aa(lp1628
Vfk_tentacle_l_017_anim
p1629
a(lp1630
VtranslateX
p1631
aVtranslateY
p1632
aVtranslateZ
p1633
aVrotateX
p1634
aVrotateY
p1635
aVrotateZ
p1636
aaF0
aF0
aF0
aF-7.7190581625625354
aF1.6366510530047214
aF11.898971278601207
aa(lp1637
Vtentacle_l_cv_16_anim
p1638
a(lp1639
VtranslateX
p1640
aVtranslateY
p1641
aVtranslateZ
p1642
aaF0
aF0
aF0
aa(lp1643
Vfk_tentacle_l_018_anim
p1644
a(lp1645
VtranslateX
p1646
aVtranslateY
p1647
aVtranslateZ
p1648
aVrotateX
p1649
aVrotateY
p1650
aVrotateZ
p1651
aaF0
aF0
aF0
aF-7.7190581625625354
aF1.6366510530047214
aF11.898971278601207
aa(lp1652
Vtentacle_l_cv_17_anim
p1653
a(lp1654
VtranslateX
p1655
aVtranslateY
p1656
aVtranslateZ
p1657
aaF0
aF0
aF0
aa(lp1658
Vfk_tentacle_l_019_anim
p1659
a(lp1660
VtranslateX
p1661
aVtranslateY
p1662
aVtranslateZ
p1663
aVrotateX
p1664
aVrotateY
p1665
aVrotateZ
p1666
aaF0
aF0
aF0
aF-7.7190581625625354
aF1.6366510530047214
aF11.898971278601207
aa(lp1667
Vtentacle_l_cv_18_anim
p1668
a(lp1669
VtranslateX
p1670
aVtranslateY
p1671
aVtranslateZ
p1672
aaF0
aF0
aF0
aa(lp1673
Vfk_tentacle_l_020_anim
p1674
a(lp1675
VtranslateX
p1676
aVtranslateY
p1677
aVtranslateZ
p1678
aVrotateX
p1679
aVrotateY
p1680
aVrotateZ
p1681
aaF0
aF0
aF0
aF-7.7190581625625354
aF1.6366510530047214
aF11.898971278601207
aa(lp1682
Vtentacle_l_cv_19_anim
p1683
a(lp1684
VtranslateX
p1685
aVtranslateY
p1686
aVtranslateZ
p1687
aaF0
aF0
aF0
aa(lp1688
Vsword_1_r_anim
p1689
a(lp1690
VtranslateX
p1691
aVtranslateY
p1692
aVtranslateZ
p1693
aVrotateX
p1694
aVrotateY
p1695
aVrotateZ
p1696
aaF-0.14790722272042098
aF0
aF-7.6728774183904278
aF-2.8981132942381231
aF14.997823410050504
aF0
aa(lp1697
Vorb_03_l_anim
p1698
a(lp1699
VtranslateX
p1700
aVtranslateY
p1701
aVtranslateZ
p1702
aVrotateX
p1703
aVrotateY
p1704
aVrotateZ
p1705
aaF0
aF0
aF0
aF0
aF0
aF0
aa(lp1706
Vdagger_1_l_anim
p1707
a(lp1708
VtranslateX
p1709
aVtranslateY
p1710
aVtranslateZ
p1711
aVrotateX
p1712
aVrotateY
p1713
aVrotateZ
p1714
aVblendParent1
p1715
aaF0
aF0
aF0
aF0
aF0
aF0
aF0
aa(lp1716
Vdagger_2_l_anim
p1717
a(lp1718
VtranslateX
p1719
aVtranslateY
p1720
aVtranslateZ
p1721
aVrotateX
p1722
aVrotateY
p1723
aVrotateZ
p1724
aVblendParent1
p1725
aaF0
aF0
aF0
aF0
aF0
aF0
aF0
aa(lp1726
Vdagger_2_r_anim
p1727
a(lp1728
VtranslateX
p1729
aVtranslateY
p1730
aVtranslateZ
p1731
aVrotateX
p1732
aVrotateY
p1733
aVrotateZ
p1734
aVblendParent1
p1735
aaF0
aF0
aF0
aF0
aF0
aF0
aF0
aa(lp1736
Vorb_09_r_anim
p1737
a(lp1738
VtranslateX
p1739
aVtranslateY
p1740
aVtranslateZ
p1741
aVrotateX
p1742
aVrotateY
p1743
aVrotateZ
p1744
aaF0
aF0
aF0
aF0
aF0
aF0
aa(lp1745
Vorb_04_l_anim
p1746
a(lp1747
VtranslateX
p1748
aVtranslateY
p1749
aVtranslateZ
p1750
aVrotateX
p1751
aVrotateY
p1752
aVrotateZ
p1753
aaF0
aF0
aF0
aF0
aF0
aF0
aa(lp1754
Vdagger_1_r_anim
p1755
a(lp1756
VtranslateX
p1757
aVtranslateY
p1758
aVtranslateZ
p1759
aVrotateX
p1760
aVrotateY
p1761
aVrotateZ
p1762
aVblendParent1
p1763
aaF0
aF0
aF0
aF0
aF0
aF0
aF0
aa(lp1764
Vorb_09_l_anim
p1765
a(lp1766
VtranslateX
p1767
aVtranslateY
p1768
aVtranslateZ
p1769
aVrotateX
p1770
aVrotateY
p1771
aVrotateZ
p1772
aaF0
aF0
aF0
aF0
aF0
aF0
aa(lp1773
Vforearm_plate_1_r_anim
p1774
a(lp1775
VtranslateX
p1776
aVtranslateY
p1777
aVtranslateZ
p1778
aVrotateX
p1779
aVrotateY
p1780
aVrotateZ
p1781
aaF0
aF0
aF0
aF0
aF0
aF0
aa(lp1782
Vorb_01_l_anim
p1783
a(lp1784
VtranslateX
p1785
aVtranslateY
p1786
aVtranslateZ
p1787
aVrotateX
p1788
aVrotateY
p1789
aVrotateZ
p1790
aaF0
aF0
aF0
aF0
aF0
aF0
aa(lp1791
Vorb_02_l_anim
p1792
a(lp1793
VtranslateX
p1794
aVtranslateY
p1795
aVtranslateZ
p1796
aVrotateX
p1797
aVrotateY
p1798
aVrotateZ
p1799
aaF0
aF0
aF0
aF0
aF0
aF0
aa(lp1800
Vorb_11_r_anim
p1801
a(lp1802
VtranslateX
p1803
aVtranslateY
p1804
aVtranslateZ
p1805
aVrotateX
p1806
aVrotateY
p1807
aVrotateZ
p1808
aaF0
aF0
aF0
aF0
aF0
aF0
aa(lp1809
Vorb_10_r_anim
p1810
a(lp1811
VtranslateX
p1812
aVtranslateY
p1813
aVtranslateZ
p1814
aVrotateX
p1815
aVrotateY
p1816
aVrotateZ
p1817
aaF0
aF0
aF0
aF0
aF0
aF0
aa(lp1818
Vforearm_plate_1_l_anim
p1819
a(lp1820
VtranslateX
p1821
aVtranslateY
p1822
aVtranslateZ
p1823
aVrotateX
p1824
aVrotateY
p1825
aVrotateZ
p1826
aaF0
aF0
aF0
aF0
aF0
aF0
aa(lp1827
Vorb_07_r_anim
p1828
a(lp1829
VtranslateX
p1830
aVtranslateY
p1831
aVtranslateZ
p1832
aVrotateX
p1833
aVrotateY
p1834
aVrotateZ
p1835
aaF0
aF0
aF0
aF0
aF0
aF0
aa(lp1836
Vorb_05_l_anim
p1837
a(lp1838
VtranslateX
p1839
aVtranslateY
p1840
aVtranslateZ
p1841
aVrotateX
p1842
aVrotateY
p1843
aVrotateZ
p1844
aaF0
aF0
aF0
aF0
aF0
aF0
aa(lp1845
Vorb_01_r_anim
p1846
a(lp1847
VtranslateX
p1848
aVtranslateY
p1849
aVtranslateZ
p1850
aVrotateX
p1851
aVrotateY
p1852
aVrotateZ
p1853
aaF0
aF0
aF0
aF0
aF0
aF0
aa(lp1854
Vforearm_plate_2_l_anim
p1855
a(lp1856
VtranslateX
p1857
aVtranslateY
p1858
aVtranslateZ
p1859
aVrotateX
p1860
aVrotateY
p1861
aVrotateZ
p1862
aaF0
aF0
aF0
aF0
aF0
aF0
aa(lp1863
Vforearm_plate_3_r_anim
p1864
a(lp1865
VtranslateX
p1866
aVtranslateY
p1867
aVtranslateZ
p1868
aVrotateX
p1869
aVrotateY
p1870
aVrotateZ
p1871
aaF0
aF0
aF0
aF0
aF0
aF0
aa(lp1872
Vsword_2_r_anim
p1873
a(lp1874
VtranslateX
p1875
aVtranslateY
p1876
aVtranslateZ
p1877
aVrotateX
p1878
aVrotateY
p1879
aVrotateZ
p1880
aaF0
aF0
aF0
aF0
aF0
aF0
aa(lp1881
Vforearm_plate_3_l_anim
p1882
a(lp1883
VtranslateX
p1884
aVtranslateY
p1885
aVtranslateZ
p1886
aVrotateX
p1887
aVrotateY
p1888
aVrotateZ
p1889
aaF0
aF0
aF0
aF0
aF0
aF0
aa(lp1890
Vorb_14_l_anim
p1891
a(lp1892
VtranslateX
p1893
aVtranslateY
p1894
aVtranslateZ
p1895
aVrotateX
p1896
aVrotateY
p1897
aVrotateZ
p1898
aaF0
aF0
aF0
aF0
aF0
aF0
aa(lp1899
Vorb_08_l_anim
p1900
a(lp1901
VtranslateX
p1902
aVtranslateY
p1903
aVtranslateZ
p1904
aVrotateX
p1905
aVrotateY
p1906
aVrotateZ
p1907
aaF0
aF0
aF0
aF0
aF0
aF0
aa(lp1908
Vdagger_3_l_anim
p1909
a(lp1910
VtranslateX
p1911
aVtranslateY
p1912
aVtranslateZ
p1913
aVrotateX
p1914
aVrotateY
p1915
aVrotateZ
p1916
aVblendParent1
p1917
aaF0
aF0
aF0
aF0
aF0
aF0
aF0
aa(lp1918
Vorb_13_l_anim
p1919
a(lp1920
VtranslateX
p1921
aVtranslateY
p1922
aVtranslateZ
p1923
aVrotateX
p1924
aVrotateY
p1925
aVrotateZ
p1926
aaF0
aF0
aF0
aF0
aF0
aF0
aa(lp1927
Vweapon_r_anim
p1928
a(lp1929
VtranslateX
p1930
aVtranslateY
p1931
aVtranslateZ
p1932
aVrotateX
p1933
aVrotateY
p1934
aVrotateZ
p1935
aaF0
aF0
aF0
aF0
aF0
aF0
aa(lp1936
Vorb_06_r_anim
p1937
a(lp1938
VtranslateX
p1939
aVtranslateY
p1940
aVtranslateZ
p1941
aVrotateX
p1942
aVrotateY
p1943
aVrotateZ
p1944
aaF0
aF0
aF0
aF0
aF0
aF0
aa(lp1945
Vorb_14_r_anim
p1946
a(lp1947
VtranslateX
p1948
aVtranslateY
p1949
aVtranslateZ
p1950
aVrotateX
p1951
aVrotateY
p1952
aVrotateZ
p1953
aaF0
aF0
aF0
aF0
aF0
aF0
aa(lp1954
Vsword_2_l_anim
p1955
a(lp1956
VtranslateX
p1957
aVtranslateY
p1958
aVtranslateZ
p1959
aVrotateX
p1960
aVrotateY
p1961
aVrotateZ
p1962
aaF0
aF0
aF0
aF0
aF0
aF0
aa(lp1963
Vforearm_plate_2_r_anim
p1964
a(lp1965
VtranslateX
p1966
aVtranslateY
p1967
aVtranslateZ
p1968
aVrotateX
p1969
aVrotateY
p1970
aVrotateZ
p1971
aaF0
aF0
aF0
aF0
aF0
aF0
aa(lp1972
Vorb_12_r_anim
p1973
a(lp1974
VtranslateX
p1975
aVtranslateY
p1976
aVtranslateZ
p1977
aVrotateX
p1978
aVrotateY
p1979
aVrotateZ
p1980
aaF0
aF0
aF0
aF0
aF0
aF0
aa(lp1981
Vorb_07_l_anim
p1982
a(lp1983
VtranslateX
p1984
aVtranslateY
p1985
aVtranslateZ
p1986
aVrotateX
p1987
aVrotateY
p1988
aVrotateZ
p1989
aaF0
aF0
aF0
aF0
aF0
aF0
aa(lp1990
Vorb_12_l_anim
p1991
a(lp1992
VtranslateX
p1993
aVtranslateY
p1994
aVtranslateZ
p1995
aVrotateX
p1996
aVrotateY
p1997
aVrotateZ
p1998
aaF0
aF0
aF0
aF0
aF0
aF0
aa(lp1999
Vorb_06_l_anim
p2000
a(lp2001
VtranslateX
p2002
aVtranslateY
p2003
aVtranslateZ
p2004
aVrotateX
p2005
aVrotateY
p2006
aVrotateZ
p2007
aaF0
aF0
aF0
aF0
aF0
aF0
aa(lp2008
Vorb_10_l_anim
p2009
a(lp2010
VtranslateX
p2011
aVtranslateY
p2012
aVtranslateZ
p2013
aVrotateX
p2014
aVrotateY
p2015
aVrotateZ
p2016
aaF0
aF0
aF0
aF0
aF0
aF0
aa(lp2017
Vsword_1_l_anim
p2018
a(lp2019
VtranslateX
p2020
aVtranslateY
p2021
aVtranslateZ
p2022
aVrotateX
p2023
aVrotateY
p2024
aVrotateZ
p2025
aaF1.9865532035398383
aF0.90721134833773809
aF8.1368880328061728
aF0
aF0
aF0
aa(lp2026
Vorb_02_r_anim
p2027
a(lp2028
VtranslateX
p2029
aVtranslateY
p2030
aVtranslateZ
p2031
aVrotateX
p2032
aVrotateY
p2033
aVrotateZ
p2034
aaF0
aF0
aF0
aF0
aF0
aF0
aa(lp2035
Vorb_08_r_anim
p2036
a(lp2037
VtranslateX
p2038
aVtranslateY
p2039
aVtranslateZ
p2040
aVrotateX
p2041
aVrotateY
p2042
aVrotateZ
p2043
aaF0
aF0
aF0
aF0
aF0
aF0
aa.