(lp1
(lp2
S'head_fk_anim'
p3
a(lp4
VtranslateX
p5
aVtranslateY
p6
aVtranslateZ
p7
aVrotateX
p8
aVrotateY
p9
aVrotateZ
p10
aVscaleX
p11
aVscaleY
p12
aVscaleZ
p13
aVfkOrientation
p14
aaF0
aF0
aF0
aF34.237793058867624
aF-8.0574900246636325
aF-16.713161985040095
aF1
aF1
aF1
aI2
aa(lp15
S'neck_01_fk_anim'
p16
a(lp17
VtranslateX
p18
aVtranslateY
p19
aVtranslateZ
p20
aVrotateX
p21
aVrotateY
p22
aVrotateZ
p23
aVscaleX
p24
aVscaleY
p25
aVscaleZ
p26
aVfkOrientation
p27
aaF0
aF0
aF0
aF26.992155619268924
aF4.9946817830877697
aF0.11148516479896994
aF1
aF1
aF1
aI0
aa(lp28
S'spine_01_anim'
p29
a(lp30
Vlength
p31
aVtranslateY
p32
aVtranslateZ
p33
aVrotateX
p34
aVrotateY
p35
aVrotateZ
p36
aaF0
aF0
aF0
aF-4.8972444240537385
aF1.0464186349357443
aF2.0785905445944306
aa(lp37
S'spine_02_anim'
p38
a(lp39
Vlength
p40
aVtranslateY
p41
aVtranslateZ
p42
aVrotateX
p43
aVrotateY
p44
aVrotateZ
p45
aaF0
aF0
aF0
aF-9.3700620712049467
aF0.53052750977655383
aF-8.2477451411388412
aa(lp46
S'spine_03_anim'
p47
a(lp48
Vlength
p49
aVtranslateY
p50
aVtranslateZ
p51
aVrotateX
p52
aVrotateY
p53
aVrotateZ
p54
aaF0
aF0
aF0
aF-7.3890791217877201
aF2.7749411666462942
aF4.2362589913842754
aa(lp55
S'mid_ik_anim'
p56
a(lp57
VtranslateX
p58
aVtranslateY
p59
aVtranslateZ
p60
aVrotateX
p61
aVrotateY
p62
aVrotateZ
p63
aaF0
aF0
aF0
aF0
aF0
aF0
aa(lp64
S'chest_ik_anim'
p65
a(lp66
VtranslateX
p67
aVtranslateY
p68
aVtranslateZ
p69
aVrotateX
p70
aVrotateY
p71
aVrotateZ
p72
aVstretch
p73
aVsquash
p74
aVtwist_amount
p75
aVspine_01_twistAmount
p76
aVspine_02_twistAmount
p77
aVautoSpine
p78
aVrotationInfluence
p79
aaF0
aF0
aF0
aF0
aF0
aF0
aF0
aF0
aF1
aF0.33333333333333331
aF0.66666666666666663
aF0
aF0.25
aa(lp80
S'body_anim'
p81
a(lp82
VtranslateX
p83
aVtranslateY
p84
aVtranslateZ
p85
aVrotateX
p86
aVrotateY
p87
aVrotateZ
p88
aVl_vent_open
p89
aVr_vent_open
p90
aVl_unit_deploy
p91
aVr_unit_deploy
p92
aVl_ventA_deploy
p93
aVl_ventB_deploy
p94
aVl_ventC_deploy
p95
aVr_ventA_deploy
p96
aVr_ventB_deploy
p97
aVr_ventC_deploy
p98
aaF-7.0278767554821657
aF-17.759549216266677
aF10.630935357682976
aF-37.16414105693255
aF-0.93885431832610489
aF12.862072318152245
aF0
aF0
aF0
aF0
aF0
aF0
aF0
aF0
aF0
aF0
aa(lp99
S'hip_anim'
p100
a(lp101
VtranslateX
p102
aVtranslateY
p103
aVtranslateZ
p104
aVrotateX
p105
aVrotateY
p106
aVrotateZ
p107
aVlTwistCtrlVis
p108
aVlCalfTwistCtrlVis
p109
aVrTwistCtrlVis
p110
aVrCalfTwistCtrlVis
p111
aVautoHips
p112
aaF0
aF0
aF0
aF-0.042474574259296419
aF-0.92188920489804638
aF-2.6380602553119132
aI00
aI00
aI00
aI00
aF0
aa(lp113
S'clavicle_l_anim'
p114
a(lp115
VtranslateX
p116
aVtranslateY
p117
aVtranslateZ
p118
aVautoShoulders
p119
aVtwistCtrlVis
p120
aaF0
aF1.6233922800054821
aF0
aF0
aI00
aa(lp121
S'clavicle_r_anim'
p122
a(lp123
VtranslateX
p124
aVtranslateY
p125
aVtranslateZ
p126
aVautoShoulders
p127
aVtwistCtrlVis
p128
aaF0.2856313204836971
aF1.0161378372129009
aF2.8892873496666356
aF0
aI00
aa(lp129
S'fk_arm_l_anim'
p130
a(lp131
VtranslateX
p132
aVtranslateY
p133
aVtranslateZ
p134
aVrotateX
p135
aVrotateY
p136
aVrotateZ
p137
aaF0
aF0
aF0
aF0
aF0
aF0
aa(lp138
S'fk_arm_r_anim'
p139
a(lp140
VtranslateX
p141
aVtranslateY
p142
aVtranslateZ
p143
aVrotateX
p144
aVrotateY
p145
aVrotateZ
p146
aaF0
aF0
aF0
aF0
aF0
aF0
aa(lp147
S'fk_elbow_l_anim'
p148
a(lp149
VtranslateX
p150
aVtranslateY
p151
aVtranslateZ
p152
aVrotateX
p153
aVrotateY
p154
aVrotateZ
p155
aaF0
aF0
aF0
aF0
aF0
aF0
aa(lp156
S'fk_elbow_r_anim'
p157
a(lp158
VtranslateX
p159
aVtranslateY
p160
aVtranslateZ
p161
aVrotateX
p162
aVrotateY
p163
aVrotateZ
p164
aaF0
aF0
aF0
aF0
aF0
aF0
aa(lp165
S'fk_wrist_l_anim'
p166
a(lp167
VtranslateX
p168
aVtranslateY
p169
aVtranslateZ
p170
aVrotateX
p171
aVrotateY
p172
aVrotateZ
p173
aaF0
aF0
aF0
aF0
aF0
aF0
aa(lp174
S'fk_wrist_r_anim'
p175
a(lp176
VtranslateX
p177
aVtranslateY
p178
aVtranslateZ
p179
aVrotateX
p180
aVrotateY
p181
aVrotateZ
p182
aaF0
aF0
aF0
aF0
aF0
aF0
aa(lp183
S'ik_elbow_l_anim'
p184
a(lp185
VtranslateX
p186
aVtranslateY
p187
aVtranslateZ
p188
aaF4.855722721593037
aF0
aF-3.7307221270059716
aa(lp189
S'ik_elbow_r_anim'
p190
a(lp191
VtranslateX
p192
aVtranslateY
p193
aVtranslateZ
p194
aaF53.116179874610474
aF54.283345376476916
aF-39.398966965470279
aa(lp195
S'ik_wrist_l_anim'
p196
a(lp197
VtranslateX
p198
aVtranslateY
p199
aVtranslateZ
p200
aVrotateX
p201
aVrotateY
p202
aVrotateZ
p203
aVstretch
p204
aVsquash
p205
aVside
p206
aVmid_bend
p207
aVmid_swivel
p208
aVtip_pivot
p209
aVtip_swivel
p210
aaF-79.407146393595212
aF-64.641077992136971
aF-88.009552458630111
aF63.156473342583524
aF53.999890075014541
aF54.614966721822803
aF0
aF0
aF0
aF0
aF0
aF0
aF0
aa(lp211
S'ik_wrist_r_anim'
p212
a(lp213
VtranslateX
p214
aVtranslateY
p215
aVtranslateZ
p216
aVrotateX
p217
aVrotateY
p218
aVrotateZ
p219
aVstretch
p220
aVsquash
p221
aVside
p222
aVmid_bend
p223
aVmid_swivel
p224
aVtip_pivot
p225
aVtip_swivel
p226
aaF70.757421054335978
aF31.4862673737723
aF-87.311210527441332
aF41.972207237259852
aF-47.531863614492416
aF-108.1773548267618
aF0
aF0
aF0
aF0
aF0
aF0
aF0
aa(lp227
S'fk_thigh_l_anim'
p228
a(lp229
VrotateX
p230
aVrotateY
p231
aVrotateZ
p232
aaF0
aF0
aF0
aa(lp233
S'fk_thigh_r_anim'
p234
a(lp235
VrotateX
p236
aVrotateY
p237
aVrotateZ
p238
aaF0
aF0
aF0
aa(lp239
S'fk_calf_l_anim'
p240
a(lp241
VrotateX
p242
aVrotateY
p243
aVrotateZ
p244
aaF0
aF0
aF0
aa(lp245
S'fk_calf_r_anim'
p246
a(lp247
VrotateX
p248
aVrotateY
p249
aVrotateZ
p250
aaF0
aF0
aF0
aa(lp251
S'fk_foot_l_anim'
p252
a(lp253
VrotateX
p254
aVrotateY
p255
aVrotateZ
p256
aaF0
aF0
aF0
aa(lp257
S'fk_foot_r_anim'
p258
a(lp259
VrotateX
p260
aVrotateY
p261
aVrotateZ
p262
aaF0
aF0
aF0
aa(lp263
S'fk_ball_l_anim'
p264
a(lp265
VrotateX
p266
aVrotateY
p267
aVrotateZ
p268
aaF0
aF0
aF0
aa(lp269
S'fk_ball_r_anim'
p270
a(lp271
VrotateX
p272
aVrotateY
p273
aVrotateZ
p274
aaF0
aF0
aF0
aa(lp275
S'ik_foot_anim_l'
p276
a(lp277
VtranslateX
p278
aVtranslateY
p279
aVtranslateZ
p280
aVrotateX
p281
aVrotateY
p282
aVrotateZ
p283
aVknee_twist
p284
aVstretch
p285
aVsquash
p286
aVtoeCtrlVis
p287
aaF-4.0425537452266136
aF-54.999086063916018
aF0
aF0
aF0
aF-10.726087202252808
aF-27
aF0
aF0
aI00
aa(lp288
S'ik_foot_anim_r'
p289
a(lp290
VtranslateX
p291
aVtranslateY
p292
aVtranslateZ
p293
aVrotateX
p294
aVrotateY
p295
aVrotateZ
p296
aVknee_twist
p297
aVstretch
p298
aVsquash
p299
aVtoeCtrlVis
p300
aaF-8.0014212596503658
aF27.826159018887559
aF0
aF0
aF0
aF-55.947740522001531
aF40.299999999999997
aF0
aF0
aI00
aa(lp301
S'heel_ctrl_l'
p302
a(lp303
VrotateX
p304
aVrotateY
p305
aVrotateZ
p306
aVheelPivot
p307
aVballPivot
p308
aaF0
aF0
aF0
aF0
aF0
aa(lp309
S'heel_ctrl_r'
p310
a(lp311
VrotateX
p312
aVrotateY
p313
aVrotateZ
p314
aVheelPivot
p315
aVballPivot
p316
aaF0
aF6.1844689212110699
aF0
aF0
aF0
aa(lp317
S'toe_wiggle_ctrl_l'
p318
a(lp319
VrotateX
p320
aVrotateY
p321
aVrotateZ
p322
aaF0
aF0
aF0
aa(lp323
S'toe_wiggle_ctrl_r'
p324
a(lp325
VrotateX
p326
aVrotateY
p327
aVrotateZ
p328
aaF0
aF0
aF0
aa(lp329
S'toe_tip_ctrl_l'
p330
a(lp331
VrotateX
p332
aVrotateY
p333
aVrotateZ
p334
aaF0
aF0
aF0
aa(lp335
S'toe_tip_ctrl_r'
p336
a(lp337
VrotateX
p338
aVrotateY
p339
aVrotateZ
p340
aaF0
aF0
aF0
aa(lp341
S'master_anim'
p342
a(lp343
VtranslateX
p344
aVtranslateY
p345
aVtranslateZ
p346
aVrotateX
p347
aVrotateY
p348
aVrotateZ
p349
aaF0
aF0
aF0
aF0
aF0
aF0
aa(lp350
S'offset_anim'
p351
a(lp352
VtranslateX
p353
aVtranslateY
p354
aVtranslateZ
p355
aVrotateX
p356
aVrotateY
p357
aVrotateZ
p358
aaF0
aF0
aF0
aF0
aF0
aF0
aa(lp359
S'root_anim'
p360
a(lp361
VtranslateX
p362
aVtranslateY
p363
aVtranslateZ
p364
aVrotateX
p365
aVrotateY
p366
aVrotateZ
p367
aaF0
aF0
aF0
aF0
aF0
aF0
aa(lp368
S'upperarm_l_twist_anim'
p369
a(lp370
VtranslateX
p371
aVtranslateY
p372
aVtranslateZ
p373
aVrotateX
p374
aVrotateY
p375
aVrotateZ
p376
aVscaleX
p377
aVscaleY
p378
aVscaleZ
p379
aaF0
aF0
aF0
aF-19.58330678774151
aF0
aF0
aF1
aF1
aF1
aa(lp380
S'upperarm_r_twist_anim'
p381
a(lp382
VtranslateX
p383
aVtranslateY
p384
aVtranslateZ
p385
aVrotateX
p386
aVrotateY
p387
aVrotateZ
p388
aVscaleX
p389
aVscaleY
p390
aVscaleZ
p391
aaF0
aF0
aF0
aF9.5020956099482259
aF0
aF0
aF1
aF1
aF1
aa(lp392
S'thigh_l_twist_anim'
p393
a(lp394
VtranslateX
p395
aVtranslateY
p396
aVtranslateZ
p397
aVrotateX
p398
aVrotateY
p399
aVrotateZ
p400
aaF0
aF0
aF0
aF0
aF0
aF0
aa(lp401
S'thigh_r_twist_anim'
p402
a(lp403
VtranslateX
p404
aVtranslateY
p405
aVtranslateZ
p406
aVrotateX
p407
aVrotateY
p408
aVrotateZ
p409
aaF0
aF0
aF0
aF0
aF0
aF0
aa(lp410
S'pinky_finger_fk_ctrl_1_l'
p411
a(lp412
VtranslateX
p413
aVtranslateY
p414
aVtranslateZ
p415
aVrotateX
p416
aVrotateY
p417
aVrotateZ
p418
aVsticky
p419
aaF0
aF0
aF0
aF0
aF0
aF67.465302944955894
aF0
aa(lp420
S'pinky_finger_fk_ctrl_1_r'
p421
a(lp422
VtranslateX
p423
aVtranslateY
p424
aVtranslateZ
p425
aVrotateX
p426
aVrotateY
p427
aVrotateZ
p428
aVsticky
p429
aaF0
aF0
aF0
aF0
aF0
aF67.465302944955894
aF0
aa(lp430
S'pinky_finger_fk_ctrl_2_l'
p431
a(lp432
VtranslateX
p433
aVtranslateY
p434
aVtranslateZ
p435
aVrotateX
p436
aVrotateY
p437
aVrotateZ
p438
aaF0
aF0
aF0
aF0
aF0
aF126.85537155640378
aa(lp439
S'pinky_finger_fk_ctrl_2_r'
p440
a(lp441
VtranslateX
p442
aVtranslateY
p443
aVtranslateZ
p444
aVrotateX
p445
aVrotateY
p446
aVrotateZ
p447
aaF0
aF0
aF0
aF0
aF0
aF126.85537155640378
aa(lp448
S'pinky_finger_fk_ctrl_3_l'
p449
a(lp450
VtranslateX
p451
aVtranslateY
p452
aVtranslateZ
p453
aVrotateX
p454
aVrotateY
p455
aVrotateZ
p456
aaF0
aF0
aF0
aF0
aF0
aF52.811381648203898
aa(lp457
S'pinky_finger_fk_ctrl_3_r'
p458
a(lp459
VtranslateX
p460
aVtranslateY
p461
aVtranslateZ
p462
aVrotateX
p463
aVrotateY
p464
aVrotateZ
p465
aaF0
aF0
aF0
aF0
aF0
aF52.811381648203891
aa(lp466
S'middle_finger_fk_ctrl_1_l'
p467
a(lp468
VtranslateX
p469
aVtranslateY
p470
aVtranslateZ
p471
aVrotateX
p472
aVrotateY
p473
aVrotateZ
p474
aVsticky
p475
aaF0
aF0
aF0
aF0
aF0
aF63.661206954731128
aF0
aa(lp476
S'middle_finger_fk_ctrl_1_r'
p477
a(lp478
VtranslateX
p479
aVtranslateY
p480
aVtranslateZ
p481
aVrotateX
p482
aVrotateY
p483
aVrotateZ
p484
aVsticky
p485
aaF0
aF0
aF0
aF0
aF0
aF63.661206954731128
aF0
aa(lp486
S'middle_finger_fk_ctrl_2_l'
p487
a(lp488
VtranslateX
p489
aVtranslateY
p490
aVtranslateZ
p491
aVrotateX
p492
aVrotateY
p493
aVrotateZ
p494
aaF0
aF0
aF0
aF0
aF0
aF133.59350062543939
aa(lp495
S'middle_finger_fk_ctrl_2_r'
p496
a(lp497
VtranslateX
p498
aVtranslateY
p499
aVtranslateZ
p500
aVrotateX
p501
aVrotateY
p502
aVrotateZ
p503
aaF0
aF0
aF0
aF0
aF0
aF133.59350062543939
aa(lp504
S'middle_finger_fk_ctrl_3_l'
p505
a(lp506
VtranslateX
p507
aVtranslateY
p508
aVtranslateZ
p509
aVrotateX
p510
aVrotateY
p511
aVrotateZ
p512
aaF0
aF0
aF0
aF0
aF0
aF0
aa(lp513
S'middle_finger_fk_ctrl_3_r'
p514
a(lp515
VtranslateX
p516
aVtranslateY
p517
aVtranslateZ
p518
aVrotateX
p519
aVrotateY
p520
aVrotateZ
p521
aaF0
aF0
aF0
aF0
aF0
aF0
aa(lp522
S'index_finger_fk_ctrl_1_l'
p523
a(lp524
VtranslateX
p525
aVtranslateY
p526
aVtranslateZ
p527
aVrotateX
p528
aVrotateY
p529
aVrotateZ
p530
aVsticky
p531
aaF0
aF0
aF0
aF10.830620356075823
aF-7.3355858286821753
aF69.113012273789167
aF0
aa(lp532
S'index_finger_fk_ctrl_1_r'
p533
a(lp534
VtranslateX
p535
aVtranslateY
p536
aVtranslateZ
p537
aVrotateX
p538
aVrotateY
p539
aVrotateZ
p540
aVsticky
p541
aaF0
aF0
aF0
aF10.830620356075821
aF-7.3355858286821753
aF69.113012273789167
aF0
aa(lp542
S'index_finger_fk_ctrl_2_l'
p543
a(lp544
VtranslateX
p545
aVtranslateY
p546
aVtranslateZ
p547
aVrotateX
p548
aVrotateY
p549
aVrotateZ
p550
aaF0
aF0
aF0
aF0
aF0
aF135.90676302855266
aa(lp551
S'index_finger_fk_ctrl_2_r'
p552
a(lp553
VtranslateX
p554
aVtranslateY
p555
aVtranslateZ
p556
aVrotateX
p557
aVrotateY
p558
aVrotateZ
p559
aaF0
aF0
aF0
aF0
aF0
aF135.90676302855266
aa(lp560
S'index_finger_fk_ctrl_3_l'
p561
a(lp562
VtranslateX
p563
aVtranslateY
p564
aVtranslateZ
p565
aVrotateX
p566
aVrotateY
p567
aVrotateZ
p568
aaF0
aF0
aF0
aF0
aF0
aF36.734456103288835
aa(lp569
S'index_finger_fk_ctrl_3_r'
p570
a(lp571
VtranslateX
p572
aVtranslateY
p573
aVtranslateZ
p574
aVrotateX
p575
aVrotateY
p576
aVrotateZ
p577
aaF0
aF0
aF0
aF0
aF0
aF36.734456103288835
aa(lp578
S'thumb_finger_fk_ctrl_1_l'
p579
a(lp580
VtranslateX
p581
aVtranslateY
p582
aVtranslateZ
p583
aVrotateX
p584
aVrotateY
p585
aVrotateZ
p586
aVsticky
p587
aaF0
aF0
aF0
aF7.2929083564820845
aF-8.856074823173179
aF-16.455722744949036
aF0
aa(lp588
S'thumb_finger_fk_ctrl_1_r'
p589
a(lp590
VtranslateX
p591
aVtranslateY
p592
aVtranslateZ
p593
aVrotateX
p594
aVrotateY
p595
aVrotateZ
p596
aVsticky
p597
aaF0
aF0
aF0
aF7.2929083564820845
aF-8.856074823173179
aF-16.455722744949036
aF0
aa(lp598
S'thumb_finger_fk_ctrl_2_l'
p599
a(lp600
VtranslateX
p601
aVtranslateY
p602
aVtranslateZ
p603
aVrotateX
p604
aVrotateY
p605
aVrotateZ
p606
aaF0
aF0
aF0
aF0
aF0
aF105.96004398419824
aa(lp607
S'thumb_finger_fk_ctrl_2_r'
p608
a(lp609
VtranslateX
p610
aVtranslateY
p611
aVtranslateZ
p612
aVrotateX
p613
aVrotateY
p614
aVrotateZ
p615
aaF0
aF0
aF0
aF0
aF0
aF105.96004398419824
aa(lp616
S'thumb_finger_fk_ctrl_3_l'
p617
a(lp618
VtranslateX
p619
aVtranslateY
p620
aVtranslateZ
p621
aVrotateX
p622
aVrotateY
p623
aVrotateZ
p624
aaF0
aF0
aF0
aF0
aF0
aF59.776097733833311
aa(lp625
S'thumb_finger_fk_ctrl_3_r'
p626
a(lp627
VtranslateX
p628
aVtranslateY
p629
aVtranslateZ
p630
aVrotateX
p631
aVrotateY
p632
aVrotateZ
p633
aaF0
aF0
aF0
aF0
aF0
aF59.776097733833311
aa(lp634
S'index_l_ik_anim'
p635
a(lp636
VtranslateX
p637
aVtranslateY
p638
aVtranslateZ
p639
aVrotateX
p640
aVrotateY
p641
aVrotateZ
p642
aVpoleVectorVis
p643
aaF0
aF0
aF0
aF0
aF0
aF0
aF0
aa(lp644
S'index_r_ik_anim'
p645
a(lp646
VtranslateX
p647
aVtranslateY
p648
aVtranslateZ
p649
aVrotateX
p650
aVrotateY
p651
aVrotateZ
p652
aVpoleVectorVis
p653
aaF0
aF0
aF0
aF0
aF0
aF0
aF0
aa(lp654
S'middle_l_ik_anim'
p655
a(lp656
VtranslateX
p657
aVtranslateY
p658
aVtranslateZ
p659
aVrotateX
p660
aVrotateY
p661
aVrotateZ
p662
aVpoleVectorVis
p663
aaF0
aF0
aF0
aF0
aF0
aF0
aF0
aa(lp664
S'middle_r_ik_anim'
p665
a(lp666
VtranslateX
p667
aVtranslateY
p668
aVtranslateZ
p669
aVrotateX
p670
aVrotateY
p671
aVrotateZ
p672
aVpoleVectorVis
p673
aaF0
aF0
aF0
aF0
aF0
aF0
aF0
aa(lp674
S'pinky_l_ik_anim'
p675
a(lp676
VtranslateX
p677
aVtranslateY
p678
aVtranslateZ
p679
aVrotateX
p680
aVrotateY
p681
aVrotateZ
p682
aVpoleVectorVis
p683
aaF0
aF0
aF0
aF0
aF0
aF0
aF0
aa(lp684
S'pinky_r_ik_anim'
p685
a(lp686
VtranslateX
p687
aVtranslateY
p688
aVtranslateZ
p689
aVrotateX
p690
aVrotateY
p691
aVrotateZ
p692
aVpoleVectorVis
p693
aaF0
aF0
aF0
aF0
aF0
aF0
aF0
aa(lp694
S'thumb_l_ik_anim'
p695
a(lp696
VtranslateX
p697
aVtranslateY
p698
aVtranslateZ
p699
aVrotateX
p700
aVrotateY
p701
aVrotateZ
p702
aVpoleVectorVis
p703
aaF0
aF0
aF0
aF0
aF0
aF0
aF0
aa(lp704
S'thumb_r_ik_anim'
p705
a(lp706
VtranslateX
p707
aVtranslateY
p708
aVtranslateZ
p709
aVrotateX
p710
aVrotateY
p711
aVrotateZ
p712
aVpoleVectorVis
p713
aaF0
aF0
aF0
aF0
aF0
aF0
aF0
aa(lp714
S'index_l_poleVector'
p715
a(lp716
VtranslateX
p717
aVtranslateY
p718
aVtranslateZ
p719
aVrotateX
p720
aVrotateY
p721
aVrotateZ
p722
aaF0
aF0
aF0
aF0
aF0
aF0
aa(lp723
S'index_r_poleVector'
p724
a(lp725
VtranslateX
p726
aVtranslateY
p727
aVtranslateZ
p728
aVrotateX
p729
aVrotateY
p730
aVrotateZ
p731
aaF0
aF0
aF0
aF0
aF0
aF0
aa(lp732
S'middle_l_poleVector'
p733
a(lp734
VtranslateX
p735
aVtranslateY
p736
aVtranslateZ
p737
aVrotateX
p738
aVrotateY
p739
aVrotateZ
p740
aaF0
aF0
aF0
aF0
aF0
aF0
aa(lp741
S'middle_r_poleVector'
p742
a(lp743
VtranslateX
p744
aVtranslateY
p745
aVtranslateZ
p746
aVrotateX
p747
aVrotateY
p748
aVrotateZ
p749
aaF0
aF0
aF0
aF0
aF0
aF0
aa(lp750
S'pinky_l_poleVector'
p751
a(lp752
VtranslateX
p753
aVtranslateY
p754
aVtranslateZ
p755
aVrotateX
p756
aVrotateY
p757
aVrotateZ
p758
aaF0
aF0
aF0
aF0
aF0
aF0
aa(lp759
S'pinky_r_poleVector'
p760
a(lp761
VtranslateX
p762
aVtranslateY
p763
aVtranslateZ
p764
aVrotateX
p765
aVrotateY
p766
aVrotateZ
p767
aaF0
aF0
aF0
aF0
aF0
aF0
aa(lp768
S'thumb_l_poleVector'
p769
a(lp770
VtranslateX
p771
aVtranslateY
p772
aVtranslateZ
p773
aVrotateX
p774
aVrotateY
p775
aVrotateZ
p776
aaF0
aF0
aF0
aF0
aF0
aF0
aa(lp777
S'thumb_r_poleVector'
p778
a(lp779
VtranslateX
p780
aVtranslateY
p781
aVtranslateZ
p782
aVrotateX
p783
aVrotateY
p784
aVrotateZ
p785
aaF0
aF0
aF0
aF0
aF0
aF0
aa(lp786
S'l_global_ik_anim'
p787
a(lp788
VtranslateX
p789
aVtranslateY
p790
aVtranslateZ
p791
aVrotateX
p792
aVrotateY
p793
aVrotateZ
p794
aaF0
aF0
aF0
aF0
aF0
aF0
aa(lp795
S'r_global_ik_anim'
p796
a(lp797
VtranslateX
p798
aVtranslateY
p799
aVtranslateZ
p800
aVrotateX
p801
aVrotateY
p802
aVrotateZ
p803
aaF0
aF0
aF0
aF0
aF0
aF0
aa(lp804
S'Rig_Settings'
p805
a(lp806
Vspine_ik
p807
aVspine_fk
p808
aVlLegMode
p809
aVlThighTwistAmount
p810
aVlCalfTwistAmount
p811
aVrLegMode
p812
aVrThighTwistAmount
p813
aVrCalfTwistAmount
p814
aVlFkArmOrient
p815
aVrFkArmOrient
p816
aVlArmMode
p817
aVlUpperarmTwistAmount
p818
aVrArmMode
p819
aVrUpperarmTwistAmount
p820
aVtentacle_l_fk
p821
aVtentacle_l_ik
p822
aVtentacle_l_dynamic
p823
aVtentacle_r_fk
p824
aVtentacle_r_ik
p825
aVtentacle_r_dynamic
p826
aVthrusterVent_l_fk
p827
aVthrusterVent_l_ik
p828
aVthrusterVent_l_dynamic
p829
aVthrusterVent_r_fk
p830
aVthrusterVent_r_ik
p831
aVthrusterVent_r_dynamic
p832
aaF0
aF1
aI1
aF0.90000000000000002
aF0.5
aI1
aF0.90000000000000002
aF0.5
aI0
aI0
aI1
aF0.90000000000000002
aI1
aF0.90000000000000002
aF1
aF0
aF0
aF1
aF0
aF0
aF1
aF0
aF0
aF1
aF0
aF0
aa(lp833
Vdagger_a_l_anim
p834
a(lp835
VtranslateX
p836
aVtranslateY
p837
aVtranslateZ
p838
aVrotateX
p839
aVrotateY
p840
aVrotateZ
p841
aVscaleX
p842
aVscaleY
p843
aVscaleZ
p844
aVblendUnitConversion188
p845
aaF0
aF-1.7763568394002505e-15
aF0
aF0
aF0
aF0
aF1
aF1
aF0.99999999999999989
aF0
aa(lp846
Vdagger_a_r_anim
p847
a(lp848
VtranslateX
p849
aVtranslateY
p850
aVtranslateZ
p851
aVrotateX
p852
aVrotateY
p853
aVrotateZ
p854
aVscaleX
p855
aVscaleY
p856
aVscaleZ
p857
aVblendUnitConversion191
p858
aaF0
aF0
aF0
aF0
aF-1.987846675914698e-16
aF0
aF1
aF1
aF1
aF0
aa(lp859
Vdagger_b_l_anim
p860
a(lp861
VtranslateX
p862
aVtranslateY
p863
aVtranslateZ
p864
aVrotateX
p865
aVrotateY
p866
aVrotateZ
p867
aVscaleX
p868
aVscaleY
p869
aVscaleZ
p870
aVblendUnitConversion189
p871
aaF-3.7865323450608567e-29
aF1.0242498433986995
aF5.0449487918391966
aF-8.6680877977213395
aF0
aF0
aF1
aF1
aF0.99999999999999989
aF0
aa(lp872
Vdagger_b_r_anim
p873
a(lp874
VtranslateX
p875
aVtranslateY
p876
aVtranslateZ
p877
aVrotateX
p878
aVrotateY
p879
aVrotateZ
p880
aVscaleX
p881
aVscaleY
p882
aVscaleZ
p883
aVblendUnitConversion192
p884
aaF0
aF1.7763568394002505e-15
aF0
aF0
aF-1.987846675914698e-16
aF0
aF1
aF1
aF1
aF0
aa(lp885
Vdagger_base_l_anim
p886
a(lp887
VtranslateX
p888
aVtranslateY
p889
aVrotateX
p890
aVrotateY
p891
aVrotateZ
p892
aVscaleX
p893
aVscaleY
p894
aVscaleZ
p895
aaF2.8421709430404007e-14
aF0
aF3.1060104311167156e-18
aF-0
aF0
aF1
aF1
aF0.99999999999999989
aa(lp896
Vdagger_base_r_anim
p897
a(lp898
VtranslateX
p899
aVtranslateY
p900
aVrotateX
p901
aVrotateY
p902
aVrotateZ
p903
aVscaleX
p904
aVscaleY
p905
aVscaleZ
p906
aaF0
aF0
aF1.2424041724466862e-17
aF-0
aF0
aF1
aF1
aF1
aa(lp907
Vdagger_c_l_anim
p908
a(lp909
VtranslateX
p910
aVtranslateY
p911
aVtranslateZ
p912
aVrotateX
p913
aVrotateY
p914
aVrotateZ
p915
aVscaleX
p916
aVscaleY
p917
aVscaleZ
p918
aVblendUnitConversion190
p919
aaF1.4210854715202004e-14
aF-0.74256546369448384
aF5.7161384613053547
aF7.4016628935357556
aF0
aF0
aF1
aF1
aF0.99999999999999989
aF0
aa(lp920
Vdagger_c_r_anim
p921
a(lp922
VtranslateX
p923
aVtranslateY
p924
aVtranslateZ
p925
aVrotateX
p926
aVrotateY
p927
aVrotateZ
p928
aVscaleX
p929
aVscaleY
p930
aVscaleZ
p931
aVblendUnitConversion193
p932
aaF0
aF0
aF0
aF0
aF-1.987846675914698e-16
aF0
aF1
aF1
aF1
aF0
aa(lp933
VextensionA_l_anim
p934
a(lp935
VtranslateZ
p936
aVrotateX
p937
aVrotateY
p938
aVrotateZ
p939
aVscaleX
p940
aVscaleY
p941
aVscaleZ
p942
aaF-7.1054273576010019e-15
aF-1.5902773407317588e-15
aF4.9696166897867462e-17
aF0
aF0.99999999999999989
aF0.99999999999999989
aF0.99999999999999989
aa(lp943
VextensionA_r_anim
p944
a(lp945
VtranslateZ
p946
aVrotateX
p947
aVrotateY
p948
aVrotateZ
p949
aVscaleX
p950
aVscaleY
p951
aVscaleZ
p952
aaF0
aF1.5902773407317588e-15
aF-0
aF3.975693351829396e-16
aF1
aF0.99999999999999989
aF1
aa(lp953
VextensionB_l_anim
p954
a(lp955
VtranslateZ
p956
aVrotateX
p957
aVrotateY
p958
aVrotateZ
p959
aVscaleX
p960
aVscaleY
p961
aVscaleZ
p962
aaF-7.1054273576010019e-15
aF-1.5902773407317584e-15
aF-0
aF0
aF1
aF1
aF1
aa(lp963
VextensionB_r_anim
p964
a(lp965
VtranslateZ
p966
aVrotateX
p967
aVrotateY
p968
aVrotateZ
p969
aVscaleX
p970
aVscaleY
p971
aVscaleZ
p972
aaF0
aF-1.5902773407317584e-15
aF9.9392333795734899e-17
aF0
aF1
aF1
aF1
aa(lp973
VlowerArm_bottomPlateA_l_anim
p974
a(lp975
VscaleX
p976
aVscaleY
p977
aVscaleZ
p978
aaF1.0000000000000002
aF1.0000000000000002
aF1.0000000000000002
aa(lp979
VlowerArm_bottomPlateA_r_anim
p980
a(lp981
VscaleX
p982
aVscaleY
p983
aVscaleZ
p984
aaF1
aF1
aF1
aa(lp985
VlowerArm_bottomPlateB_l_anim
p986
a(lp987
VscaleX
p988
aVscaleY
p989
aVscaleZ
p990
aaF0.99999999999999989
aF1
aF1
aa(lp991
VlowerArm_bottomPlateB_r_anim
p992
a(lp993
VscaleX
p994
aVscaleY
p995
aVscaleZ
p996
aaF1
aF1
aF1
aa(lp997
VlowerArm_topPlateA_l_anim
p998
a(lp999
VscaleX
p1000
aVscaleY
p1001
aVscaleZ
p1002
aaF0.99999999999999967
aF0.99999999999999978
aF0.99999999999999978
aa(lp1003
VlowerArm_topPlateA_r_anim
p1004
a(lp1005
VscaleX
p1006
aVscaleY
p1007
aVscaleZ
p1008
aaF1
aF1
aF1
aa(lp1009
VlowerArm_topPlateB_l_anim
p1010
a(lp1011
VscaleX
p1012
aVscaleY
p1013
aVscaleZ
p1014
aaF1.0000000000000002
aF1.0000000000000002
aF1.0000000000000002
aa(lp1015
VlowerArm_topPlateB_r_anim
p1016
a(lp1017
VscaleX
p1018
aVscaleY
p1019
aVscaleZ
p1020
aaF1
aF1
aF1
aa(lp1021
VpivotA_l_anim
p1022
a(lp1023
VtranslateX
p1024
aVtranslateY
p1025
aVtranslateZ
p1026
aVrotateX
p1027
aVrotateZ
p1028
aVscaleX
p1029
aVscaleY
p1030
aVscaleZ
p1031
aaF1.4210854715202004e-14
aF0
aF-1.4210854715202004e-14
aF-1.5902773407317588e-15
aF0
aF0.99999999999999989
aF0.99999999999999989
aF0.99999999999999989
aa(lp1032
VpivotA_r_anim
p1033
a(lp1034
VtranslateX
p1035
aVtranslateY
p1036
aVtranslateZ
p1037
aVrotateX
p1038
aVrotateZ
p1039
aVscaleX
p1040
aVscaleY
p1041
aVscaleZ
p1042
aaF1.4210854715202004e-14
aF2.8421709430404007e-14
aF-1.4210854715202004e-14
aF1.5902773407317588e-15
aF3.975693351829396e-16
aF1
aF0.99999999999999989
aF1
aa(lp1043
VpivotB_l_anim
p1044
a(lp1045
VtranslateX
p1046
aVtranslateY
p1047
aVtranslateZ
p1048
aVrotateX
p1049
aVrotateZ
p1050
aVscaleX
p1051
aVscaleY
p1052
aVscaleZ
p1053
aaF1.4210854715202004e-14
aF0
aF0
aF-1.5902773407317584e-15
aF0
aF1
aF1
aF0.99999999999999989
aa(lp1054
VpivotB_r_anim
p1055
a(lp1056
VtranslateX
p1057
aVtranslateY
p1058
aVtranslateZ
p1059
aVrotateX
p1060
aVrotateZ
p1061
aVscaleX
p1062
aVscaleY
p1063
aVscaleZ
p1064
aaF0
aF0
aF0
aF-1.5902773407317584e-15
aF0
aF1
aF1
aF1
aa(lp1065
VshoulderPad_l_anim
p1066
a(lp1067
VtranslateX
p1068
aVtranslateY
p1069
aVtranslateZ
p1070
aVrotateX
p1071
aVrotateY
p1072
aVrotateZ
p1073
aVchainAttach
p1074
aVchainStartEnvelope
p1075
aVchainStartFrame
p1076
aVchainStiffness
p1077
aVchainDamping
p1078
aVchainGravity
p1079
aVchainIteration
p1080
aVchainCollide
p1081
aVchainWidthBase
p1082
aVchainWidthExtremity
p1083
aVchainCollideGround
p1084
aVchainCollideGroundHeight
p1085
aaF2.8421709430404007e-14
aF1.7763568394002505e-15
aF-1.7763568394002505e-15
aF-3.4166114742283875e-17
aF-0
aF1.9878466759146985e-16
aI1
aF0
aF1
aF0.10000000000000001
aF0.20000000000000001
aF1
aI1
aI00
aF1
aF1
aI00
aF0
aa(lp1086
VshoulderPad_r_anim
p1087
a(lp1088
VtranslateX
p1089
aVtranslateY
p1090
aVtranslateZ
p1091
aVrotateX
p1092
aVrotateY
p1093
aVrotateZ
p1094
aVchainAttach
p1095
aVchainStartEnvelope
p1096
aVchainStartFrame
p1097
aVchainStiffness
p1098
aVchainDamping
p1099
aVchainGravity
p1100
aVchainIteration
p1101
aVchainCollide
p1102
aVchainWidthBase
p1103
aVchainWidthExtremity
p1104
aVchainCollideGround
p1105
aVchainCollideGroundHeight
p1106
aaF2.8421709430404007e-14
aF0
aF-1.7763568394002505e-15
aF5.9014198191217581e-17
aF-0
aF-9.9392333795734874e-17
aI1
aF0
aF1
aF0.10000000000000001
aF0.20000000000000001
aF1
aI1
aI00
aF1
aF1
aI00
aF0
aa(lp1107
Vsword_handle_l_anim
p1108
a(lp1109
VtranslateX
p1110
aVtranslateY
p1111
aVtranslateZ
p1112
aVrotateX
p1113
aVrotateY
p1114
aVrotateZ
p1115
aVscaleX
p1116
aVscaleY
p1117
aVscaleZ
p1118
aaF-8.6925365431376687
aF0
aF0.71151924757785912
aF1.5902773407317584e-15
aF85.801846867540078
aF0
aF1
aF1
aF1
aa(lp1119
Vsword_handle_r_anim
p1120
a(lp1121
VtranslateX
p1122
aVtranslateY
p1123
aVtranslateZ
p1124
aVrotateX
p1125
aVrotateY
p1126
aVrotateZ
p1127
aVscaleX
p1128
aVscaleY
p1129
aVscaleZ
p1130
aaF8.5283029403926882
aF-1.2015399591420286
aF-0.084122334011469097
aF6.1066649884099522e-13
aF88.430856901280166
aF-5.8522206138928706e-13
aF1
aF1
aF1
aa(lp1131
Vsword_root_l_anim
p1132
a(lp1133
VtranslateX
p1134
aVtranslateY
p1135
aVtranslateZ
p1136
aVrotateX
p1137
aVrotateY
p1138
aVrotateZ
p1139
aVscaleX
p1140
aVscaleY
p1141
aVscaleZ
p1142
aVsword_deploy
p1143
aVsword_open
p1144
aVsword_extend
p1145
aaF0
aF0
aF0
aF1.5902773407317584e-15
aF-0
aF0
aF1
aF1
aF1
aF10
aF10
aF10
aa(lp1146
Vsword_root_r_anim
p1147
a(lp1148
VtranslateX
p1149
aVtranslateY
p1150
aVtranslateZ
p1151
aVrotateX
p1152
aVrotateY
p1153
aVrotateZ
p1154
aVscaleX
p1155
aVscaleY
p1156
aVscaleZ
p1157
aVsword_deploy
p1158
aVsword_open
p1159
aVsword_extend
p1160
aaF0
aF0
aF0
aF0
aF0
aF0
aF1
aF1
aF1
aF10
aF10
aF10
aa(lp1161
Vtentacle_l_dyn_anim
p1162
a(lp1163
VtranslateX
p1164
aVtranslateY
p1165
aVtranslateZ
p1166
aVrotateX
p1167
aVrotateY
p1168
aVrotateZ
p1169
aVchainAttach
p1170
aVchainStartEnvelope
p1171
aVchainStartFrame
p1172
aVchainStiffness
p1173
aVchainDamping
p1174
aVchainGravity
p1175
aVchainIteration
p1176
aVchainCollide
p1177
aVchainWidthBase
p1178
aVchainWidthExtremity
p1179
aVchainCollideGround
p1180
aVchainCollideGroundHeight
p1181
aaF0
aF0
aF0
aF0
aF0
aF0
aI1
aF1
aF1
aF0.10000000000000001
aF0.20000000000000001
aF1
aI1
aI00
aF1
aF1
aI00
aF0
aa(lp1182
Vtentacle_l_ik_2_anim
p1183
a(lp1184
VtranslateX
p1185
aVtranslateY
p1186
aVtranslateZ
p1187
aVrotateX
p1188
aVrotateY
p1189
aVrotateZ
p1190
aaF8.8817841970012523e-16
aF0
aF-5.6843418860808015e-14
aF3.1805546814635176e-15
aF-3.3793393490549872e-15
aF-3.9756933518293969e-16
aa(lp1191
Vtentacle_l_ik_3_anim
p1192
a(lp1193
VtranslateX
p1194
aVtranslateY
p1195
aVtranslateZ
p1196
aVrotateX
p1197
aVrotateY
p1198
aVrotateZ
p1199
aaF2.6645352591003757e-15
aF0
aF2.8421709430404007e-14
aF0
aF5.9635400277440939e-16
aF3.3793393490549868e-15
aa(lp1200
Vtentacle_l_ik_4_anim
p1201
a(lp1202
VtranslateX
p1203
aVtranslateY
p1204
aVtranslateZ
p1205
aVrotateX
p1206
aVrotateY
p1207
aVrotateZ
p1208
aaF-1.021405182655144e-14
aF-1.4210854715202004e-14
aF2.8421709430404007e-14
aF-3.180554681463516e-15
aF-0
aF-2.8823776800763122e-15
aa(lp1209
Vtentacle_l_ik_5_anim
p1210
a(lp1211
VtranslateX
p1212
aVtranslateY
p1213
aVtranslateZ
p1214
aVrotateX
p1215
aVrotateY
p1216
aVrotateZ
p1217
aaF-9.3258734068513149e-15
aF-1.4210854715202004e-14
aF0
aF-3.180554681463516e-15
aF-0
aF-2.8823776800763122e-15
aa(lp1218
Vtentacle_l_ik_6_anim
p1219
a(lp1220
VtranslateX
p1221
aVtranslateY
p1222
aVtranslateZ
p1223
aVrotateX
p1224
aVrotateY
p1225
aVrotateZ
p1226
aaF-5.3290705182007514e-15
aF-1.3322676295501878e-14
aF0
aF-3.180554681463516e-15
aF-0
aF-2.8823776800763122e-15
aa(lp1227
Vtentacle_l_ik_7_anim
p1228
a(lp1229
VtranslateX
p1230
aVtranslateY
p1231
aVtranslateZ
p1232
aVrotateX
p1233
aVrotateY
p1234
aVrotateZ
p1235
aaF-1.0436096431476471e-14
aF-7.1054273576010019e-15
aF0
aF-3.180554681463516e-15
aF-0
aF-2.8823776800763122e-15
aa(lp1236
Vtentacle_l_ik_8_anim
p1237
a(lp1238
VtranslateX
p1239
aVtranslateY
p1240
aVtranslateZ
p1241
aVrotateX
p1242
aVrotateY
p1243
aVrotateZ
p1244
aaF2.6645352591003757e-15
aF2.1316282072803006e-14
aF0
aF0
aF3.975693351829396e-16
aF-2.7829853462805772e-15
aa(lp1245
Vtentacle_l_ik_9_anim
p1246
a(lp1247
VtranslateX
p1248
aVtranslateY
p1249
aVtranslateZ
p1250
aVrotateX
p1251
aVrotateY
p1252
aVrotateZ
p1253
aaF1.7763568394002505e-15
aF7.1054273576010019e-15
aF0
aF0
aF3.975693351829396e-16
aF-2.7829853462805772e-15
aa(lp1254
Vtentacle_l_ik_10_anim
p1255
a(lp1256
VtranslateX
p1257
aVtranslateY
p1258
aVtranslateZ
p1259
aVrotateX
p1260
aVrotateY
p1261
aVrotateZ
p1262
aVclusterControlVis
p1263
aaF1.6875389974302379e-14
aF0
aF0
aF0
aF3.975693351829396e-16
aF-2.7829853462805772e-15
aI00
aa(lp1264
Vtentacle_l_ik_base_anim
p1265
a(lp1266
VtranslateX
p1267
aVtranslateY
p1268
aVtranslateZ
p1269
aVrotateX
p1270
aVrotateY
p1271
aVrotateZ
p1272
aVglobal_scale
p1273
aaF-6.2172489379008766e-15
aF-2.8421709430404007e-14
aF0
aF0
aF-1.9133024255678967e-15
aF3.6278201835443235e-15
aF1.0000000000000002
aa(lp1274
Vfk_tentacle_l_01_anim
p1275
a(lp1276
VtranslateX
p1277
aVtranslateY
p1278
aVtranslateZ
p1279
aVrotateX
p1280
aVrotateY
p1281
aVrotateZ
p1282
aVglobal_scale
p1283
aVlagMode
p1284
aaF0
aF0
aF0
aF-4.0716111261288184
aF-1.2555619420879858
aF-12.495843203215541
aF1
aF0
aa(lp1285
Vtentacle_l_cv_0_anim
p1286
a(lp1287
VtranslateX
p1288
aVtranslateY
p1289
aVtranslateZ
p1290
aaF0
aF0
aF0
aa(lp1291
Vfk_tentacle_l_02_anim
p1292
a(lp1293
VtranslateX
p1294
aVtranslateY
p1295
aVtranslateZ
p1296
aVrotateX
p1297
aVrotateY
p1298
aVrotateZ
p1299
aaF0
aF0
aF0
aF-18.066924191326557
aF-3.7795831838472376
aF-8.9920089037433701
aa(lp1300
Vtentacle_l_cv_1_anim
p1301
a(lp1302
VtranslateX
p1303
aVtranslateY
p1304
aVtranslateZ
p1305
aaF0
aF0
aF0
aa(lp1306
Vfk_tentacle_l_03_anim
p1307
a(lp1308
VtranslateX
p1309
aVtranslateY
p1310
aVtranslateZ
p1311
aVrotateX
p1312
aVrotateY
p1313
aVrotateZ
p1314
aaF0
aF0
aF0
aF-16.867398434960865
aF0.37005978529399258
aF4.1665681697006569
aa(lp1315
Vtentacle_l_cv_2_anim
p1316
a(lp1317
VtranslateX
p1318
aVtranslateY
p1319
aVtranslateZ
p1320
aaF0
aF0
aF0
aa(lp1321
Vfk_tentacle_l_04_anim
p1322
a(lp1323
VtranslateX
p1324
aVtranslateY
p1325
aVtranslateZ
p1326
aVrotateX
p1327
aVrotateY
p1328
aVrotateZ
p1329
aaF0
aF0
aF0
aF-9.7478841304245982
aF0.37005978529399353
aF4.1665681697006685
aa(lp1330
Vtentacle_l_cv_3_anim
p1331
a(lp1332
VtranslateX
p1333
aVtranslateY
p1334
aVtranslateZ
p1335
aaF0
aF0
aF0
aa(lp1336
Vfk_tentacle_l_05_anim
p1337
a(lp1338
VtranslateX
p1339
aVtranslateY
p1340
aVtranslateZ
p1341
aVrotateX
p1342
aVrotateY
p1343
aVrotateZ
p1344
aaF0
aF0
aF0
aF-6.3532880754938112
aF0.37005978529399297
aF4.1665681697006622
aa(lp1345
Vtentacle_l_cv_4_anim
p1346
a(lp1347
VtranslateX
p1348
aVtranslateY
p1349
aVtranslateZ
p1350
aaF0
aF0
aF0
aa(lp1351
Vfk_tentacle_l_06_anim
p1352
a(lp1353
VtranslateX
p1354
aVtranslateY
p1355
aVtranslateZ
p1356
aVrotateX
p1357
aVrotateY
p1358
aVrotateZ
p1359
aaF0
aF0
aF0
aF-1.2861502539797469
aF-0.038845573967382252
aF1.5560714507792128
aa(lp1360
Vtentacle_l_cv_5_anim
p1361
a(lp1362
VtranslateX
p1363
aVtranslateY
p1364
aVtranslateZ
p1365
aaF0
aF0
aF0
aa(lp1366
Vfk_tentacle_l_07_anim
p1367
a(lp1368
VtranslateX
p1369
aVtranslateY
p1370
aVtranslateZ
p1371
aVrotateX
p1372
aVrotateY
p1373
aVrotateZ
p1374
aaF0
aF0
aF0
aF-1.2861502539797469
aF-0.038845573967382252
aF1.5560714507792128
aa(lp1375
Vtentacle_l_cv_6_anim
p1376
a(lp1377
VtranslateX
p1378
aVtranslateY
p1379
aVtranslateZ
p1380
aaF0
aF0
aF0
aa(lp1381
Vfk_tentacle_l_08_anim
p1382
a(lp1383
VtranslateX
p1384
aVtranslateY
p1385
aVtranslateZ
p1386
aVrotateX
p1387
aVrotateY
p1388
aVrotateZ
p1389
aaF0
aF0
aF0
aF-2.3917687760790258
aF-0.072223610867838711
aF6.3557068845300764
aa(lp1390
Vtentacle_l_cv_7_anim
p1391
a(lp1392
VtranslateX
p1393
aVtranslateY
p1394
aVtranslateZ
p1395
aaF0
aF0
aF0
aa(lp1396
Vfk_tentacle_l_09_anim
p1397
a(lp1398
VtranslateX
p1399
aVtranslateY
p1400
aVtranslateZ
p1401
aVrotateX
p1402
aVrotateY
p1403
aVrotateZ
p1404
aaF0
aF0
aF0
aF0
aF0
aF3.068440765294064
aa(lp1405
Vtentacle_l_cv_8_anim
p1406
a(lp1407
VtranslateX
p1408
aVtranslateY
p1409
aVtranslateZ
p1410
aaF0
aF0
aF0
aa(lp1411
Vfk_tentacle_l_010_anim
p1412
a(lp1413
VtranslateX
p1414
aVtranslateY
p1415
aVtranslateZ
p1416
aVrotateX
p1417
aVrotateY
p1418
aVrotateZ
p1419
aaF0
aF0
aF0
aF0
aF0
aF3.068440765294064
aa(lp1420
Vtentacle_l_cv_9_anim
p1421
a(lp1422
VtranslateX
p1423
aVtranslateY
p1424
aVtranslateZ
p1425
aaF0
aF0
aF0
aa(lp1426
Vfk_tentacle_l_011_anim
p1427
a(lp1428
VtranslateX
p1429
aVtranslateY
p1430
aVtranslateZ
p1431
aVrotateX
p1432
aVrotateY
p1433
aVrotateZ
p1434
aaF0
aF0
aF0
aF0
aF0
aF-4.6689054985004699
aa(lp1435
Vtentacle_l_cv_10_anim
p1436
a(lp1437
VtranslateX
p1438
aVtranslateY
p1439
aVtranslateZ
p1440
aaF0
aF0
aF0
aa(lp1441
Vfk_tentacle_l_012_anim
p1442
a(lp1443
VtranslateX
p1444
aVtranslateY
p1445
aVtranslateZ
p1446
aVrotateX
p1447
aVrotateY
p1448
aVrotateZ
p1449
aaF0
aF0
aF0
aF0
aF0
aF-4.6689054985004699
aa(lp1450
Vtentacle_l_cv_11_anim
p1451
a(lp1452
VtranslateX
p1453
aVtranslateY
p1454
aVtranslateZ
p1455
aaF0
aF0
aF0
aa(lp1456
Vfk_tentacle_l_013_anim
p1457
a(lp1458
VtranslateX
p1459
aVtranslateY
p1460
aVtranslateZ
p1461
aVrotateX
p1462
aVrotateY
p1463
aVrotateZ
p1464
aaF0
aF0
aF0
aF0
aF0
aF-9.4674692656673685
aa(lp1465
Vtentacle_l_cv_12_anim
p1466
a(lp1467
VtranslateX
p1468
aVtranslateY
p1469
aVtranslateZ
p1470
aaF0
aF0
aF0
aa(lp1471
Vfk_tentacle_l_014_anim
p1472
a(lp1473
VtranslateX
p1474
aVtranslateY
p1475
aVtranslateZ
p1476
aVrotateX
p1477
aVrotateY
p1478
aVrotateZ
p1479
aaF0
aF0
aF0
aF3.9850390177802089
aF0
aF-9.4674692656673685
aa(lp1480
Vtentacle_l_cv_13_anim
p1481
a(lp1482
VtranslateX
p1483
aVtranslateY
p1484
aVtranslateZ
p1485
aaF0
aF0
aF0
aa(lp1486
Vfk_tentacle_l_015_anim
p1487
a(lp1488
VtranslateX
p1489
aVtranslateY
p1490
aVtranslateZ
p1491
aVrotateX
p1492
aVrotateY
p1493
aVrotateZ
p1494
aaF0
aF0
aF0
aF9.5245472300000813
aF-0.21587568409372773
aF-7.9615223148289349
aa(lp1495
Vtentacle_l_cv_14_anim
p1496
a(lp1497
VtranslateX
p1498
aVtranslateY
p1499
aVtranslateZ
p1500
aaF0
aF0
aF0
aa(lp1501
Vfk_tentacle_l_016_anim
p1502
a(lp1503
VtranslateX
p1504
aVtranslateY
p1505
aVtranslateZ
p1506
aVrotateX
p1507
aVrotateY
p1508
aVrotateZ
p1509
aaF0
aF0
aF0
aF9.524547230000076
aF-0.21587568409372673
aF1.5059469508384464
aa(lp1510
Vtentacle_l_cv_15_anim
p1511
a(lp1512
VtranslateX
p1513
aVtranslateY
p1514
aVtranslateZ
p1515
aaF0
aF0
aF0
aa(lp1516
Vfk_tentacle_l_017_anim
p1517
a(lp1518
VtranslateX
p1519
aVtranslateY
p1520
aVtranslateZ
p1521
aVrotateX
p1522
aVrotateY
p1523
aVrotateZ
p1524
aaF0
aF0
aF0
aF9.5245472300000955
aF-0.21587568409372707
aF3.6843760783740436
aa(lp1525
Vtentacle_l_cv_16_anim
p1526
a(lp1527
VtranslateX
p1528
aVtranslateY
p1529
aVtranslateZ
p1530
aaF0
aF0
aF0
aa(lp1531
Vfk_tentacle_l_018_anim
p1532
a(lp1533
VtranslateX
p1534
aVtranslateY
p1535
aVtranslateZ
p1536
aVrotateX
p1537
aVrotateY
p1538
aVrotateZ
p1539
aaF0
aF0
aF0
aF9.5245472300000955
aF-0.21587568409372707
aF3.6843760783740436
aa(lp1540
Vtentacle_l_cv_17_anim
p1541
a(lp1542
VtranslateX
p1543
aVtranslateY
p1544
aVtranslateZ
p1545
aaF0
aF0
aF0
aa(lp1546
Vfk_tentacle_l_019_anim
p1547
a(lp1548
VtranslateX
p1549
aVtranslateY
p1550
aVtranslateZ
p1551
aVrotateX
p1552
aVrotateY
p1553
aVrotateZ
p1554
aaF0
aF0
aF0
aF9.5245472300001062
aF-0.21587568409372887
aF26.741993457215859
aa(lp1555
Vtentacle_l_cv_18_anim
p1556
a(lp1557
VtranslateX
p1558
aVtranslateY
p1559
aVtranslateZ
p1560
aaF0
aF0
aF0
aa(lp1561
Vfk_tentacle_l_020_anim
p1562
a(lp1563
VtranslateX
p1564
aVtranslateY
p1565
aVtranslateZ
p1566
aVrotateX
p1567
aVrotateY
p1568
aVrotateZ
p1569
aaF0
aF0
aF0
aF0
aF0
aF25.236046506377324
aa(lp1570
Vtentacle_l_cv_19_anim
p1571
a(lp1572
VtranslateX
p1573
aVtranslateY
p1574
aVtranslateZ
p1575
aaF0
aF0
aF0
aa(lp1576
Vtentacle_r_dyn_anim
p1577
a(lp1578
VtranslateX
p1579
aVtranslateY
p1580
aVtranslateZ
p1581
aVrotateX
p1582
aVrotateY
p1583
aVrotateZ
p1584
aVchainAttach
p1585
aVchainStartEnvelope
p1586
aVchainStartFrame
p1587
aVchainStiffness
p1588
aVchainDamping
p1589
aVchainGravity
p1590
aVchainIteration
p1591
aVchainCollide
p1592
aVchainWidthBase
p1593
aVchainWidthExtremity
p1594
aVchainCollideGround
p1595
aVchainCollideGroundHeight
p1596
aaF0
aF0
aF0
aF0
aF0
aF0
aI1
aF1
aF1
aF0.10000000000000001
aF0.20000000000000001
aF1
aI1
aI00
aF1
aF1
aI00
aF0
aa(lp1597
Vtentacle_r_ik_2_anim
p1598
a(lp1599
VtranslateX
p1600
aVtranslateY
p1601
aVtranslateZ
p1602
aVrotateX
p1603
aVrotateY
p1604
aVrotateZ
p1605
aaF-5.3290705182007514e-15
aF-1.4210854715202004e-14
aF0
aF0
aF-2.6835930124848422e-15
aF3.975693351829396e-16
aa(lp1606
Vtentacle_r_ik_3_anim
p1607
a(lp1608
VtranslateX
p1609
aVtranslateY
p1610
aVtranslateZ
p1611
aVrotateX
p1612
aVrotateY
p1613
aVrotateZ
p1614
aaF-3.9968028886505635e-15
aF0
aF0
aF0
aF-2.0872390097104334e-15
aF-4.1744780194208667e-15
aa(lp1615
Vtentacle_r_ik_4_anim
p1616
a(lp1617
VtranslateX
p1618
aVtranslateY
p1619
aVtranslateZ
p1620
aVrotateX
p1621
aVrotateY
p1622
aVrotateZ
p1623
aaF7.6605388699135801e-15
aF-7.1054273576010019e-15
aF2.8421709430404007e-14
aF3.1805546814635168e-15
aF7.9513867036587919e-16
aF-2.5842006786891076e-15
aa(lp1624
Vtentacle_r_ik_5_anim
p1625
a(lp1626
VtranslateX
p1627
aVtranslateY
p1628
aVtranslateZ
p1629
aVrotateX
p1630
aVrotateY
p1631
aVrotateZ
p1632
aaF-2.4424906541753444e-15
aF-3.5527136788005009e-15
aF2.8421709430404007e-14
aF3.1805546814635168e-15
aF7.9513867036587919e-16
aF-2.5842006786891076e-15
aa(lp1633
Vtentacle_r_ik_6_anim
p1634
a(lp1635
VtranslateX
p1636
aVtranslateY
p1637
aVtranslateZ
p1638
aVrotateX
p1639
aVrotateY
p1640
aVrotateZ
p1641
aaF4.1078251911130792e-15
aF-2.6645352591003757e-15
aF0
aF3.1805546814635168e-15
aF7.9513867036587919e-16
aF-2.5842006786891076e-15
aa(lp1642
Vtentacle_r_ik_7_anim
p1643
a(lp1644
VtranslateX
p1645
aVtranslateY
p1646
aVtranslateZ
p1647
aVrotateX
p1648
aVrotateY
p1649
aVrotateZ
p1650
aaF5.773159728050814e-15
aF-1.4210854715202004e-14
aF0
aF3.1805546814635168e-15
aF7.9513867036587919e-16
aF-2.5842006786891076e-15
aa(lp1651
Vtentacle_r_ik_8_anim
p1652
a(lp1653
VtranslateX
p1654
aVtranslateY
p1655
aVtranslateZ
p1656
aVrotateX
p1657
aVrotateY
p1658
aVrotateZ
p1659
aaF7.1054273576010019e-15
aF-2.1316282072803006e-14
aF-2.8421709430404007e-14
aF-6.361109362927032e-15
aF1.3417965062424211e-15
aF-2.3357198441997701e-15
aa(lp1660
Vtentacle_r_ik_9_anim
p1661
a(lp1662
VtranslateX
p1663
aVtranslateY
p1664
aVtranslateZ
p1665
aVrotateX
p1666
aVrotateY
p1667
aVrotateZ
p1668
aaF0
aF0
aF0
aF-6.361109362927032e-15
aF1.3417965062424211e-15
aF-2.3357198441997701e-15
aa(lp1669
Vtentacle_r_ik_10_anim
p1670
a(lp1671
VtranslateX
p1672
aVtranslateY
p1673
aVtranslateZ
p1674
aVrotateX
p1675
aVrotateY
p1676
aVrotateZ
p1677
aVclusterControlVis
p1678
aaF-8.8817841970012523e-16
aF1.4210854715202004e-14
aF0
aF-6.361109362927032e-15
aF1.3417965062424211e-15
aF-2.3357198441997701e-15
aI00
aa(lp1679
Vtentacle_r_ik_base_anim
p1680
a(lp1681
VtranslateX
p1682
aVtranslateY
p1683
aVtranslateZ
p1684
aVrotateX
p1685
aVrotateY
p1686
aVrotateZ
p1687
aVglobal_scale
p1688
aaF9.7699626167013776e-15
aF0
aF0
aF0
aF-3.2302508483613845e-16
aF7.9513867036587919e-16
aF1
aa(lp1689
Vfk_tentacle_r_01_anim
p1690
a(lp1691
VtranslateX
p1692
aVtranslateY
p1693
aVtranslateZ
p1694
aVrotateX
p1695
aVrotateY
p1696
aVrotateZ
p1697
aVglobal_scale
p1698
aVlagMode
p1699
aaF0
aF0
aF0
aF0.37925865499030076
aF-0.41006709514233824
aF4.6506769173462237
aF1.0000000000000002
aF0
aa(lp1700
Vtentacle_r_cv_0_anim
p1701
a(lp1702
VtranslateX
p1703
aVtranslateY
p1704
aVtranslateZ
p1705
aaF0
aF0
aF0
aa(lp1706
Vfk_tentacle_r_02_anim
p1707
a(lp1708
VtranslateX
p1709
aVtranslateY
p1710
aVtranslateZ
p1711
aVrotateX
p1712
aVrotateY
p1713
aVrotateZ
p1714
aaF0
aF0
aF0
aF-9.482535877675339
aF-1.5965028265007897
aF-2.9836254382402827
aa(lp1715
Vtentacle_r_cv_1_anim
p1716
a(lp1717
VtranslateX
p1718
aVtranslateY
p1719
aVtranslateZ
p1720
aaF0
aF0
aF0
aa(lp1721
Vfk_tentacle_r_03_anim
p1722
a(lp1723
VtranslateX
p1724
aVtranslateY
p1725
aVtranslateZ
p1726
aVrotateX
p1727
aVrotateY
p1728
aVrotateZ
p1729
aaF0
aF0
aF0
aF-6.4857229960906997
aF-0.035954760413948919
aF2.9483435382587149
aa(lp1730
Vtentacle_r_cv_2_anim
p1731
a(lp1732
VtranslateX
p1733
aVtranslateY
p1734
aVtranslateZ
p1735
aaF0
aF0
aF0
aa(lp1736
Vfk_tentacle_r_04_anim
p1737
a(lp1738
VtranslateX
p1739
aVtranslateY
p1740
aVtranslateZ
p1741
aVrotateX
p1742
aVrotateY
p1743
aVrotateZ
p1744
aaF0
aF0
aF0
aF-5.0896333272158714
aF1.1896134481114704
aF9.9327295205419279
aa(lp1745
Vtentacle_r_cv_3_anim
p1746
a(lp1747
VtranslateX
p1748
aVtranslateY
p1749
aVtranslateZ
p1750
aaF0
aF0
aF0
aa(lp1751
Vfk_tentacle_r_05_anim
p1752
a(lp1753
VtranslateX
p1754
aVtranslateY
p1755
aVtranslateZ
p1756
aVrotateX
p1757
aVrotateY
p1758
aVrotateZ
p1759
aaF0
aF0
aF0
aF-14.362352625802126
aF-0.44815503770405635
aF3.0879300322362666
aa(lp1760
Vtentacle_r_cv_4_anim
p1761
a(lp1762
VtranslateX
p1763
aVtranslateY
p1764
aVtranslateZ
p1765
aaF0
aF0
aF0
aa(lp1766
Vfk_tentacle_r_06_anim
p1767
a(lp1768
VtranslateX
p1769
aVtranslateY
p1770
aVtranslateZ
p1771
aVrotateX
p1772
aVrotateY
p1773
aVrotateZ
p1774
aaF0
aF0
aF0
aF-7.1360523401145501
aF-0.67609745811319677
aF2.1127825142884138
aa(lp1775
Vtentacle_r_cv_5_anim
p1776
a(lp1777
VtranslateX
p1778
aVtranslateY
p1779
aVtranslateZ
p1780
aaF0
aF0
aF0
aa(lp1781
Vfk_tentacle_r_07_anim
p1782
a(lp1783
VtranslateX
p1784
aVtranslateY
p1785
aVtranslateZ
p1786
aVrotateX
p1787
aVrotateY
p1788
aVrotateZ
p1789
aaF0
aF0
aF0
aF-7.1390810104800781
aF-0.61930888427666342
aF-1.6465346116947961
aa(lp1790
Vtentacle_r_cv_6_anim
p1791
a(lp1792
VtranslateX
p1793
aVtranslateY
p1794
aVtranslateZ
p1795
aaF0
aF0
aF0
aa(lp1796
Vfk_tentacle_r_08_anim
p1797
a(lp1798
VtranslateX
p1799
aVtranslateY
p1800
aVtranslateZ
p1801
aVrotateX
p1802
aVrotateY
p1803
aVrotateZ
p1804
aaF0
aF0
aF0
aF-8.2411911878705641
aF-0.71429104462811555
aF3.1648556968664385
aa(lp1805
Vtentacle_r_cv_7_anim
p1806
a(lp1807
VtranslateX
p1808
aVtranslateY
p1809
aVtranslateZ
p1810
aaF0
aF0
aF0
aa(lp1811
Vfk_tentacle_r_09_anim
p1812
a(lp1813
VtranslateX
p1814
aVtranslateY
p1815
aVtranslateZ
p1816
aVrotateX
p1817
aVrotateY
p1818
aVrotateZ
p1819
aaF0
aF0
aF0
aF-6.2814429456141418
aF-0.76109832116940723
aF-2.6140004564957429
aa(lp1820
Vtentacle_r_cv_8_anim
p1821
a(lp1822
VtranslateX
p1823
aVtranslateY
p1824
aVtranslateZ
p1825
aaF0
aF0
aF0
aa(lp1826
Vfk_tentacle_r_010_anim
p1827
a(lp1828
VtranslateX
p1829
aVtranslateY
p1830
aVtranslateZ
p1831
aVrotateX
p1832
aVrotateY
p1833
aVrotateZ
p1834
aaF0
aF0
aF0
aF-3.8268043413086965
aF-0.49339809794688866
aF-2.5372749739119884
aa(lp1835
Vtentacle_r_cv_9_anim
p1836
a(lp1837
VtranslateX
p1838
aVtranslateY
p1839
aVtranslateZ
p1840
aaF0
aF0
aF0
aa(lp1841
Vfk_tentacle_r_011_anim
p1842
a(lp1843
VtranslateX
p1844
aVtranslateY
p1845
aVtranslateZ
p1846
aVrotateX
p1847
aVrotateY
p1848
aVrotateZ
p1849
aaF0
aF0
aF0
aF0.64860632954937447
aF0.0080343829114350764
aF-5.378569715726611
aa(lp1850
Vtentacle_r_cv_10_anim
p1851
a(lp1852
VtranslateX
p1853
aVtranslateY
p1854
aVtranslateZ
p1855
aaF0
aF0
aF0
aa(lp1856
Vfk_tentacle_r_012_anim
p1857
a(lp1858
VtranslateX
p1859
aVtranslateY
p1860
aVtranslateZ
p1861
aVrotateX
p1862
aVrotateY
p1863
aVrotateZ
p1864
aaF0
aF0
aF0
aF0.70048288288338834
aF0.047927641834115339
aF-6.5505984465261795
aa(lp1865
Vtentacle_r_cv_11_anim
p1866
a(lp1867
VtranslateX
p1868
aVtranslateY
p1869
aVtranslateZ
p1870
aaF0
aF0
aF0
aa(lp1871
Vfk_tentacle_r_013_anim
p1872
a(lp1873
VtranslateX
p1874
aVtranslateY
p1875
aVtranslateZ
p1876
aVrotateX
p1877
aVrotateY
p1878
aVrotateZ
p1879
aaF0
aF0
aF0
aF2.1535634745368859
aF0
aF-9.4674689999999995
aa(lp1880
Vtentacle_r_cv_12_anim
p1881
a(lp1882
VtranslateX
p1883
aVtranslateY
p1884
aVtranslateZ
p1885
aaF0
aF0
aF0
aa(lp1886
Vfk_tentacle_r_014_anim
p1887
a(lp1888
VtranslateX
p1889
aVtranslateY
p1890
aVtranslateZ
p1891
aVrotateX
p1892
aVrotateY
p1893
aVrotateZ
p1894
aaF0
aF0
aF0
aF0
aF0
aF-9.4674689999999995
aa(lp1895
Vtentacle_r_cv_13_anim
p1896
a(lp1897
VtranslateX
p1898
aVtranslateY
p1899
aVtranslateZ
p1900
aaF0
aF0
aF0
aa(lp1901
Vfk_tentacle_r_015_anim
p1902
a(lp1903
VtranslateX
p1904
aVtranslateY
p1905
aVtranslateZ
p1906
aVrotateX
p1907
aVrotateY
p1908
aVrotateZ
p1909
aaF0
aF0
aF0
aF-2.2861608892731122
aF0
aF-6.3684049619602616
aa(lp1910
Vtentacle_r_cv_14_anim
p1911
a(lp1912
VtranslateX
p1913
aVtranslateY
p1914
aVtranslateZ
p1915
aaF0
aF0
aF0
aa(lp1916
Vfk_tentacle_r_016_anim
p1917
a(lp1918
VtranslateX
p1919
aVtranslateY
p1920
aVtranslateZ
p1921
aVrotateX
p1922
aVrotateY
p1923
aVrotateZ
p1924
aaF0
aF0
aF0
aF-2.2861608892731131
aF0
aF3.0990640380397503
aa(lp1925
Vtentacle_r_cv_15_anim
p1926
a(lp1927
VtranslateX
p1928
aVtranslateY
p1929
aVtranslateZ
p1930
aaF0
aF0
aF0
aa(lp1931
Vfk_tentacle_r_017_anim
p1932
a(lp1933
VtranslateX
p1934
aVtranslateY
p1935
aVtranslateZ
p1936
aVrotateX
p1937
aVrotateY
p1938
aVrotateZ
p1939
aaF0
aF0
aF0
aF-2.286160889273114
aF0
aF5.2774930380397516
aa(lp1940
Vtentacle_r_cv_16_anim
p1941
a(lp1942
VtranslateX
p1943
aVtranslateY
p1944
aVtranslateZ
p1945
aaF0
aF0
aF0
aa(lp1946
Vfk_tentacle_r_018_anim
p1947
a(lp1948
VtranslateX
p1949
aVtranslateY
p1950
aVtranslateZ
p1951
aVrotateX
p1952
aVrotateY
p1953
aVrotateZ
p1954
aaF0
aF0
aF0
aF-2.286160889273114
aF0
aF5.2774930380397516
aa(lp1955
Vtentacle_r_cv_17_anim
p1956
a(lp1957
VtranslateX
p1958
aVtranslateY
p1959
aVtranslateZ
p1960
aaF0
aF0
aF0
aa(lp1961
Vfk_tentacle_r_019_anim
p1962
a(lp1963
VtranslateX
p1964
aVtranslateY
p1965
aVtranslateZ
p1966
aVrotateX
p1967
aVrotateY
p1968
aVrotateZ
p1969
aaF0
aF0
aF0
aF0
aF0
aF25.236046999999999
aa(lp1970
Vtentacle_r_cv_18_anim
p1971
a(lp1972
VtranslateX
p1973
aVtranslateY
p1974
aVtranslateZ
p1975
aaF0
aF0
aF0
aa(lp1976
Vfk_tentacle_r_020_anim
p1977
a(lp1978
VtranslateX
p1979
aVtranslateY
p1980
aVtranslateZ
p1981
aVrotateX
p1982
aVrotateY
p1983
aVrotateZ
p1984
aaF0
aF0
aF0
aF0
aF0
aF25.236046999999999
aa(lp1985
Vtentacle_r_cv_19_anim
p1986
a(lp1987
VtranslateX
p1988
aVtranslateY
p1989
aVtranslateZ
p1990
aaF0
aF0
aF0
aa(lp1991
VthrusterVent_l_dyn_anim
p1992
a(lp1993
VtranslateX
p1994
aVtranslateY
p1995
aVtranslateZ
p1996
aVrotateX
p1997
aVrotateY
p1998
aVrotateZ
p1999
aVchainAttach
p2000
aVchainStartEnvelope
p2001
aVchainStartFrame
p2002
aVchainStiffness
p2003
aVchainDamping
p2004
aVchainGravity
p2005
aVchainIteration
p2006
aVchainCollide
p2007
aVchainWidthBase
p2008
aVchainWidthExtremity
p2009
aVchainCollideGround
p2010
aVchainCollideGroundHeight
p2011
aaF0
aF0
aF0
aF0
aF0
aF0
aI1
aF1
aF1
aF0.10000000000000001
aF0.20000000000000001
aF1
aI1
aI00
aF1
aF1
aI00
aF0
aa(lp2012
VthrusterVent_l_ik_2_anim
p2013
a(lp2014
VtranslateX
p2015
aVtranslateY
p2016
aVtranslateZ
p2017
aVrotateX
p2018
aVrotateY
p2019
aVrotateZ
p2020
aaF0
aF0
aF0
aF0
aF0
aF0
aa(lp2021
VthrusterVent_l_ik_3_anim
p2022
a(lp2023
VtranslateX
p2024
aVtranslateY
p2025
aVtranslateZ
p2026
aVrotateX
p2027
aVrotateY
p2028
aVrotateZ
p2029
aVclusterControlVis
p2030
aaF0
aF0
aF0
aF0
aF0
aF0
aI00
aa(lp2031
VthrusterVent_l_ik_base_anim
p2032
a(lp2033
VtranslateX
p2034
aVtranslateY
p2035
aVtranslateZ
p2036
aVrotateX
p2037
aVrotateY
p2038
aVrotateZ
p2039
aVglobal_scale
p2040
aaF0
aF0
aF0
aF0
aF0
aF0
aF1
aa(lp2041
Vfk_thrusterVent_l_01_anim
p2042
a(lp2043
Vglobal_scale
p2044
aVlagMode
p2045
aaF1
aF0
aa(lp2046
VthrusterVent_l_cv_0_anim
p2047
a(lp2048
VtranslateX
p2049
aVtranslateY
p2050
aVtranslateZ
p2051
aaF0
aF0
aF0
aa(lp2052
Vfk_thrusterVent_l_02_anim
p2053
aNaa(lp2054
VthrusterVent_l_cv_1_anim
p2055
a(lp2056
VtranslateX
p2057
aVtranslateY
p2058
aVtranslateZ
p2059
aaF0
aF0
aF0
aa(lp2060
VthrusterVent_r_dyn_anim
p2061
a(lp2062
VtranslateX
p2063
aVtranslateY
p2064
aVtranslateZ
p2065
aVrotateX
p2066
aVrotateY
p2067
aVrotateZ
p2068
aVchainAttach
p2069
aVchainStartEnvelope
p2070
aVchainStartFrame
p2071
aVchainStiffness
p2072
aVchainDamping
p2073
aVchainGravity
p2074
aVchainIteration
p2075
aVchainCollide
p2076
aVchainWidthBase
p2077
aVchainWidthExtremity
p2078
aVchainCollideGround
p2079
aVchainCollideGroundHeight
p2080
aaF0
aF0
aF0
aF0
aF0
aF0
aI1
aF1
aF1
aF0.10000000000000001
aF0.20000000000000001
aF1
aI1
aI00
aF1
aF1
aI00
aF0
aa(lp2081
VthrusterVent_r_ik_2_anim
p2082
a(lp2083
VtranslateX
p2084
aVtranslateY
p2085
aVtranslateZ
p2086
aVrotateX
p2087
aVrotateY
p2088
aVrotateZ
p2089
aaF-8.8817841970012523e-16
aF3.5527136788005009e-15
aF2.8421709430404007e-14
aF0
aF0
aF0
aa(lp2090
VthrusterVent_r_ik_3_anim
p2091
a(lp2092
VtranslateX
p2093
aVtranslateY
p2094
aVtranslateZ
p2095
aVrotateX
p2096
aVrotateY
p2097
aVrotateZ
p2098
aVclusterControlVis
p2099
aaF-8.8817841970012523e-16
aF3.5527136788005009e-15
aF0
aF0
aF0
aF0
aI00
aa(lp2100
VthrusterVent_r_ik_base_anim
p2101
a(lp2102
VtranslateX
p2103
aVtranslateY
p2104
aVtranslateZ
p2105
aVrotateX
p2106
aVrotateY
p2107
aVrotateZ
p2108
aVglobal_scale
p2109
aaF-8.8817841970012523e-16
aF1.7763568394002505e-15
aF0
aF0
aF0
aF0
aF1
aa(lp2110
Vfk_thrusterVent_r_01_anim
p2111
a(lp2112
Vglobal_scale
p2113
aVlagMode
p2114
aaF1
aF0
aa(lp2115
VthrusterVent_r_cv_0_anim
p2116
a(lp2117
VtranslateX
p2118
aVtranslateY
p2119
aVtranslateZ
p2120
aaF0
aF0
aF0
aa(lp2121
Vfk_thrusterVent_r_02_anim
p2122
aNaa(lp2123
VthrusterVent_r_cv_1_anim
p2124
a(lp2125
VtranslateX
p2126
aVtranslateY
p2127
aVtranslateZ
p2128
aaF0
aF0
aF0
aa(lp2129
Vthruster_a_l_anim
p2130
aNaa(lp2131
Vthruster_a_r_anim
p2132
aNaa(lp2133
Vthruster_b_l_anim
p2134
aNaa(lp2135
Vthruster_b_r_anim
p2136
aNaa(lp2137
Vthruster_c_l_anim
p2138
aNaa(lp2139
Vthruster_c_r_anim
p2140
aNaa(lp2141
Vthruster_casing_l_anim
p2142
aNaa(lp2143
Vthruster_casing_r_anim
p2144
aNaa(lp2145
Vweapon_l_anim
p2146
a(lp2147
VtranslateX
p2148
aVtranslateY
p2149
aVtranslateZ
p2150
aVrotateX
p2151
aVrotateY
p2152
aVrotateZ
p2153
aVscaleX
p2154
aVscaleY
p2155
aVscaleZ
p2156
aVtop_open
p2157
aVbottom_open
p2158
aVdaggers_deploy
p2159
aVdaggerA_swing
p2160
aVdaggerB_swing
p2161
aVdaggerC_swing
p2162
aaF-6.3948846218409017e-14
aF-9.9475983006414026e-14
aF-4.4408920985006262e-14
aF-56.373457581222056
aF-39.413712383394383
aF51.015204720293426
aF1.0000000000000002
aF1.0000000000000002
aF1.0000000000000002
aF0.010545619874138651
aF0
aF0.0044088629279593929
aF0
aF0
aF0
aa(lp2163
Vweapon_r_anim
p2164
a(lp2165
VtranslateX
p2166
aVtranslateY
p2167
aVtranslateZ
p2168
aVrotateX
p2169
aVrotateY
p2170
aVrotateZ
p2171
aVscaleX
p2172
aVscaleY
p2173
aVscaleZ
p2174
aVtop_open
p2175
aVbottom_open
p2176
aVdaggers_deploy
p2177
aVdaggerA_swing
p2178
aVdaggerB_swing
p2179
aVdaggerC_swing
p2180
aaF-5.4594090059367772e-05
aF0.000101690954451783
aF0.00017971864404842108
aF-46.121953821555401
aF-37.716874702832051
aF35.433435165254728
aF0.99999999999999967
aF0.99999999999999978
aF0.99999999999999967
aF0
aF0
aF0
aF0
aF0
aF0
aa(lp2181
Vbody_anim_space_switcher
p2182
a(lp2183
Vvisibility
p2184
aVtranslateX
p2185
aVtranslateY
p2186
aVtranslateZ
p2187
aVrotateX
p2188
aVrotateY
p2189
aVrotateZ
p2190
aVscaleX
p2191
aVscaleY
p2192
aVscaleZ
p2193
aVspace_world
p2194
aaI01
aF0
aF0
aF0
aF0
aF0
aF0
aF1
aF1
aF1
aF0
aa(lp2195
Vchest_ik_anim_space_switcher
p2196
a(lp2197
Vvisibility
p2198
aVtranslateX
p2199
aVtranslateY
p2200
aVtranslateZ
p2201
aVrotateX
p2202
aVrotateY
p2203
aVrotateZ
p2204
aVscaleX
p2205
aVscaleY
p2206
aVscaleZ
p2207
aVspace_world
p2208
aVspace_chest_ik_world_aligned
p2209
aaI01
aF0
aF-3.5527136788005009e-15
aF-5.0487097934144756e-29
aF7.0622500768802555e-31
aF5.6498000615042044e-30
aF0
aF0.99999999999999989
aF0.99999999999999989
aF1
aF0
aF0
aa(lp2210
Vdagger_a_l_anim_space_switcher
p2211
a(lp2212
Vvisibility
p2213
aVtranslateX
p2214
aVtranslateY
p2215
aVtranslateZ
p2216
aVrotateX
p2217
aVrotateY
p2218
aVrotateZ
p2219
aVscaleX
p2220
aVscaleY
p2221
aVscaleZ
p2222
aVspace_world
p2223
aaI01
aF0
aF0
aF0
aF2.2518575625596189e-17
aF-1.987846675914698e-16
aF0
aF1
aF1
aF1
aF0
aa(lp2224
Vdagger_a_r_anim_space_switcher
p2225
a(lp2226
Vvisibility
p2227
aVtranslateX
p2228
aVtranslateY
p2229
aVtranslateZ
p2230
aVrotateX
p2231
aVrotateY
p2232
aVrotateZ
p2233
aVscaleX
p2234
aVscaleY
p2235
aVscaleZ
p2236
aVspace_world
p2237
aaI01
aF-2.8421709430404007e-14
aF-3.5527136788005009e-15
aF1.4210854715202004e-14
aF3.1060104311167148e-18
aF-0
aF0
aF1
aF1.0000000000000002
aF1.0000000000000002
aF0
aa(lp2238
Vdagger_b_l_anim_space_switcher
p2239
a(lp2240
Vvisibility
p2241
aVtranslateX
p2242
aVtranslateY
p2243
aVtranslateZ
p2244
aVrotateX
p2245
aVrotateY
p2246
aVrotateZ
p2247
aVscaleX
p2248
aVscaleY
p2249
aVscaleZ
p2250
aVspace_world
p2251
aaI01
aF0
aF0
aF0
aF2.2518575625596189e-17
aF-1.987846675914698e-16
aF0
aF1
aF1
aF1
aF0
aa(lp2252
Vdagger_b_r_anim_space_switcher
p2253
a(lp2254
Vvisibility
p2255
aVtranslateX
p2256
aVtranslateY
p2257
aVtranslateZ
p2258
aVrotateX
p2259
aVrotateY
p2260
aVrotateZ
p2261
aVscaleX
p2262
aVscaleY
p2263
aVscaleZ
p2264
aVspace_world
p2265
aaI01
aF2.8421709430404007e-14
aF0
aF0
aF3.1060104311167148e-18
aF-0
aF0
aF1
aF1.0000000000000002
aF1.0000000000000002
aF0
aa(lp2266
Vdagger_base_l_anim_space_switcher
p2267
a(lp2268
Vvisibility
p2269
aVtranslateX
p2270
aVtranslateY
p2271
aVtranslateZ
p2272
aVrotateX
p2273
aVrotateY
p2274
aVrotateZ
p2275
aVscaleX
p2276
aVscaleY
p2277
aVscaleZ
p2278
aVspace_world
p2279
aaI01
aF2.8421709430404007e-14
aF0
aF0
aF-8.5415286855709671e-18
aF-1.987846675914698e-16
aF0
aF1
aF1
aF1
aF0
aa(lp2280
Vdagger_base_r_anim_space_switcher
p2281
a(lp2282
Vvisibility
p2283
aVtranslateX
p2284
aVtranslateY
p2285
aVtranslateZ
p2286
aVrotateX
p2287
aVrotateY
p2288
aVrotateZ
p2289
aVscaleX
p2290
aVscaleY
p2291
aVscaleZ
p2292
aVspace_world
p2293
aaI01
aF2.8421709430404007e-14
aF1.7763568394002505e-15
aF1.4210854715202004e-14
aF6.2120208622334312e-18
aF-1.987846675914698e-16
aF0
aF1
aF1
aF1.0000000000000002
aF0
aa(lp2294
Vdagger_c_l_anim_space_switcher
p2295
a(lp2296
Vvisibility
p2297
aVtranslateX
p2298
aVtranslateY
p2299
aVtranslateZ
p2300
aVrotateX
p2301
aVrotateY
p2302
aVrotateZ
p2303
aVscaleX
p2304
aVscaleY
p2305
aVscaleZ
p2306
aVspace_world
p2307
aaI01
aF-2.8421709430404007e-14
aF0
aF0
aF2.2518575625596189e-17
aF-1.987846675914698e-16
aF0
aF1
aF1
aF1
aF0
aa(lp2308
Vdagger_c_r_anim_space_switcher
p2309
a(lp2310
Vvisibility
p2311
aVtranslateX
p2312
aVtranslateY
p2313
aVtranslateZ
p2314
aVrotateX
p2315
aVrotateY
p2316
aVrotateZ
p2317
aVscaleX
p2318
aVscaleY
p2319
aVscaleZ
p2320
aVspace_world
p2321
aaI01
aF0
aF0
aF1.4210854715202004e-14
aF3.1060104311167148e-18
aF-0
aF0
aF1
aF1.0000000000000002
aF1.0000000000000002
aF0
aa(lp2322
VextensionA_l_anim_space_switcher
p2323
a(lp2324
Vvisibility
p2325
aVtranslateX
p2326
aVtranslateY
p2327
aVtranslateZ
p2328
aVrotateX
p2329
aVrotateY
p2330
aVrotateZ
p2331
aVscaleX
p2332
aVscaleY
p2333
aVscaleZ
p2334
aVspace_world
p2335
aaI01
aF0
aF0
aF7.1054273576010019e-15
aF0
aF9.9392333795734899e-17
aF3.975693351829396e-16
aF1
aF1
aF1
aF0
aa(lp2336
VextensionA_r_anim_space_switcher
p2337
a(lp2338
Vvisibility
p2339
aVtranslateX
p2340
aVtranslateY
p2341
aVtranslateZ
p2342
aVrotateX
p2343
aVrotateY
p2344
aVrotateZ
p2345
aVscaleX
p2346
aVscaleY
p2347
aVscaleZ
p2348
aVspace_world
p2349
aaI01
aF0
aF-2.8421709430404007e-14
aF-7.1054273576010019e-15
aF0
aF-4.9696166897867449e-17
aF3.975693351829396e-16
aF1
aF1
aF1
aF0
aa(lp2350
VextensionB_l_anim_space_switcher
p2351
a(lp2352
Vvisibility
p2353
aVtranslateX
p2354
aVtranslateY
p2355
aVtranslateZ
p2356
aVrotateX
p2357
aVrotateY
p2358
aVrotateZ
p2359
aVscaleX
p2360
aVscaleY
p2361
aVscaleZ
p2362
aVspace_world
p2363
aaI01
aF-1.4210854715202004e-14
aF2.8421709430404007e-14
aF7.1054273576010019e-15
aF1.590277340731758e-15
aF4.9696166897867449e-17
aF-3.975693351829396e-16
aF1
aF1.0000000000000002
aF1.0000000000000002
aF0
aa(lp2364
VextensionB_r_anim_space_switcher
p2365
a(lp2366
Vvisibility
p2367
aVtranslateX
p2368
aVtranslateY
p2369
aVtranslateZ
p2370
aVrotateX
p2371
aVrotateY
p2372
aVrotateZ
p2373
aVscaleX
p2374
aVscaleY
p2375
aVscaleZ
p2376
aVspace_world
p2377
aaI01
aF0
aF2.8421709430404007e-14
aF0
aF0
aF-0
aF-3.975693351829396e-16
aF1
aF1.0000000000000002
aF1.0000000000000002
aF0
aa(lp2378
Vik_elbow_l_anim_space_switcher
p2379
a(lp2380
Vvisibility
p2381
aVtranslateX
p2382
aVtranslateY
p2383
aVtranslateZ
p2384
aVrotateX
p2385
aVrotateY
p2386
aVrotateZ
p2387
aVscaleX
p2388
aVscaleY
p2389
aVscaleZ
p2390
aVspace_world
p2391
aVspace_body_anim
p2392
aVspace_chest_ik_anim
p2393
aaI01
aF0
aF0
aF0
aF0
aF0
aF0
aF1
aF1
aF1
aF0
aF0
aF0
aa(lp2394
Vik_elbow_r_anim_space_switcher
p2395
a(lp2396
Vvisibility
p2397
aVtranslateX
p2398
aVtranslateY
p2399
aVtranslateZ
p2400
aVrotateX
p2401
aVrotateY
p2402
aVrotateZ
p2403
aVscaleX
p2404
aVscaleY
p2405
aVscaleZ
p2406
aVspace_world
p2407
aVspace_body_anim
p2408
aVspace_chest_ik_anim
p2409
aaI01
aF0
aF0
aF0
aF0
aF0
aF0
aF1
aF1
aF1
aF0
aF0
aF0
aa(lp2410
Vik_foot_anim_l_space_switcher
p2411
a(lp2412
Vvisibility
p2413
aVtranslateX
p2414
aVtranslateY
p2415
aVtranslateZ
p2416
aVrotateX
p2417
aVrotateY
p2418
aVrotateZ
p2419
aVscaleX
p2420
aVscaleY
p2421
aVscaleZ
p2422
aVspace_world
p2423
aVspace_body_anim
p2424
aaI01
aF0
aF0
aF0
aF0
aF0
aF0
aF1
aF1
aF1
aF0
aF0
aa(lp2425
Vik_foot_anim_r_space_switcher
p2426
a(lp2427
Vvisibility
p2428
aVtranslateX
p2429
aVtranslateY
p2430
aVtranslateZ
p2431
aVrotateX
p2432
aVrotateY
p2433
aVrotateZ
p2434
aVscaleX
p2435
aVscaleY
p2436
aVscaleZ
p2437
aVspace_world
p2438
aVspace_body_anim
p2439
aaI01
aF0
aF0
aF0
aF0
aF0
aF0
aF1
aF1
aF1
aF0
aF0
aa(lp2440
Vik_wrist_l_anim_space_switcher
p2441
a(lp2442
Vvisibility
p2443
aVtranslateX
p2444
aVtranslateY
p2445
aVtranslateZ
p2446
aVrotateX
p2447
aVrotateY
p2448
aVrotateZ
p2449
aVscaleX
p2450
aVscaleY
p2451
aVscaleZ
p2452
aVspace_world
p2453
aVspace_body_anim
p2454
aVspace_head_fk_anim
p2455
aVspace_chest_ik_anim
p2456
aaI01
aF0
aF0
aF0
aF0
aF0
aF0
aF1
aF1
aF1
aF0
aF0
aF0
aF0
aa(lp2457
Vik_wrist_r_anim_space_switcher
p2458
a(lp2459
Vvisibility
p2460
aVtranslateX
p2461
aVtranslateY
p2462
aVtranslateZ
p2463
aVrotateX
p2464
aVrotateY
p2465
aVrotateZ
p2466
aVscaleX
p2467
aVscaleY
p2468
aVscaleZ
p2469
aVspace_world
p2470
aVspace_body_anim
p2471
aVspace_head_fk_anim
p2472
aVspace_chest_ik_anim
p2473
aaI01
aF0
aF0
aF0
aF0
aF0
aF0
aF1
aF1
aF1
aF0
aF0
aF0
aF0
aa(lp2474
Vl_global_ik_anim_space_switcher
p2475
a(lp2476
Vvisibility
p2477
aVtranslateX
p2478
aVtranslateY
p2479
aVtranslateZ
p2480
aVrotateX
p2481
aVrotateY
p2482
aVrotateZ
p2483
aVscaleX
p2484
aVscaleY
p2485
aVscaleZ
p2486
aVspace_world
p2487
aaI01
aF0
aF0
aF0
aF0
aF0
aF0
aF1
aF1
aF1
aF0
aa(lp2488
VlowerArm_bottomPlateA_l_anim_space_switcher
p2489
a(lp2490
Vvisibility
p2491
aVtranslateX
p2492
aVtranslateY
p2493
aVtranslateZ
p2494
aVrotateX
p2495
aVrotateY
p2496
aVrotateZ
p2497
aVscaleX
p2498
aVscaleY
p2499
aVscaleZ
p2500
aVspace_world
p2501
aaI01
aF-2.8421709430404007e-14
aF-7.1054273576010019e-15
aF1.4210854715202004e-14
aF-2.4848083448933725e-17
aF-0
aF-7.9513867036587919e-16
aF1
aF1
aF1.0000000000000002
aF0
aa(lp2502
VlowerArm_bottomPlateA_r_anim_space_switcher
p2503
a(lp2504
Vvisibility
p2505
aVtranslateX
p2506
aVtranslateY
p2507
aVtranslateZ
p2508
aVrotateX
p2509
aVrotateY
p2510
aVrotateZ
p2511
aVscaleX
p2512
aVscaleY
p2513
aVscaleZ
p2514
aVspace_world
p2515
aaI01
aF0
aF-7.1054273576010019e-15
aF-1.4210854715202004e-14
aF-1.4908850069360235e-16
aF-1.987846675914698e-16
aF0
aF1
aF1
aF1
aF0
aa(lp2516
VlowerArm_bottomPlateB_l_anim_space_switcher
p2517
a(lp2518
Vvisibility
p2519
aVtranslateX
p2520
aVtranslateY
p2521
aVtranslateZ
p2522
aVrotateX
p2523
aVrotateY
p2524
aVrotateZ
p2525
aVscaleX
p2526
aVscaleY
p2527
aVscaleZ
p2528
aVspace_world
p2529
aaI01
aF0
aF-7.1054273576010019e-15
aF0
aF0
aF-1.987846675914698e-16
aF0
aF1
aF1
aF1
aF0
aa(lp2530
VlowerArm_bottomPlateB_r_anim_space_switcher
p2531
a(lp2532
Vvisibility
p2533
aVtranslateX
p2534
aVtranslateY
p2535
aVtranslateZ
p2536
aVrotateX
p2537
aVrotateY
p2538
aVrotateZ
p2539
aVscaleX
p2540
aVscaleY
p2541
aVscaleZ
p2542
aVspace_world
p2543
aaI01
aF0
aF0
aF-1.4210854715202004e-14
aF1.4908850069360235e-16
aF-1.987846675914698e-16
aF0
aF1
aF1
aF1
aF0
aa(lp2544
VlowerArm_topPlateA_l_anim_space_switcher
p2545
a(lp2546
Vvisibility
p2547
aVtranslateX
p2548
aVtranslateY
p2549
aVtranslateZ
p2550
aVrotateX
p2551
aVrotateY
p2552
aVrotateZ
p2553
aVscaleX
p2554
aVscaleY
p2555
aVscaleZ
p2556
aVspace_world
p2557
aaI01
aF2.8421709430404007e-14
aF0
aF0
aF-1.490885006936024e-16
aF-0
aF7.9513867036587939e-16
aF0.99999999999999989
aF0.99999999999999989
aF0.99999999999999989
aF0
aa(lp2558
VlowerArm_topPlateA_r_anim_space_switcher
p2559
a(lp2560
Vvisibility
p2561
aVtranslateX
p2562
aVtranslateY
p2563
aVtranslateZ
p2564
aVrotateX
p2565
aVrotateY
p2566
aVrotateZ
p2567
aVscaleX
p2568
aVscaleY
p2569
aVscaleZ
p2570
aVspace_world
p2571
aaI01
aF0
aF0
aF-1.4210854715202004e-14
aF-1.4908850069360235e-16
aF-0
aF-1.5902773407317584e-15
aF1
aF1
aF1
aF0
aa(lp2572
VlowerArm_topPlateB_l_anim_space_switcher
p2573
a(lp2574
Vvisibility
p2575
aVtranslateX
p2576
aVtranslateY
p2577
aVtranslateZ
p2578
aVrotateX
p2579
aVrotateY
p2580
aVrotateZ
p2581
aVscaleX
p2582
aVscaleY
p2583
aVscaleZ
p2584
aVspace_world
p2585
aaI01
aF0
aF0
aF0
aF-2.484808344893373e-16
aF1.987846675914698e-16
aF0
aF1
aF0.99999999999999989
aF1
aF0
aa(lp2586
VlowerArm_topPlateB_r_anim_space_switcher
p2587
a(lp2588
Vvisibility
p2589
aVtranslateX
p2590
aVtranslateY
p2591
aVtranslateZ
p2592
aVrotateX
p2593
aVrotateY
p2594
aVrotateZ
p2595
aVscaleX
p2596
aVscaleY
p2597
aVscaleZ
p2598
aVspace_world
p2599
aaI01
aF0
aF0
aF1.4210854715202004e-14
aF-9.9392333795734924e-17
aF-0
aF0
aF1
aF0.99999999999999989
aF0.99999999999999989
aF0
aa(lp2600
Vmaster_anim_space_switcher
p2601
a(lp2602
Vvisibility
p2603
aVtranslateX
p2604
aVtranslateY
p2605
aVtranslateZ
p2606
aVrotateX
p2607
aVrotateY
p2608
aVrotateZ
p2609
aVscaleX
p2610
aVscaleY
p2611
aVscaleZ
p2612
aVspace_world
p2613
aaI01
aF0
aF0
aF0
aF0
aF0
aF0
aF1
aF1
aF1
aF0
aa(lp2614
VpivotA_l_anim_space_switcher
p2615
a(lp2616
Vvisibility
p2617
aVtranslateX
p2618
aVtranslateY
p2619
aVtranslateZ
p2620
aVrotateX
p2621
aVrotateY
p2622
aVrotateZ
p2623
aVscaleX
p2624
aVscaleY
p2625
aVscaleZ
p2626
aVspace_world
p2627
aaI01
aF1.4210854715202004e-14
aF0
aF0
aF0
aF4.9696166897867449e-17
aF3.975693351829396e-16
aF1
aF1
aF1.0000000000000002
aF0
aa(lp2628
VpivotA_r_anim_space_switcher
p2629
a(lp2630
Vvisibility
p2631
aVtranslateX
p2632
aVtranslateY
p2633
aVtranslateZ
p2634
aVrotateX
p2635
aVrotateY
p2636
aVrotateZ
p2637
aVscaleX
p2638
aVscaleY
p2639
aVscaleZ
p2640
aVspace_world
p2641
aaI01
aF-1.4210854715202004e-14
aF2.8421709430404007e-14
aF0
aF0
aF-4.9696166897867449e-17
aF3.975693351829396e-16
aF1
aF1
aF1
aF0
aa(lp2642
VpivotB_l_anim_space_switcher
p2643
a(lp2644
Vvisibility
p2645
aVtranslateX
p2646
aVtranslateY
p2647
aVtranslateZ
p2648
aVrotateX
p2649
aVrotateY
p2650
aVrotateZ
p2651
aVscaleX
p2652
aVscaleY
p2653
aVscaleZ
p2654
aVspace_world
p2655
aaI01
aF0
aF2.8421709430404007e-14
aF7.1054273576010019e-15
aF1.5902773407317584e-15
aF4.9696166897867449e-17
aF0
aF1
aF1
aF1.0000000000000002
aF0
aa(lp2656
VpivotB_r_anim_space_switcher
p2657
a(lp2658
Vvisibility
p2659
aVtranslateX
p2660
aVtranslateY
p2661
aVtranslateZ
p2662
aVrotateX
p2663
aVrotateY
p2664
aVrotateZ
p2665
aVscaleX
p2666
aVscaleY
p2667
aVscaleZ
p2668
aVspace_world
p2669
aaI01
aF0
aF-5.6843418860808015e-14
aF-7.1054273576010019e-15
aF0
aF-4.9696166897867449e-17
aF-3.975693351829396e-16
aF1
aF1.0000000000000002
aF1.0000000000000002
aF0
aa(lp2670
Vr_global_ik_anim_space_switcher
p2671
a(lp2672
Vvisibility
p2673
aVtranslateX
p2674
aVtranslateY
p2675
aVtranslateZ
p2676
aVrotateX
p2677
aVrotateY
p2678
aVrotateZ
p2679
aVscaleX
p2680
aVscaleY
p2681
aVscaleZ
p2682
aVspace_world
p2683
aaI01
aF0
aF0
aF0
aF0
aF0
aF0
aF1
aF1
aF1
aF0
aa(lp2684
Vspine_01_space_switcher
p2685
a(lp2686
Vvisibility
p2687
aVtranslateX
p2688
aVtranslateY
p2689
aVtranslateZ
p2690
aVrotateX
p2691
aVrotateY
p2692
aVrotateZ
p2693
aVscaleX
p2694
aVscaleY
p2695
aVscaleZ
p2696
aVspace_world
p2697
aaI01
aF0
aF0
aF0
aF0
aF-5.649800061504203e-30
aF0
aF1
aF1
aF1
aF0
aa(lp2698
Vsword_handle_l_anim_space_switcher
p2699
a(lp2700
Vvisibility
p2701
aVtranslateX
p2702
aVtranslateY
p2703
aVtranslateZ
p2704
aVrotateX
p2705
aVrotateY
p2706
aVrotateZ
p2707
aVscaleX
p2708
aVscaleY
p2709
aVscaleZ
p2710
aVspace_world
p2711
aaI01
aF0
aF5.6843418860808015e-14
aF-7.1054273576010019e-15
aF-1.5902773407317584e-15
aF-0
aF0
aF1
aF1
aF1
aF0
aa(lp2712
Vsword_handle_r_anim_space_switcher
p2713
a(lp2714
Vvisibility
p2715
aVtranslateX
p2716
aVtranslateY
p2717
aVtranslateZ
p2718
aVrotateX
p2719
aVrotateY
p2720
aVrotateZ
p2721
aVscaleX
p2722
aVscaleY
p2723
aVscaleZ
p2724
aVspace_world
p2725
aVspace_fk_wrist_r_anim
p2726
aaI01
aF0
aF0
aF0
aF0
aF-9.9392333795734899e-17
aF3.975693351829396e-16
aF1
aF1
aF1
aF0
aF0
aa(lp2727
Vsword_root_l_anim_space_switcher
p2728
a(lp2729
Vvisibility
p2730
aVtranslateX
p2731
aVtranslateY
p2732
aVtranslateZ
p2733
aVrotateX
p2734
aVrotateY
p2735
aVrotateZ
p2736
aVscaleX
p2737
aVscaleY
p2738
aVscaleZ
p2739
aVspace_world
p2740
aaI01
aF0
aF5.6843418860808015e-14
aF0
aF-1.5902773407317584e-15
aF-0
aF0
aF1
aF1
aF1
aF0
aa(lp2741
Vsword_root_r_anim_space_switcher
p2742
a(lp2743
Vvisibility
p2744
aVtranslateX
p2745
aVtranslateY
p2746
aVtranslateZ
p2747
aVrotateX
p2748
aVrotateY
p2749
aVrotateZ
p2750
aVscaleX
p2751
aVscaleY
p2752
aVscaleZ
p2753
aVspace_world
p2754
aaI01
aF1.4210854715202004e-14
aF0
aF0
aF1.5902773407317584e-15
aF4.9696166897867462e-17
aF0
aF0.99999999999999989
aF1
aF0.99999999999999989
aF0
aa(lp2755
Vthruster_a_l_anim_space_switcher
p2756
a(lp2757
Vvisibility
p2758
aVtranslateX
p2759
aVtranslateY
p2760
aVtranslateZ
p2761
aVrotateX
p2762
aVrotateY
p2763
aVrotateZ
p2764
aVscaleX
p2765
aVscaleY
p2766
aVscaleZ
p2767
aVspace_world
p2768
aaI01
aF-7.1054273576010019e-15
aF-7.1054273576010019e-15
aF-2.8421709430404007e-14
aF0
aF-0
aF7.9513867036587899e-16
aF1.0000000000000002
aF1.0000000000000002
aF1.0000000000000002
aF0
aa(lp2769
Vthruster_a_r_anim_space_switcher
p2770
a(lp2771
Vvisibility
p2772
aVtranslateX
p2773
aVtranslateY
p2774
aVtranslateZ
p2775
aVrotateX
p2776
aVrotateY
p2777
aVrotateZ
p2778
aVscaleX
p2779
aVscaleY
p2780
aVscaleZ
p2781
aVspace_world
p2782
aaI01
aF0
aF-7.1054273576010019e-15
aF-2.8421709430404007e-14
aF0
aF0
aF0
aF1
aF1
aF1
aF0
aa(lp2783
Vthruster_b_l_anim_space_switcher
p2784
a(lp2785
Vvisibility
p2786
aVtranslateX
p2787
aVtranslateY
p2788
aVtranslateZ
p2789
aVrotateX
p2790
aVrotateY
p2791
aVrotateZ
p2792
aVscaleX
p2793
aVscaleY
p2794
aVscaleZ
p2795
aVspace_world
p2796
aaI01
aF0
aF-3.5527136788005009e-15
aF-2.8421709430404007e-14
aF0
aF3.1805546814635176e-15
aF3.1805546814635176e-15
aF0.99999999999999989
aF0.99999999999999989
aF0.99999999999999978
aF0
aa(lp2797
Vthruster_b_r_anim_space_switcher
p2798
a(lp2799
Vvisibility
p2800
aVtranslateX
p2801
aVtranslateY
p2802
aVtranslateZ
p2803
aVrotateX
p2804
aVrotateY
p2805
aVrotateZ
p2806
aVscaleX
p2807
aVscaleY
p2808
aVscaleZ
p2809
aVspace_world
p2810
aaI01
aF0
aF0
aF2.8421709430404007e-14
aF1.5902773407317588e-15
aF-0
aF3.1805546814635176e-15
aF0.99999999999999989
aF0.99999999999999989
aF1
aF0
aa(lp2811
Vthruster_c_l_anim_space_switcher
p2812
a(lp2813
Vvisibility
p2814
aVtranslateX
p2815
aVtranslateY
p2816
aVtranslateZ
p2817
aVrotateX
p2818
aVrotateY
p2819
aVrotateZ
p2820
aVscaleX
p2821
aVscaleY
p2822
aVscaleZ
p2823
aVspace_world
p2824
aaI01
aF-7.1054273576010019e-15
aF-3.5527136788005009e-15
aF0
aF1.5902773407317584e-15
aF1.5902773407317584e-15
aF-3.975693351829396e-16
aF1
aF1
aF1
aF0
aa(lp2825
Vthruster_c_r_anim_space_switcher
p2826
a(lp2827
Vvisibility
p2828
aVtranslateX
p2829
aVtranslateY
p2830
aVtranslateZ
p2831
aVrotateX
p2832
aVrotateY
p2833
aVrotateZ
p2834
aVscaleX
p2835
aVscaleY
p2836
aVscaleZ
p2837
aVspace_world
p2838
aaI01
aF-7.1054273576010019e-15
aF0
aF-5.6843418860808015e-14
aF-1.5902773407317588e-15
aF3.1805546814635168e-15
aF2.3854160110976376e-15
aF1
aF0.99999999999999978
aF1
aF0
aa(lp2839
Vthruster_casing_l_anim_space_switcher
p2840
a(lp2841
Vvisibility
p2842
aVtranslateX
p2843
aVtranslateY
p2844
aVtranslateZ
p2845
aVrotateX
p2846
aVrotateY
p2847
aVrotateZ
p2848
aVscaleX
p2849
aVscaleY
p2850
aVscaleZ
p2851
aVspace_world
p2852
aaI01
aF0
aF0
aF0
aF0
aF0
aF0
aF1
aF1
aF1
aF0
aa(lp2853
Vthruster_casing_r_anim_space_switcher
p2854
a(lp2855
Vvisibility
p2856
aVtranslateX
p2857
aVtranslateY
p2858
aVtranslateZ
p2859
aVrotateX
p2860
aVrotateY
p2861
aVrotateZ
p2862
aVscaleX
p2863
aVscaleY
p2864
aVscaleZ
p2865
aVspace_world
p2866
aaI01
aF-8.8817841970012523e-16
aF-3.5527136788005009e-15
aF0
aF0
aF0
aF0
aF1
aF1
aF1
aF0
aa(lp2867
Vweapon_l_anim_space_switcher
p2868
a(lp2869
Vvisibility
p2870
aVtranslateX
p2871
aVtranslateY
p2872
aVtranslateZ
p2873
aVrotateX
p2874
aVrotateY
p2875
aVrotateZ
p2876
aVscaleX
p2877
aVscaleY
p2878
aVscaleZ
p2879
aVspace_world
p2880
aVspace_driver_hand_l
p2881
aaI01
aF0
aF0
aF-7.1054273576010019e-15
aF0
aF-7.4544250346801174e-17
aF0
aF1
aF1.0000000000000002
aF1.0000000000000002
aF0
aF0
aa(lp2882
Vweapon_r_anim_space_switcher
p2883
a(lp2884
Vvisibility
p2885
aVtranslateX
p2886
aVtranslateY
p2887
aVtranslateZ
p2888
aVrotateX
p2889
aVrotateY
p2890
aVrotateZ
p2891
aVscaleX
p2892
aVscaleY
p2893
aVscaleZ
p2894
aVspace_world
p2895
aVspace_driver_hand_r
p2896
aaI01
aF-1.4210854715202004e-14
aF-5.6843418860808015e-14
aF0
aF0
aF0
aF0
aF1
aF1
aF1
aF0
aF0
aa.