(lp1
(lp2
S'head_fk_anim'
p3
a(lp4
VrotateX
p5
aVrotateY
p6
aVrotateZ
p7
aVfkOrientation
p8
aaF33.700617270775979
aF-5.5992868513648117
aF17.944184165467654
aI2
aa(lp9
S'neck_01_fk_anim'
p10
a(lp11
VrotateX
p12
aVrotateY
p13
aVrotateZ
p14
aVfkOrientation
p15
aaF13.23221523153836
aF-8.5913419653913135
aF3.4606803960659125
aI1
aa(lp16
S'spine_01_anim'
p17
a(lp18
Vlength
p19
aVtranslateY
p20
aVtranslateZ
p21
aVrotateX
p22
aVrotateY
p23
aVrotateZ
p24
aaF0
aF0
aF0
aF0
aF0
aF-11.696813034096305
aa(lp25
S'spine_02_anim'
p26
a(lp27
Vlength
p28
aVtranslateY
p29
aVtranslateZ
p30
aVrotateX
p31
aVrotateY
p32
aVrotateZ
p33
aaF0
aF0
aF0
aF0.2796839623741878
aF3.0911963065771197
aF-22.78466658975319
aa(lp34
S'spine_03_anim'
p35
a(lp36
Vlength
p37
aVtranslateY
p38
aVtranslateZ
p39
aVrotateX
p40
aVrotateY
p41
aVrotateZ
p42
aaF0
aF0
aF0
aF-3.8556660177030766
aF-0.72231638154281164
aF-9.8809292901077956
aa(lp43
S'mid_ik_anim'
p44
a(lp45
VtranslateX
p46
aVtranslateY
p47
aVtranslateZ
p48
aVrotateX
p49
aVrotateY
p50
aVrotateZ
p51
aaF-2.5332780569668958
aF-3.3471202002567315
aF-4.5727083172316538
aF5.7304342354397209
aF9.3200315267915741
aF-31.025866141765349
aa(lp52
S'chest_ik_anim'
p53
a(lp54
VtranslateX
p55
aVtranslateY
p56
aVtranslateZ
p57
aVrotateX
p58
aVrotateY
p59
aVrotateZ
p60
aVstretch
p61
aVtwist_amount
p62
aVspine_01_twistAmount
p63
aVspine_02_twistAmount
p64
aVautoSpine
p65
aVrotationInfluence
p66
aaF-3.0996736429347882
aF-11.758974319191685
aF-0.91097890592243624
aF13.831654239675691
aF-7.9196050009526937
aF-43.99846043803322
aF0
aF1
aF0.33333333333333331
aF0.66666666666666663
aF0
aF0.25
aa(lp67
S'body_anim'
p68
a(lp69
VtranslateX
p70
aVtranslateY
p71
aVtranslateZ
p72
aVrotateX
p73
aVrotateY
p74
aVrotateZ
p75
aaF-22.527723706717421
aF-179.99769543557767
aF-7.1231700974337153
aF-30.13686293200616
aF20.497219664288107
aF-23.070104032702123
aa(lp76
S'hip_anim'
p77
a(lp78
VtranslateX
p79
aVtranslateY
p80
aVtranslateZ
p81
aVrotateX
p82
aVrotateY
p83
aVrotateZ
p84
aVlTwistCtrlVis
p85
aVlCalfTwistCtrlVis
p86
aVrTwistCtrlVis
p87
aVrCalfTwistCtrlVis
p88
aVautoHips
p89
aaF-0.18103448275862055
aF-0.18103448275862055
aF0
aF-0.47160827515923065
aF0.041485871300481404
aF0.018820497219334334
aI00
aI00
aI00
aI00
aF0
aa(lp90
S'clavicle_l_anim'
p91
a(lp92
VtranslateX
p93
aVtranslateY
p94
aVtranslateZ
p95
aVautoShoulders
p96
aVtwistCtrlVis
p97
aaF0.66001050706554643
aF9.4363830766444465
aF5.6508886933179152
aF0
aI00
aa(lp98
S'clavicle_r_anim'
p99
a(lp100
VtranslateX
p101
aVtranslateY
p102
aVtranslateZ
p103
aVautoShoulders
p104
aVtwistCtrlVis
p105
aaF0.95690840236945274
aF4.7302482850013448
aF7.5602269496026988
aF0
aI00
aa(lp106
S'fk_arm_l_anim'
p107
a(lp108
VtranslateX
p109
aVtranslateY
p110
aVtranslateZ
p111
aVrotateX
p112
aVrotateY
p113
aVrotateZ
p114
aaF0
aF0
aF0
aF-1.4134738908827744
aF56.858312833469832
aF31.232243363061258
aa(lp115
S'fk_arm_r_anim'
p116
a(lp117
VtranslateX
p118
aVtranslateY
p119
aVtranslateZ
p120
aVrotateX
p121
aVrotateY
p122
aVrotateZ
p123
aaF0
aF0
aF0
aF-6.9621613288438029
aF41.728100789010121
aF-33.347992145662538
aa(lp124
S'fk_elbow_l_anim'
p125
a(lp126
VtranslateX
p127
aVtranslateY
p128
aVtranslateZ
p129
aVrotateX
p130
aVrotateY
p131
aVrotateZ
p132
aaF0
aF0
aF0
aF0.020993964854348516
aF0.0048982734146521675
aF-80.077099364208621
aa(lp133
S'fk_elbow_r_anim'
p134
a(lp135
VtranslateX
p136
aVtranslateY
p137
aVtranslateZ
p138
aVrotateX
p139
aVrotateY
p140
aVrotateZ
p141
aaF0
aF0
aF0
aF1.3518529491167854
aF-0.051653897068579889
aF-13.595415646206918
aa(lp142
S'fk_wrist_l_anim'
p143
a(lp144
VtranslateX
p145
aVtranslateY
p146
aVtranslateZ
p147
aVrotateX
p148
aVrotateY
p149
aVrotateZ
p150
aaF0
aF0
aF0
aF5.5067008440050556
aF-16.631402306045064
aF11.625286463993492
aa(lp151
S'fk_wrist_r_anim'
p152
a(lp153
VtranslateX
p154
aVtranslateY
p155
aVtranslateZ
p156
aVrotateX
p157
aVrotateY
p158
aVrotateZ
p159
aaF0
aF0
aF0
aF-75.997420567437558
aF-1.0173520868584043
aF46.946400539977603
aa(lp160
S'ik_elbow_l_anim'
p161
a(lp162
VtranslateX
p163
aVtranslateY
p164
aVtranslateZ
p165
aaF25.462642707184539
aF-209.40790777260247
aF-46.812037181188344
aa(lp166
S'ik_elbow_r_anim'
p167
a(lp168
VtranslateX
p169
aVtranslateY
p170
aVtranslateZ
p171
aaF31.555566526275491
aF-183.78936657078424
aF-11.953753036449157
aa(lp172
S'ik_wrist_l_anim'
p173
a(lp174
VtranslateX
p175
aVtranslateY
p176
aVtranslateZ
p177
aVrotateX
p178
aVrotateY
p179
aVrotateZ
p180
aVstretch
p181
aVbias
p182
aVside
p183
aVmid_bend
p184
aVmid_swivel
p185
aVtip_pivot
p186
aVtip_swivel
p187
aaF-63.898486277075293
aF-238.65068190055388
aF-120.84730006676686
aF-89.620117072860694
aF77.747009973774155
aF-143.78481314347286
aF0
aF1
aF0
aF0
aF0
aF0
aF0
aa(lp188
S'ik_wrist_r_anim'
p189
a(lp190
VtranslateX
p191
aVtranslateY
p192
aVtranslateZ
p193
aVrotateX
p194
aVrotateY
p195
aVrotateZ
p196
aVstretch
p197
aVbias
p198
aVside
p199
aVmid_bend
p200
aVmid_swivel
p201
aVtip_pivot
p202
aVtip_swivel
p203
aaF64.909623816425523
aF-154.57830156925468
aF-71.035906161806494
aF26.597425374996948
aF-36.094897564806502
aF-115.33407388590781
aF0
aF1
aF0
aF0
aF0
aF0
aF0
aa(lp204
S'fk_thigh_l_anim'
p205
a(lp206
VrotateX
p207
aVrotateY
p208
aVrotateZ
p209
aaF0
aF0
aF0
aa(lp210
S'fk_thigh_r_anim'
p211
a(lp212
VrotateX
p213
aVrotateY
p214
aVrotateZ
p215
aaF0
aF0
aF0
aa(lp216
S'fk_calf_l_anim'
p217
a(lp218
VrotateX
p219
aVrotateY
p220
aVrotateZ
p221
aaF0
aF0
aF0
aa(lp222
S'fk_calf_r_anim'
p223
a(lp224
VrotateX
p225
aVrotateY
p226
aVrotateZ
p227
aaF0
aF0
aF0
aa(lp228
S'fk_foot_l_anim'
p229
a(lp230
VrotateX
p231
aVrotateY
p232
aVrotateZ
p233
aaF0
aF0
aF0
aa(lp234
S'fk_foot_r_anim'
p235
a(lp236
VrotateX
p237
aVrotateY
p238
aVrotateZ
p239
aaF0
aF0
aF0
aa(lp240
S'fk_ball_l_anim'
p241
a(lp242
VrotateX
p243
aVrotateY
p244
aVrotateZ
p245
aaF0
aF0
aF0
aa(lp246
S'fk_ball_r_anim'
p247
a(lp248
VrotateX
p249
aVrotateY
p250
aVrotateZ
p251
aaF0
aF0
aF0
aa(lp252
S'ik_foot_anim_l'
p253
a(lp254
VtranslateX
p255
aVtranslateY
p256
aVtranslateZ
p257
aVrotateX
p258
aVrotateY
p259
aVrotateZ
p260
aVknee_twist
p261
aVstretch
p262
aVbias
p263
aVtoeCtrlVis
p264
aaF-28.853931927506611
aF-183.13311880773921
aF27.846688984827075
aF90.020930207140708
aF8.4739832719057233
aF-2.8413184032216883
aF-9.7119333278019706
aF0
aF1
aI00
aa(lp265
S'ik_foot_anim_r'
p266
a(lp267
VtranslateX
p268
aVtranslateY
p269
aVtranslateZ
p270
aVrotateX
p271
aVrotateY
p272
aVrotateZ
p273
aVknee_twist
p274
aVstretch
p275
aVbias
p276
aVtoeCtrlVis
p277
aaF27.068294223864612
aF-92.423367666775263
aF0
aF0
aF0
aF-8.7014597500961717
aF18.571453416469637
aF0
aF1
aI00
aa(lp278
S'heel_ctrl_l'
p279
a(lp280
VrotateX
p281
aVrotateY
p282
aVrotateZ
p283
aVheelPivot
p284
aVballPivot
p285
aaF0
aF0
aF0
aF0
aF0
aa(lp286
S'heel_ctrl_r'
p287
a(lp288
VrotateX
p289
aVrotateY
p290
aVrotateZ
p291
aVheelPivot
p292
aVballPivot
p293
aaF0
aF0
aF-23.208450809268836
aF0
aF0
aa(lp294
S'toe_wiggle_ctrl_l'
p295
a(lp296
VrotateX
p297
aVrotateY
p298
aVrotateZ
p299
aaF0
aF0
aF-13.947098889232253
aa(lp300
S'toe_wiggle_ctrl_r'
p301
a(lp302
VrotateX
p303
aVrotateY
p304
aVrotateZ
p305
aaF0
aF0
aF0
aa(lp306
S'toe_tip_ctrl_l'
p307
a(lp308
VrotateX
p309
aVrotateY
p310
aVrotateZ
p311
aaF0
aF0
aF0
aa(lp312
S'toe_tip_ctrl_r'
p313
a(lp314
VrotateX
p315
aVrotateY
p316
aVrotateZ
p317
aaF-0.9280507794584133
aF18.363588022407225
aF-17.999501443681407
aa(lp318
S'master_anim'
p319
a(lp320
VtranslateX
p321
aVtranslateY
p322
aVtranslateZ
p323
aVrotateX
p324
aVrotateY
p325
aVrotateZ
p326
aaF0
aF0
aF0
aF0
aF0
aF0
aa(lp327
S'offset_anim'
p328
a(lp329
VtranslateX
p330
aVtranslateY
p331
aVtranslateZ
p332
aVrotateX
p333
aVrotateY
p334
aVrotateZ
p335
aaF0
aF179.9999997732919
aF0
aF0
aF0
aF0
aa(lp336
S'root_anim'
p337
a(lp338
VtranslateX
p339
aVtranslateY
p340
aVtranslateZ
p341
aVrotateX
p342
aVrotateY
p343
aVrotateZ
p344
aaF0
aF0
aF0
aF0
aF0
aF0
aa(lp345
S'upperarm_l_twist_anim'
p346
a(lp347
VtranslateX
p348
aVtranslateY
p349
aVtranslateZ
p350
aVrotateX
p351
aVrotateY
p352
aVrotateZ
p353
aaF0
aF0
aF0
aF-43.273876860649942
aF0
aF0
aa(lp354
S'upperarm_r_twist_anim'
p355
a(lp356
VtranslateX
p357
aVtranslateY
p358
aVtranslateZ
p359
aVrotateX
p360
aVrotateY
p361
aVrotateZ
p362
aaF0
aF0
aF0
aF11.521101925550566
aF0
aF0
aa(lp363
S'thigh_l_twist_anim'
p364
a(lp365
VtranslateX
p366
aVtranslateY
p367
aVtranslateZ
p368
aVrotateX
p369
aVrotateY
p370
aVrotateZ
p371
aaF0
aF0
aF0
aF0
aF0
aF0
aa(lp372
S'thigh_r_twist_anim'
p373
a(lp374
VtranslateX
p375
aVtranslateY
p376
aVtranslateZ
p377
aVrotateX
p378
aVrotateY
p379
aVrotateZ
p380
aaF0
aF0
aF0
aF0
aF0
aF0
aa(lp381
S'pinky_finger_fk_ctrl_1_l'
p382
a(lp383
VtranslateX
p384
aVtranslateY
p385
aVtranslateZ
p386
aVrotateX
p387
aVrotateY
p388
aVrotateZ
p389
aVsticky
p390
aaF0
aF0
aF0
aF0
aF0
aF67.465302944955894
aF0
aa(lp391
S'pinky_finger_fk_ctrl_1_r'
p392
a(lp393
VtranslateX
p394
aVtranslateY
p395
aVtranslateZ
p396
aVrotateX
p397
aVrotateY
p398
aVrotateZ
p399
aVsticky
p400
aaF0
aF0
aF0
aF0
aF0
aF67.465302944955894
aF0
aa(lp401
S'pinky_finger_fk_ctrl_2_l'
p402
a(lp403
VtranslateX
p404
aVtranslateY
p405
aVtranslateZ
p406
aVrotateX
p407
aVrotateY
p408
aVrotateZ
p409
aaF0
aF0
aF0
aF0
aF0
aF126.85537155640378
aa(lp410
S'pinky_finger_fk_ctrl_2_r'
p411
a(lp412
VtranslateX
p413
aVtranslateY
p414
aVtranslateZ
p415
aVrotateX
p416
aVrotateY
p417
aVrotateZ
p418
aaF0
aF0
aF0
aF0
aF0
aF126.85537155640378
aa(lp419
S'pinky_finger_fk_ctrl_3_l'
p420
a(lp421
VtranslateX
p422
aVtranslateY
p423
aVtranslateZ
p424
aVrotateX
p425
aVrotateY
p426
aVrotateZ
p427
aaF0
aF0
aF0
aF0
aF0
aF52.811381648203898
aa(lp428
S'pinky_finger_fk_ctrl_3_r'
p429
a(lp430
VtranslateX
p431
aVtranslateY
p432
aVtranslateZ
p433
aVrotateX
p434
aVrotateY
p435
aVrotateZ
p436
aaF0
aF0
aF0
aF0
aF0
aF52.811381648203898
aa(lp437
S'middle_finger_fk_ctrl_1_l'
p438
a(lp439
VtranslateX
p440
aVtranslateY
p441
aVtranslateZ
p442
aVrotateX
p443
aVrotateY
p444
aVrotateZ
p445
aVsticky
p446
aaF0
aF0
aF0
aF0
aF0
aF63.661206954731128
aF0
aa(lp447
S'middle_finger_fk_ctrl_1_r'
p448
a(lp449
VtranslateX
p450
aVtranslateY
p451
aVtranslateZ
p452
aVrotateX
p453
aVrotateY
p454
aVrotateZ
p455
aVsticky
p456
aaF0
aF0
aF0
aF0
aF0
aF63.661206954731128
aF0
aa(lp457
S'middle_finger_fk_ctrl_2_l'
p458
a(lp459
VtranslateX
p460
aVtranslateY
p461
aVtranslateZ
p462
aVrotateX
p463
aVrotateY
p464
aVrotateZ
p465
aaF0
aF0
aF0
aF0
aF0
aF133.59350062543939
aa(lp466
S'middle_finger_fk_ctrl_2_r'
p467
a(lp468
VtranslateX
p469
aVtranslateY
p470
aVtranslateZ
p471
aVrotateX
p472
aVrotateY
p473
aVrotateZ
p474
aaF0
aF0
aF0
aF0
aF0
aF133.59350062543939
aa(lp475
S'middle_finger_fk_ctrl_3_l'
p476
a(lp477
VtranslateX
p478
aVtranslateY
p479
aVtranslateZ
p480
aVrotateX
p481
aVrotateY
p482
aVrotateZ
p483
aaF0
aF0
aF0
aF0
aF0
aF0
aa(lp484
S'middle_finger_fk_ctrl_3_r'
p485
a(lp486
VtranslateX
p487
aVtranslateY
p488
aVtranslateZ
p489
aVrotateX
p490
aVrotateY
p491
aVrotateZ
p492
aaF0
aF0
aF0
aF0
aF0
aF0
aa(lp493
S'index_finger_fk_ctrl_1_l'
p494
a(lp495
VtranslateX
p496
aVtranslateY
p497
aVtranslateZ
p498
aVrotateX
p499
aVrotateY
p500
aVrotateZ
p501
aVsticky
p502
aaF0
aF0
aF0
aF10.830620356075823
aF-7.3355858286821753
aF69.113012273789167
aF0
aa(lp503
S'index_finger_fk_ctrl_1_r'
p504
a(lp505
VtranslateX
p506
aVtranslateY
p507
aVtranslateZ
p508
aVrotateX
p509
aVrotateY
p510
aVrotateZ
p511
aVsticky
p512
aaF0
aF0
aF0
aF10.830620356075823
aF-7.3355858286821753
aF69.113012273789167
aF0
aa(lp513
S'index_finger_fk_ctrl_2_l'
p514
a(lp515
VtranslateX
p516
aVtranslateY
p517
aVtranslateZ
p518
aVrotateX
p519
aVrotateY
p520
aVrotateZ
p521
aaF0
aF0
aF0
aF0
aF0
aF135.90676302855266
aa(lp522
S'index_finger_fk_ctrl_2_r'
p523
a(lp524
VtranslateX
p525
aVtranslateY
p526
aVtranslateZ
p527
aVrotateX
p528
aVrotateY
p529
aVrotateZ
p530
aaF0
aF0
aF0
aF0
aF0
aF135.90676302855266
aa(lp531
S'index_finger_fk_ctrl_3_l'
p532
a(lp533
VtranslateX
p534
aVtranslateY
p535
aVtranslateZ
p536
aVrotateX
p537
aVrotateY
p538
aVrotateZ
p539
aaF0
aF0
aF0
aF0
aF0
aF36.734456103288835
aa(lp540
S'index_finger_fk_ctrl_3_r'
p541
a(lp542
VtranslateX
p543
aVtranslateY
p544
aVtranslateZ
p545
aVrotateX
p546
aVrotateY
p547
aVrotateZ
p548
aaF0
aF0
aF0
aF0
aF0
aF36.734456103288835
aa(lp549
S'thumb_finger_fk_ctrl_1_l'
p550
a(lp551
VtranslateX
p552
aVtranslateY
p553
aVtranslateZ
p554
aVrotateX
p555
aVrotateY
p556
aVrotateZ
p557
aVsticky
p558
aaF0
aF0
aF0
aF7.2929083564820845
aF-8.856074823173179
aF-16.455722744949036
aF0
aa(lp559
S'thumb_finger_fk_ctrl_1_r'
p560
a(lp561
VtranslateX
p562
aVtranslateY
p563
aVtranslateZ
p564
aVrotateX
p565
aVrotateY
p566
aVrotateZ
p567
aVsticky
p568
aaF0
aF0
aF0
aF7.2929083564820845
aF-8.856074823173179
aF-16.455722744949036
aF0
aa(lp569
S'thumb_finger_fk_ctrl_2_l'
p570
a(lp571
VtranslateX
p572
aVtranslateY
p573
aVtranslateZ
p574
aVrotateX
p575
aVrotateY
p576
aVrotateZ
p577
aaF0
aF0
aF0
aF0
aF0
aF105.96004398419824
aa(lp578
S'thumb_finger_fk_ctrl_2_r'
p579
a(lp580
VtranslateX
p581
aVtranslateY
p582
aVtranslateZ
p583
aVrotateX
p584
aVrotateY
p585
aVrotateZ
p586
aaF0
aF0
aF0
aF0
aF0
aF105.96004398419824
aa(lp587
S'thumb_finger_fk_ctrl_3_l'
p588
a(lp589
VtranslateX
p590
aVtranslateY
p591
aVtranslateZ
p592
aVrotateX
p593
aVrotateY
p594
aVrotateZ
p595
aaF0
aF0
aF0
aF0
aF0
aF59.776097733833311
aa(lp596
S'thumb_finger_fk_ctrl_3_r'
p597
a(lp598
VtranslateX
p599
aVtranslateY
p600
aVtranslateZ
p601
aVrotateX
p602
aVrotateY
p603
aVrotateZ
p604
aaF0
aF0
aF0
aF0
aF0
aF59.776097733833311
aa(lp605
S'index_l_ik_anim'
p606
a(lp607
VtranslateX
p608
aVtranslateY
p609
aVtranslateZ
p610
aVrotateX
p611
aVrotateY
p612
aVrotateZ
p613
aVpoleVectorVis
p614
aaF0
aF0
aF0
aF0
aF0
aF0
aF0
aa(lp615
S'index_r_ik_anim'
p616
a(lp617
VtranslateX
p618
aVtranslateY
p619
aVtranslateZ
p620
aVrotateX
p621
aVrotateY
p622
aVrotateZ
p623
aVpoleVectorVis
p624
aaF0
aF0
aF0
aF0
aF0
aF0
aF0
aa(lp625
S'middle_l_ik_anim'
p626
a(lp627
VtranslateX
p628
aVtranslateY
p629
aVtranslateZ
p630
aVrotateX
p631
aVrotateY
p632
aVrotateZ
p633
aVpoleVectorVis
p634
aaF0
aF0
aF0
aF0
aF0
aF0
aF0
aa(lp635
S'middle_r_ik_anim'
p636
a(lp637
VtranslateX
p638
aVtranslateY
p639
aVtranslateZ
p640
aVrotateX
p641
aVrotateY
p642
aVrotateZ
p643
aVpoleVectorVis
p644
aaF0
aF0
aF0
aF0
aF0
aF0
aF0
aa(lp645
S'pinky_l_ik_anim'
p646
a(lp647
VtranslateX
p648
aVtranslateY
p649
aVtranslateZ
p650
aVrotateX
p651
aVrotateY
p652
aVrotateZ
p653
aVpoleVectorVis
p654
aaF0
aF0
aF0
aF0
aF0
aF0
aF0
aa(lp655
S'pinky_r_ik_anim'
p656
a(lp657
VtranslateX
p658
aVtranslateY
p659
aVtranslateZ
p660
aVrotateX
p661
aVrotateY
p662
aVrotateZ
p663
aVpoleVectorVis
p664
aaF0
aF0
aF0
aF0
aF0
aF0
aF0
aa(lp665
S'thumb_l_ik_anim'
p666
a(lp667
VtranslateX
p668
aVtranslateY
p669
aVtranslateZ
p670
aVrotateX
p671
aVrotateY
p672
aVrotateZ
p673
aVpoleVectorVis
p674
aaF0
aF0
aF0
aF0
aF0
aF0
aF0
aa(lp675
S'thumb_r_ik_anim'
p676
a(lp677
VtranslateX
p678
aVtranslateY
p679
aVtranslateZ
p680
aVrotateX
p681
aVrotateY
p682
aVrotateZ
p683
aVpoleVectorVis
p684
aaF0
aF0
aF0
aF0
aF0
aF0
aF0
aa(lp685
S'index_l_poleVector'
p686
a(lp687
VtranslateX
p688
aVtranslateY
p689
aVtranslateZ
p690
aVrotateX
p691
aVrotateY
p692
aVrotateZ
p693
aaF0
aF0
aF0
aF0
aF0
aF0
aa(lp694
S'index_r_poleVector'
p695
a(lp696
VtranslateX
p697
aVtranslateY
p698
aVtranslateZ
p699
aVrotateX
p700
aVrotateY
p701
aVrotateZ
p702
aaF0
aF0
aF0
aF0
aF0
aF0
aa(lp703
S'middle_l_poleVector'
p704
a(lp705
VtranslateX
p706
aVtranslateY
p707
aVtranslateZ
p708
aVrotateX
p709
aVrotateY
p710
aVrotateZ
p711
aaF0
aF0
aF0
aF0
aF0
aF0
aa(lp712
S'middle_r_poleVector'
p713
a(lp714
VtranslateX
p715
aVtranslateY
p716
aVtranslateZ
p717
aVrotateX
p718
aVrotateY
p719
aVrotateZ
p720
aaF0
aF0
aF0
aF0
aF0
aF0
aa(lp721
S'pinky_l_poleVector'
p722
a(lp723
VtranslateX
p724
aVtranslateY
p725
aVtranslateZ
p726
aVrotateX
p727
aVrotateY
p728
aVrotateZ
p729
aaF0
aF0
aF0
aF0
aF0
aF0
aa(lp730
S'pinky_r_poleVector'
p731
a(lp732
VtranslateX
p733
aVtranslateY
p734
aVtranslateZ
p735
aVrotateX
p736
aVrotateY
p737
aVrotateZ
p738
aaF0
aF0
aF0
aF0
aF0
aF0
aa(lp739
S'thumb_l_poleVector'
p740
a(lp741
VtranslateX
p742
aVtranslateY
p743
aVtranslateZ
p744
aVrotateX
p745
aVrotateY
p746
aVrotateZ
p747
aaF0
aF0
aF0
aF0
aF0
aF0
aa(lp748
S'thumb_r_poleVector'
p749
a(lp750
VtranslateX
p751
aVtranslateY
p752
aVtranslateZ
p753
aVrotateX
p754
aVrotateY
p755
aVrotateZ
p756
aaF0
aF0
aF0
aF0
aF0
aF0
aa(lp757
S'l_global_ik_anim'
p758
a(lp759
VtranslateX
p760
aVtranslateY
p761
aVtranslateZ
p762
aVrotateX
p763
aVrotateY
p764
aVrotateZ
p765
aaF0
aF0
aF0
aF0
aF0
aF0
aa(lp766
S'r_global_ik_anim'
p767
a(lp768
VtranslateX
p769
aVtranslateY
p770
aVtranslateZ
p771
aVrotateX
p772
aVrotateY
p773
aVrotateZ
p774
aaF0
aF0
aF0
aF0
aF0
aF0
aa(lp775
S'Rig_Settings'
p776
a(lp777
Vspine_ik
p778
aVspine_fk
p779
aVlLegMode
p780
aVlThighTwistAmount
p781
aVlCalfTwistAmount
p782
aVrLegMode
p783
aVrThighTwistAmount
p784
aVrCalfTwistAmount
p785
aVlFkArmOrient
p786
aVrFkArmOrient
p787
aVlArmMode
p788
aVlUpperarmTwistAmount
p789
aVrArmMode
p790
aVrUpperarmTwistAmount
p791
aVtentacle_r_fk
p792
aVtentacle_r_ik
p793
aVtentacle_r_dynamic
p794
aVtentacle_l_fk
p795
aVtentacle_l_ik
p796
aVtentacle_l_dynamic
p797
aaF1
aF0
aI1
aF0.90000000000000002
aF0.5
aI1
aF0.90000000000000002
aF0.5
aI1
aI1
aI0
aF0.90000000000000002
aI0
aF0.90000000000000002
aF1
aF0
aF0
aF1
aF0
aF0
aa(lp798
Vorb_03_r_anim
p799
a(lp800
VtranslateX
p801
aVtranslateY
p802
aVtranslateZ
p803
aVrotateX
p804
aVrotateY
p805
aVrotateZ
p806
aaF0
aF0
aF0
aF0
aF0
aF0
aa(lp807
Vorb_11_l_anim
p808
a(lp809
VtranslateX
p810
aVtranslateY
p811
aVtranslateZ
p812
aVrotateX
p813
aVrotateY
p814
aVrotateZ
p815
aaF0
aF0
aF0
aF0
aF0
aF0
aa(lp816
Vorb_04_r_anim
p817
a(lp818
VtranslateX
p819
aVtranslateY
p820
aVtranslateZ
p821
aVrotateX
p822
aVrotateY
p823
aVrotateZ
p824
aaF0
aF0
aF0
aF0
aF0
aF0
aa(lp825
Vtentacle_r_dyn_anim
p826
a(lp827
VtranslateX
p828
aVtranslateY
p829
aVtranslateZ
p830
aVrotateX
p831
aVrotateY
p832
aVrotateZ
p833
aVchainAttach
p834
aVchainStartEnvelope
p835
aVchainStartFrame
p836
aVchainStiffness
p837
aVchainDamping
p838
aVchainGravity
p839
aVchainIteration
p840
aVchainCollide
p841
aVchainWidthBase
p842
aVchainWidthExtremity
p843
aVchainCollideGround
p844
aVchainCollideGroundHeight
p845
aaF0
aF0
aF0
aF0
aF0
aF0
aI1
aF1
aF1
aF0.10000000000000001
aF0.20000000000000001
aF1
aI1
aI00
aF1
aF1
aI00
aF0
aa(lp846
Vtentacle_r_ik_2_anim
p847
a(lp848
VtranslateX
p849
aVtranslateY
p850
aVtranslateZ
p851
aVrotateX
p852
aVrotateY
p853
aVrotateZ
p854
aaF0
aF1.7844311903929745e-14
aF0
aF0
aF-0
aF-2.9953235168268422e-15
aa(lp855
Vtentacle_r_ik_3_anim
p856
a(lp857
VtranslateX
p858
aVtranslateY
p859
aVtranslateZ
p860
aVrotateX
p861
aVrotateY
p862
aVrotateZ
p863
aaF8.9221559519648724e-15
aF1.7844311903929745e-14
aF1.7844311903929745e-14
aF1.9968823445512275e-15
aF-0
aF-1.9968823445512275e-15
aa(lp864
Vtentacle_r_ik_4_anim
p865
a(lp866
VtranslateX
p867
aVtranslateY
p868
aVtranslateZ
p869
aVrotateX
p870
aVrotateY
p871
aVrotateZ
p872
aaF8.9221559519648724e-15
aF0
aF0
aF1.9968823445512275e-15
aF-0
aF-1.9968823445512275e-15
aa(lp873
Vtentacle_r_ik_5_anim
p874
a(lp875
VtranslateX
p876
aVtranslateY
p877
aVtranslateZ
p878
aVrotateX
p879
aVrotateY
p880
aVrotateZ
p881
aaF8.9221559519648724e-15
aF1.7844311903929745e-14
aF0
aF1.9968823445512275e-15
aF-0
aF-1.9968823445512275e-15
aa(lp882
Vtentacle_r_ik_6_anim
p883
a(lp884
VtranslateX
p885
aVtranslateY
p886
aVtranslateZ
p887
aVrotateX
p888
aVrotateY
p889
aVrotateZ
p890
aaF0
aF-4.4610779759824362e-15
aF0
aF1.9968823445512275e-15
aF-0
aF-1.9968823445512275e-15
aa(lp891
Vtentacle_r_ik_7_anim
p892
a(lp893
VtranslateX
p894
aVtranslateY
p895
aVtranslateZ
p896
aVrotateX
p897
aVrotateY
p898
aVrotateZ
p899
aaF-8.9221559519648724e-15
aF8.9221559519648724e-15
aF0
aF1.9968823445512275e-15
aF-0
aF-1.9968823445512275e-15
aa(lp900
Vtentacle_r_ik_8_anim
p901
a(lp902
VtranslateX
p903
aVtranslateY
p904
aVtranslateZ
p905
aVrotateX
p906
aVrotateY
p907
aVrotateZ
p908
aaF0
aF6.8310256507231047e-15
aF0
aF1.9968823445512275e-15
aF-0
aF-1.9968823445512275e-15
aa(lp909
Vtentacle_r_ik_9_anim
p910
a(lp911
VtranslateX
p912
aVtranslateY
p913
aVtranslateZ
p914
aVrotateX
p915
aVrotateY
p916
aVrotateZ
p917
aaF8.9221559519648724e-15
aF-2.2305389879912181e-15
aF-1.7844311903929745e-14
aF1.9968823445512275e-15
aF-0
aF-1.9968823445512275e-15
aa(lp918
Vtentacle_r_ik_10_anim
p919
a(lp920
VtranslateX
p921
aVtranslateY
p922
aVtranslateZ
p923
aVrotateX
p924
aVrotateY
p925
aVrotateZ
p926
aVclusterControlVis
p927
aaF0
aF-8.9221559519648724e-15
aF0
aF1.9968823445512275e-15
aF-0
aF-1.9968823445512275e-15
aI00
aa(lp928
Vtentacle_r_ik_base_anim
p929
a(lp930
VtranslateX
p931
aVtranslateY
p932
aVtranslateZ
p933
aVrotateX
p934
aVrotateY
p935
aVrotateZ
p936
aaF8.9221559519648724e-15
aF3.568862380785949e-14
aF0
aF0
aF4.9922058613780707e-16
aF9.9844117227561413e-16
aa(lp937
Vfk_tentacle_r_01_anim
p938
a(lp939
VtranslateX
p940
aVtranslateY
p941
aVtranslateZ
p942
aVrotateX
p943
aVrotateY
p944
aVrotateZ
p945
aVlagMode
p946
aaF0
aF0
aF0
aF79.802422626418902
aF-13.453336931832837
aF-0.44883006159917987
aF0
aa(lp947
Vtentacle_r_cv_0_anim
p948
a(lp949
VtranslateX
p950
aVtranslateY
p951
aVtranslateZ
p952
aaF0
aF0
aF0
aa(lp953
Vfk_tentacle_r_02_anim
p954
a(lp955
VtranslateX
p956
aVtranslateY
p957
aVtranslateZ
p958
aVrotateX
p959
aVrotateY
p960
aVrotateZ
p961
aaF0
aF0
aF0
aF-7.2025318077198177
aF1.0503856876245037
aF-7.6497152605438021
aa(lp962
Vtentacle_r_cv_1_anim
p963
a(lp964
VtranslateX
p965
aVtranslateY
p966
aVtranslateZ
p967
aaF0
aF0
aF0
aa(lp968
Vfk_tentacle_r_03_anim
p969
a(lp970
VtranslateX
p971
aVtranslateY
p972
aVtranslateZ
p973
aVrotateX
p974
aVrotateY
p975
aVrotateZ
p976
aaF0
aF0
aF0
aF-13.313584980457478
aF0.90101053449005031
aF-3.9193039532259903
aa(lp977
Vtentacle_r_cv_2_anim
p978
a(lp979
VtranslateX
p980
aVtranslateY
p981
aVtranslateZ
p982
aaF0
aF0
aF0
aa(lp983
Vfk_tentacle_r_04_anim
p984
a(lp985
VtranslateX
p986
aVtranslateY
p987
aVtranslateZ
p988
aVrotateX
p989
aVrotateY
p990
aVrotateZ
p991
aaF0
aF0
aF0
aF-14.954752365127506
aF0.77921843372887523
aF-4.806378496123771
aa(lp992
Vtentacle_r_cv_3_anim
p993
a(lp994
VtranslateX
p995
aVtranslateY
p996
aVtranslateZ
p997
aaF0
aF0
aF0
aa(lp998
Vfk_tentacle_r_05_anim
p999
a(lp1000
VtranslateX
p1001
aVtranslateY
p1002
aVtranslateZ
p1003
aVrotateX
p1004
aVrotateY
p1005
aVrotateZ
p1006
aaF0
aF0
aF0
aF-14.831878863170164
aF2.0858931922945398
aF0.10519260255819005
aa(lp1007
Vtentacle_r_cv_4_anim
p1008
a(lp1009
VtranslateX
p1010
aVtranslateY
p1011
aVtranslateZ
p1012
aaF0
aF0
aF0
aa(lp1013
Vfk_tentacle_r_06_anim
p1014
a(lp1015
VtranslateX
p1016
aVtranslateY
p1017
aVtranslateZ
p1018
aVrotateX
p1019
aVrotateY
p1020
aVrotateZ
p1021
aaF0
aF0
aF0
aF-14.767905357529452
aF2.5073445846613951
aF1.7015097036751465
aa(lp1022
Vtentacle_r_cv_5_anim
p1023
a(lp1024
VtranslateX
p1025
aVtranslateY
p1026
aVtranslateZ
p1027
aaF0
aF0
aF0
aa(lp1028
Vfk_tentacle_r_07_anim
p1029
a(lp1030
VtranslateX
p1031
aVtranslateY
p1032
aVtranslateZ
p1033
aVrotateX
p1034
aVrotateY
p1035
aVrotateZ
p1036
aaF0
aF0
aF0
aF-10.203798597036418
aF-0.35532213233103599
aF4.4244906112418221
aa(lp1037
Vtentacle_r_cv_6_anim
p1038
a(lp1039
VtranslateX
p1040
aVtranslateY
p1041
aVtranslateZ
p1042
aaF0
aF0
aF0
aa(lp1043
Vfk_tentacle_r_08_anim
p1044
a(lp1045
VtranslateX
p1046
aVtranslateY
p1047
aVtranslateZ
p1048
aVrotateX
p1049
aVrotateY
p1050
aVrotateZ
p1051
aaF0
aF0
aF0
aF-7.6570521674811918
aF0
aF7.0684007163606024
aa(lp1052
Vtentacle_r_cv_7_anim
p1053
a(lp1054
VtranslateX
p1055
aVtranslateY
p1056
aVtranslateZ
p1057
aaF0
aF0
aF0
aa(lp1058
Vfk_tentacle_r_09_anim
p1059
a(lp1060
VtranslateX
p1061
aVtranslateY
p1062
aVtranslateZ
p1063
aVrotateX
p1064
aVrotateY
p1065
aVrotateZ
p1066
aaF0
aF0
aF0
aF-11.304475582237792
aF0
aF7.0684007163606024
aa(lp1067
Vtentacle_r_cv_8_anim
p1068
a(lp1069
VtranslateX
p1070
aVtranslateY
p1071
aVtranslateZ
p1072
aaF0
aF0
aF0
aa(lp1073
Vfk_tentacle_r_010_anim
p1074
a(lp1075
VtranslateX
p1076
aVtranslateY
p1077
aVtranslateZ
p1078
aVrotateX
p1079
aVrotateY
p1080
aVrotateZ
p1081
aaF0
aF0
aF0
aF-7.6570521674811918
aF0
aF7.0684007163606024
aa(lp1082
Vtentacle_r_cv_9_anim
p1083
a(lp1084
VtranslateX
p1085
aVtranslateY
p1086
aVtranslateZ
p1087
aaF0
aF0
aF0
aa(lp1088
Vfk_tentacle_r_011_anim
p1089
a(lp1090
VtranslateX
p1091
aVtranslateY
p1092
aVtranslateZ
p1093
aVrotateX
p1094
aVrotateY
p1095
aVrotateZ
p1096
aaF0
aF0
aF0
aF-1.0457670728509914
aF-0.26032838638541822
aF-1.9367427629605869
aa(lp1097
Vtentacle_r_cv_10_anim
p1098
a(lp1099
VtranslateX
p1100
aVtranslateY
p1101
aVtranslateZ
p1102
aaF0
aF0
aF0
aa(lp1103
Vfk_tentacle_r_012_anim
p1104
a(lp1105
VtranslateX
p1106
aVtranslateY
p1107
aVtranslateZ
p1108
aVrotateX
p1109
aVrotateY
p1110
aVrotateZ
p1111
aaF0
aF0
aF0
aF7.3983293729331701
aF0.14059797661474163
aF-4.7361599647280102
aa(lp1112
Vtentacle_r_cv_11_anim
p1113
a(lp1114
VtranslateX
p1115
aVtranslateY
p1116
aVtranslateZ
p1117
aaF0
aF0
aF0
aa(lp1118
Vfk_tentacle_r_013_anim
p1119
a(lp1120
VtranslateX
p1121
aVtranslateY
p1122
aVtranslateZ
p1123
aVrotateX
p1124
aVrotateY
p1125
aVrotateZ
p1126
aaF0
aF0
aF0
aF7.3983293729331701
aF0.14059797661474163
aF-4.7361599647280102
aa(lp1127
Vtentacle_r_cv_12_anim
p1128
a(lp1129
VtranslateX
p1130
aVtranslateY
p1131
aVtranslateZ
p1132
aaF0
aF0
aF0
aa(lp1133
Vfk_tentacle_r_014_anim
p1134
a(lp1135
VtranslateX
p1136
aVtranslateY
p1137
aVtranslateZ
p1138
aVrotateX
p1139
aVrotateY
p1140
aVrotateZ
p1141
aaF0
aF0
aF0
aF14.980404651675849
aF1.1948090282457449
aF-7.5546550729577069
aa(lp1142
Vtentacle_r_cv_13_anim
p1143
a(lp1144
VtranslateX
p1145
aVtranslateY
p1146
aVtranslateZ
p1147
aaF0
aF0
aF0
aa(lp1148
Vfk_tentacle_r_015_anim
p1149
a(lp1150
VtranslateX
p1151
aVtranslateY
p1152
aVtranslateZ
p1153
aVrotateX
p1154
aVrotateY
p1155
aVrotateZ
p1156
aaF0
aF0
aF0
aF8.755427111092656
aF0.42228937385755622
aF-3.0666750553541871
aa(lp1157
Vtentacle_r_cv_14_anim
p1158
a(lp1159
VtranslateX
p1160
aVtranslateY
p1161
aVtranslateZ
p1162
aaF0
aF0
aF0
aa(lp1163
Vfk_tentacle_r_016_anim
p1164
a(lp1165
VtranslateX
p1166
aVtranslateY
p1167
aVtranslateZ
p1168
aVrotateX
p1169
aVrotateY
p1170
aVrotateZ
p1171
aaF0
aF0
aF0
aF8.755427111092656
aF0.42228937385755622
aF-3.0666750553541871
aa(lp1172
Vtentacle_r_cv_15_anim
p1173
a(lp1174
VtranslateX
p1175
aVtranslateY
p1176
aVtranslateZ
p1177
aaF0
aF0
aF0
aa(lp1178
Vfk_tentacle_r_017_anim
p1179
a(lp1180
VtranslateX
p1181
aVtranslateY
p1182
aVtranslateZ
p1183
aVrotateX
p1184
aVrotateY
p1185
aVrotateZ
p1186
aaF0
aF0
aF0
aF5.1974673006383467
aF-1.4652478683914041
aF6.9884732464053396
aa(lp1187
Vtentacle_r_cv_16_anim
p1188
a(lp1189
VtranslateX
p1190
aVtranslateY
p1191
aVtranslateZ
p1192
aaF0
aF0
aF0
aa(lp1193
Vfk_tentacle_r_018_anim
p1194
a(lp1195
VtranslateX
p1196
aVtranslateY
p1197
aVtranslateZ
p1198
aVrotateX
p1199
aVrotateY
p1200
aVrotateZ
p1201
aaF0
aF0
aF0
aF-3.206155714362807
aF-0.49839968361465126
aF11.864860517438251
aa(lp1202
Vtentacle_r_cv_17_anim
p1203
a(lp1204
VtranslateX
p1205
aVtranslateY
p1206
aVtranslateZ
p1207
aaF0
aF0
aF0
aa(lp1208
Vfk_tentacle_r_019_anim
p1209
a(lp1210
VtranslateX
p1211
aVtranslateY
p1212
aVtranslateZ
p1213
aVrotateX
p1214
aVrotateY
p1215
aVrotateZ
p1216
aaF0
aF0
aF0
aF-2.7326546981072597
aF-0.53612717148782807
aF11.864551377867945
aa(lp1217
Vtentacle_r_cv_18_anim
p1218
a(lp1219
VtranslateX
p1220
aVtranslateY
p1221
aVtranslateZ
p1222
aaF0
aF0
aF0
aa(lp1223
Vfk_tentacle_r_020_anim
p1224
a(lp1225
VtranslateX
p1226
aVtranslateY
p1227
aVtranslateZ
p1228
aVrotateX
p1229
aVrotateY
p1230
aVrotateZ
p1231
aaF0
aF0
aF0
aF-6.4070227397923345
aF0.23639954139304023
aF14.784161960817437
aa(lp1232
Vtentacle_r_cv_19_anim
p1233
a(lp1234
VtranslateX
p1235
aVtranslateY
p1236
aVtranslateZ
p1237
aaF0
aF0
aF0
aa(lp1238
Vweapon_l_anim
p1239
a(lp1240
VtranslateX
p1241
aVtranslateY
p1242
aVtranslateZ
p1243
aVrotateX
p1244
aVrotateY
p1245
aVrotateZ
p1246
aaF0
aF0
aF0
aF0
aF0
aF0
aa(lp1247
Vdagger_3_r_anim
p1248
a(lp1249
VtranslateX
p1250
aVtranslateY
p1251
aVtranslateZ
p1252
aVrotateX
p1253
aVrotateY
p1254
aVrotateZ
p1255
aaF0
aF0
aF0
aF0
aF0
aF0
aa(lp1256
Vorb_13_r_anim
p1257
a(lp1258
VtranslateX
p1259
aVtranslateY
p1260
aVtranslateZ
p1261
aVrotateX
p1262
aVrotateY
p1263
aVrotateZ
p1264
aaF0
aF0
aF0
aF0
aF0
aF0
aa(lp1265
Vorb_05_r_anim
p1266
a(lp1267
VtranslateX
p1268
aVtranslateY
p1269
aVtranslateZ
p1270
aVrotateX
p1271
aVrotateY
p1272
aVrotateZ
p1273
aaF0
aF0
aF0
aF0
aF0
aF0
aa(lp1274
Vtentacle_l_dyn_anim
p1275
a(lp1276
VtranslateX
p1277
aVtranslateY
p1278
aVtranslateZ
p1279
aVrotateX
p1280
aVrotateY
p1281
aVrotateZ
p1282
aVchainAttach
p1283
aVchainStartEnvelope
p1284
aVchainStartFrame
p1285
aVchainStiffness
p1286
aVchainDamping
p1287
aVchainGravity
p1288
aVchainIteration
p1289
aVchainCollide
p1290
aVchainWidthBase
p1291
aVchainWidthExtremity
p1292
aVchainCollideGround
p1293
aVchainCollideGroundHeight
p1294
aaF0
aF0
aF0
aF0
aF0
aF0
aI1
aF1
aF1
aF0.10000000000000001
aF0.20000000000000001
aF1
aI1
aI00
aF1
aF1
aI00
aF0
aa(lp1295
Vtentacle_l_ik_2_anim
p1296
a(lp1297
VtranslateX
p1298
aVtranslateY
p1299
aVtranslateZ
p1300
aVrotateX
p1301
aVrotateY
p1302
aVrotateZ
p1303
aaF7.1054273576010019e-15
aF0
aF0
aF0
aF0
aF0
aa(lp1304
Vtentacle_l_ik_3_anim
p1305
a(lp1306
VtranslateX
p1307
aVtranslateY
p1308
aVtranslateZ
p1309
aVrotateX
p1310
aVrotateY
p1311
aVrotateZ
p1312
aaF-7.1054273576010019e-15
aF1.4210854715202004e-14
aF1.4210854715202004e-14
aF3.1805546814635168e-15
aF7.9513867036587919e-16
aF1.5902773407317584e-15
aa(lp1313
Vtentacle_l_ik_4_anim
p1314
a(lp1315
VtranslateX
p1316
aVtranslateY
p1317
aVtranslateZ
p1318
aVrotateX
p1319
aVrotateY
p1320
aVrotateZ
p1321
aaF0
aF0
aF0
aF3.1805546814635168e-15
aF7.9513867036587919e-16
aF1.5902773407317584e-15
aa(lp1322
Vtentacle_l_ik_5_anim
p1323
a(lp1324
VtranslateX
p1325
aVtranslateY
p1326
aVtranslateZ
p1327
aVrotateX
p1328
aVrotateY
p1329
aVrotateZ
p1330
aaF-7.1054273576010019e-15
aF1.4210854715202004e-14
aF0
aF3.1805546814635168e-15
aF7.9513867036587919e-16
aF1.5902773407317584e-15
aa(lp1331
Vtentacle_l_ik_6_anim
p1332
a(lp1333
VtranslateX
p1334
aVtranslateY
p1335
aVtranslateZ
p1336
aVrotateX
p1337
aVrotateY
p1338
aVrotateZ
p1339
aaF-7.1054273576010019e-15
aF3.5527136788005009e-15
aF1.4210854715202004e-14
aF3.1805546814635168e-15
aF7.9513867036587919e-16
aF1.5902773407317584e-15
aa(lp1340
Vtentacle_l_ik_7_anim
p1341
a(lp1342
VtranslateX
p1343
aVtranslateY
p1344
aVtranslateZ
p1345
aVrotateX
p1346
aVrotateY
p1347
aVrotateZ
p1348
aaF0
aF7.1054273576010019e-15
aF1.4210854715202004e-14
aF3.1805546814635168e-15
aF7.9513867036587919e-16
aF1.5902773407317584e-15
aa(lp1349
Vtentacle_l_ik_8_anim
p1350
a(lp1351
VtranslateX
p1352
aVtranslateY
p1353
aVtranslateZ
p1354
aVrotateX
p1355
aVrotateY
p1356
aVrotateZ
p1357
aaF-7.1054273576010019e-15
aF3.4416913763379853e-15
aF0
aF3.1805546814635168e-15
aF7.9513867036587919e-16
aF1.5902773407317584e-15
aa(lp1358
Vtentacle_l_ik_9_anim
p1359
a(lp1360
VtranslateX
p1361
aVtranslateY
p1362
aVtranslateZ
p1363
aVrotateX
p1364
aVrotateY
p1365
aVrotateZ
p1366
aaF0
aF5.3290705182007514e-15
aF0
aF3.1805546814635168e-15
aF7.9513867036587919e-16
aF1.5902773407317584e-15
aa(lp1367
Vtentacle_l_ik_10_anim
p1368
a(lp1369
VtranslateX
p1370
aVtranslateY
p1371
aVtranslateZ
p1372
aVrotateX
p1373
aVrotateY
p1374
aVrotateZ
p1375
aVclusterControlVis
p1376
aaF0
aF-3.5527136788005009e-15
aF0
aF3.1805546814635168e-15
aF7.9513867036587919e-16
aF1.5902773407317584e-15
aI00
aa(lp1377
Vtentacle_l_ik_base_anim
p1378
a(lp1379
VtranslateX
p1380
aVtranslateY
p1381
aVtranslateZ
p1382
aVrotateX
p1383
aVrotateY
p1384
aVrotateZ
p1385
aaF7.1054273576010019e-15
aF2.8421709430404007e-14
aF0
aF0
aF-3.975693351829396e-16
aF7.9513867036587919e-16
aa(lp1386
Vfk_tentacle_l_01_anim
p1387
a(lp1388
VtranslateX
p1389
aVtranslateY
p1390
aVtranslateZ
p1391
aVrotateX
p1392
aVrotateY
p1393
aVrotateZ
p1394
aVlagMode
p1395
aaF0
aF0
aF0
aF54.112365948074093
aF49.600109983201058
aF10.742721231818903
aF0
aa(lp1396
Vtentacle_l_cv_0_anim
p1397
a(lp1398
VtranslateX
p1399
aVtranslateY
p1400
aVtranslateZ
p1401
aaF0
aF0
aF0
aa(lp1402
Vfk_tentacle_l_02_anim
p1403
a(lp1404
VtranslateX
p1405
aVtranslateY
p1406
aVtranslateZ
p1407
aVrotateX
p1408
aVrotateY
p1409
aVrotateZ
p1410
aaF0
aF0
aF0
aF-2.0154248070995298
aF1.4537268879436358
aF3.9248048078683748
aa(lp1411
Vtentacle_l_cv_1_anim
p1412
a(lp1413
VtranslateX
p1414
aVtranslateY
p1415
aVtranslateZ
p1416
aaF0
aF0
aF0
aa(lp1417
Vfk_tentacle_l_03_anim
p1418
a(lp1419
VtranslateX
p1420
aVtranslateY
p1421
aVtranslateZ
p1422
aVrotateX
p1423
aVrotateY
p1424
aVrotateZ
p1425
aaF0
aF0
aF0
aF-9.7271497652044392
aF0.68414199259633524
aF3.9844772098295853
aa(lp1426
Vtentacle_l_cv_2_anim
p1427
a(lp1428
VtranslateX
p1429
aVtranslateY
p1430
aVtranslateZ
p1431
aaF0
aF0
aF0
aa(lp1432
Vfk_tentacle_l_04_anim
p1433
a(lp1434
VtranslateX
p1435
aVtranslateY
p1436
aVtranslateZ
p1437
aVrotateX
p1438
aVrotateY
p1439
aVrotateZ
p1440
aaF0
aF0
aF0
aF-11.301953812850783
aF1.1870782880683792
aF6.951474357812752
aa(lp1441
Vtentacle_l_cv_3_anim
p1442
a(lp1443
VtranslateX
p1444
aVtranslateY
p1445
aVtranslateZ
p1446
aaF0
aF0
aF0
aa(lp1447
Vfk_tentacle_l_05_anim
p1448
a(lp1449
VtranslateX
p1450
aVtranslateY
p1451
aVtranslateZ
p1452
aVrotateX
p1453
aVrotateY
p1454
aVrotateZ
p1455
aaF0
aF0
aF0
aF-18.101694250767778
aF1.0534833908409791
aF6.142756372130906
aa(lp1456
Vtentacle_l_cv_4_anim
p1457
a(lp1458
VtranslateX
p1459
aVtranslateY
p1460
aVtranslateZ
p1461
aaF0
aF0
aF0
aa(lp1462
Vfk_tentacle_l_06_anim
p1463
a(lp1464
VtranslateX
p1465
aVtranslateY
p1466
aVtranslateZ
p1467
aVrotateX
p1468
aVrotateY
p1469
aVrotateZ
p1470
aaF0
aF0
aF0
aF-11.072916551543551
aF0.60614374814564609
aF3.8534841435120937
aa(lp1471
Vtentacle_l_cv_5_anim
p1472
a(lp1473
VtranslateX
p1474
aVtranslateY
p1475
aVtranslateZ
p1476
aaF0
aF0
aF0
aa(lp1477
Vfk_tentacle_l_07_anim
p1478
a(lp1479
VtranslateX
p1480
aVtranslateY
p1481
aVtranslateZ
p1482
aVrotateX
p1483
aVrotateY
p1484
aVrotateZ
p1485
aaF0
aF0
aF0
aF-9.7310756200178439
aF0.62523650637263706
aF3.6408957273167131
aa(lp1486
Vtentacle_l_cv_6_anim
p1487
a(lp1488
VtranslateX
p1489
aVtranslateY
p1490
aVtranslateZ
p1491
aaF0
aF0
aF0
aa(lp1492
Vfk_tentacle_l_08_anim
p1493
a(lp1494
VtranslateX
p1495
aVtranslateY
p1496
aVtranslateZ
p1497
aVrotateX
p1498
aVrotateY
p1499
aVrotateZ
p1500
aaF0
aF0
aF0
aF-7.7293281591293956
aF0
aF6.2320965595245834
aa(lp1501
Vtentacle_l_cv_7_anim
p1502
a(lp1503
VtranslateX
p1504
aVtranslateY
p1505
aVtranslateZ
p1506
aaF0
aF0
aF0
aa(lp1507
Vfk_tentacle_l_09_anim
p1508
a(lp1509
VtranslateX
p1510
aVtranslateY
p1511
aVtranslateZ
p1512
aVrotateX
p1513
aVrotateY
p1514
aVrotateZ
p1515
aaF0
aF0
aF0
aF-7.6859945772199625
aF0.44951810621316457
aF10.404001708558097
aa(lp1516
Vtentacle_l_cv_8_anim
p1517
a(lp1518
VtranslateX
p1519
aVtranslateY
p1520
aVtranslateZ
p1521
aaF0
aF0
aF0
aa(lp1522
Vfk_tentacle_l_010_anim
p1523
a(lp1524
VtranslateX
p1525
aVtranslateY
p1526
aVtranslateZ
p1527
aVrotateX
p1528
aVrotateY
p1529
aVrotateZ
p1530
aaF0
aF0
aF0
aF-6.1181376170957629
aF0.67711280257091477
aF6.2914222913319628
aa(lp1531
Vtentacle_l_cv_9_anim
p1532
a(lp1533
VtranslateX
p1534
aVtranslateY
p1535
aVtranslateZ
p1536
aaF0
aF0
aF0
aa(lp1537
Vfk_tentacle_l_011_anim
p1538
a(lp1539
VtranslateX
p1540
aVtranslateY
p1541
aVtranslateZ
p1542
aVrotateX
p1543
aVrotateY
p1544
aVrotateZ
p1545
aaF0
aF0
aF0
aF5.1336695006747011
aF-0.444516370054933
aF4.9355741713973034
aa(lp1546
Vtentacle_l_cv_10_anim
p1547
a(lp1548
VtranslateX
p1549
aVtranslateY
p1550
aVtranslateZ
p1551
aaF0
aF0
aF0
aa(lp1552
Vfk_tentacle_l_012_anim
p1553
a(lp1554
VtranslateX
p1555
aVtranslateY
p1556
aVtranslateZ
p1557
aVrotateX
p1558
aVrotateY
p1559
aVrotateZ
p1560
aaF0
aF0
aF0
aF10.250005621485103
aF-0.97054047623780548
aF4.8597643352844075
aa(lp1561
Vtentacle_l_cv_11_anim
p1562
a(lp1563
VtranslateX
p1564
aVtranslateY
p1565
aVtranslateZ
p1566
aaF0
aF0
aF0
aa(lp1567
Vfk_tentacle_l_013_anim
p1568
a(lp1569
VtranslateX
p1570
aVtranslateY
p1571
aVtranslateZ
p1572
aVrotateX
p1573
aVrotateY
p1574
aVrotateZ
p1575
aaF0
aF0
aF0
aF14.676659648828039
aF-0.074449337472024618
aF-2.3088453907654358
aa(lp1576
Vtentacle_l_cv_12_anim
p1577
a(lp1578
VtranslateX
p1579
aVtranslateY
p1580
aVtranslateZ
p1581
aaF0
aF0
aF0
aa(lp1582
Vfk_tentacle_l_014_anim
p1583
a(lp1584
VtranslateX
p1585
aVtranslateY
p1586
aVtranslateZ
p1587
aVrotateX
p1588
aVrotateY
p1589
aVrotateZ
p1590
aaF0
aF0
aF0
aF6.9952685823896381
aF-0.067497386309495741
aF-7.2237169137915176
aa(lp1591
Vtentacle_l_cv_13_anim
p1592
a(lp1593
VtranslateX
p1594
aVtranslateY
p1595
aVtranslateZ
p1596
aaF0
aF0
aF0
aa(lp1597
Vfk_tentacle_l_015_anim
p1598
a(lp1599
VtranslateX
p1600
aVtranslateY
p1601
aVtranslateZ
p1602
aVrotateX
p1603
aVrotateY
p1604
aVrotateZ
p1605
aaF0
aF0
aF0
aF6.9952685823896381
aF-0.067497386309495741
aF-7.2237169137915176
aa(lp1606
Vtentacle_l_cv_14_anim
p1607
a(lp1608
VtranslateX
p1609
aVtranslateY
p1610
aVtranslateZ
p1611
aaF0
aF0
aF0
aa(lp1612
Vfk_tentacle_l_016_anim
p1613
a(lp1614
VtranslateX
p1615
aVtranslateY
p1616
aVtranslateZ
p1617
aVrotateX
p1618
aVrotateY
p1619
aVrotateZ
p1620
aaF0
aF0
aF0
aF6.9952685823896381
aF-0.067497386309495741
aF-7.2237169137915176
aa(lp1621
Vtentacle_l_cv_15_anim
p1622
a(lp1623
VtranslateX
p1624
aVtranslateY
p1625
aVtranslateZ
p1626
aaF0
aF0
aF0
aa(lp1627
Vfk_tentacle_l_017_anim
p1628
a(lp1629
VtranslateX
p1630
aVtranslateY
p1631
aVtranslateZ
p1632
aVrotateX
p1633
aVrotateY
p1634
aVrotateZ
p1635
aaF0
aF0
aF0
aF-1.2482727360758095
aF-0.025068771585877624
aF-5.275507979937073
aa(lp1636
Vtentacle_l_cv_16_anim
p1637
a(lp1638
VtranslateX
p1639
aVtranslateY
p1640
aVtranslateZ
p1641
aaF0
aF0
aF0
aa(lp1642
Vfk_tentacle_l_018_anim
p1643
a(lp1644
VtranslateX
p1645
aVtranslateY
p1646
aVtranslateZ
p1647
aVrotateX
p1648
aVrotateY
p1649
aVrotateZ
p1650
aaF0
aF0
aF0
aF-8.2372664449188342
aF0.27929668244331318
aF1.9285586359352109
aa(lp1651
Vtentacle_l_cv_17_anim
p1652
a(lp1653
VtranslateX
p1654
aVtranslateY
p1655
aVtranslateZ
p1656
aaF0
aF0
aF0
aa(lp1657
Vfk_tentacle_l_019_anim
p1658
a(lp1659
VtranslateX
p1660
aVtranslateY
p1661
aVtranslateZ
p1662
aVrotateX
p1663
aVrotateY
p1664
aVrotateZ
p1665
aaF0
aF0
aF0
aF-8.2372664449188342
aF0.27929668244331318
aF1.9285586359352109
aa(lp1666
Vtentacle_l_cv_18_anim
p1667
a(lp1668
VtranslateX
p1669
aVtranslateY
p1670
aVtranslateZ
p1671
aaF0
aF0
aF0
aa(lp1672
Vfk_tentacle_l_020_anim
p1673
a(lp1674
VtranslateX
p1675
aVtranslateY
p1676
aVtranslateZ
p1677
aVrotateX
p1678
aVrotateY
p1679
aVrotateZ
p1680
aaF0
aF0
aF0
aF-8.2372664449188342
aF0.27929668244331318
aF1.9285586359352109
aa(lp1681
Vtentacle_l_cv_19_anim
p1682
a(lp1683
VtranslateX
p1684
aVtranslateY
p1685
aVtranslateZ
p1686
aaF0
aF0
aF0
aa(lp1687
Vsword_1_r_anim
p1688
a(lp1689
VtranslateX
p1690
aVtranslateY
p1691
aVtranslateZ
p1692
aVrotateX
p1693
aVrotateY
p1694
aVrotateZ
p1695
aaF-0.14790722272042098
aF0
aF-7.6728774183904278
aF0
aF-15.267466809393259
aF-0.84843405515336434
aa(lp1696
Vorb_03_l_anim
p1697
a(lp1698
VtranslateX
p1699
aVtranslateY
p1700
aVtranslateZ
p1701
aVrotateX
p1702
aVrotateY
p1703
aVrotateZ
p1704
aaF0
aF0
aF0
aF0
aF0
aF0
aa(lp1705
Vdagger_1_l_anim
p1706
a(lp1707
VtranslateX
p1708
aVtranslateY
p1709
aVtranslateZ
p1710
aVrotateX
p1711
aVrotateY
p1712
aVrotateZ
p1713
aaF0
aF0
aF0
aF0
aF0
aF0
aa(lp1714
Vdagger_2_l_anim
p1715
a(lp1716
VtranslateX
p1717
aVtranslateY
p1718
aVtranslateZ
p1719
aVrotateX
p1720
aVrotateY
p1721
aVrotateZ
p1722
aaF0
aF0
aF0
aF0
aF0
aF0
aa(lp1723
Vdagger_2_r_anim
p1724
a(lp1725
VtranslateX
p1726
aVtranslateY
p1727
aVtranslateZ
p1728
aVrotateX
p1729
aVrotateY
p1730
aVrotateZ
p1731
aaF0
aF0
aF0
aF0
aF0
aF0
aa(lp1732
Vorb_09_r_anim
p1733
a(lp1734
VtranslateX
p1735
aVtranslateY
p1736
aVtranslateZ
p1737
aVrotateX
p1738
aVrotateY
p1739
aVrotateZ
p1740
aaF0
aF0
aF0
aF0
aF0
aF0
aa(lp1741
Vorb_04_l_anim
p1742
a(lp1743
VtranslateX
p1744
aVtranslateY
p1745
aVtranslateZ
p1746
aVrotateX
p1747
aVrotateY
p1748
aVrotateZ
p1749
aaF0
aF0
aF0
aF0
aF0
aF0
aa(lp1750
Vdagger_1_r_anim
p1751
a(lp1752
VtranslateX
p1753
aVtranslateY
p1754
aVtranslateZ
p1755
aVrotateX
p1756
aVrotateY
p1757
aVrotateZ
p1758
aaF0
aF0
aF0
aF0
aF0
aF0
aa(lp1759
Vorb_09_l_anim
p1760
a(lp1761
VtranslateX
p1762
aVtranslateY
p1763
aVtranslateZ
p1764
aVrotateX
p1765
aVrotateY
p1766
aVrotateZ
p1767
aaF0
aF0
aF0
aF0
aF0
aF0
aa(lp1768
Vforearm_plate_1_r_anim
p1769
a(lp1770
VtranslateX
p1771
aVtranslateY
p1772
aVtranslateZ
p1773
aVrotateX
p1774
aVrotateY
p1775
aVrotateZ
p1776
aaF0
aF0
aF0
aF0
aF0
aF0
aa(lp1777
Vorb_01_l_anim
p1778
a(lp1779
VtranslateX
p1780
aVtranslateY
p1781
aVtranslateZ
p1782
aVrotateX
p1783
aVrotateY
p1784
aVrotateZ
p1785
aaF0
aF0
aF0
aF0
aF0
aF0
aa(lp1786
Vorb_02_l_anim
p1787
a(lp1788
VtranslateX
p1789
aVtranslateY
p1790
aVtranslateZ
p1791
aVrotateX
p1792
aVrotateY
p1793
aVrotateZ
p1794
aaF0
aF0
aF0
aF0
aF0
aF0
aa(lp1795
Vorb_11_r_anim
p1796
a(lp1797
VtranslateX
p1798
aVtranslateY
p1799
aVtranslateZ
p1800
aVrotateX
p1801
aVrotateY
p1802
aVrotateZ
p1803
aaF0
aF0
aF0
aF0
aF0
aF0
aa(lp1804
Vorb_10_r_anim
p1805
a(lp1806
VtranslateX
p1807
aVtranslateY
p1808
aVtranslateZ
p1809
aVrotateX
p1810
aVrotateY
p1811
aVrotateZ
p1812
aaF0
aF0
aF0
aF0
aF0
aF0
aa(lp1813
Vforearm_plate_1_l_anim
p1814
a(lp1815
VtranslateX
p1816
aVtranslateY
p1817
aVtranslateZ
p1818
aVrotateX
p1819
aVrotateY
p1820
aVrotateZ
p1821
aaF0
aF0
aF0
aF0
aF0
aF0
aa(lp1822
Vorb_07_r_anim
p1823
a(lp1824
VtranslateX
p1825
aVtranslateY
p1826
aVtranslateZ
p1827
aVrotateX
p1828
aVrotateY
p1829
aVrotateZ
p1830
aaF0
aF0
aF0
aF0
aF0
aF0
aa(lp1831
Vorb_05_l_anim
p1832
a(lp1833
VtranslateX
p1834
aVtranslateY
p1835
aVtranslateZ
p1836
aVrotateX
p1837
aVrotateY
p1838
aVrotateZ
p1839
aaF0
aF0
aF0
aF0
aF0
aF0
aa(lp1840
Vorb_01_r_anim
p1841
a(lp1842
VtranslateX
p1843
aVtranslateY
p1844
aVtranslateZ
p1845
aVrotateX
p1846
aVrotateY
p1847
aVrotateZ
p1848
aaF0
aF0
aF0
aF0
aF0
aF0
aa(lp1849
Vforearm_plate_2_l_anim
p1850
a(lp1851
VtranslateX
p1852
aVtranslateY
p1853
aVtranslateZ
p1854
aVrotateX
p1855
aVrotateY
p1856
aVrotateZ
p1857
aaF0
aF0
aF0
aF0
aF0
aF0
aa(lp1858
Vforearm_plate_3_r_anim
p1859
a(lp1860
VtranslateX
p1861
aVtranslateY
p1862
aVtranslateZ
p1863
aVrotateX
p1864
aVrotateY
p1865
aVrotateZ
p1866
aaF0
aF0
aF0
aF0
aF0
aF0
aa(lp1867
Vsword_2_r_anim
p1868
a(lp1869
VtranslateX
p1870
aVtranslateY
p1871
aVtranslateZ
p1872
aVrotateX
p1873
aVrotateY
p1874
aVrotateZ
p1875
aaF0
aF0
aF0
aF0
aF0
aF0
aa(lp1876
Vforearm_plate_3_l_anim
p1877
a(lp1878
VtranslateX
p1879
aVtranslateY
p1880
aVtranslateZ
p1881
aVrotateX
p1882
aVrotateY
p1883
aVrotateZ
p1884
aaF0
aF0
aF0
aF0
aF0
aF0
aa(lp1885
Vorb_14_l_anim
p1886
a(lp1887
VtranslateX
p1888
aVtranslateY
p1889
aVtranslateZ
p1890
aVrotateX
p1891
aVrotateY
p1892
aVrotateZ
p1893
aaF0
aF0
aF0
aF0
aF0
aF0
aa(lp1894
Vorb_08_l_anim
p1895
a(lp1896
VtranslateX
p1897
aVtranslateY
p1898
aVtranslateZ
p1899
aVrotateX
p1900
aVrotateY
p1901
aVrotateZ
p1902
aaF0
aF0
aF0
aF0
aF0
aF0
aa(lp1903
Vdagger_3_l_anim
p1904
a(lp1905
VtranslateX
p1906
aVtranslateY
p1907
aVtranslateZ
p1908
aVrotateX
p1909
aVrotateY
p1910
aVrotateZ
p1911
aaF0
aF0
aF0
aF0
aF0
aF0
aa(lp1912
Vorb_13_l_anim
p1913
a(lp1914
VtranslateX
p1915
aVtranslateY
p1916
aVtranslateZ
p1917
aVrotateX
p1918
aVrotateY
p1919
aVrotateZ
p1920
aaF0
aF0
aF0
aF0
aF0
aF0
aa(lp1921
Vweapon_r_anim
p1922
a(lp1923
VtranslateX
p1924
aVtranslateY
p1925
aVtranslateZ
p1926
aVrotateX
p1927
aVrotateY
p1928
aVrotateZ
p1929
aaF0
aF0
aF0
aF0
aF0
aF0
aa(lp1930
Vorb_06_r_anim
p1931
a(lp1932
VtranslateX
p1933
aVtranslateY
p1934
aVtranslateZ
p1935
aVrotateX
p1936
aVrotateY
p1937
aVrotateZ
p1938
aaF0
aF0
aF0
aF0
aF0
aF0
aa(lp1939
Vorb_14_r_anim
p1940
a(lp1941
VtranslateX
p1942
aVtranslateY
p1943
aVtranslateZ
p1944
aVrotateX
p1945
aVrotateY
p1946
aVrotateZ
p1947
aaF0
aF0
aF0
aF0
aF0
aF0
aa(lp1948
Vsword_2_l_anim
p1949
a(lp1950
VtranslateX
p1951
aVtranslateY
p1952
aVtranslateZ
p1953
aVrotateX
p1954
aVrotateY
p1955
aVrotateZ
p1956
aaF0
aF0
aF0
aF0
aF0
aF0
aa(lp1957
Vforearm_plate_2_r_anim
p1958
a(lp1959
VtranslateX
p1960
aVtranslateY
p1961
aVtranslateZ
p1962
aVrotateX
p1963
aVrotateY
p1964
aVrotateZ
p1965
aaF0
aF0
aF0
aF0
aF0
aF0
aa(lp1966
Vorb_12_r_anim
p1967
a(lp1968
VtranslateX
p1969
aVtranslateY
p1970
aVtranslateZ
p1971
aVrotateX
p1972
aVrotateY
p1973
aVrotateZ
p1974
aaF0
aF0
aF0
aF0
aF0
aF0
aa(lp1975
Vorb_07_l_anim
p1976
a(lp1977
VtranslateX
p1978
aVtranslateY
p1979
aVtranslateZ
p1980
aVrotateX
p1981
aVrotateY
p1982
aVrotateZ
p1983
aaF0
aF0
aF0
aF0
aF0
aF0
aa(lp1984
Vorb_12_l_anim
p1985
a(lp1986
VtranslateX
p1987
aVtranslateY
p1988
aVtranslateZ
p1989
aVrotateX
p1990
aVrotateY
p1991
aVrotateZ
p1992
aaF0
aF0
aF0
aF0
aF0
aF0
aa(lp1993
Vorb_06_l_anim
p1994
a(lp1995
VtranslateX
p1996
aVtranslateY
p1997
aVtranslateZ
p1998
aVrotateX
p1999
aVrotateY
p2000
aVrotateZ
p2001
aaF0
aF0
aF0
aF0
aF0
aF0
aa(lp2002
Vorb_10_l_anim
p2003
a(lp2004
VtranslateX
p2005
aVtranslateY
p2006
aVtranslateZ
p2007
aVrotateX
p2008
aVrotateY
p2009
aVrotateZ
p2010
aaF0
aF0
aF0
aF0
aF0
aF0
aa(lp2011
Vsword_1_l_anim
p2012
a(lp2013
VtranslateX
p2014
aVtranslateY
p2015
aVtranslateZ
p2016
aVrotateX
p2017
aVrotateY
p2018
aVrotateZ
p2019
aaF1.9865532035398383
aF0.90721134833773809
aF8.1368880328061728
aF0
aF0
aF0
aa(lp2020
Vorb_02_r_anim
p2021
a(lp2022
VtranslateX
p2023
aVtranslateY
p2024
aVtranslateZ
p2025
aVrotateX
p2026
aVrotateY
p2027
aVrotateZ
p2028
aaF0
aF0
aF0
aF0
aF0
aF0
aa(lp2029
Vorb_08_r_anim
p2030
a(lp2031
VtranslateX
p2032
aVtranslateY
p2033
aVtranslateZ
p2034
aVrotateX
p2035
aVrotateY
p2036
aVrotateZ
p2037
aaF0
aF0
aF0
aF0
aF0
aF0
aa(lp2038
Vbody_anim_space_switcher
p2039
a(lp2040
Vvisibility
p2041
aVtranslateX
p2042
aVtranslateY
p2043
aVtranslateZ
p2044
aVrotateX
p2045
aVrotateY
p2046
aVrotateZ
p2047
aVscaleX
p2048
aVscaleY
p2049
aVscaleZ
p2050
aVspace_world
p2051
aaI01
aF0
aF8.8817841970012523e-16
aF0
aF-3.7272125173400569e-17
aF-1.2722315788680037e-14
aF-7.4544250346801162e-17
aF1.0000000000000002
aF1.0000000000000002
aF1
aF0
aa(lp2052
Vchest_ik_anim_space_switcher
p2053
a(lp2054
Vvisibility
p2055
aVtranslateX
p2056
aVtranslateY
p2057
aVtranslateZ
p2058
aVrotateX
p2059
aVrotateY
p2060
aVrotateZ
p2061
aVscaleX
p2062
aVscaleY
p2063
aVscaleZ
p2064
aVspace_world
p2065
aVspace_chest_ik_world_aligned
p2066
aaI01
aF0
aF3.5527136788005009e-15
aF0
aF-1.9083328088781101e-14
aF-3.2501293151205313e-14
aF-5.9635400277440397e-16
aF1
aF1
aF1
aF0
aF0
aa(lp2067
Vdagger_1_l_space_switcher
p2068
a(lp2069
Vvisibility
p2070
aVtranslateX
p2071
aVtranslateY
p2072
aVtranslateZ
p2073
aVrotateX
p2074
aVrotateY
p2075
aVrotateZ
p2076
aVscaleX
p2077
aVscaleY
p2078
aVscaleZ
p2079
aVspace_world
p2080
aaI01
aF1.4210854715202004e-14
aF3.5527136788005009e-15
aF0
aF-6.3611093629270335e-15
aF6.3611093629270335e-15
aF6.3611093629270335e-15
aF0.99999999999999989
aF1
aF0.99999999999999989
aF0
aa(lp2081
Vdagger_1_r_space_switcher
p2082
a(lp2083
Vvisibility
p2084
aVtranslateX
p2085
aVtranslateY
p2086
aVtranslateZ
p2087
aVrotateX
p2088
aVrotateY
p2089
aVrotateZ
p2090
aVscaleX
p2091
aVscaleY
p2092
aVscaleZ
p2093
aVspace_world
p2094
aaI01
aF0
aF1.4210854715202004e-14
aF-3.5527136788005009e-14
aF4.4139062980501586e-32
aF3.1805546814635168e-15
aF1.5902773407317584e-15
aF1
aF1
aF1
aF0
aa(lp2095
Vdagger_2_l_space_switcher
p2096
a(lp2097
Vvisibility
p2098
aVtranslateX
p2099
aVtranslateY
p2100
aVtranslateZ
p2101
aVrotateX
p2102
aVrotateY
p2103
aVrotateZ
p2104
aVscaleX
p2105
aVscaleY
p2106
aVscaleZ
p2107
aVspace_world
p2108
aaI01
aF1.4210854715202004e-14
aF3.5527136788005009e-15
aF0
aF-6.3611093629270335e-15
aF6.3611093629270335e-15
aF6.3611093629270335e-15
aF0.99999999999999989
aF1
aF0.99999999999999989
aF0
aa(lp2109
Vdagger_2_r_space_switcher
p2110
a(lp2111
Vvisibility
p2112
aVtranslateX
p2113
aVtranslateY
p2114
aVtranslateZ
p2115
aVrotateX
p2116
aVrotateY
p2117
aVrotateZ
p2118
aVscaleX
p2119
aVscaleY
p2120
aVscaleZ
p2121
aVspace_world
p2122
aaI01
aF0
aF1.4210854715202004e-14
aF-3.5527136788005009e-14
aF4.4139062980501586e-32
aF3.1805546814635168e-15
aF1.5902773407317584e-15
aF1
aF1
aF1
aF0
aa(lp2123
Vdagger_3_l_space_switcher
p2124
a(lp2125
Vvisibility
p2126
aVtranslateX
p2127
aVtranslateY
p2128
aVtranslateZ
p2129
aVrotateX
p2130
aVrotateY
p2131
aVrotateZ
p2132
aVscaleX
p2133
aVscaleY
p2134
aVscaleZ
p2135
aVspace_world
p2136
aaI01
aF1.4210854715202004e-14
aF3.5527136788005009e-15
aF0
aF-6.3611093629270335e-15
aF6.3611093629270335e-15
aF6.3611093629270335e-15
aF0.99999999999999989
aF1
aF0.99999999999999989
aF0
aa(lp2137
Vdagger_3_r_space_switcher
p2138
a(lp2139
Vvisibility
p2140
aVtranslateX
p2141
aVtranslateY
p2142
aVtranslateZ
p2143
aVrotateX
p2144
aVrotateY
p2145
aVrotateZ
p2146
aVscaleX
p2147
aVscaleY
p2148
aVscaleZ
p2149
aVspace_world
p2150
aaI01
aF0
aF1.4210854715202004e-14
aF-3.5527136788005009e-14
aF4.4139062980501586e-32
aF3.1805546814635168e-15
aF1.5902773407317584e-15
aF1
aF1
aF1
aF0
aa(lp2151
Vforearm_plate_1_l_space_switcher
p2152
a(lp2153
Vvisibility
p2154
aVtranslateX
p2155
aVtranslateY
p2156
aVtranslateZ
p2157
aVrotateX
p2158
aVrotateY
p2159
aVrotateZ
p2160
aVscaleX
p2161
aVscaleY
p2162
aVscaleZ
p2163
aVspace_world
p2164
aaI01
aF-1.4210854715202004e-14
aF3.5527136788005009e-15
aF-2.8421709430404007e-14
aF1.2722218725854067e-14
aF7.9513867036587935e-15
aF-9.5416640443905487e-15
aF1
aF1.0000000000000002
aF1.0000000000000002
aF0
aa(lp2165
Vforearm_plate_1_r_space_switcher
p2166
a(lp2167
Vvisibility
p2168
aVtranslateX
p2169
aVtranslateY
p2170
aVtranslateZ
p2171
aVrotateX
p2172
aVrotateY
p2173
aVrotateZ
p2174
aVscaleX
p2175
aVscaleY
p2176
aVscaleZ
p2177
aVspace_world
p2178
aaI01
aF2.8421709430404007e-14
aF1.4210854715202004e-14
aF1.4210854715202004e-14
aF-2.5444437451708128e-14
aF6.3611093629270288e-15
aF-1.5902773407317581e-14
aF0.99999999999999989
aF0.99999999999999989
aF1
aF0
aa(lp2179
Vforearm_plate_2_l_space_switcher
p2180
a(lp2181
Vvisibility
p2182
aVtranslateX
p2183
aVtranslateY
p2184
aVtranslateZ
p2185
aVrotateX
p2186
aVrotateY
p2187
aVrotateZ
p2188
aVscaleX
p2189
aVscaleY
p2190
aVscaleZ
p2191
aVspace_world
p2192
aaI01
aF-1.4210854715202004e-14
aF3.5527136788005009e-15
aF2.8421709430404007e-14
aF-6.3611093629270335e-15
aF-8.8278125961003172e-32
aF-1.5902773407317584e-15
aF1
aF1.0000000000000002
aF1.0000000000000002
aF0
aa(lp2193
Vforearm_plate_2_r_space_switcher
p2194
a(lp2195
Vvisibility
p2196
aVtranslateX
p2197
aVtranslateY
p2198
aVtranslateZ
p2199
aVrotateX
p2200
aVrotateY
p2201
aVrotateZ
p2202
aVscaleX
p2203
aVscaleY
p2204
aVscaleZ
p2205
aVspace_world
p2206
aaI01
aF7.1054273576010019e-15
aF1.4210854715202004e-14
aF-4.2632564145606011e-14
aF-2.5444437451708128e-14
aF6.3611093629270288e-15
aF-1.5902773407317581e-14
aF0.99999999999999989
aF0.99999999999999989
aF1
aF0
aa(lp2207
Vforearm_plate_3_l_space_switcher
p2208
a(lp2209
Vvisibility
p2210
aVtranslateX
p2211
aVtranslateY
p2212
aVtranslateZ
p2213
aVrotateX
p2214
aVrotateY
p2215
aVrotateZ
p2216
aVscaleX
p2217
aVscaleY
p2218
aVscaleZ
p2219
aVspace_world
p2220
aaI01
aF1.4210854715202004e-14
aF-3.5527136788005009e-15
aF0
aF-1.5902773407317584e-14
aF-1.1131941385122307e-14
aF6.3611093629270351e-15
aF0.99999999999999989
aF0.99999999999999978
aF0.99999999999999978
aF0
aa(lp2221
Vforearm_plate_3_r_space_switcher
p2222
a(lp2223
Vvisibility
p2224
aVtranslateX
p2225
aVtranslateY
p2226
aVtranslateZ
p2227
aVrotateX
p2228
aVrotateY
p2229
aVrotateZ
p2230
aVscaleX
p2231
aVscaleY
p2232
aVscaleZ
p2233
aVspace_world
p2234
aaI01
aF0
aF2.8421709430404007e-14
aF-6.3948846218409017e-14
aF3.8166656177562201e-14
aF-7.4153625807242668e-30
aF2.2263882770244617e-14
aF1
aF1
aF0.99999999999999989
aF0
aa(lp2235
Vik_elbow_l_anim_space_switcher
p2236
a(lp2237
Vvisibility
p2238
aVtranslateX
p2239
aVtranslateY
p2240
aVtranslateZ
p2241
aVrotateX
p2242
aVrotateY
p2243
aVrotateZ
p2244
aVscaleX
p2245
aVscaleY
p2246
aVscaleZ
p2247
aVspace_world
p2248
aVspace_body_anim
p2249
aVspace_chest_ik_anim
p2250
aaI00
aF0
aF0
aF0
aF0
aF0
aF0
aF1
aF1
aF1
aF0
aF0
aF0
aa(lp2251
Vik_elbow_r_anim_space_switcher
p2252
a(lp2253
Vvisibility
p2254
aVtranslateX
p2255
aVtranslateY
p2256
aVtranslateZ
p2257
aVrotateX
p2258
aVrotateY
p2259
aVrotateZ
p2260
aVscaleX
p2261
aVscaleY
p2262
aVscaleZ
p2263
aVspace_world
p2264
aVspace_body_anim
p2265
aVspace_chest_ik_anim
p2266
aaI00
aF0
aF0
aF0
aF0
aF0
aF0
aF1
aF1
aF1
aF0
aF0
aF0
aa(lp2267
Vik_foot_anim_l_space_switcher
p2268
a(lp2269
Vvisibility
p2270
aVtranslateX
p2271
aVtranslateY
p2272
aVtranslateZ
p2273
aVrotateX
p2274
aVrotateY
p2275
aVrotateZ
p2276
aVscaleX
p2277
aVscaleY
p2278
aVscaleZ
p2279
aVspace_world
p2280
aVspace_body_anim
p2281
aaI01
aF0
aF0
aF0
aF0
aF0
aF0
aF1
aF1
aF1
aF0
aF0
aa(lp2282
Vik_foot_anim_r_space_switcher
p2283
a(lp2284
Vvisibility
p2285
aVtranslateX
p2286
aVtranslateY
p2287
aVtranslateZ
p2288
aVrotateX
p2289
aVrotateY
p2290
aVrotateZ
p2291
aVscaleX
p2292
aVscaleY
p2293
aVscaleZ
p2294
aVspace_world
p2295
aVspace_body_anim
p2296
aaI01
aF0
aF0
aF0
aF0
aF0
aF0
aF1
aF1
aF1
aF0
aF0
aa(lp2297
Vik_wrist_l_anim_space_switcher
p2298
a(lp2299
Vvisibility
p2300
aVtranslateX
p2301
aVtranslateY
p2302
aVtranslateZ
p2303
aVrotateX
p2304
aVrotateY
p2305
aVrotateZ
p2306
aVscaleX
p2307
aVscaleY
p2308
aVscaleZ
p2309
aVspace_world
p2310
aVspace_body_anim
p2311
aVspace_head_fk_anim
p2312
aVspace_chest_ik_anim
p2313
aaI00
aF0
aF0
aF0
aF0
aF0
aF0
aF1
aF1
aF1
aF0
aF0
aF0
aF0
aa(lp2314
Vik_wrist_r_anim_space_switcher
p2315
a(lp2316
Vvisibility
p2317
aVtranslateX
p2318
aVtranslateY
p2319
aVtranslateZ
p2320
aVrotateX
p2321
aVrotateY
p2322
aVrotateZ
p2323
aVscaleX
p2324
aVscaleY
p2325
aVscaleZ
p2326
aVspace_world
p2327
aVspace_body_anim
p2328
aVspace_head_fk_anim
p2329
aVspace_chest_ik_anim
p2330
aaI00
aF0
aF0
aF0
aF0
aF0
aF0
aF1
aF1
aF1
aF0
aF0
aF0
aF0
aa(lp2331
Vl_global_ik_anim_space_switcher
p2332
a(lp2333
Vvisibility
p2334
aVtranslateX
p2335
aVtranslateY
p2336
aVtranslateZ
p2337
aVrotateX
p2338
aVrotateY
p2339
aVrotateZ
p2340
aVscaleX
p2341
aVscaleY
p2342
aVscaleZ
p2343
aVspace_world
p2344
aaI01
aF7.1054273576010019e-15
aF3.5527136788005009e-15
aF0
aF-6.9972202992197363e-14
aF4.7708320221952791e-15
aF6.3611093629270304e-15
aF1
aF1
aF1
aF0
aa(lp2345
Vmaster_anim_space_switcher
p2346
a(lp2347
Vvisibility
p2348
aVtranslateX
p2349
aVtranslateY
p2350
aVtranslateZ
p2351
aVrotateX
p2352
aVrotateY
p2353
aVrotateZ
p2354
aVscaleX
p2355
aVscaleY
p2356
aVscaleZ
p2357
aVspace_world
p2358
aaI01
aF0
aF0
aF0
aF0
aF0
aF0
aF1
aF1
aF1
aF0
aa(lp2359
Vorb_01_l_space_switcher
p2360
a(lp2361
Vvisibility
p2362
aVtranslateX
p2363
aVtranslateY
p2364
aVtranslateZ
p2365
aVrotateX
p2366
aVrotateY
p2367
aVrotateZ
p2368
aVscaleX
p2369
aVscaleY
p2370
aVscaleZ
p2371
aVspace_world
p2372
aVblendParent1
p2373
aaI01
aF7.776418877966683
aF-1.6633426707432628
aF-23.368093059296399
aF23.054256704746305
aF20.601684077678705
aF-30.069316005326556
aF1
aF1
aF1
aF0
aF1
aa(lp2374
Vorb_01_r_space_switcher
p2375
a(lp2376
Vvisibility
p2377
aVtranslateX
p2378
aVtranslateY
p2379
aVtranslateZ
p2380
aVrotateX
p2381
aVrotateY
p2382
aVrotateZ
p2383
aVscaleX
p2384
aVscaleY
p2385
aVscaleZ
p2386
aVspace_world
p2387
aVblendParent1
p2388
aaI01
aF7.776418877966683
aF-1.6633426707432628
aF-23.368093059296399
aF23.054256704746305
aF20.601684077678705
aF-30.069316005326556
aF1
aF1
aF1
aF0
aF1
aa(lp2389
Vorb_02_l_space_switcher
p2390
a(lp2391
Vvisibility
p2392
aVtranslateX
p2393
aVtranslateY
p2394
aVtranslateZ
p2395
aVrotateX
p2396
aVrotateY
p2397
aVrotateZ
p2398
aVscaleX
p2399
aVscaleY
p2400
aVscaleZ
p2401
aVspace_world
p2402
aVblendParent1
p2403
aaI01
aF7.776418877966683
aF-1.6633426707432628
aF-23.368093059296399
aF23.054256704746305
aF20.601684077678705
aF-30.069316005326556
aF1
aF1
aF1
aF0
aF1
aa(lp2404
Vorb_02_r_space_switcher
p2405
a(lp2406
Vvisibility
p2407
aVtranslateX
p2408
aVtranslateY
p2409
aVtranslateZ
p2410
aVrotateX
p2411
aVrotateY
p2412
aVrotateZ
p2413
aVscaleX
p2414
aVscaleY
p2415
aVscaleZ
p2416
aVspace_world
p2417
aVblendParent1
p2418
aaI01
aF7.776418877966683
aF-1.6633426707432628
aF-23.368093059296399
aF23.054256704746305
aF20.601684077678705
aF-30.069316005326556
aF1
aF1
aF1
aF0
aF1
aa(lp2419
Vorb_03_l_space_switcher
p2420
a(lp2421
Vvisibility
p2422
aVtranslateX
p2423
aVtranslateY
p2424
aVtranslateZ
p2425
aVrotateX
p2426
aVrotateY
p2427
aVrotateZ
p2428
aVscaleX
p2429
aVscaleY
p2430
aVscaleZ
p2431
aVspace_world
p2432
aVblendParent1
p2433
aaI01
aF7.776418877966683
aF-1.6633426707432628
aF-23.368093059296399
aF23.054256704746305
aF20.601684077678705
aF-30.069316005326556
aF1
aF1
aF1
aF0
aF1
aa(lp2434
Vorb_03_r_space_switcher
p2435
a(lp2436
Vvisibility
p2437
aVtranslateX
p2438
aVtranslateY
p2439
aVtranslateZ
p2440
aVrotateX
p2441
aVrotateY
p2442
aVrotateZ
p2443
aVscaleX
p2444
aVscaleY
p2445
aVscaleZ
p2446
aVspace_world
p2447
aVblendParent1
p2448
aaI01
aF7.776418877966683
aF-1.6633426707432628
aF-23.368093059296399
aF23.054256704746305
aF20.601684077678705
aF-30.069316005326556
aF1
aF1
aF1
aF0
aF1
aa(lp2449
Vorb_04_l_space_switcher
p2450
a(lp2451
Vvisibility
p2452
aVtranslateX
p2453
aVtranslateY
p2454
aVtranslateZ
p2455
aVrotateX
p2456
aVrotateY
p2457
aVrotateZ
p2458
aVscaleX
p2459
aVscaleY
p2460
aVscaleZ
p2461
aVspace_world
p2462
aVblendParent1
p2463
aaI01
aF7.776418877966683
aF-1.6633426707432628
aF-23.368093059296399
aF23.054256704746305
aF20.601684077678705
aF-30.069316005326556
aF1
aF1
aF1
aF0
aF1
aa(lp2464
Vorb_04_r_space_switcher
p2465
a(lp2466
Vvisibility
p2467
aVtranslateX
p2468
aVtranslateY
p2469
aVtranslateZ
p2470
aVrotateX
p2471
aVrotateY
p2472
aVrotateZ
p2473
aVscaleX
p2474
aVscaleY
p2475
aVscaleZ
p2476
aVspace_world
p2477
aVblendParent1
p2478
aaI01
aF7.776418877966683
aF-1.6633426707432628
aF-23.368093059296399
aF23.054256704746305
aF20.601684077678705
aF-30.069316005326556
aF1
aF1
aF1
aF0
aF1
aa(lp2479
Vorb_05_l_space_switcher
p2480
a(lp2481
Vvisibility
p2482
aVtranslateX
p2483
aVtranslateY
p2484
aVtranslateZ
p2485
aVrotateX
p2486
aVrotateY
p2487
aVrotateZ
p2488
aVscaleX
p2489
aVscaleY
p2490
aVscaleZ
p2491
aVspace_world
p2492
aVblendParent1
p2493
aaI01
aF7.776418877966683
aF-1.6633426707432628
aF-23.368093059296399
aF23.054256704746305
aF20.601684077678705
aF-30.069316005326556
aF1
aF1
aF1
aF0
aF1
aa(lp2494
Vorb_05_r_space_switcher
p2495
a(lp2496
Vvisibility
p2497
aVtranslateX
p2498
aVtranslateY
p2499
aVtranslateZ
p2500
aVrotateX
p2501
aVrotateY
p2502
aVrotateZ
p2503
aVscaleX
p2504
aVscaleY
p2505
aVscaleZ
p2506
aVspace_world
p2507
aVblendParent1
p2508
aaI01
aF7.776418877966683
aF-1.6633426707432628
aF-23.368093059296399
aF23.054256704746305
aF20.601684077678705
aF-30.069316005326556
aF1
aF1
aF1
aF0
aF1
aa(lp2509
Vorb_06_l_space_switcher
p2510
a(lp2511
Vvisibility
p2512
aVtranslateX
p2513
aVtranslateY
p2514
aVtranslateZ
p2515
aVrotateX
p2516
aVrotateY
p2517
aVrotateZ
p2518
aVscaleX
p2519
aVscaleY
p2520
aVscaleZ
p2521
aVspace_world
p2522
aVblendParent1
p2523
aaI01
aF7.776418877966683
aF-1.6633426707432628
aF-23.368093059296399
aF23.054256704746305
aF20.601684077678705
aF-30.069316005326556
aF1
aF1
aF1
aF0
aF1
aa(lp2524
Vorb_06_r_space_switcher
p2525
a(lp2526
Vvisibility
p2527
aVtranslateX
p2528
aVtranslateY
p2529
aVtranslateZ
p2530
aVrotateX
p2531
aVrotateY
p2532
aVrotateZ
p2533
aVscaleX
p2534
aVscaleY
p2535
aVscaleZ
p2536
aVspace_world
p2537
aVblendParent1
p2538
aaI01
aF7.776418877966683
aF-1.6633426707432628
aF-23.368093059296399
aF23.054256704746305
aF20.601684077678705
aF-30.069316005326556
aF1
aF1
aF1
aF0
aF1
aa(lp2539
Vorb_07_l_space_switcher
p2540
a(lp2541
Vvisibility
p2542
aVtranslateX
p2543
aVtranslateY
p2544
aVtranslateZ
p2545
aVrotateX
p2546
aVrotateY
p2547
aVrotateZ
p2548
aVscaleX
p2549
aVscaleY
p2550
aVscaleZ
p2551
aVspace_world
p2552
aVblendParent1
p2553
aaI01
aF7.776418877966683
aF-1.6633426707432628
aF-23.368093059296399
aF23.054256704746305
aF20.601684077678705
aF-30.069316005326556
aF1
aF1
aF1
aF0
aF1
aa(lp2554
Vorb_07_r_space_switcher
p2555
a(lp2556
Vvisibility
p2557
aVtranslateX
p2558
aVtranslateY
p2559
aVtranslateZ
p2560
aVrotateX
p2561
aVrotateY
p2562
aVrotateZ
p2563
aVscaleX
p2564
aVscaleY
p2565
aVscaleZ
p2566
aVspace_world
p2567
aVblendParent1
p2568
aaI01
aF7.776418877966683
aF-1.6633426707432628
aF-23.368093059296399
aF23.054256704746305
aF20.601684077678705
aF-30.069316005326556
aF1
aF1
aF1
aF0
aF1
aa(lp2569
Vorb_08_l_space_switcher
p2570
a(lp2571
Vvisibility
p2572
aVtranslateX
p2573
aVtranslateY
p2574
aVtranslateZ
p2575
aVrotateX
p2576
aVrotateY
p2577
aVrotateZ
p2578
aVscaleX
p2579
aVscaleY
p2580
aVscaleZ
p2581
aVspace_world
p2582
aVblendParent1
p2583
aaI01
aF7.776418877966683
aF-1.6633426707432628
aF-23.368093059296399
aF23.054256704746305
aF20.601684077678705
aF-30.069316005326556
aF1
aF1
aF1
aF0
aF1
aa(lp2584
Vorb_08_r_space_switcher
p2585
a(lp2586
Vvisibility
p2587
aVtranslateX
p2588
aVtranslateY
p2589
aVtranslateZ
p2590
aVrotateX
p2591
aVrotateY
p2592
aVrotateZ
p2593
aVscaleX
p2594
aVscaleY
p2595
aVscaleZ
p2596
aVspace_world
p2597
aVblendParent1
p2598
aaI01
aF7.776418877966683
aF-1.6633426707432628
aF-23.368093059296399
aF23.054256704746305
aF20.601684077678705
aF-30.069316005326556
aF1
aF1
aF1
aF0
aF1
aa(lp2599
Vorb_09_l_space_switcher
p2600
a(lp2601
Vvisibility
p2602
aVtranslateX
p2603
aVtranslateY
p2604
aVtranslateZ
p2605
aVrotateX
p2606
aVrotateY
p2607
aVrotateZ
p2608
aVscaleX
p2609
aVscaleY
p2610
aVscaleZ
p2611
aVspace_world
p2612
aVblendParent1
p2613
aaI01
aF7.776418877966683
aF-1.6633426707432628
aF-23.368093059296399
aF23.054256704746305
aF20.601684077678705
aF-30.069316005326556
aF1
aF1
aF1
aF0
aF1
aa(lp2614
Vorb_09_r_space_switcher
p2615
a(lp2616
Vvisibility
p2617
aVtranslateX
p2618
aVtranslateY
p2619
aVtranslateZ
p2620
aVrotateX
p2621
aVrotateY
p2622
aVrotateZ
p2623
aVscaleX
p2624
aVscaleY
p2625
aVscaleZ
p2626
aVspace_world
p2627
aVblendParent1
p2628
aaI01
aF7.776418877966683
aF-1.6633426707432628
aF-23.368093059296399
aF23.054256704746305
aF20.601684077678705
aF-30.069316005326556
aF1
aF1
aF1
aF0
aF1
aa(lp2629
Vorb_10_l_space_switcher
p2630
a(lp2631
Vvisibility
p2632
aVtranslateX
p2633
aVtranslateY
p2634
aVtranslateZ
p2635
aVrotateX
p2636
aVrotateY
p2637
aVrotateZ
p2638
aVscaleX
p2639
aVscaleY
p2640
aVscaleZ
p2641
aVspace_world
p2642
aVblendParent1
p2643
aaI01
aF7.776418877966683
aF-1.6633426707432628
aF-23.368093059296399
aF23.054256704746305
aF20.601684077678705
aF-30.069316005326556
aF1
aF1
aF1
aF0
aF1
aa(lp2644
Vorb_10_r_space_switcher
p2645
a(lp2646
Vvisibility
p2647
aVtranslateX
p2648
aVtranslateY
p2649
aVtranslateZ
p2650
aVrotateX
p2651
aVrotateY
p2652
aVrotateZ
p2653
aVscaleX
p2654
aVscaleY
p2655
aVscaleZ
p2656
aVspace_world
p2657
aVblendParent1
p2658
aaI01
aF7.776418877966683
aF-1.6633426707432628
aF-23.368093059296399
aF23.054256704746305
aF20.601684077678705
aF-30.069316005326556
aF1
aF1
aF1
aF0
aF1
aa(lp2659
Vorb_11_l_space_switcher
p2660
a(lp2661
Vvisibility
p2662
aVtranslateX
p2663
aVtranslateY
p2664
aVtranslateZ
p2665
aVrotateX
p2666
aVrotateY
p2667
aVrotateZ
p2668
aVscaleX
p2669
aVscaleY
p2670
aVscaleZ
p2671
aVspace_world
p2672
aVblendParent1
p2673
aaI01
aF7.776418877966683
aF-1.6633426707432628
aF-23.368093059296399
aF23.054256704746305
aF20.601684077678705
aF-30.069316005326556
aF1
aF1
aF1
aF0
aF1
aa(lp2674
Vorb_11_r_space_switcher
p2675
a(lp2676
Vvisibility
p2677
aVtranslateX
p2678
aVtranslateY
p2679
aVtranslateZ
p2680
aVrotateX
p2681
aVrotateY
p2682
aVrotateZ
p2683
aVscaleX
p2684
aVscaleY
p2685
aVscaleZ
p2686
aVspace_world
p2687
aVblendParent1
p2688
aaI01
aF7.776418877966683
aF-1.6633426707432628
aF-23.368093059296399
aF23.054256704746305
aF20.601684077678705
aF-30.069316005326556
aF1
aF1
aF1
aF0
aF1
aa(lp2689
Vorb_12_l_space_switcher
p2690
a(lp2691
Vvisibility
p2692
aVtranslateX
p2693
aVtranslateY
p2694
aVtranslateZ
p2695
aVrotateX
p2696
aVrotateY
p2697
aVrotateZ
p2698
aVscaleX
p2699
aVscaleY
p2700
aVscaleZ
p2701
aVspace_world
p2702
aVblendParent1
p2703
aaI01
aF7.776418877966683
aF-1.6633426707432628
aF-23.368093059296399
aF23.054256704746305
aF20.601684077678705
aF-30.069316005326556
aF1
aF1
aF1
aF0
aF1
aa(lp2704
Vorb_12_r_space_switcher
p2705
a(lp2706
Vvisibility
p2707
aVtranslateX
p2708
aVtranslateY
p2709
aVtranslateZ
p2710
aVrotateX
p2711
aVrotateY
p2712
aVrotateZ
p2713
aVscaleX
p2714
aVscaleY
p2715
aVscaleZ
p2716
aVspace_world
p2717
aVblendParent1
p2718
aaI01
aF7.776418877966683
aF-1.6633426707432628
aF-23.368093059296399
aF23.054256704746305
aF20.601684077678705
aF-30.069316005326556
aF1
aF1
aF1
aF0
aF1
aa(lp2719
Vorb_13_l_space_switcher
p2720
a(lp2721
Vvisibility
p2722
aVtranslateX
p2723
aVtranslateY
p2724
aVtranslateZ
p2725
aVrotateX
p2726
aVrotateY
p2727
aVrotateZ
p2728
aVscaleX
p2729
aVscaleY
p2730
aVscaleZ
p2731
aVspace_world
p2732
aVblendParent1
p2733
aaI01
aF7.776418877966683
aF-1.6633426707432628
aF-23.368093059296399
aF23.054256704746305
aF20.601684077678705
aF-30.069316005326556
aF1
aF1
aF1
aF0
aF1
aa(lp2734
Vorb_13_r_space_switcher
p2735
a(lp2736
Vvisibility
p2737
aVtranslateX
p2738
aVtranslateY
p2739
aVtranslateZ
p2740
aVrotateX
p2741
aVrotateY
p2742
aVrotateZ
p2743
aVscaleX
p2744
aVscaleY
p2745
aVscaleZ
p2746
aVspace_world
p2747
aVblendParent1
p2748
aaI01
aF7.776418877966683
aF-1.6633426707432628
aF-23.368093059296399
aF23.054256704746305
aF20.601684077678705
aF-30.069316005326556
aF1
aF1
aF1
aF0
aF1
aa(lp2749
Vorb_14_l_space_switcher
p2750
a(lp2751
Vvisibility
p2752
aVtranslateX
p2753
aVtranslateY
p2754
aVtranslateZ
p2755
aVrotateX
p2756
aVrotateY
p2757
aVrotateZ
p2758
aVscaleX
p2759
aVscaleY
p2760
aVscaleZ
p2761
aVspace_world
p2762
aVblendParent1
p2763
aaI01
aF7.776418877966683
aF-1.6633426707432628
aF-23.368093059296399
aF23.054256704746305
aF20.601684077678705
aF-30.069316005326556
aF1
aF1
aF1
aF0
aF1
aa(lp2764
Vorb_14_r_space_switcher
p2765
a(lp2766
Vvisibility
p2767
aVtranslateX
p2768
aVtranslateY
p2769
aVtranslateZ
p2770
aVrotateX
p2771
aVrotateY
p2772
aVrotateZ
p2773
aVscaleX
p2774
aVscaleY
p2775
aVscaleZ
p2776
aVspace_world
p2777
aVblendParent1
p2778
aaI01
aF7.776418877966683
aF-1.6633426707432628
aF-23.368093059296399
aF23.054256704746305
aF20.601684077678705
aF-30.069316005326556
aF1
aF1
aF1
aF0
aF1
aa(lp2779
Vr_global_ik_anim_space_switcher
p2780
a(lp2781
Vvisibility
p2782
aVtranslateX
p2783
aVtranslateY
p2784
aVtranslateZ
p2785
aVrotateX
p2786
aVrotateY
p2787
aVrotateZ
p2788
aVscaleX
p2789
aVscaleY
p2790
aVscaleZ
p2791
aVspace_world
p2792
aaI01
aF1.4210854715202004e-14
aF-8.8817841970012523e-15
aF-2.8421709430404007e-14
aF-6.6208594470752379e-32
aF9.5416640443905503e-15
aF-7.9513867036587919e-16
aF1
aF1
aF1
aF0
aa(lp2793
Vspine_01_space_switcher
p2794
a(lp2795
Vvisibility
p2796
aVtranslateX
p2797
aVtranslateY
p2798
aVtranslateZ
p2799
aVrotateX
p2800
aVrotateY
p2801
aVrotateZ
p2802
aVscaleX
p2803
aVscaleY
p2804
aVscaleZ
p2805
aVspace_world
p2806
aaI01
aF0
aF2.1316282072803006e-14
aF0
aF-1.2722218725854064e-14
aF-4.7708320221952752e-15
aF-7.1562480332929119e-15
aF1
aF1
aF1
aF0
aa(lp2807
Vsword_1_l_space_switcher
p2808
a(lp2809
Vvisibility
p2810
aVtranslateX
p2811
aVtranslateY
p2812
aVtranslateZ
p2813
aVrotateX
p2814
aVrotateY
p2815
aVrotateZ
p2816
aVscaleX
p2817
aVscaleY
p2818
aVscaleZ
p2819
aVspace_world
p2820
aaI01
aF-2.8421709430404007e-14
aF-1.0658141036401503e-14
aF0
aF1.5902773407317584e-15
aF-3.1805546814635168e-15
aF-2.9817700138720475e-16
aF0.99999999999999989
aF0.99999999999999989
aF1
aF0
aa(lp2821
Vsword_1_r_space_switcher
p2822
a(lp2823
Vvisibility
p2824
aVtranslateX
p2825
aVtranslateY
p2826
aVtranslateZ
p2827
aVrotateX
p2828
aVrotateY
p2829
aVrotateZ
p2830
aVscaleX
p2831
aVscaleY
p2832
aVscaleZ
p2833
aVspace_world
p2834
aaI01
aF0
aF3.5527136788005009e-15
aF0
aF1.2722218725854062e-14
aF-1.5902773407317596e-14
aF5.0888874903416281e-14
aF0.99999999999999989
aF0.99999999999999978
aF0.99999999999999989
aF0
aa(lp2835
Vsword_2_l_space_switcher
p2836
a(lp2837
Vvisibility
p2838
aVtranslateX
p2839
aVtranslateY
p2840
aVtranslateZ
p2841
aVrotateX
p2842
aVrotateY
p2843
aVrotateZ
p2844
aVscaleX
p2845
aVscaleY
p2846
aVscaleZ
p2847
aVspace_world
p2848
aaI01
aF1.4210854715202004e-14
aF0
aF-5.6843418860808015e-14
aF3.1805546814635168e-15
aF-6.3611093629270335e-15
aF-2.9817700138720489e-16
aF1
aF1
aF1.0000000000000002
aF0
aa(lp2849
Vsword_2_r_space_switcher
p2850
a(lp2851
Vvisibility
p2852
aVtranslateX
p2853
aVtranslateY
p2854
aVtranslateZ
p2855
aVrotateX
p2856
aVrotateY
p2857
aVrotateZ
p2858
aVscaleX
p2859
aVscaleY
p2860
aVscaleZ
p2861
aVspace_world
p2862
aaI01
aF1.4210854715202004e-14
aF2.8421709430404007e-14
aF-2.1316282072803006e-14
aF-2.7034714792439894e-14
aF-7.9513867036587951e-15
aF-1.2722218725854065e-14
aF1
aF1
aF1
aF0
aa(lp2863
Vweapon_l_space_switcher
p2864
a(lp2865
Vvisibility
p2866
aVtranslateX
p2867
aVtranslateY
p2868
aVtranslateZ
p2869
aVrotateX
p2870
aVrotateY
p2871
aVrotateZ
p2872
aVscaleX
p2873
aVscaleY
p2874
aVscaleZ
p2875
aVspace_world
p2876
aaI01
aF-2.8421709430404007e-14
aF2.8421709430404007e-14
aF0
aF-2.2069531490250804e-32
aF-7.9513867036587939e-16
aF3.1805546814635176e-15
aF1.0000000000000002
aF1.0000000000000002
aF1.0000000000000002
aF0
aa(lp2877
Vweapon_r_space_switcher
p2878
a(lp2879
Vvisibility
p2880
aVtranslateX
p2881
aVtranslateY
p2882
aVtranslateZ
p2883
aVrotateX
p2884
aVrotateY
p2885
aVrotateZ
p2886
aVscaleX
p2887
aVscaleY
p2888
aVscaleZ
p2889
aVspace_world
p2890
aaI01
aF-1.4210854715202004e-14
aF-2.8421709430404007e-14
aF7.1054273576010019e-15
aF-1.5902773407317584e-14
aF3.1805546814635116e-15
aF-3.4986101496098681e-14
aF1
aF1
aF1
aF0
aa.