(lp1
(lp2
S'head_fk_anim'
p3
a(lp4
VrotateX
p5
aVrotateY
p6
aVrotateZ
p7
aVscaleX
p8
aVscaleY
p9
aVscaleZ
p10
aVfkOrientation
p11
aaF23.192127268531561
aF1.2180563974368752
aF15.409649031781484
aF1
aF1
aF1
aI0
aa(lp12
S'neck_01_fk_anim'
p13
a(lp14
VrotateX
p15
aVrotateY
p16
aVrotateZ
p17
aVscaleX
p18
aVscaleY
p19
aVscaleZ
p20
aVfkOrientation
p21
aaF3.5942677434011587
aF4.9658773053593501
aF10.687546100978716
aF1
aF1
aF1
aI0
aa(lp22
S'neck_02_fk_anim'
p23
a(lp24
VrotateX
p25
aVrotateY
p26
aVrotateZ
p27
aVscaleX
p28
aVscaleY
p29
aVscaleZ
p30
aaF1.9111718
aF0
aF1.4341434
aF1
aF1
aF1
aa(lp31
S'spine_01_anim'
p32
a(lp33
Vlength
p34
aVtranslateY
p35
aVtranslateZ
p36
aVrotateX
p37
aVrotateY
p38
aVrotateZ
p39
aaF0
aF0
aF0
aF-2.5849918999999999
aF1.105612
aF-13.264756999999999
aa(lp40
S'spine_02_anim'
p41
a(lp42
Vlength
p43
aVtranslateY
p44
aVtranslateZ
p45
aVrotateX
p46
aVrotateY
p47
aVrotateZ
p48
aVspine_3_Influence
p49
aVspine_1_Influence
p50
aVdriven
p51
aaF0
aF0
aF0
aF-4.7752351760864258
aF1.9314582347869875
aF-7.9767379760742187
aF0
aF0
aF0
aa(lp52
S'spine_03_anim'
p53
a(lp54
Vlength
p55
aVtranslateY
p56
aVtranslateZ
p57
aVrotateX
p58
aVrotateY
p59
aVrotateZ
p60
aaF0
aF0
aF0
aF-1.3367484000000001
aF-0.33462571000000002
aF-4.2228988000000003
aa(lp61
S'spine_04_anim'
p62
a(lp63
Vlength
p64
aVtranslateY
p65
aVtranslateZ
p66
aVrotateX
p67
aVrotateY
p68
aVrotateZ
p69
aVspine_5_Influence
p70
aVspine_3_Influence
p71
aVdriven
p72
aaF0
aF0
aF0
aF-1.7601758241653442
aF0.068892538547515869
aF-6.2653980255126953
aF0
aF0
aF0
aa(lp73
S'spine_05_anim'
p74
a(lp75
Vlength
p76
aVtranslateY
p77
aVtranslateZ
p78
aVrotateX
p79
aVrotateY
p80
aVrotateZ
p81
aaF0
aF0
aF0
aF-0.6797996300000001
aF-0.72675416000000004
aF-11.554653999999999
aa(lp82
S'mid_ik_anim'
p83
a(lp84
VtranslateX
p85
aVtranslateY
p86
aVtranslateZ
p87
aVrotateX
p88
aVrotateY
p89
aVrotateZ
p90
aaF-1.5695287
aF-3.1710834000000001
aF-0.21227976000000001
aF-5.1760010999999997
aF1.6528946
aF-17.750259
aa(lp91
S'chest_ik_anim'
p92
a(lp93
VtranslateX
p94
aVtranslateY
p95
aVtranslateZ
p96
aVrotateX
p97
aVrotateY
p98
aVrotateZ
p99
aVstretch
p100
aVsquash
p101
aVtwist_amount
p102
aVspine_01_twistAmount
p103
aVspine_02_twistAmount
p104
aVspine_03_twistAmount
p105
aVspine_04_twistAmount
p106
aVautoSpine
p107
aVrotationInfluence
p108
aaF-2.181958334111691
aF-10.889644347283925
aF1.2790379433379848
aF-11.941314999999999
aF3.1395852
aF-25.835642
aF1
aF0
aF1
aF0.20000000000000001
aF0.40000000000000002
aF0.59999999999999998
aF0.80000000000000004
aF0
aF0
aa(lp109
S'body_anim'
p110
a(lp111
VtranslateX
p112
aVtranslateY
p113
aVtranslateZ
p114
aVrotateX
p115
aVrotateY
p116
aVrotateZ
p117
aaF-10.90558
aF9.7102156999999991
aF-2.3105332999999999
aF-20.738634090579481
aF1.7231648351859838
aF-7.0535784310248157
aa(lp118
S'hip_anim'
p119
a(lp120
VtranslateX
p121
aVtranslateY
p122
aVtranslateZ
p123
aVrotateX
p124
aVrotateY
p125
aVrotateZ
p126
aVlTwistCtrlVis
p127
aVlCalfTwistCtrlVis
p128
aVrTwistCtrlVis
p129
aVrCalfTwistCtrlVis
p130
aVautoHips
p131
aaF0
aF0
aF0
aF0
aF0
aF0
aI00
aI00
aI00
aI00
aF0
aa(lp132
S'clavicle_l_anim'
p133
a(lp134
VtranslateX
p135
aVtranslateY
p136
aVtranslateZ
p137
aVautoShoulders
p138
aVtwistCtrlVis
p139
aVtwistCtrlVisLower
p140
aaF-0.030278896
aF-2.6302466999999998
aF1.3499642594028447
aF0
aI00
aI00
aa(lp141
S'clavicle_r_anim'
p142
a(lp143
VtranslateX
p144
aVtranslateY
p145
aVtranslateZ
p146
aVautoShoulders
p147
aVtwistCtrlVis
p148
aVtwistCtrlVisLower
p149
aaF-0.10375987
aF-1.280573777887299
aF1.5583757098046269
aF0
aI00
aI00
aa(lp150
S'fk_arm_l_anim'
p151
a(lp152
VtranslateX
p153
aVtranslateY
p154
aVtranslateZ
p155
aVrotateX
p156
aVrotateY
p157
aVrotateZ
p158
aaF0
aF0
aF0
aF-69.715252000000007
aF25.653949999999998
aF-88.826582999999999
aa(lp159
S'fk_arm_r_anim'
p160
a(lp161
VtranslateX
p162
aVtranslateY
p163
aVtranslateZ
p164
aVrotateX
p165
aVrotateY
p166
aVrotateZ
p167
aaF0
aF0
aF0
aF-9.6403318999999996
aF62.757095000000007
aF-26.242750000000001
aa(lp168
S'fk_elbow_l_anim'
p169
a(lp170
VtranslateX
p171
aVtranslateY
p172
aVtranslateZ
p173
aVrotateX
p174
aVrotateY
p175
aVrotateZ
p176
aaF0
aF0
aF0
aF2.6900322000000001
aF0.92739128999999998
aF-65.532859999999999
aa(lp177
S'fk_elbow_r_anim'
p178
a(lp179
VtranslateX
p180
aVtranslateY
p181
aVtranslateZ
p182
aVrotateX
p183
aVrotateY
p184
aVrotateZ
p185
aaF0
aF0
aF0
aF-16.525653999999999
aF11.154802999999999
aF249.90212000000002
aa(lp186
S'fk_wrist_l_anim'
p187
a(lp188
VtranslateX
p189
aVtranslateY
p190
aVtranslateZ
p191
aVrotateX
p192
aVrotateY
p193
aVrotateZ
p194
aaF0
aF0
aF0
aF-97.777698000000001
aF-5.1905571000000004
aF3.7158584000000001
aa(lp195
S'fk_wrist_r_anim'
p196
a(lp197
VtranslateX
p198
aVtranslateY
p199
aVtranslateZ
p200
aVrotateX
p201
aVrotateY
p202
aVrotateZ
p203
aaF0
aF0
aF0
aF1.2877023000000001
aF9.6998365999999994
aF-2.1428311
aa(lp204
S'ik_elbow_l_anim'
p205
a(lp206
VtranslateX
p207
aVtranslateY
p208
aVtranslateZ
p209
aaF-25.229465349702021
aF-36.230735680546452
aF-43.723935621629892
aa(lp210
S'ik_elbow_r_anim'
p211
a(lp212
VtranslateX
p213
aVtranslateY
p214
aVtranslateZ
p215
aaF22.003464234949224
aF11.168861879867292
aF-31.089453793339558
aa(lp216
S'ik_wrist_l_anim'
p217
a(lp218
VtranslateX
p219
aVtranslateY
p220
aVtranslateZ
p221
aVrotateX
p222
aVrotateY
p223
aVrotateZ
p224
aVstretch
p225
aVsquash
p226
aVside
p227
aVmid_bend
p228
aVmid_swivel
p229
aVtip_pivot
p230
aVtip_swivel
p231
aaF-72.969452998928688
aF-47.571461862049333
aF-39.24074436320798
aF97.320806181721693
aF-172.8327917141311
aF42.497013559778154
aF0
aF0
aF0
aF0
aF0
aF0
aF0
aa(lp232
S'ik_wrist_r_anim'
p233
a(lp234
VtranslateX
p235
aVtranslateY
p236
aVtranslateZ
p237
aVrotateX
p238
aVrotateY
p239
aVrotateZ
p240
aVstretch
p241
aVsquash
p242
aVside
p243
aVmid_bend
p244
aVmid_swivel
p245
aVtip_pivot
p246
aVtip_swivel
p247
aaF51.067423479841345
aF-5.802726262765189
aF-35.812961810171892
aF91.671527999999995
aF-178.69499999999999
aF-87.528023000000005
aF0
aF0
aF0
aF0
aF0
aF0
aF0
aa(lp248
S'fk_thigh_l_anim'
p249
a(lp250
VrotateX
p251
aVrotateY
p252
aVrotateZ
p253
aaF1.1311612
aF-17.981337
aF43.790047000000001
aa(lp254
S'fk_thigh_r_anim'
p255
a(lp256
VrotateX
p257
aVrotateY
p258
aVrotateZ
p259
aaF-1.7677320000000001
aF-12.040832999999999
aF19.059584000000001
aa(lp260
S'fk_calf_l_anim'
p261
a(lp262
VrotateX
p263
aVrotateY
p264
aVrotateZ
p265
aaF0.38451958000000003
aF-1.3992077000000001
aF-25.525005
aa(lp266
S'fk_calf_r_anim'
p267
a(lp268
VrotateX
p269
aVrotateY
p270
aVrotateZ
p271
aaF0.89512186999999999
aF-1.9553708000000003
aF-39.876311999999999
aa(lp272
S'fk_foot_l_anim'
p273
a(lp274
VrotateX
p275
aVrotateY
p276
aVrotateZ
p277
aaF0.71337605000000004
aF12.982642999999999
aF-11.755578999999999
aa(lp278
S'fk_foot_r_anim'
p279
a(lp280
VrotateX
p281
aVrotateY
p282
aVrotateZ
p283
aaF21.498125000000002
aF16.679383999999999
aF28.482416000000001
aa(lp284
S'fk_ball_l_anim'
p285
a(lp286
VrotateX
p287
aVrotateY
p288
aVrotateZ
p289
aaF2.5555391000000005e-05
aF2.1523707000000001e-05
aF2.2702478000000001e-05
aa(lp290
S'fk_ball_r_anim'
p291
a(lp292
VrotateX
p293
aVrotateY
p294
aVrotateZ
p295
aaF-0.00011235497000000002
aF-0.00010458958000000001
aF1.0995396000000001e-05
aa(lp296
S'ik_foot_anim_l'
p297
a(lp298
VtranslateX
p299
aVtranslateY
p300
aVtranslateZ
p301
aVrotateX
p302
aVrotateY
p303
aVrotateZ
p304
aVknee_twist
p305
aVstretch
p306
aVsquash
p307
aVtoeCtrlVis
p308
aaF12.609095
aF-21.469107999999999
aF-8.9820669000000001e-05
aF1.4046904
aF-0.69222576999999996
aF-9.2881528000000007
aF-1.879
aF0
aF0
aI00
aa(lp309
S'ik_foot_anim_r'
p310
a(lp311
VtranslateX
p312
aVtranslateY
p313
aVtranslateZ
p314
aVrotateX
p315
aVrotateY
p316
aVrotateZ
p317
aVknee_twist
p318
aVstretch
p319
aVsquash
p320
aVtoeCtrlVis
p321
aaF-9.5533082
aF32.664259999999999
aF1.6827223e-05
aF1.4050043000000001
aF0.69232528999999998
aF-42.886763000000002
aF39.789000000000001
aF0
aF0
aI00
aa(lp322
S'heel_ctrl_l'
p323
a(lp324
VrotateX
p325
aVrotateY
p326
aVrotateZ
p327
aVheelPivot
p328
aVballPivot
p329
aaF0
aF0
aF0
aF0
aF0
aa(lp330
S'heel_ctrl_r'
p331
a(lp332
VrotateX
p333
aVrotateY
p334
aVrotateZ
p335
aVheelPivot
p336
aVballPivot
p337
aaF0
aF0
aF0
aF0
aF0
aa(lp338
S'toe_wiggle_ctrl_l'
p339
a(lp340
VrotateX
p341
aVrotateY
p342
aVrotateZ
p343
aaF0
aF0
aF0
aa(lp344
S'toe_wiggle_ctrl_r'
p345
a(lp346
VrotateX
p347
aVrotateY
p348
aVrotateZ
p349
aaF0
aF0
aF0
aa(lp350
S'toe_tip_ctrl_l'
p351
a(lp352
VrotateX
p353
aVrotateY
p354
aVrotateZ
p355
aaF0
aF0
aF0
aa(lp356
S'toe_tip_ctrl_r'
p357
a(lp358
VrotateX
p359
aVrotateY
p360
aVrotateZ
p361
aaF0
aF0
aF0
aa(lp362
S'master_anim'
p363
a(lp364
VtranslateX
p365
aVtranslateY
p366
aVtranslateZ
p367
aVrotateX
p368
aVrotateY
p369
aVrotateZ
p370
aaF0
aF0
aF0
aF0
aF0
aF0
aa(lp371
S'offset_anim'
p372
a(lp373
VtranslateX
p374
aVtranslateY
p375
aVtranslateZ
p376
aVrotateX
p377
aVrotateY
p378
aVrotateZ
p379
aaF0
aF0
aF0
aF0
aF0
aF0
aa(lp380
S'root_anim'
p381
a(lp382
VtranslateX
p383
aVtranslateY
p384
aVtranslateZ
p385
aVrotateX
p386
aVrotateY
p387
aVrotateZ
p388
aaF0
aF0
aF0
aF0
aF0
aF0
aa(lp389
S'upperarm_l_twist_anim'
p390
a(lp391
VtranslateX
p392
aVtranslateY
p393
aVtranslateZ
p394
aVrotateX
p395
aVrotateY
p396
aVrotateZ
p397
aaF0
aF0
aF0
aF-7
aF0
aF0
aa(lp398
S'upperarm_r_twist_anim'
p399
a(lp400
VtranslateX
p401
aVtranslateY
p402
aVtranslateZ
p403
aVrotateX
p404
aVrotateY
p405
aVrotateZ
p406
aaF0
aF0
aF0
aF16
aF0
aF0
aa(lp407
S'thigh_l_twist_anim'
p408
a(lp409
VtranslateX
p410
aVtranslateY
p411
aVtranslateZ
p412
aVrotateX
p413
aVrotateY
p414
aVrotateZ
p415
aaF0
aF0
aF0
aF0
aF0
aF0
aa(lp416
S'thigh_r_twist_anim'
p417
a(lp418
VtranslateX
p419
aVtranslateY
p420
aVtranslateZ
p421
aVrotateX
p422
aVrotateY
p423
aVrotateZ
p424
aaF0
aF0
aF0
aF0
aF0
aF0
aa(lp425
S'pinky_metacarpal_ctrl_l'
p426
a(lp427
VrotateX
p428
aVrotateY
p429
aVrotateZ
p430
aaF0.33011128000000001
aF3.5638207
aF6.5710334000000001
aa(lp431
S'pinky_metacarpal_ctrl_r'
p432
a(lp433
VrotateX
p434
aVrotateY
p435
aVrotateZ
p436
aaF0
aF1.2522283999999999
aF3.3317576999999998
aa(lp437
S'pinky_finger_fk_ctrl_1_l'
p438
a(lp439
VtranslateX
p440
aVtranslateY
p441
aVtranslateZ
p442
aVrotateX
p443
aVrotateY
p444
aVrotateZ
p445
aVsticky
p446
aaF0
aF0
aF0
aF-21.697782667963324
aF12.667017210857455
aF28.776492582015464
aF0
aa(lp447
S'pinky_finger_fk_ctrl_1_r'
p448
a(lp449
VtranslateX
p450
aVtranslateY
p451
aVtranslateZ
p452
aVrotateX
p453
aVrotateY
p454
aVrotateZ
p455
aVsticky
p456
aaF0
aF0
aF0
aF-19.202618000000001
aF4.6713842000000003
aF50.665439000000006
aF0
aa(lp457
S'pinky_finger_fk_ctrl_2_l'
p458
a(lp459
VtranslateX
p460
aVtranslateY
p461
aVtranslateZ
p462
aVrotateX
p463
aVrotateY
p464
aVrotateZ
p465
aaF0
aF0
aF0
aF0
aF0
aF41.107095393425908
aa(lp466
S'pinky_finger_fk_ctrl_2_r'
p467
a(lp468
VtranslateX
p469
aVtranslateY
p470
aVtranslateZ
p471
aVrotateX
p472
aVrotateY
p473
aVrotateZ
p474
aaF0
aF0
aF0
aF0
aF0
aF40.203125
aa(lp475
S'pinky_finger_fk_ctrl_3_l'
p476
a(lp477
VtranslateX
p478
aVtranslateY
p479
aVtranslateZ
p480
aVrotateX
p481
aVrotateY
p482
aVrotateZ
p483
aaF0
aF0
aF0
aF0
aF0
aF48.610501416174948
aa(lp484
S'pinky_finger_fk_ctrl_3_r'
p485
a(lp486
VtranslateX
p487
aVtranslateY
p488
aVtranslateZ
p489
aVrotateX
p490
aVrotateY
p491
aVrotateZ
p492
aaF0
aF0
aF0
aF0
aF0
aF62.457355000000007
aa(lp493
S'ring_metacarpal_ctrl_l'
p494
a(lp495
VrotateX
p496
aVrotateY
p497
aVrotateZ
p498
aaF0.041829363000000001
aF1.4353746000000001
aF3.6023857000000001
aa(lp499
S'ring_metacarpal_ctrl_r'
p500
a(lp501
VrotateX
p502
aVrotateY
p503
aVrotateZ
p504
aaF0
aF0.61582418999999999
aF2.5350107
aa(lp505
S'ring_finger_fk_ctrl_1_l'
p506
a(lp507
VtranslateX
p508
aVtranslateY
p509
aVtranslateZ
p510
aVrotateX
p511
aVrotateY
p512
aVrotateZ
p513
aVsticky
p514
aaF0
aF0
aF0
aF-8.9627855971472865
aF12.456045704363495
aF41.942517281818667
aF0
aa(lp515
S'ring_finger_fk_ctrl_1_r'
p516
a(lp517
VtranslateX
p518
aVtranslateY
p519
aVtranslateZ
p520
aVrotateX
p521
aVrotateY
p522
aVrotateZ
p523
aVsticky
p524
aaF0
aF0
aF0
aF-10.478437
aF-8.3184389999999997
aF56.214736000000002
aF0
aa(lp525
S'ring_finger_fk_ctrl_2_l'
p526
a(lp527
VtranslateX
p528
aVtranslateY
p529
aVtranslateZ
p530
aVrotateX
p531
aVrotateY
p532
aVrotateZ
p533
aaF0
aF0
aF0
aF0
aF0
aF55.882899369336201
aa(lp534
S'ring_finger_fk_ctrl_2_r'
p535
a(lp536
VtranslateX
p537
aVtranslateY
p538
aVtranslateZ
p539
aVrotateX
p540
aVrotateY
p541
aVrotateZ
p542
aaF0
aF0
aF0
aF0
aF0
aF64.034423000000004
aa(lp543
S'ring_finger_fk_ctrl_3_l'
p544
a(lp545
VtranslateX
p546
aVtranslateY
p547
aVtranslateZ
p548
aVrotateX
p549
aVrotateY
p550
aVrotateZ
p551
aaF0
aF0
aF0
aF0
aF0
aF35.987571369336244
aa(lp552
S'ring_finger_fk_ctrl_3_r'
p553
a(lp554
VtranslateX
p555
aVtranslateY
p556
aVtranslateZ
p557
aVrotateX
p558
aVrotateY
p559
aVrotateZ
p560
aaF0
aF0
aF0
aF0
aF0
aF39.095875999999997
aa(lp561
S'middle_metacarpal_ctrl_l'
p562
a(lp563
VrotateX
p564
aVrotateY
p565
aVrotateZ
p566
aaF0
aF0
aF0
aa(lp567
S'middle_metacarpal_ctrl_r'
p568
a(lp569
VrotateX
p570
aVrotateY
p571
aVrotateZ
p572
aaF0
aF0
aF0
aa(lp573
S'middle_finger_fk_ctrl_1_l'
p574
a(lp575
VtranslateX
p576
aVtranslateY
p577
aVtranslateZ
p578
aVrotateX
p579
aVrotateY
p580
aVrotateZ
p581
aVsticky
p582
aaF0
aF0
aF0
aF-4.5881218591518236
aF10.350110456003684
aF41.336920570421739
aF0
aa(lp583
S'middle_finger_fk_ctrl_1_r'
p584
a(lp585
VtranslateX
p586
aVtranslateY
p587
aVtranslateZ
p588
aVrotateX
p589
aVrotateY
p590
aVrotateZ
p591
aVsticky
p592
aaF0
aF0
aF0
aF-10.326321000000002
aF-15.337830999999998
aF55.141883999999997
aF0
aa(lp593
S'middle_finger_fk_ctrl_2_l'
p594
a(lp595
VtranslateX
p596
aVtranslateY
p597
aVtranslateZ
p598
aVrotateX
p599
aVrotateY
p600
aVrotateZ
p601
aaF0
aF0
aF0
aF0
aF0
aF58.688226051602051
aa(lp602
S'middle_finger_fk_ctrl_2_r'
p603
a(lp604
VtranslateX
p605
aVtranslateY
p606
aVtranslateZ
p607
aVrotateX
p608
aVrotateY
p609
aVrotateZ
p610
aaF0
aF0
aF0
aF0
aF0
aF59.642242000000003
aa(lp611
S'middle_finger_fk_ctrl_3_l'
p612
a(lp613
VtranslateX
p614
aVtranslateY
p615
aVtranslateZ
p616
aVrotateX
p617
aVrotateY
p618
aVrotateZ
p619
aaF0
aF0
aF0
aF0
aF0
aF51.619394619792153
aa(lp620
S'middle_finger_fk_ctrl_3_r'
p621
a(lp622
VtranslateX
p623
aVtranslateY
p624
aVtranslateZ
p625
aVrotateX
p626
aVrotateY
p627
aVrotateZ
p628
aaF0
aF0
aF0
aF0
aF0
aF56.555256
aa(lp629
S'index_metacarpal_ctrl_l'
p630
a(lp631
VrotateX
p632
aVrotateY
p633
aVrotateZ
p634
aaF0
aF0
aF0
aa(lp635
S'index_metacarpal_ctrl_r'
p636
a(lp637
VrotateX
p638
aVrotateY
p639
aVrotateZ
p640
aaF0
aF0
aF0
aa(lp641
S'index_finger_fk_ctrl_1_l'
p642
a(lp643
VtranslateX
p644
aVtranslateY
p645
aVtranslateZ
p646
aVrotateX
p647
aVrotateY
p648
aVrotateZ
p649
aVsticky
p650
aaF0
aF0
aF0
aF-9.8337999564731078
aF11.423770055240066
aF35.795291642017297
aF0
aa(lp651
S'index_finger_fk_ctrl_1_r'
p652
a(lp653
VtranslateX
p654
aVtranslateY
p655
aVtranslateZ
p656
aVrotateX
p657
aVrotateY
p658
aVrotateZ
p659
aVsticky
p660
aaF0
aF0
aF0
aF-9.2539286660641569
aF3.9754488257457625
aF-3.5282228586919668
aF0
aa(lp661
S'index_finger_fk_ctrl_2_l'
p662
a(lp663
VtranslateX
p664
aVtranslateY
p665
aVtranslateZ
p666
aVrotateX
p667
aVrotateY
p668
aVrotateZ
p669
aaF0
aF0
aF0
aF0
aF0
aF53.801285341617593
aa(lp670
S'index_finger_fk_ctrl_2_r'
p671
a(lp672
VtranslateX
p673
aVtranslateY
p674
aVtranslateZ
p675
aVrotateX
p676
aVrotateY
p677
aVrotateZ
p678
aaF0
aF0
aF0
aF-0.6960428912959471
aF0.42268977796517382
aF43.107681094081116
aa(lp679
S'index_finger_fk_ctrl_3_l'
p680
a(lp681
VtranslateX
p682
aVtranslateY
p683
aVtranslateZ
p684
aVrotateX
p685
aVrotateY
p686
aVrotateZ
p687
aaF0
aF0
aF0
aF0
aF0
aF61.368618341617761
aa(lp688
S'index_finger_fk_ctrl_3_r'
p689
a(lp690
VtranslateX
p691
aVtranslateY
p692
aVtranslateZ
p693
aVrotateX
p694
aVrotateY
p695
aVrotateZ
p696
aaF0
aF0
aF0
aF0.024576724571320624
aF0.69166940067204497
aF61.612562523881543
aa(lp697
S'thumb_finger_fk_ctrl_1_l'
p698
a(lp699
VtranslateX
p700
aVtranslateY
p701
aVtranslateZ
p702
aVrotateX
p703
aVrotateY
p704
aVrotateZ
p705
aVsticky
p706
aaF0
aF0
aF0
aF20.382076971381295
aF9.6186562459388441
aF-2.2125543578402804
aF0
aa(lp707
S'thumb_finger_fk_ctrl_1_r'
p708
a(lp709
VtranslateX
p710
aVtranslateY
p711
aVtranslateZ
p712
aVrotateX
p713
aVrotateY
p714
aVrotateZ
p715
aVsticky
p716
aaF0
aF0
aF0
aF14.358987000000003
aF19.038654000000001
aF0.97150968999999998
aF0
aa(lp717
S'thumb_finger_fk_ctrl_2_l'
p718
a(lp719
VtranslateX
p720
aVtranslateY
p721
aVtranslateZ
p722
aVrotateX
p723
aVrotateY
p724
aVrotateZ
p725
aaF0
aF0
aF0
aF0
aF0
aF0.89524920079008397
aa(lp726
S'thumb_finger_fk_ctrl_2_r'
p727
a(lp728
VtranslateX
p729
aVtranslateY
p730
aVtranslateZ
p731
aVrotateX
p732
aVrotateY
p733
aVrotateZ
p734
aaF0
aF0
aF0
aF-4.8672503999999996
aF-3.3496473
aF26.048033
aa(lp735
S'thumb_finger_fk_ctrl_3_l'
p736
a(lp737
VtranslateX
p738
aVtranslateY
p739
aVtranslateZ
p740
aVrotateX
p741
aVrotateY
p742
aVrotateZ
p743
aaF0
aF0
aF0
aF0
aF0
aF36.911921848225148
aa(lp744
S'thumb_finger_fk_ctrl_3_r'
p745
a(lp746
VtranslateX
p747
aVtranslateY
p748
aVtranslateZ
p749
aVrotateX
p750
aVrotateY
p751
aVrotateZ
p752
aaF0
aF0
aF0
aF-17.228152000000001
aF-1.7803705000000001
aF54.006932999999997
aa(lp753
S'index_l_ik_anim'
p754
a(lp755
VtranslateX
p756
aVtranslateY
p757
aVtranslateZ
p758
aVrotateX
p759
aVrotateY
p760
aVrotateZ
p761
aVpoleVectorVis
p762
aaF0
aF0
aF0
aF0
aF0
aF0
aF0
aa(lp763
S'index_r_ik_anim'
p764
a(lp765
VtranslateX
p766
aVtranslateY
p767
aVtranslateZ
p768
aVrotateX
p769
aVrotateY
p770
aVrotateZ
p771
aVpoleVectorVis
p772
aaF0
aF0
aF0
aF0
aF0
aF0
aF0
aa(lp773
S'middle_l_ik_anim'
p774
a(lp775
VtranslateX
p776
aVtranslateY
p777
aVtranslateZ
p778
aVrotateX
p779
aVrotateY
p780
aVrotateZ
p781
aVpoleVectorVis
p782
aaF0
aF0
aF0
aF0
aF0
aF0
aF0
aa(lp783
S'middle_r_ik_anim'
p784
a(lp785
VtranslateX
p786
aVtranslateY
p787
aVtranslateZ
p788
aVrotateX
p789
aVrotateY
p790
aVrotateZ
p791
aVpoleVectorVis
p792
aaF0
aF0
aF0
aF0
aF0
aF0
aF0
aa(lp793
S'ring_l_ik_anim'
p794
a(lp795
VtranslateX
p796
aVtranslateY
p797
aVtranslateZ
p798
aVrotateX
p799
aVrotateY
p800
aVrotateZ
p801
aVpoleVectorVis
p802
aaF0
aF0
aF0
aF0
aF0
aF0
aF0
aa(lp803
S'ring_r_ik_anim'
p804
a(lp805
VtranslateX
p806
aVtranslateY
p807
aVtranslateZ
p808
aVrotateX
p809
aVrotateY
p810
aVrotateZ
p811
aVpoleVectorVis
p812
aaF0
aF0
aF0
aF0
aF0
aF0
aF0
aa(lp813
S'pinky_l_ik_anim'
p814
a(lp815
VtranslateX
p816
aVtranslateY
p817
aVtranslateZ
p818
aVrotateX
p819
aVrotateY
p820
aVrotateZ
p821
aVpoleVectorVis
p822
aaF0
aF0
aF0
aF0
aF0
aF0
aF0
aa(lp823
S'pinky_r_ik_anim'
p824
a(lp825
VtranslateX
p826
aVtranslateY
p827
aVtranslateZ
p828
aVrotateX
p829
aVrotateY
p830
aVrotateZ
p831
aVpoleVectorVis
p832
aaF0
aF0
aF0
aF0
aF0
aF0
aF0
aa(lp833
S'thumb_l_ik_anim'
p834
a(lp835
VtranslateX
p836
aVtranslateY
p837
aVtranslateZ
p838
aVrotateX
p839
aVrotateY
p840
aVrotateZ
p841
aVpoleVectorVis
p842
aaF0
aF0
aF0
aF0
aF0
aF0
aF0
aa(lp843
S'thumb_r_ik_anim'
p844
a(lp845
VtranslateX
p846
aVtranslateY
p847
aVtranslateZ
p848
aVrotateX
p849
aVrotateY
p850
aVrotateZ
p851
aVpoleVectorVis
p852
aaF0
aF0
aF0
aF0
aF0
aF0
aF0
aa(lp853
S'index_l_poleVector'
p854
a(lp855
VtranslateX
p856
aVtranslateY
p857
aVtranslateZ
p858
aVrotateX
p859
aVrotateY
p860
aVrotateZ
p861
aaF0
aF0
aF0
aF0
aF0
aF0
aa(lp862
S'index_r_poleVector'
p863
a(lp864
VtranslateX
p865
aVtranslateY
p866
aVtranslateZ
p867
aVrotateX
p868
aVrotateY
p869
aVrotateZ
p870
aaF0
aF0
aF0
aF0
aF0
aF0
aa(lp871
S'middle_l_poleVector'
p872
a(lp873
VtranslateX
p874
aVtranslateY
p875
aVtranslateZ
p876
aVrotateX
p877
aVrotateY
p878
aVrotateZ
p879
aaF0
aF0
aF0
aF0
aF0
aF0
aa(lp880
S'middle_r_poleVector'
p881
a(lp882
VtranslateX
p883
aVtranslateY
p884
aVtranslateZ
p885
aVrotateX
p886
aVrotateY
p887
aVrotateZ
p888
aaF0
aF0
aF0
aF0
aF0
aF0
aa(lp889
S'ring_l_poleVector'
p890
a(lp891
VtranslateX
p892
aVtranslateY
p893
aVtranslateZ
p894
aVrotateX
p895
aVrotateY
p896
aVrotateZ
p897
aaF0
aF0
aF0
aF0
aF0
aF0
aa(lp898
S'ring_r_poleVector'
p899
a(lp900
VtranslateX
p901
aVtranslateY
p902
aVtranslateZ
p903
aVrotateX
p904
aVrotateY
p905
aVrotateZ
p906
aaF0
aF0
aF0
aF0
aF0
aF0
aa(lp907
S'pinky_l_poleVector'
p908
a(lp909
VtranslateX
p910
aVtranslateY
p911
aVtranslateZ
p912
aVrotateX
p913
aVrotateY
p914
aVrotateZ
p915
aaF0
aF0
aF0
aF0
aF0
aF0
aa(lp916
S'pinky_r_poleVector'
p917
a(lp918
VtranslateX
p919
aVtranslateY
p920
aVtranslateZ
p921
aVrotateX
p922
aVrotateY
p923
aVrotateZ
p924
aaF0
aF0
aF0
aF0
aF0
aF0
aa(lp925
S'thumb_l_poleVector'
p926
a(lp927
VtranslateX
p928
aVtranslateY
p929
aVtranslateZ
p930
aVrotateX
p931
aVrotateY
p932
aVrotateZ
p933
aaF0
aF0
aF0
aF0
aF0
aF0
aa(lp934
S'thumb_r_poleVector'
p935
a(lp936
VtranslateX
p937
aVtranslateY
p938
aVtranslateZ
p939
aVrotateX
p940
aVrotateY
p941
aVrotateZ
p942
aaF0
aF0
aF0
aF0
aF0
aF0
aa(lp943
S'l_global_ik_anim'
p944
a(lp945
VtranslateX
p946
aVtranslateY
p947
aVtranslateZ
p948
aVrotateX
p949
aVrotateY
p950
aVrotateZ
p951
aaF0
aF0
aF0
aF0
aF0
aF0
aa(lp952
S'r_global_ik_anim'
p953
a(lp954
VtranslateX
p955
aVtranslateY
p956
aVtranslateZ
p957
aVrotateX
p958
aVrotateY
p959
aVrotateZ
p960
aaF0
aF0
aF0
aF0
aF0
aF0
aa(lp961
S'Rig_Settings'
p962
a(lp963
Vspine_ik
p964
aVspine_fk
p965
aVlLegMode
p966
aVlThighTwistAmount
p967
aVlCalfTwistAmount
p968
aVlCalfTwist2Amount
p969
aVrLegMode
p970
aVrThighTwistAmount
p971
aVrCalfTwistAmount
p972
aVrCalfTwist2Amount
p973
aVlFkArmOrient
p974
aVrFkArmOrient
p975
aVlArmMode
p976
aVlUpperarmTwistAmount
p977
aVlForearmTwistAmount
p978
aVlForearmTwist2Amount
p979
aVrArmMode
p980
aVrUpperarmTwistAmount
p981
aVrForearmTwistAmount
p982
aVrForearmTwist2Amount
p983
aaF1
aF0
aI1
aF0.90000000000000002
aF0.75
aF0.5
aI1
aF0.90000000000000002
aF0.75
aF0.5
aI0
aI0
aI1
aF0.90000000000000002
aF0.40000000000000002
aF0.40000000000000002
aI1
aF0.90000000000000002
aF0.40000000000000002
aF0.5
aa(lp984
Vweapon_l_anim
p985
a(lp986
VtranslateX
p987
aVtranslateY
p988
aVtranslateZ
p989
aVrotateX
p990
aVrotateY
p991
aVrotateZ
p992
aVscaleX
p993
aVscaleY
p994
aVscaleZ
p995
aaF0.015794524000000001
aF0.00046430197
aF-0.0059039111999999996
aF0.030527101000000001
aF-0.34232379000000002
aF-0.34052243999999998
aF1
aF1
aF1
aa(lp996
Vweapon_r_anim
p997
a(lp998
VtranslateX
p999
aVtranslateY
p1000
aVtranslateZ
p1001
aVrotateX
p1002
aVrotateY
p1003
aVrotateZ
p1004
aVscaleX
p1005
aVscaleY
p1006
aVscaleZ
p1007
aaF3.992303666226098
aF1.9023612325153181
aF1.8817023345191615
aF179.11152790439596
aF-179.14794416417263
aF-2.7267904638013714
aF1
aF1
aF1
aa(lp1008
Vattach_anim
p1009
a(lp1010
VtranslateX
p1011
aVtranslateY
p1012
aVtranslateZ
p1013
aVrotateX
p1014
aVrotateY
p1015
aVrotateZ
p1016
aVscaleX
p1017
aVscaleY
p1018
aVscaleZ
p1019
aaF0
aF0
aF0
aF0
aF0
aF0
aF1
aF1
aF1
aa(lp1020
Vattach_space_switcher
p1021
a(lp1022
Vvisibility
p1023
aVtranslateX
p1024
aVtranslateY
p1025
aVtranslateZ
p1026
aVrotateX
p1027
aVrotateY
p1028
aVrotateZ
p1029
aVscaleX
p1030
aVscaleY
p1031
aVscaleZ
p1032
aVspace_world
p1033
aaI01
aF0
aF0
aF0
aF0
aF0
aF0
aF1
aF1
aF1
aF0
aa(lp1034
Vbody_anim_space_switcher
p1035
a(lp1036
Vvisibility
p1037
aVtranslateX
p1038
aVtranslateY
p1039
aVtranslateZ
p1040
aVrotateX
p1041
aVrotateY
p1042
aVrotateZ
p1043
aVscaleX
p1044
aVscaleY
p1045
aVscaleZ
p1046
aVspace_world
p1047
aaI01
aF0
aF0
aF0
aF0
aF0
aF0
aF1
aF1
aF1
aF0
aa(lp1048
Vchest_ik_anim_space_switcher
p1049
a(lp1050
Vvisibility
p1051
aVtranslateX
p1052
aVtranslateY
p1053
aVtranslateZ
p1054
aVrotateX
p1055
aVrotateY
p1056
aVrotateZ
p1057
aVscaleX
p1058
aVscaleY
p1059
aVscaleZ
p1060
aVspace_world
p1061
aVspace_chest_ik_world_aligned
p1062
aaI01
aF0
aF0
aF0
aF0
aF0
aF0
aF1
aF1
aF1
aF0
aF0
aa(lp1063
Vik_elbow_l_anim_space_switcher
p1064
a(lp1065
Vvisibility
p1066
aVtranslateX
p1067
aVtranslateY
p1068
aVtranslateZ
p1069
aVrotateX
p1070
aVrotateY
p1071
aVrotateZ
p1072
aVscaleX
p1073
aVscaleY
p1074
aVscaleZ
p1075
aVspace_world
p1076
aVspace_body_anim
p1077
aVspace_chest_ik_anim
p1078
aaI01
aF0
aF0
aF0
aF0
aF0
aF0
aF1
aF1
aF1
aF0
aF0
aF0
aa(lp1079
Vik_elbow_r_anim_space_switcher
p1080
a(lp1081
Vvisibility
p1082
aVtranslateX
p1083
aVtranslateY
p1084
aVtranslateZ
p1085
aVrotateX
p1086
aVrotateY
p1087
aVrotateZ
p1088
aVscaleX
p1089
aVscaleY
p1090
aVscaleZ
p1091
aVspace_world
p1092
aVspace_body_anim
p1093
aVspace_chest_ik_anim
p1094
aaI01
aF0
aF0
aF0
aF0
aF0
aF0
aF1
aF1
aF1
aF0
aF0
aF0
aa(lp1095
Vik_foot_anim_l_space_switcher
p1096
a(lp1097
Vvisibility
p1098
aVtranslateX
p1099
aVtranslateY
p1100
aVtranslateZ
p1101
aVrotateX
p1102
aVrotateY
p1103
aVrotateZ
p1104
aVscaleX
p1105
aVscaleY
p1106
aVscaleZ
p1107
aVspace_world
p1108
aVspace_body_anim
p1109
aaI01
aF0
aF0
aF0
aF0
aF0
aF0
aF1
aF1
aF1
aF0
aF0
aa(lp1110
Vik_foot_anim_r_space_switcher
p1111
a(lp1112
Vvisibility
p1113
aVtranslateX
p1114
aVtranslateY
p1115
aVtranslateZ
p1116
aVrotateX
p1117
aVrotateY
p1118
aVrotateZ
p1119
aVscaleX
p1120
aVscaleY
p1121
aVscaleZ
p1122
aVspace_world
p1123
aVspace_body_anim
p1124
aaI01
aF0
aF0
aF0
aF0
aF0
aF0
aF1
aF1
aF1
aF0
aF0
aa(lp1125
Vik_wrist_l_anim_space_switcher
p1126
a(lp1127
Vvisibility
p1128
aVtranslateX
p1129
aVtranslateY
p1130
aVtranslateZ
p1131
aVrotateX
p1132
aVrotateY
p1133
aVrotateZ
p1134
aVscaleX
p1135
aVscaleY
p1136
aVscaleZ
p1137
aVspace_world
p1138
aVspace_body_anim
p1139
aVspace_head_fk_anim
p1140
aVspace_chest_ik_anim
p1141
aaI01
aF0
aF0
aF0
aF0
aF0
aF0
aF1
aF1
aF1
aF0
aF0
aF0
aF0
aa(lp1142
Vik_wrist_r_anim_space_switcher
p1143
a(lp1144
Vvisibility
p1145
aVtranslateX
p1146
aVtranslateY
p1147
aVtranslateZ
p1148
aVrotateX
p1149
aVrotateY
p1150
aVrotateZ
p1151
aVscaleX
p1152
aVscaleY
p1153
aVscaleZ
p1154
aVspace_world
p1155
aVspace_body_anim
p1156
aVspace_head_fk_anim
p1157
aVspace_chest_ik_anim
p1158
aaI01
aF0
aF0
aF0
aF0
aF0
aF0
aF1
aF1
aF1
aF0
aF0
aF0
aF0
aa(lp1159
Vl_global_ik_anim_space_switcher
p1160
a(lp1161
Vvisibility
p1162
aVtranslateX
p1163
aVtranslateY
p1164
aVtranslateZ
p1165
aVrotateX
p1166
aVrotateY
p1167
aVrotateZ
p1168
aVscaleX
p1169
aVscaleY
p1170
aVscaleZ
p1171
aVspace_world
p1172
aaI01
aF0
aF0
aF0
aF0
aF0
aF0
aF1
aF1
aF1
aF0
aa(lp1173
Vmaster_anim_space_switcher
p1174
a(lp1175
Vvisibility
p1176
aVtranslateX
p1177
aVtranslateY
p1178
aVtranslateZ
p1179
aVrotateX
p1180
aVrotateY
p1181
aVrotateZ
p1182
aVscaleX
p1183
aVscaleY
p1184
aVscaleZ
p1185
aVspace_world
p1186
aaI01
aF0
aF0
aF0
aF0
aF0
aF0
aF1
aF1
aF1
aF0
aa(lp1187
Vr_global_ik_anim_space_switcher
p1188
a(lp1189
Vvisibility
p1190
aVtranslateX
p1191
aVtranslateY
p1192
aVtranslateZ
p1193
aVrotateX
p1194
aVrotateY
p1195
aVrotateZ
p1196
aVscaleX
p1197
aVscaleY
p1198
aVscaleZ
p1199
aVspace_world
p1200
aaI01
aF0
aF0
aF0
aF0
aF0
aF0
aF1
aF1
aF1
aF0
aa(lp1201
Vspine_01_space_switcher
p1202
a(lp1203
Vvisibility
p1204
aVtranslateX
p1205
aVtranslateY
p1206
aVtranslateZ
p1207
aVrotateX
p1208
aVrotateY
p1209
aVrotateZ
p1210
aVscaleX
p1211
aVscaleY
p1212
aVscaleZ
p1213
aVspace_world
p1214
aaI01
aF0
aF0
aF0
aF0
aF0
aF0
aF1
aF1
aF1
aF0
aa(lp1215
Vweapon_l_space_switcher
p1216
a(lp1217
Vvisibility
p1218
aVtranslateX
p1219
aVtranslateY
p1220
aVtranslateZ
p1221
aVrotateX
p1222
aVrotateY
p1223
aVrotateZ
p1224
aVscaleX
p1225
aVscaleY
p1226
aVscaleZ
p1227
aVspace_world
p1228
aaI01
aF0
aF0
aF0
aF0
aF0
aF0
aF0.99999999999999989
aF1
aF1.0000000000000002
aF0
aa(lp1229
Vweapon_r_space_switcher
p1230
a(lp1231
Vvisibility
p1232
aVtranslateX
p1233
aVtranslateY
p1234
aVtranslateZ
p1235
aVrotateX
p1236
aVrotateY
p1237
aVrotateZ
p1238
aVscaleX
p1239
aVscaleY
p1240
aVscaleZ
p1241
aVspace_world
p1242
aaI01
aF0
aF0
aF0
aF0
aF0
aF0
aF1
aF1
aF1
aF0
aa.