(lp1
(lp2
S'head_fk_anim'
p3
a(lp4
VrotateX
p5
aVrotateY
p6
aVrotateZ
p7
aVfkOrientation
p8
aaF27.119083079999999
aF-0.14213729999999999
aF13.63051237
aI0
aa(lp9
S'neck_01_fk_anim'
p10
a(lp11
VrotateX
p12
aVrotateY
p13
aVrotateZ
p14
aVfkOrientation
p15
aaF2.1337937060000001
aF4.3644932340000002
aF18.37486006
aI0
aa(lp16
S'neck_02_fk_anim'
p17
a(lp18
VrotateX
p19
aVrotateY
p20
aVrotateZ
p21
aaF0.40000000000000002
aF0
aF0
aa(lp22
S'spine_01_anim'
p23
a(lp24
Vlength
p25
aVrotateX
p26
aVrotateY
p27
aVrotateZ
p28
aVlength
p29
aaF0
aF-2.584991923
aF1.105611981
aF-13.26475722
aF0
aa(lp30
S'spine_02_anim'
p31
a(lp32
Vlength
p33
aVrotateX
p34
aVrotateY
p35
aVrotateZ
p36
aVblendUnitConversion73
p37
aaF0
aF-1.9608702659606934
aF0.38549315929412842
aF-8.7438278198242187
aF1
aa(lp38
S'spine_03_anim'
p39
a(lp40
Vlength
p41
aVrotateX
p42
aVrotateY
p43
aVrotateZ
p44
aVlength
p45
aaF0
aF-1.3367484380000001
aF-0.33462571000000002
aF-4.2228988000000003
aF0
aa(lp46
S'spine_04_anim'
p47
a(lp48
Vlength
p49
aVrotateX
p50
aVrotateY
p51
aVrotateZ
p52
aVblendUnitConversion82
p53
aaF0
aF-1.0082740783691408
aF-0.53068995475769043
aF-7.8887767791748047
aF1
aa(lp54
S'spine_05_anim'
p55
a(lp56
Vlength
p57
aVrotateX
p58
aVrotateY
p59
aVrotateZ
p60
aVlength
p61
aaF0
aF-0.6797996300000001
aF-0.72675416000000004
aF-11.554653890000001
aF0
aa(lp62
S'mid_ik_anim'
p63
a(lp64
VtranslateX
p65
aVtranslateY
p66
aVtranslateZ
p67
aVrotateX
p68
aVrotateY
p69
aVrotateZ
p70
aaF-1.2416266410000001
aF-2.6583745580000002
aF-1.015365963
aF-5.1703728150000003
aF1.594190861
aF-14.640800009999998
aa(lp71
S'chest_ik_anim'
p72
a(lp73
VtranslateX
p74
aVtranslateY
p75
aVtranslateZ
p76
aVrotateX
p77
aVrotateY
p78
aVrotateZ
p79
aVstretch
p80
aVtwist_amount
p81
aVspine_01_twistAmount
p82
aVspine_02_twistAmount
p83
aVspine_03_twistAmount
p84
aVspine_04_twistAmount
p85
aVautoSpine
p86
aaF-2.2116313189999999
aF-10.71205039
aF-0.38578264289999997
aF-6.0504974919999999
aF3.4699054880000002
aF-31.165119180000001
aF1
aF1
aF0.20000000000000001
aF0.40000000000000002
aF0.59999999999999998
aF0.80000000000000004
aF0
aa(lp87
S'body_anim'
p88
a(lp89
VtranslateX
p90
aVtranslateY
p91
aVtranslateZ
p92
aVrotateX
p93
aVrotateY
p94
aVrotateZ
p95
aaF-13.05611994
aF12.08721195
aF-3.9339706759999999
aF-27.659733670000001
aF1.215627792
aF-9.9259288829999992
aa(lp96
S'hip_anim'
p97
a(lp98
VtranslateX
p99
aVtranslateY
p100
aVtranslateZ
p101
aVrotateX
p102
aVrotateY
p103
aVrotateZ
p104
aVlTwistCtrlVis
p105
aVlCalfTwistCtrlVis
p106
aVrTwistCtrlVis
p107
aVrCalfTwistCtrlVis
p108
aVautoHips
p109
aaF0
aF0
aF0
aF0
aF0
aF0
aI00
aI00
aI00
aI00
aF0
aa(lp110
S'clavicle_l_anim'
p111
a(lp112
VtranslateX
p113
aVtranslateY
p114
aVtranslateZ
p115
aVautoShoulders
p116
aVtwistCtrlVis
p117
aVtwistCtrlVisLower
p118
aaF-0.37232817839999999
aF-1.894326403
aF1.255780406
aF0
aI00
aI00
aa(lp119
S'clavicle_r_anim'
p120
a(lp121
VtranslateX
p122
aVtranslateY
p123
aVtranslateZ
p124
aVautoShoulders
p125
aVtwistCtrlVis
p126
aVtwistCtrlVisLower
p127
aaF-0.1037638094
aF2.8543085000000001
aF1.4926498319999999
aF0
aI00
aI00
aa(lp128
S'fk_arm_l_anim'
p129
a(lp130
VrotateX
p131
aVrotateY
p132
aVrotateZ
p133
aaF-27.598202109999999
aF67.175911049999996
aF-34.268535870000008
aa(lp134
S'fk_arm_r_anim'
p135
a(lp136
VrotateX
p137
aVrotateY
p138
aVrotateZ
p139
aaF-43.090235679999999
aF65.145359439999993
aF-34.169663280000002
aa(lp140
S'fk_elbow_l_anim'
p141
a(lp142
VrotateX
p143
aVrotateY
p144
aVrotateZ
p145
aaF2.8216562270000001
aF0.93464744
aF-80.85194448
aa(lp146
S'fk_elbow_r_anim'
p147
a(lp148
VrotateX
p149
aVrotateY
p150
aVrotateZ
p151
aaF-14.610100750000001
aF11.367836949999999
aF260.0223307
aa(lp152
S'fk_wrist_l_anim'
p153
a(lp154
VrotateX
p155
aVrotateY
p156
aVrotateZ
p157
aaF39.675570039999997
aF31.798310529999995
aF-7.9753636309999987
aa(lp158
S'fk_wrist_r_anim'
p159
a(lp160
VrotateX
p161
aVrotateY
p162
aVrotateZ
p163
aaF-76.034261650000005
aF16.10047642
aF-9.4216662279999994
aa(lp164
S'ik_elbow_l_anim'
p165
a(lp166
VtranslateX
p167
aVtranslateY
p168
aVtranslateZ
p169
aaF-8.8825691111601799
aF-23.802247268244155
aF-43.298835336005467
aa(lp170
S'ik_elbow_r_anim'
p171
a(lp172
VtranslateX
p173
aVtranslateY
p174
aVtranslateZ
p175
aaF34.199373297326979
aF17.237750639629695
aF-33.777623135787124
aa(lp176
S'ik_wrist_l_anim'
p177
a(lp178
VtranslateX
p179
aVtranslateY
p180
aVtranslateZ
p181
aVrotateX
p182
aVrotateY
p183
aVrotateZ
p184
aVstretch
p185
aVbias
p186
aVside
p187
aVmid_bend
p188
aVmid_swivel
p189
aVtip_pivot
p190
aVtip_swivel
p191
aaF-65.352998384293841
aF-28.728423841052866
aF-56.008547255056449
aF-39.745043989999999
aF24.085545620000001
aF-156.2642085
aF0
aF1
aF0
aF0
aF0
aF0
aF0
aa(lp192
S'ik_wrist_r_anim'
p193
a(lp194
VtranslateX
p195
aVtranslateY
p196
aVtranslateZ
p197
aVrotateX
p198
aVrotateY
p199
aVrotateZ
p200
aVstretch
p201
aVbias
p202
aVside
p203
aVmid_bend
p204
aVmid_swivel
p205
aVtip_pivot
p206
aVtip_swivel
p207
aaF39.484332709999997
aF3.600388224
aF-36.91645827
aF36.901601120000002
aF-175.82306650000001
aF-137.64271729999999
aF0
aF1
aF0
aF0
aF0
aF0
aF0
aa(lp208
S'fk_thigh_l_anim'
p209
a(lp210
VrotateX
p211
aVrotateY
p212
aVrotateZ
p213
aaF1.1311612129999999
aF-17.981336590000002
aF43.790046689999997
aa(lp214
S'fk_thigh_r_anim'
p215
a(lp216
VrotateX
p217
aVrotateY
p218
aVrotateZ
p219
aaF-1.7677320240000003
aF-12.040833470000001
aF19.059583660000001
aa(lp220
S'fk_calf_l_anim'
p221
a(lp222
VrotateX
p223
aVrotateY
p224
aVrotateZ
p225
aaF0.38451958000000003
aF-1.3992077110000001
aF-25.52500534
aa(lp226
S'fk_calf_r_anim'
p227
a(lp228
VrotateX
p229
aVrotateY
p230
aVrotateZ
p231
aaF0.89512186999999999
aF-1.9553707840000001
aF-39.876312259999999
aa(lp232
S'fk_foot_l_anim'
p233
a(lp234
VrotateX
p235
aVrotateY
p236
aVrotateZ
p237
aaF0.71337605000000004
aF12.98264313
aF-11.75557899
aa(lp238
S'fk_foot_r_anim'
p239
a(lp240
VrotateX
p241
aVrotateY
p242
aVrotateZ
p243
aaF21.498125080000001
aF16.679384230000004
aF28.482416149999999
aa(lp244
S'fk_ball_l_anim'
p245
a(lp246
VrotateX
p247
aVrotateY
p248
aVrotateZ
p249
aaF2.5555391000000005e-05
aF2.1523707000000001e-05
aF2.2702478000000001e-05
aa(lp250
S'fk_ball_r_anim'
p251
a(lp252
VrotateX
p253
aVrotateY
p254
aVrotateZ
p255
aaF-0.00011235497000000002
aF-0.00010458958000000001
aF1.0995396000000001e-05
aa(lp256
S'ik_foot_anim_l'
p257
a(lp258
VtranslateX
p259
aVtranslateY
p260
aVtranslateZ
p261
aVrotateX
p262
aVrotateY
p263
aVrotateZ
p264
aVknee_twist
p265
aVstretch
p266
aVbias
p267
aVtoeCtrlVis
p268
aaF12.60909534
aF-21.469108210000002
aF-8.9820669000000001e-05
aF1.404690445
aF-0.69222576999999996
aF-9.2881528000000007
aF-1.879
aF0
aF1
aI00
aa(lp269
S'ik_foot_anim_r'
p270
a(lp271
VtranslateX
p272
aVtranslateY
p273
aVtranslateZ
p274
aVrotateX
p275
aVrotateY
p276
aVrotateZ
p277
aVknee_twist
p278
aVstretch
p279
aVbias
p280
aVtoeCtrlVis
p281
aaF-9.5533081989999999
aF32.664260130000002
aF1.6827223e-05
aF1.405004293
aF0.69232528999999998
aF-42.886763369999997
aF36.789000000000001
aF0
aF1
aI00
aa(lp282
S'heel_ctrl_l'
p283
a(lp284
VrotateX
p285
aVrotateY
p286
aVrotateZ
p287
aaF0
aF0
aF0
aa(lp288
S'heel_ctrl_r'
p289
a(lp290
VrotateX
p291
aVrotateY
p292
aVrotateZ
p293
aaF0
aF0
aF0
aa(lp294
S'toe_wiggle_ctrl_l'
p295
a(lp296
VrotateX
p297
aVrotateY
p298
aVrotateZ
p299
aaF0
aF0
aF0
aa(lp300
S'toe_wiggle_ctrl_r'
p301
a(lp302
VrotateX
p303
aVrotateY
p304
aVrotateZ
p305
aaF0
aF0
aF0
aa(lp306
S'toe_tip_ctrl_l'
p307
a(lp308
VrotateX
p309
aVrotateY
p310
aVrotateZ
p311
aaF0
aF0
aF0
aa(lp312
S'toe_tip_ctrl_r'
p313
a(lp314
VrotateX
p315
aVrotateY
p316
aVrotateZ
p317
aaF0
aF0
aF0
aa(lp318
S'master_anim'
p319
a(lp320
VtranslateX
p321
aVtranslateY
p322
aVtranslateZ
p323
aVrotateX
p324
aVrotateY
p325
aVrotateZ
p326
aaF0
aF0
aF0
aF0
aF0
aF0
aa(lp327
S'offset_anim'
p328
a(lp329
VtranslateX
p330
aVtranslateY
p331
aVtranslateZ
p332
aVrotateX
p333
aVrotateY
p334
aVrotateZ
p335
aaF0
aF0
aF0
aF0
aF0
aF0
aa(lp336
S'root_anim'
p337
a(lp338
VtranslateX
p339
aVtranslateY
p340
aVtranslateZ
p341
aVrotateX
p342
aVrotateY
p343
aVrotateZ
p344
aaF0
aF0
aF0
aF0
aF0
aF0
aa(lp345
S'upperarm_l_twist_anim'
p346
a(lp347
VtranslateX
p348
aVtranslateY
p349
aVtranslateZ
p350
aVrotateX
p351
aVrotateY
p352
aVrotateZ
p353
aaF0
aF0
aF0
aF-14.999999999999998
aF0
aF0
aa(lp354
S'upperarm_r_twist_anim'
p355
a(lp356
VtranslateX
p357
aVtranslateY
p358
aVtranslateZ
p359
aVrotateX
p360
aVrotateY
p361
aVrotateZ
p362
aaF0
aF0
aF0
aF20
aF0
aF0
aa(lp363
S'thigh_l_twist_anim'
p364
a(lp365
VtranslateX
p366
aVtranslateY
p367
aVtranslateZ
p368
aVrotateX
p369
aVrotateY
p370
aVrotateZ
p371
aaF0
aF0
aF0
aF0
aF0
aF0
aa(lp372
S'thigh_r_twist_anim'
p373
a(lp374
VtranslateX
p375
aVtranslateY
p376
aVtranslateZ
p377
aVrotateX
p378
aVrotateY
p379
aVrotateZ
p380
aaF0
aF0
aF0
aF0
aF0
aF0
aa(lp381
S'pinky_metacarpal_ctrl_l'
p382
a(lp383
VrotateX
p384
aVrotateY
p385
aVrotateZ
p386
aaF0.22349044000000004
aF4.857034616
aF4.4410824360000003
aa(lp387
S'pinky_metacarpal_ctrl_r'
p388
a(lp389
VrotateX
p390
aVrotateY
p391
aVrotateZ
p392
aaF0
aF2.9829233570000002
aF2.4221884899999999
aa(lp393
S'pinky_finger_fk_ctrl_1_l'
p394
a(lp395
VtranslateX
p396
aVtranslateY
p397
aVtranslateZ
p398
aVrotateX
p399
aVrotateY
p400
aVrotateZ
p401
aVsticky
p402
aaF0
aF0
aF0
aF-11.20809899
aF8.0425083579999992
aF35.164758659999997
aF0
aa(lp403
S'pinky_finger_fk_ctrl_1_r'
p404
a(lp405
VtranslateX
p406
aVtranslateY
p407
aVtranslateZ
p408
aVrotateX
p409
aVrotateY
p410
aVrotateZ
p411
aVsticky
p412
aaF0
aF0
aF0
aF-10.628898700000001
aF4.0537577640000002
aF32.448308500000003
aF0
aa(lp413
S'pinky_finger_fk_ctrl_2_l'
p414
a(lp415
VtranslateX
p416
aVtranslateY
p417
aVtranslateZ
p418
aVrotateX
p419
aVrotateY
p420
aVrotateZ
p421
aaF0
aF0
aF0
aF0
aF0
aF45.251325299999998
aa(lp422
S'pinky_finger_fk_ctrl_2_r'
p423
a(lp424
VtranslateX
p425
aVtranslateY
p426
aVtranslateZ
p427
aVrotateX
p428
aVrotateY
p429
aVrotateZ
p430
aaF0
aF0
aF0
aF0
aF0
aF37.400249479999999
aa(lp431
S'pinky_finger_fk_ctrl_3_l'
p432
a(lp433
VtranslateX
p434
aVtranslateY
p435
aVtranslateZ
p436
aVrotateX
p437
aVrotateY
p438
aVrotateZ
p439
aaF0
aF0
aF0
aF0
aF0
aF50.86389621
aa(lp440
S'pinky_finger_fk_ctrl_3_r'
p441
a(lp442
VtranslateX
p443
aVtranslateY
p444
aVtranslateZ
p445
aVrotateX
p446
aVrotateY
p447
aVrotateZ
p448
aaF0
aF0
aF0
aF0
aF0
aF45.95293126
aa(lp449
S'ring_metacarpal_ctrl_l'
p450
a(lp451
VrotateX
p452
aVrotateY
p453
aVrotateZ
p454
aaF0
aF1.7991964060000001
aF1.4399999590000001
aa(lp455
S'ring_metacarpal_ctrl_r'
p456
a(lp457
VrotateX
p458
aVrotateY
p459
aVrotateZ
p460
aaF0.067369027999999997
aF2.2752197870000002
aF1.6964730459999999
aa(lp461
S'ring_finger_fk_ctrl_1_l'
p462
a(lp463
VtranslateX
p464
aVtranslateY
p465
aVtranslateZ
p466
aVrotateX
p467
aVrotateY
p468
aVrotateZ
p469
aVsticky
p470
aaF0
aF0
aF0
aF0.10663739999999999
aF3.213506647
aF59.755632770000005
aF0
aa(lp471
S'ring_finger_fk_ctrl_1_r'
p472
a(lp473
VtranslateX
p474
aVtranslateY
p475
aVtranslateZ
p476
aVrotateX
p477
aVrotateY
p478
aVrotateZ
p479
aVsticky
p480
aaF0
aF0
aF0
aF-3.1093011330000002
aF-4.3156336
aF36.802618320000001
aF0
aa(lp481
S'ring_finger_fk_ctrl_2_l'
p482
a(lp483
VtranslateX
p484
aVtranslateY
p485
aVtranslateZ
p486
aVrotateX
p487
aVrotateY
p488
aVrotateZ
p489
aaF0
aF0
aF0
aF0
aF0
aF45.321376460000003
aa(lp490
S'ring_finger_fk_ctrl_2_r'
p491
a(lp492
VtranslateX
p493
aVtranslateY
p494
aVtranslateZ
p495
aVrotateX
p496
aVrotateY
p497
aVrotateZ
p498
aaF0
aF0
aF0
aF0
aF0
aF54.7838426
aa(lp499
S'ring_finger_fk_ctrl_3_l'
p500
a(lp501
VtranslateX
p502
aVtranslateY
p503
aVtranslateZ
p504
aVrotateX
p505
aVrotateY
p506
aVrotateZ
p507
aaF0
aF0
aF0
aF0
aF0
aF46.962762300000001
aa(lp508
S'ring_finger_fk_ctrl_3_r'
p509
a(lp510
VtranslateX
p511
aVtranslateY
p512
aVtranslateZ
p513
aVrotateX
p514
aVrotateY
p515
aVrotateZ
p516
aaF0
aF0
aF0
aF0
aF0
aF50.152191160000001
aa(lp517
S'middle_metacarpal_ctrl_l'
p518
a(lp519
VrotateX
p520
aVrotateY
p521
aVrotateZ
p522
aaF0
aF0
aF0
aa(lp523
S'middle_metacarpal_ctrl_r'
p524
a(lp525
VrotateX
p526
aVrotateY
p527
aVrotateZ
p528
aaF0
aF0
aF0
aa(lp529
S'middle_finger_fk_ctrl_1_l'
p530
a(lp531
VtranslateX
p532
aVtranslateY
p533
aVtranslateZ
p534
aVrotateX
p535
aVrotateY
p536
aVrotateZ
p537
aVsticky
p538
aaF0
aF0
aF0
aF-4.1083183390000011
aF-1.7444078999999999
aF55.390988399999998
aF0
aa(lp539
S'middle_finger_fk_ctrl_1_r'
p540
a(lp541
VtranslateX
p542
aVtranslateY
p543
aVtranslateZ
p544
aVrotateX
p545
aVrotateY
p546
aVrotateZ
p547
aVsticky
p548
aaF0
aF0
aF0
aF-4.7435324410000002
aF-3.5831719410000002
aF40.376296289999999
aF0
aa(lp549
S'middle_finger_fk_ctrl_2_l'
p550
a(lp551
VtranslateX
p552
aVtranslateY
p553
aVtranslateZ
p554
aVrotateX
p555
aVrotateY
p556
aVrotateZ
p557
aaF0
aF0
aF0
aF0
aF0
aF51.930507660000004
aa(lp558
S'middle_finger_fk_ctrl_2_r'
p559
a(lp560
VtranslateX
p561
aVtranslateY
p562
aVtranslateZ
p563
aVrotateX
p564
aVrotateY
p565
aVrotateZ
p566
aaF0
aF0
aF0
aF0
aF0
aF58.664794919999999
aa(lp567
S'middle_finger_fk_ctrl_3_l'
p568
a(lp569
VtranslateX
p570
aVtranslateY
p571
aVtranslateZ
p572
aVrotateX
p573
aVrotateY
p574
aVrotateZ
p575
aaF0
aF0
aF0
aF0
aF0
aF53.75726318000001
aa(lp576
S'middle_finger_fk_ctrl_3_r'
p577
a(lp578
VtranslateX
p579
aVtranslateY
p580
aVtranslateZ
p581
aVrotateX
p582
aVrotateY
p583
aVrotateZ
p584
aaF0
aF0
aF0
aF0
aF0
aF51.707767490000002
aa(lp585
S'index_metacarpal_ctrl_l'
p586
a(lp587
VrotateX
p588
aVrotateY
p589
aVrotateZ
p590
aaF0
aF0
aF0
aa(lp591
S'index_metacarpal_ctrl_r'
p592
a(lp593
VrotateX
p594
aVrotateY
p595
aVrotateZ
p596
aaF0
aF0
aF0
aa(lp597
S'index_finger_fk_ctrl_1_l'
p598
a(lp599
VtranslateX
p600
aVtranslateY
p601
aVtranslateZ
p602
aVrotateX
p603
aVrotateY
p604
aVrotateZ
p605
aVsticky
p606
aaF0
aF0
aF0
aF-0.46907278999999996
aF0.72799772000000007
aF48.518685939999997
aF0
aa(lp607
S'index_finger_fk_ctrl_1_r'
p608
a(lp609
VtranslateX
p610
aVtranslateY
p611
aVtranslateZ
p612
aVrotateX
p613
aVrotateY
p614
aVrotateZ
p615
aVsticky
p616
aaF0
aF0
aF0
aF-1.015232546
aF-3.3632015929999999
aF26.697961979999999
aF0
aa(lp617
S'index_finger_fk_ctrl_2_l'
p618
a(lp619
VtranslateX
p620
aVtranslateY
p621
aVtranslateZ
p622
aVrotateX
p623
aVrotateY
p624
aVrotateZ
p625
aaF0
aF0
aF0
aF0
aF0
aF58.360538479999995
aa(lp626
S'index_finger_fk_ctrl_2_r'
p627
a(lp628
VtranslateX
p629
aVtranslateY
p630
aVtranslateZ
p631
aVrotateX
p632
aVrotateY
p633
aVrotateZ
p634
aaF0
aF0
aF0
aF0
aF0
aF68.548797609999994
aa(lp635
S'index_finger_fk_ctrl_3_l'
p636
a(lp637
VtranslateX
p638
aVtranslateY
p639
aVtranslateZ
p640
aVrotateX
p641
aVrotateY
p642
aVrotateZ
p643
aaF0
aF0
aF0
aF0
aF0
aF54.41304779
aa(lp644
S'index_finger_fk_ctrl_3_r'
p645
a(lp646
VtranslateX
p647
aVtranslateY
p648
aVtranslateZ
p649
aVrotateX
p650
aVrotateY
p651
aVrotateZ
p652
aaF0
aF0
aF0
aF0
aF0
aF43.237064359999998
aa(lp653
S'thumb_finger_fk_ctrl_1_l'
p654
a(lp655
VtranslateX
p656
aVtranslateY
p657
aVtranslateZ
p658
aVrotateX
p659
aVrotateY
p660
aVrotateZ
p661
aVsticky
p662
aaF0
aF0
aF0
aF14.131220600000001
aF21.96284721
aF-15.04412705
aF0
aa(lp663
S'thumb_finger_fk_ctrl_1_r'
p664
a(lp665
VtranslateX
p666
aVtranslateY
p667
aVtranslateZ
p668
aVrotateX
p669
aVrotateY
p670
aVrotateZ
p671
aVsticky
p672
aaF0
aF0
aF0
aF6.2192426479999998
aF21.743690489999999
aF-19.96270784
aF0
aa(lp673
S'thumb_finger_fk_ctrl_2_l'
p674
a(lp675
VtranslateX
p676
aVtranslateY
p677
aVtranslateZ
p678
aVrotateX
p679
aVrotateY
p680
aVrotateZ
p681
aaF0
aF0
aF0
aF0
aF0
aF24.493265149999999
aa(lp682
S'thumb_finger_fk_ctrl_2_r'
p683
a(lp684
VtranslateX
p685
aVtranslateY
p686
aVtranslateZ
p687
aVrotateX
p688
aVrotateY
p689
aVrotateZ
p690
aaF0
aF0
aF0
aF0
aF0
aF41.737152100000003
aa(lp691
S'thumb_finger_fk_ctrl_3_l'
p692
a(lp693
VtranslateX
p694
aVtranslateY
p695
aVtranslateZ
p696
aVrotateX
p697
aVrotateY
p698
aVrotateZ
p699
aaF0
aF0
aF0
aF0
aF-8.3000000000000007
aF56.431468959999997
aa(lp700
S'thumb_finger_fk_ctrl_3_r'
p701
a(lp702
VtranslateX
p703
aVtranslateY
p704
aVtranslateZ
p705
aVrotateX
p706
aVrotateY
p707
aVrotateZ
p708
aaF0
aF0
aF0
aF0
aF-8.3000000000000007
aF37.909149169999999
aa(lp709
S'index_l_ik_anim'
p710
a(lp711
VtranslateX
p712
aVtranslateY
p713
aVtranslateZ
p714
aVrotateX
p715
aVrotateY
p716
aVrotateZ
p717
aVpoleVectorVis
p718
aaF0
aF0
aF0
aF0
aF0
aF0
aF0
aa(lp719
S'index_r_ik_anim'
p720
a(lp721
VtranslateX
p722
aVtranslateY
p723
aVtranslateZ
p724
aVrotateX
p725
aVrotateY
p726
aVrotateZ
p727
aVpoleVectorVis
p728
aaF0
aF0
aF0
aF0
aF0
aF0
aF0
aa(lp729
S'middle_l_ik_anim'
p730
a(lp731
VtranslateX
p732
aVtranslateY
p733
aVtranslateZ
p734
aVrotateX
p735
aVrotateY
p736
aVrotateZ
p737
aVpoleVectorVis
p738
aaF0
aF0
aF0
aF0
aF0
aF0
aF0
aa(lp739
S'middle_r_ik_anim'
p740
a(lp741
VtranslateX
p742
aVtranslateY
p743
aVtranslateZ
p744
aVrotateX
p745
aVrotateY
p746
aVrotateZ
p747
aVpoleVectorVis
p748
aaF0
aF0
aF0
aF0
aF0
aF0
aF0
aa(lp749
S'ring_l_ik_anim'
p750
a(lp751
VtranslateX
p752
aVtranslateY
p753
aVtranslateZ
p754
aVrotateX
p755
aVrotateY
p756
aVrotateZ
p757
aVpoleVectorVis
p758
aaF0
aF0
aF0
aF0
aF0
aF0
aF0
aa(lp759
S'ring_r_ik_anim'
p760
a(lp761
VtranslateX
p762
aVtranslateY
p763
aVtranslateZ
p764
aVrotateX
p765
aVrotateY
p766
aVrotateZ
p767
aVpoleVectorVis
p768
aaF0
aF0
aF0
aF0
aF0
aF0
aF0
aa(lp769
S'pinky_l_ik_anim'
p770
a(lp771
VtranslateX
p772
aVtranslateY
p773
aVtranslateZ
p774
aVrotateX
p775
aVrotateY
p776
aVrotateZ
p777
aVpoleVectorVis
p778
aaF0
aF0
aF0
aF0
aF0
aF0
aF0
aa(lp779
S'pinky_r_ik_anim'
p780
a(lp781
VtranslateX
p782
aVtranslateY
p783
aVtranslateZ
p784
aVrotateX
p785
aVrotateY
p786
aVrotateZ
p787
aVpoleVectorVis
p788
aaF0
aF0
aF0
aF0
aF0
aF0
aF0
aa(lp789
S'thumb_l_ik_anim'
p790
a(lp791
VtranslateX
p792
aVtranslateY
p793
aVtranslateZ
p794
aVrotateX
p795
aVrotateY
p796
aVrotateZ
p797
aVpoleVectorVis
p798
aaF0
aF0
aF0
aF0
aF0
aF0
aF0
aa(lp799
S'thumb_r_ik_anim'
p800
a(lp801
VtranslateX
p802
aVtranslateY
p803
aVtranslateZ
p804
aVrotateX
p805
aVrotateY
p806
aVrotateZ
p807
aVpoleVectorVis
p808
aaF0
aF0
aF0
aF0
aF0
aF0
aF0
aa(lp809
S'index_l_poleVector'
p810
a(lp811
VtranslateX
p812
aVtranslateY
p813
aVtranslateZ
p814
aVrotateX
p815
aVrotateY
p816
aVrotateZ
p817
aaF0
aF0
aF0
aF0
aF0
aF0
aa(lp818
S'index_r_poleVector'
p819
a(lp820
VtranslateX
p821
aVtranslateY
p822
aVtranslateZ
p823
aVrotateX
p824
aVrotateY
p825
aVrotateZ
p826
aaF0
aF0
aF0
aF0
aF0
aF0
aa(lp827
S'middle_l_poleVector'
p828
a(lp829
VtranslateX
p830
aVtranslateY
p831
aVtranslateZ
p832
aVrotateX
p833
aVrotateY
p834
aVrotateZ
p835
aaF0
aF0
aF0
aF0
aF0
aF0
aa(lp836
S'middle_r_poleVector'
p837
a(lp838
VtranslateX
p839
aVtranslateY
p840
aVtranslateZ
p841
aVrotateX
p842
aVrotateY
p843
aVrotateZ
p844
aaF0
aF0
aF0
aF0
aF0
aF0
aa(lp845
S'ring_l_poleVector'
p846
a(lp847
VtranslateX
p848
aVtranslateY
p849
aVtranslateZ
p850
aVrotateX
p851
aVrotateY
p852
aVrotateZ
p853
aaF0
aF0
aF0
aF0
aF0
aF0
aa(lp854
S'ring_r_poleVector'
p855
a(lp856
VtranslateX
p857
aVtranslateY
p858
aVtranslateZ
p859
aVrotateX
p860
aVrotateY
p861
aVrotateZ
p862
aaF0
aF0
aF0
aF0
aF0
aF0
aa(lp863
S'pinky_l_poleVector'
p864
a(lp865
VtranslateX
p866
aVtranslateY
p867
aVtranslateZ
p868
aVrotateX
p869
aVrotateY
p870
aVrotateZ
p871
aaF0
aF0
aF0
aF0
aF0
aF0
aa(lp872
S'pinky_r_poleVector'
p873
a(lp874
VtranslateX
p875
aVtranslateY
p876
aVtranslateZ
p877
aVrotateX
p878
aVrotateY
p879
aVrotateZ
p880
aaF0
aF0
aF0
aF0
aF0
aF0
aa(lp881
S'thumb_l_poleVector'
p882
a(lp883
VtranslateX
p884
aVtranslateY
p885
aVtranslateZ
p886
aVrotateX
p887
aVrotateY
p888
aVrotateZ
p889
aaF0
aF0
aF0
aF0
aF0
aF0
aa(lp890
S'thumb_r_poleVector'
p891
a(lp892
VtranslateX
p893
aVtranslateY
p894
aVtranslateZ
p895
aVrotateX
p896
aVrotateY
p897
aVrotateZ
p898
aaF0
aF0
aF0
aF0
aF0
aF0
aa(lp899
S'l_global_ik_anim'
p900
a(lp901
VtranslateX
p902
aVtranslateY
p903
aVtranslateZ
p904
aVrotateX
p905
aVrotateY
p906
aVrotateZ
p907
aaF0
aF0
aF0
aF0
aF0
aF0
aa(lp908
S'r_global_ik_anim'
p909
a(lp910
VtranslateX
p911
aVtranslateY
p912
aVtranslateZ
p913
aVrotateX
p914
aVrotateY
p915
aVrotateZ
p916
aaF0
aF0
aF0
aF0
aF0
aF0
aa(lp917
S'Rig_Settings'
p918
a(lp919
Vspine_ik
p920
aVspine_fk
p921
aVlLegMode
p922
aVlThighTwistAmount
p923
aVlCalfTwistAmount
p924
aVlCalfTwist2Amount
p925
aVrLegMode
p926
aVrThighTwistAmount
p927
aVrCalfTwistAmount
p928
aVrCalfTwist2Amount
p929
aVlFkArmOrient
p930
aVrFkArmOrient
p931
aVlArmMode
p932
aVlUpperarmTwistAmount
p933
aVlForearmTwistAmount
p934
aVlForearmTwist2Amount
p935
aVrArmMode
p936
aVrUpperarmTwistAmount
p937
aVrForearmTwistAmount
p938
aVrForearmTwist2Amount
p939
aaF1
aF0
aI1
aF0.90000000000000002
aF0.75
aF0.5
aI1
aF0.90000000000000002
aF0.75
aF0.5
aI0
aI0
aI1
aF0.90000000000000002
aF0.40000000000000002
aF0.40000000000000002
aI1
aF0.90000000000000002
aF0.40000000000000002
aF0.5
aa(lp940
Vweapon_l_anim
p941
a(lp942
VtranslateX
p943
aVtranslateY
p944
aVtranslateZ
p945
aVrotateX
p946
aVrotateY
p947
aVrotateZ
p948
aaF0
aF0
aF0
aF0
aF0
aF0
aa(lp949
Vweapon_r_anim
p950
a(lp951
VtranslateX
p952
aVtranslateY
p953
aVtranslateZ
p954
aVrotateX
p955
aVrotateY
p956
aVrotateZ
p957
aaF-1.6148854470125169
aF0.17718078716957564
aF-1.262274294897594
aF1.031407481983599
aF4.7764633875449656
aF177.15072080694327
aa(lp958
Vattach_anim
p959
a(lp960
VtranslateX
p961
aVtranslateY
p962
aVtranslateZ
p963
aVrotateX
p964
aVrotateY
p965
aVrotateZ
p966
aaF0
aF0
aF0
aF0
aF0
aF0
aa.