(lp1
(lp2
S'head_fk_anim'
p3
a(lp4
(lp5
Na(lp6
aaaa(lp7
S'neck_01_fk_anim'
p8
a(lp9
(lp10
Na(lp11
aaaa(lp12
g9
aa(lp13
g9
aa(lp14
S'spine_01_anim'
p15
a(lp16
(lp17
Na(lp18
aaaa(lp19
S'spine_02_anim'
p20
a(lp21
(lp22
Na(lp23
aaaa(lp24
S'spine_03_anim'
p25
a(lp26
(lp27
Na(lp28
aaaa(lp29
g26
aa(lp30
g26
aa(lp31
S'mid_ik_anim'
p32
a(lp33
(lp34
Na(lp35
aaaa(lp36
S'chest_ik_anim'
p37
a(lp38
(lp39
Na(lp40
aaaa(lp41
S'body_anim'
p42
a(lp43
(lp44
Na(lp45
aaaa(lp46
S'hip_anim'
p47
a(lp48
(lp49
Na(lp50
aaaa(lp51
S'clavicle_l_anim'
p52
a(lp53
(lp54
Na(lp55
(lp56
VtranslateX
p57
a(lp58
(lp59
F0
aF-3.5527136788005009e-15
a(lp60
Vauto
p61
aVauto
p62
aF0
aF0
aF1
aF1
aaa(lp63
F23
aF-3.5527136788005009e-15
a(lp64
Vauto
p65
aVauto
p66
aF0
aF0
aF1
aF1
aaa(lp67
F35
aF-3.5527136788005009e-15
a(lp68
Vauto
p69
aVauto
p70
aF0
aF0
aF1
aF1
aaa(lp71
F49
aF-3.5527136788005009e-15
a(lp72
Vauto
p73
aVauto
p74
aF0
aF0
aF1
aF1
aaa(lp75
F66
aF-3.5527136788005009e-15
a(lp76
Vauto
p77
aVauto
p78
aF0
aF0
aF1
aF1
aaa(lp79
F76
aF-3.5527136788005009e-15
a(lp80
Vauto
p81
aVauto
p82
aF0
aF0
aF1
aF1
aaa(lp83
F96
aF-3.5527136788005009e-15
a(lp84
Vauto
p85
aVauto
p86
aF0
aF0
aF1
aF1
aaa(lp87
F109
aF-1.7763568394002505e-15
a(lp88
Vauto
p89
aVauto
p90
aF0
aF0
aF1
aF1
aaa(lp91
F120
aF-3.5527136788005009e-15
a(lp92
Vauto
p93
aVauto
p94
aF0
aF0
aF1
aF1
aaa(lp95
F131
aF-3.5527136788005009e-15
a(lp96
Vauto
p97
aVauto
p98
aF0
aF0
aF1
aF1
aaa(lp99
F141
aF-3.5527136788005009e-15
a(lp100
Vauto
p101
aVauto
p102
aF0
aF0
aF1
aF1
aaa(lp103
F151
aF-3.5527136788005009e-15
a(lp104
Vauto
p105
aVauto
p106
aF0
aF0
aF1
aF1
aaa(lp107
F161
aF-3.5527136788005009e-15
a(lp108
Vauto
p109
aVauto
p110
aF0
aF0
aF1
aF1
aaa(lp111
F180
aF-3.5527136788005009e-15
a(lp112
Vauto
p113
aVauto
p114
aF0
aF0
aF1
aF1
aaaaa(lp115
VtranslateY
p116
a(lp117
(lp118
F0
aF-3.9400000000000004
a(lp119
Vauto
p120
aVauto
p121
aF0
aF0
aF1
aF1
aaa(lp122
F23
aF-6.5600000000000005
a(lp123
Vauto
p124
aVauto
p125
aF0
aF0
aF1
aF1
aaa(lp126
F35
aF1.7300000000000022
a(lp127
Vauto
p128
aVauto
p129
aF0
aF0
aF1
aF1
aaa(lp130
F49
aF-1.562873601524323
a(lp131
Vauto
p132
aVauto
p133
aF-13.949233016440864
aF-13.949233870214512
aF1
aF1
aaa(lp134
F66
aF-5.9699999999999971
a(lp135
Vauto
p136
aVauto
p137
aF0
aF0
aF1
aF1
aaa(lp138
F76
aF1.4800000000000031
a(lp139
Vauto
p140
aVauto
p141
aF0
aF0
aF1
aF1
aaa(lp142
F96
aF1.4800000000000031
a(lp143
Vauto
p144
aVauto
p145
aF0
aF0
aF1
aF1
aaa(lp146
F109
aF1.4800000000000013
a(lp147
Vauto
p148
aVauto
p149
aF0
aF0
aF1
aF1
aaa(lp150
F120
aF-17.410000000000004
a(lp151
Vauto
p152
aVauto
p153
aF0
aF0
aF1
aF1
aaa(lp154
F131
aF-17.410000000000004
a(lp155
Vauto
p156
aVauto
p157
aF0
aF0
aF1
aF1
aaa(lp158
F141
aF0.75999999999999801
a(lp159
Vauto
p160
aVauto
p161
aF71.146419602627702
aF71.146419602627702
aF1
aF1
aaa(lp162
F151
aF41.159999999999997
a(lp163
Vauto
p164
aVauto
p165
aF0
aF0
aF1
aF1
aaa(lp166
F161
aF41.159999999999997
a(lp167
Vauto
p168
aVauto
p169
aF0
aF0
aF1
aF1
aaa(lp170
F180
aF1.4800000000000031
a(lp171
Vauto
p172
aVauto
p173
aF0
aF0
aF1
aF1
aaaaa(lp174
VtranslateZ
p175
a(lp176
(lp177
F0
aF6.67999999999995
a(lp178
Vauto
p179
aVauto
p180
aF0
aF0
aF1
aF1
aaa(lp181
F23
aF-8.5600000000000591
a(lp182
Vauto
p183
aVauto
p184
aF0
aF0
aF1
aF1
aaa(lp185
F35
aF0.45999999999995111
a(lp186
Vauto
p187
aVauto
p188
aF0
aF0
aF1
aF1
aaa(lp189
F49
aF-2.32000000000005
a(lp190
Vauto
p191
aVauto
p192
aF0
aF0
aF1
aF1
aaa(lp193
F66
aF0.45999999999995111
a(lp194
Vauto
p195
aVauto
p196
aF0
aF0
aF1
aF1
aaa(lp197
F76
aF-2.6800000000000637
a(lp198
Vauto
p199
aVauto
p200
aF0
aF0
aF1
aF1
aaa(lp201
F96
aF-2.6800000000000637
a(lp202
Vauto
p203
aVauto
p204
aF0
aF0
aF1
aF1
aaa(lp205
F109
aF9.1699999999999307
a(lp206
Vauto
p207
aVauto
p208
aF0
aF0
aF1
aF1
aaa(lp209
F120
aF9.1699999999999307
a(lp210
Vauto
p211
aVauto
p212
aF0
aF0
aF1
aF1
aaa(lp213
F131
aF-11.130000000000081
a(lp214
Vauto
p215
aVauto
p216
aF0
aF0
aF1
aF1
aaa(lp217
F141
aF-11.130000000000081
a(lp218
Vauto
p219
aVauto
p220
aF0
aF0
aF1
aF1
aaa(lp221
F151
aF-11.130000000000081
a(lp222
Vauto
p223
aVauto
p224
aF0
aF0
aF1
aF1
aaa(lp225
F161
aF30.569999999999936
a(lp226
Vauto
p227
aVauto
p228
aF0
aF0
aF1
aF1
aaa(lp229
F180
aF-2.6800000000000637
a(lp230
Vauto
p231
aVauto
p232
aF0
aF0
aF1
aF1
aaaaa(lp233
VautoShoulders
p234
a(lp235
(lp236
F0
aF1
a(lp237
Vauto
p238
aVauto
p239
aF0
aF0
aF1
aF1
aaa(lp240
F23
aF1
a(lp241
Vauto
p242
aVauto
p243
aF0
aF0
aF1
aF1
aaa(lp244
F35
aF1
a(lp245
Vauto
p246
aVauto
p247
aF0
aF0
aF1
aF1
aaa(lp248
F49
aF1
a(lp249
Vauto
p250
aVauto
p251
aF0
aF0
aF1
aF1
aaa(lp252
F66
aF1
a(lp253
Vauto
p254
aVauto
p255
aF0
aF0
aF1
aF1
aaa(lp256
F76
aF0
a(lp257
Vauto
p258
aVauto
p259
aF0
aF0
aF1
aF1
aaa(lp260
F96
aF0
a(lp261
Vauto
p262
aVauto
p263
aF0
aF0
aF1
aF1
aaa(lp264
F109
aF0
a(lp265
Vauto
p266
aVauto
p267
aF0
aF0
aF1
aF1
aaa(lp268
F120
aF0
a(lp269
Vauto
p270
aVauto
p271
aF0
aF0
aF1
aF1
aaa(lp272
F131
aF0
a(lp273
Vauto
p274
aVauto
p275
aF0
aF0
aF1
aF1
aaa(lp276
F141
aF0
a(lp277
Vauto
p278
aVauto
p279
aF0
aF0
aF1
aF1
aaa(lp280
F151
aF0
a(lp281
Vauto
p282
aVauto
p283
aF0
aF0
aF1
aF1
aaa(lp284
F161
aF0
a(lp285
Vauto
p286
aVauto
p287
aF0
aF0
aF1
aF1
aaa(lp288
F180
aF0
a(lp289
Vauto
p290
aVauto
p291
aF0
aF0
aF1
aF1
aaaaa(lp292
VtwistCtrlVis
p293
a(lp294
(lp295
F0
aF0
a(lp296
Vspline
p297
aVstep
p298
aF0
aF0
aF1
aF0
aaa(lp299
F23
aF0
a(lp300
Vspline
p301
aVstep
p302
aF0
aF0
aF1
aF0
aaa(lp303
F35
aF0
a(lp304
Vspline
p305
aVstep
p306
aF0
aF0
aF1
aF0
aaa(lp307
F49
aF0
a(lp308
Vspline
p309
aVstep
p310
aF0
aF0
aF1
aF0
aaa(lp311
F66
aF0
a(lp312
Vspline
p313
aVstep
p314
aF0
aF0
aF1
aF0
aaa(lp315
F76
aF0
a(lp316
Vspline
p317
aVstep
p318
aF0
aF0
aF1
aF0
aaa(lp319
F96
aF0
a(lp320
Vspline
p321
aVstep
p322
aF0
aF0
aF1
aF0
aaa(lp323
F109
aF0
a(lp324
Vspline
p325
aVstep
p326
aF0
aF0
aF1
aF0
aaa(lp327
F120
aF0
a(lp328
Vspline
p329
aVstep
p330
aF0
aF0
aF1
aF0
aaa(lp331
F131
aF0
a(lp332
Vspline
p333
aVstep
p334
aF0
aF0
aF1
aF0
aaa(lp335
F141
aF0
a(lp336
Vspline
p337
aVstep
p338
aF0
aF0
aF1
aF0
aaa(lp339
F151
aF0
a(lp340
Vspline
p341
aVstep
p342
aF0
aF0
aF1
aF0
aaa(lp343
F161
aF0
a(lp344
Vspline
p345
aVstep
p346
aF0
aF0
aF1
aF0
aaa(lp347
F180
aF0
a(lp348
Vspline
p349
aVstep
p350
aF0
aF0
aF1
aF0
aaaaa(lp351
VtwistCtrlVisLower
p352
a(lp353
(lp354
F0
aF0
a(lp355
Vspline
p356
aVstep
p357
aF0
aF0
aF1
aF0
aaa(lp358
F23
aF0
a(lp359
Vspline
p360
aVstep
p361
aF0
aF0
aF1
aF0
aaa(lp362
F35
aF0
a(lp363
Vspline
p364
aVstep
p365
aF0
aF0
aF1
aF0
aaa(lp366
F49
aF0
a(lp367
Vspline
p368
aVstep
p369
aF0
aF0
aF1
aF0
aaa(lp370
F66
aF0
a(lp371
Vspline
p372
aVstep
p373
aF0
aF0
aF1
aF0
aaa(lp374
F76
aF0
a(lp375
Vspline
p376
aVstep
p377
aF0
aF0
aF1
aF0
aaa(lp378
F96
aF0
a(lp379
Vspline
p380
aVstep
p381
aF0
aF0
aF1
aF0
aaa(lp382
F109
aF0
a(lp383
Vspline
p384
aVstep
p385
aF0
aF0
aF1
aF0
aaa(lp386
F120
aF0
a(lp387
Vspline
p388
aVstep
p389
aF0
aF0
aF1
aF0
aaa(lp390
F131
aF0
a(lp391
Vspline
p392
aVstep
p393
aF0
aF0
aF1
aF0
aaa(lp394
F141
aF0
a(lp395
Vspline
p396
aVstep
p397
aF0
aF0
aF1
aF0
aaa(lp398
F151
aF0
a(lp399
Vspline
p400
aVstep
p401
aF0
aF0
aF1
aF0
aaa(lp402
F161
aF0
a(lp403
Vspline
p404
aVstep
p405
aF0
aF0
aF1
aF0
aaa(lp406
F180
aF0
a(lp407
Vspline
p408
aVstep
p409
aF0
aF0
aF1
aF0
aaaaaaaaa(lp410
S'clavicle_r_anim'
p411
a(lp412
(lp413
Na(lp414
(lp415
VtranslateX
p416
a(lp417
(lp418
F0
aF0
a(lp419
Vauto
p420
aVauto
p421
aF0
aF0
aF1
aF1
aaa(lp422
F23
aF0
a(lp423
Vauto
p424
aVauto
p425
aF0
aF0
aF1
aF1
aaa(lp426
F35
aF0
a(lp427
Vauto
p428
aVauto
p429
aF0
aF0
aF1
aF1
aaa(lp430
F49
aF7.596517588763988e-16
a(lp431
Vauto
p432
aVauto
p433
aF0
aF0
aF1
aF1
aaa(lp434
F66
aF1.7763568394002505e-15
a(lp435
Vauto
p436
aVauto
p437
aF0
aF0
aF1
aF1
aaa(lp438
F76
aF1.7763568394002505e-15
a(lp439
Vauto
p440
aVauto
p441
aF0
aF0
aF1
aF1
aaa(lp442
F96
aF1.7763568394002505e-15
a(lp443
Vauto
p444
aVauto
p445
aF0
aF0
aF1
aF1
aaa(lp446
F109
aF5.3290705182007514e-15
a(lp447
Vauto
p448
aVauto
p449
aF0
aF0
aF1
aF1
aaa(lp450
F120
aF5.3290705182007514e-15
a(lp451
Vauto
p452
aVauto
p453
aF0
aF0
aF1
aF1
aaa(lp454
F131
aF5.3290705182007514e-15
a(lp455
Vauto
p456
aVauto
p457
aF0
aF0
aF1
aF1
aaa(lp458
F141
aF5.3290705182007514e-15
a(lp459
Vauto
p460
aVauto
p461
aF0
aF0
aF1
aF1
aaa(lp462
F151
aF5.3290705182007514e-15
a(lp463
Vauto
p464
aVauto
p465
aF0
aF0
aF1
aF1
aaa(lp466
F161
aF5.3290705182007514e-15
a(lp467
Vauto
p468
aVauto
p469
aF0
aF0
aF1
aF1
aaa(lp470
F180
aF1.7763568394002505e-15
a(lp471
Vauto
p472
aVauto
p473
aF0
aF0
aF1
aF1
aaaaa(lp474
VtranslateY
p475
a(lp476
(lp477
F0
aF-3.9400000000000004
a(lp478
Vauto
p479
aVauto
p480
aF0
aF0
aF1
aF1
aaa(lp481
F23
aF-6.5600000000000005
a(lp482
Vauto
p483
aVauto
p484
aF0
aF0
aF1
aF1
aaa(lp485
F35
aF1.7300000000000022
a(lp486
Vauto
p487
aVauto
p488
aF0
aF0
aF1
aF1
aaa(lp489
F49
aF-1.562873601524323
a(lp490
Vauto
p491
aVauto
p492
aF-13.949233016440864
aF-13.949233870214512
aF1
aF1
aaa(lp493
F66
aF-5.9699999999999971
a(lp494
Vauto
p495
aVauto
p496
aF0
aF0
aF1
aF1
aaa(lp497
F76
aF1.4800000000000031
a(lp498
Vauto
p499
aVauto
p500
aF0
aF0
aF1
aF1
aaa(lp501
F96
aF1.4800000000000031
a(lp502
Vauto
p503
aVauto
p504
aF0
aF0
aF1
aF1
aaa(lp505
F109
aF1.4800000000000013
a(lp506
Vauto
p507
aVauto
p508
aF0
aF0
aF1
aF1
aaa(lp509
F120
aF-17.410000000000004
a(lp510
Vauto
p511
aVauto
p512
aF0
aF0
aF1
aF1
aaa(lp513
F131
aF-17.410000000000004
a(lp514
Vauto
p515
aVauto
p516
aF0
aF0
aF1
aF1
aaa(lp517
F141
aF0.75999999999999801
a(lp518
Vauto
p519
aVauto
p520
aF71.146419602627702
aF71.146419602627702
aF1
aF1
aaa(lp521
F151
aF41.159999999999997
a(lp522
Vauto
p523
aVauto
p524
aF0
aF0
aF1
aF1
aaa(lp525
F161
aF41.159999999999997
a(lp526
Vauto
p527
aVauto
p528
aF0
aF0
aF1
aF1
aaa(lp529
F180
aF1.4800000000000031
a(lp530
Vauto
p531
aVauto
p532
aF0
aF0
aF1
aF1
aaaaa(lp533
VtranslateZ
p534
a(lp535
(lp536
F0
aF6.67999999999995
a(lp537
Vauto
p538
aVauto
p539
aF0
aF0
aF1
aF1
aaa(lp540
F23
aF-8.5600000000000591
a(lp541
Vauto
p542
aVauto
p543
aF0
aF0
aF1
aF1
aaa(lp544
F35
aF0.45999999999995111
a(lp545
Vauto
p546
aVauto
p547
aF0
aF0
aF1
aF1
aaa(lp548
F49
aF-2.32000000000005
a(lp549
Vauto
p550
aVauto
p551
aF0
aF0
aF1
aF1
aaa(lp552
F66
aF0.45999999999995111
a(lp553
Vauto
p554
aVauto
p555
aF0
aF0
aF1
aF1
aaa(lp556
F76
aF-2.6800000000000637
a(lp557
Vauto
p558
aVauto
p559
aF0
aF0
aF1
aF1
aaa(lp560
F96
aF-2.6800000000000637
a(lp561
Vauto
p562
aVauto
p563
aF0
aF0
aF1
aF1
aaa(lp564
F109
aF9.1699999999999307
a(lp565
Vauto
p566
aVauto
p567
aF0
aF0
aF1
aF1
aaa(lp568
F120
aF9.1699999999999307
a(lp569
Vauto
p570
aVauto
p571
aF0
aF0
aF1
aF1
aaa(lp572
F131
aF-11.130000000000081
a(lp573
Vauto
p574
aVauto
p575
aF0
aF0
aF1
aF1
aaa(lp576
F141
aF-11.130000000000081
a(lp577
Vauto
p578
aVauto
p579
aF0
aF0
aF1
aF1
aaa(lp580
F151
aF-11.130000000000081
a(lp581
Vauto
p582
aVauto
p583
aF0
aF0
aF1
aF1
aaa(lp584
F161
aF30.569999999999936
a(lp585
Vauto
p586
aVauto
p587
aF0
aF0
aF1
aF1
aaa(lp588
F180
aF-2.6800000000000637
a(lp589
Vauto
p590
aVauto
p591
aF0
aF0
aF1
aF1
aaaaa(lp592
VautoShoulders
p593
a(lp594
(lp595
F0
aF1
a(lp596
Vauto
p597
aVauto
p598
aF0
aF0
aF1
aF1
aaa(lp599
F23
aF1
a(lp600
Vauto
p601
aVauto
p602
aF0
aF0
aF1
aF1
aaa(lp603
F35
aF1
a(lp604
Vauto
p605
aVauto
p606
aF0
aF0
aF1
aF1
aaa(lp607
F49
aF1
a(lp608
Vauto
p609
aVauto
p610
aF0
aF0
aF1
aF1
aaa(lp611
F66
aF1
a(lp612
Vauto
p613
aVauto
p614
aF0
aF0
aF1
aF1
aaa(lp615
F76
aF0
a(lp616
Vauto
p617
aVauto
p618
aF0
aF0
aF1
aF1
aaa(lp619
F96
aF0
a(lp620
Vauto
p621
aVauto
p622
aF0
aF0
aF1
aF1
aaa(lp623
F109
aF0
a(lp624
Vauto
p625
aVauto
p626
aF0
aF0
aF1
aF1
aaa(lp627
F120
aF0
a(lp628
Vauto
p629
aVauto
p630
aF0
aF0
aF1
aF1
aaa(lp631
F131
aF0
a(lp632
Vauto
p633
aVauto
p634
aF0
aF0
aF1
aF1
aaa(lp635
F141
aF0
a(lp636
Vauto
p637
aVauto
p638
aF0
aF0
aF1
aF1
aaa(lp639
F151
aF0
a(lp640
Vauto
p641
aVauto
p642
aF0
aF0
aF1
aF1
aaa(lp643
F161
aF0
a(lp644
Vauto
p645
aVauto
p646
aF0
aF0
aF1
aF1
aaa(lp647
F180
aF0
a(lp648
Vauto
p649
aVauto
p650
aF0
aF0
aF1
aF1
aaaaa(lp651
VtwistCtrlVis
p652
a(lp653
(lp654
F0
aF0
a(lp655
Vspline
p656
aVstep
p657
aF0
aF0
aF1
aF0
aaa(lp658
F23
aF0
a(lp659
Vspline
p660
aVstep
p661
aF0
aF0
aF1
aF0
aaa(lp662
F35
aF0
a(lp663
Vspline
p664
aVstep
p665
aF0
aF0
aF1
aF0
aaa(lp666
F49
aF0
a(lp667
Vspline
p668
aVstep
p669
aF0
aF0
aF1
aF0
aaa(lp670
F66
aF0
a(lp671
Vspline
p672
aVstep
p673
aF0
aF0
aF1
aF0
aaa(lp674
F76
aF0
a(lp675
Vspline
p676
aVstep
p677
aF0
aF0
aF1
aF0
aaa(lp678
F96
aF0
a(lp679
Vspline
p680
aVstep
p681
aF0
aF0
aF1
aF0
aaa(lp682
F109
aF0
a(lp683
Vspline
p684
aVstep
p685
aF0
aF0
aF1
aF0
aaa(lp686
F120
aF0
a(lp687
Vspline
p688
aVstep
p689
aF0
aF0
aF1
aF0
aaa(lp690
F131
aF0
a(lp691
Vspline
p692
aVstep
p693
aF0
aF0
aF1
aF0
aaa(lp694
F141
aF0
a(lp695
Vspline
p696
aVstep
p697
aF0
aF0
aF1
aF0
aaa(lp698
F151
aF0
a(lp699
Vspline
p700
aVstep
p701
aF0
aF0
aF1
aF0
aaa(lp702
F161
aF0
a(lp703
Vspline
p704
aVstep
p705
aF0
aF0
aF1
aF0
aaa(lp706
F180
aF0
a(lp707
Vspline
p708
aVstep
p709
aF0
aF0
aF1
aF0
aaaaa(lp710
VtwistCtrlVisLower
p711
a(lp712
(lp713
F0
aF0
a(lp714
Vspline
p715
aVstep
p716
aF0
aF0
aF1
aF0
aaa(lp717
F23
aF0
a(lp718
Vspline
p719
aVstep
p720
aF0
aF0
aF1
aF0
aaa(lp721
F35
aF0
a(lp722
Vspline
p723
aVstep
p724
aF0
aF0
aF1
aF0
aaa(lp725
F49
aF0
a(lp726
Vspline
p727
aVstep
p728
aF0
aF0
aF1
aF0
aaa(lp729
F66
aF0
a(lp730
Vspline
p731
aVstep
p732
aF0
aF0
aF1
aF0
aaa(lp733
F76
aF0
a(lp734
Vspline
p735
aVstep
p736
aF0
aF0
aF1
aF0
aaa(lp737
F96
aF0
a(lp738
Vspline
p739
aVstep
p740
aF0
aF0
aF1
aF0
aaa(lp741
F109
aF0
a(lp742
Vspline
p743
aVstep
p744
aF0
aF0
aF1
aF0
aaa(lp745
F120
aF0
a(lp746
Vspline
p747
aVstep
p748
aF0
aF0
aF1
aF0
aaa(lp749
F131
aF0
a(lp750
Vspline
p751
aVstep
p752
aF0
aF0
aF1
aF0
aaa(lp753
F141
aF0
a(lp754
Vspline
p755
aVstep
p756
aF0
aF0
aF1
aF0
aaa(lp757
F151
aF0
a(lp758
Vspline
p759
aVstep
p760
aF0
aF0
aF1
aF0
aaa(lp761
F161
aF0
a(lp762
Vspline
p763
aVstep
p764
aF0
aF0
aF1
aF0
aaa(lp765
F180
aF0
a(lp766
Vspline
p767
aVstep
p768
aF0
aF0
aF1
aF0
aaaaaaaaa(lp769
S'fk_arm_l_anim'
p770
a(lp771
(lp772
Na(lp773
(lp774
VtranslateX
p775
a(lp776
(lp777
F0
aF0
a(lp778
Vauto
p779
aVauto
p780
aF0
aF0
aF1
aF1
aaa(lp781
F20
aF0
a(lp782
Vauto
p783
aVauto
p784
aF0
aF0
aF1
aF1
aaa(lp785
F33
aF0
a(lp786
Vauto
p787
aVauto
p788
aF0
aF0
aF1
aF1
aaa(lp789
F47
aF0
a(lp790
Vauto
p791
aVauto
p792
aF0
aF0
aF1
aF1
aaa(lp793
F56
aF0
a(lp794
Vauto
p795
aVauto
p796
aF0
aF0
aF1
aF1
aaa(lp797
F65
aF0
a(lp798
Vauto
p799
aVauto
p800
aF0
aF0
aF1
aF1
aaa(lp801
F76
aF0
a(lp802
Vauto
p803
aVauto
p804
aF0
aF0
aF1
aF1
aaa(lp805
F96
aF0
a(lp806
Vauto
p807
aVauto
p808
aF0
aF0
aF1
aF1
aaaaa(lp809
VtranslateY
p810
a(lp811
(lp812
F0
aF0
a(lp813
Vauto
p814
aVauto
p815
aF0
aF0
aF1
aF1
aaa(lp816
F20
aF0
a(lp817
Vauto
p818
aVauto
p819
aF0
aF0
aF1
aF1
aaa(lp820
F33
aF0
a(lp821
Vauto
p822
aVauto
p823
aF0
aF0
aF1
aF1
aaa(lp824
F47
aF0
a(lp825
Vauto
p826
aVauto
p827
aF0
aF0
aF1
aF1
aaa(lp828
F56
aF0
a(lp829
Vauto
p830
aVauto
p831
aF0
aF0
aF1
aF1
aaa(lp832
F65
aF0
a(lp833
Vauto
p834
aVauto
p835
aF0
aF0
aF1
aF1
aaa(lp836
F76
aF0
a(lp837
Vauto
p838
aVauto
p839
aF0
aF0
aF1
aF1
aaa(lp840
F96
aF0
a(lp841
Vauto
p842
aVauto
p843
aF0
aF0
aF1
aF1
aaaaa(lp844
VtranslateZ
p845
a(lp846
(lp847
F0
aF0
a(lp848
Vauto
p849
aVauto
p850
aF0
aF0
aF1
aF1
aaa(lp851
F20
aF0
a(lp852
Vauto
p853
aVauto
p854
aF0
aF0
aF1
aF1
aaa(lp855
F33
aF0
a(lp856
Vauto
p857
aVauto
p858
aF0
aF0
aF1
aF1
aaa(lp859
F47
aF0
a(lp860
Vauto
p861
aVauto
p862
aF0
aF0
aF1
aF1
aaa(lp863
F56
aF0
a(lp864
Vauto
p865
aVauto
p866
aF0
aF0
aF1
aF1
aaa(lp867
F65
aF0
a(lp868
Vauto
p869
aVauto
p870
aF0
aF0
aF1
aF1
aaa(lp871
F76
aF0
a(lp872
Vauto
p873
aVauto
p874
aF0
aF0
aF1
aF1
aaa(lp875
F96
aF0
a(lp876
Vauto
p877
aVauto
p878
aF0
aF0
aF1
aF1
aaaaa(lp879
VrotateX
p880
a(lp881
(lp882
F0
aF5.8132988458690473
a(lp883
Vauto
p884
aVauto
p885
aF0
aF0
aF1
aF1
aaa(lp886
F20
aF-76.283926652051008
a(lp887
Vauto
p888
aVauto
p889
aF0
aF0
aF1
aF1
aaa(lp890
F33
aF1.0803264017279712
a(lp891
Vauto
p892
aVauto
p893
aF56.118394919050111
aF56.118391503955522
aF1
aF1
aaa(lp894
F47
aF8.0298778312264112
a(lp895
Vauto
p896
aVauto
p897
aF56.118391503955522
aF56.118391503955522
aF1
aF1
aaa(lp898
F56
aF73.484169140402571
a(lp899
Vauto
p900
aVauto
p901
aF0
aF0
aF1
aF1
aaa(lp902
F65
aF-7.2197515944769659
a(lp903
Vauto
p904
aVauto
p905
aF0
aF0
aF1
aF1
aaa(lp906
F76
aF0
a(lp907
Vauto
p908
aVauto
p909
aF0
aF0
aF1
aF1
aaa(lp910
F96
aF0
a(lp911
Vauto
p912
aVauto
p913
aF0
aF0
aF1
aF1
aaaaa(lp914
VrotateY
p915
a(lp916
(lp917
F0
aF79.362076456107602
a(lp918
Vauto
p919
aVauto
p920
aF0
aF0
aF1
aF1
aaa(lp921
F20
aF-91.970792460376288
a(lp922
Vauto
p923
aVauto
p924
aF0
aF0
aF1
aF1
aaa(lp925
F33
aF7.3832177664321605
a(lp926
Vauto
p927
aVauto
p928
aF0
aF0
aF1
aF1
aaa(lp929
F47
aF-0.47012835280791249
a(lp930
Vauto
p931
aVauto
p932
aF0
aF0
aF1
aF1
aaa(lp933
F56
aF0.57932390703315462
a(lp934
Vauto
p935
aVauto
p936
aF14.330525765535889
aF14.330525765535889
aF1
aF1
aaa(lp937
F65
aF4.1282280790116399
a(lp938
Vauto
p939
aVauto
p940
aF49.791112577625398
aF49.791109162530816
aF1
aF1
aaa(lp941
F76
aF69.978828787401383
a(lp942
Vauto
p943
aVauto
p944
aF0
aF0
aF1
aF1
aaa(lp945
F96
aF69.978828787401383
a(lp946
Vauto
p947
aVauto
p948
aF0
aF0
aF1
aF1
aaaaa(lp949
VrotateZ
p950
a(lp951
(lp952
F0
aF6.5632115017487029
a(lp953
Vauto
p954
aVauto
p955
aF0
aF0
aF1
aF1
aaa(lp956
F20
aF33.769462389507339
a(lp957
Vauto
p958
aVauto
p959
aF0
aF0
aF1
aF1
aaa(lp960
F33
aF0.9880004161080812
a(lp961
Vauto
p962
aVauto
p963
aF-77.658841051694779
aF-77.658841051694779
aF1
aF1
aaa(lp964
F47
aF-89.637778723254698
a(lp965
Vauto
p966
aVauto
p967
aF0
aF0
aF1
aF1
aaa(lp968
F56
aF9.6435910049906273
a(lp969
Vauto
p970
aVauto
p971
aF83.136263445262315
aF83.136263445262315
aF1
aF1
aaa(lp972
F65
aF59.899723614895365
a(lp973
Vauto
p974
aVauto
p975
aF0
aF0
aF1
aF1
aaa(lp976
F76
aF0
a(lp977
Vauto
p978
aVauto
p979
aF0
aF0
aF1
aF1
aaa(lp980
F96
aF0
a(lp981
Vauto
p982
aVauto
p983
aF0
aF0
aF1
aF1
aaaaaaaaa(lp984
S'fk_arm_r_anim'
p985
a(lp986
(lp987
Na(lp988
(lp989
VtranslateX
p990
a(lp991
(lp992
F0
aF0
a(lp993
Vauto
p994
aVauto
p995
aF0
aF0
aF1
aF1
aaa(lp996
F20
aF0
a(lp997
Vauto
p998
aVauto
p999
aF0
aF0
aF1
aF1
aaa(lp1000
F33
aF0
a(lp1001
Vauto
p1002
aVauto
p1003
aF0
aF0
aF1
aF1
aaa(lp1004
F47
aF0
a(lp1005
Vauto
p1006
aVauto
p1007
aF0
aF0
aF1
aF1
aaa(lp1008
F56
aF0
a(lp1009
Vauto
p1010
aVauto
p1011
aF0
aF0
aF1
aF1
aaa(lp1012
F65
aF0
a(lp1013
Vauto
p1014
aVauto
p1015
aF0
aF0
aF1
aF1
aaa(lp1016
F76
aF0
a(lp1017
Vauto
p1018
aVauto
p1019
aF0
aF0
aF1
aF1
aaa(lp1020
F96
aF0
a(lp1021
Vauto
p1022
aVauto
p1023
aF0
aF0
aF1
aF1
aaaaa(lp1024
VtranslateY
p1025
a(lp1026
(lp1027
F0
aF0
a(lp1028
Vauto
p1029
aVauto
p1030
aF0
aF0
aF1
aF1
aaa(lp1031
F20
aF0
a(lp1032
Vauto
p1033
aVauto
p1034
aF0
aF0
aF1
aF1
aaa(lp1035
F33
aF0
a(lp1036
Vauto
p1037
aVauto
p1038
aF0
aF0
aF1
aF1
aaa(lp1039
F47
aF0
a(lp1040
Vauto
p1041
aVauto
p1042
aF0
aF0
aF1
aF1
aaa(lp1043
F56
aF0
a(lp1044
Vauto
p1045
aVauto
p1046
aF0
aF0
aF1
aF1
aaa(lp1047
F65
aF0
a(lp1048
Vauto
p1049
aVauto
p1050
aF0
aF0
aF1
aF1
aaa(lp1051
F76
aF0
a(lp1052
Vauto
p1053
aVauto
p1054
aF0
aF0
aF1
aF1
aaa(lp1055
F96
aF0
a(lp1056
Vauto
p1057
aVauto
p1058
aF0
aF0
aF1
aF1
aaaaa(lp1059
VtranslateZ
p1060
a(lp1061
(lp1062
F0
aF0
a(lp1063
Vauto
p1064
aVauto
p1065
aF0
aF0
aF1
aF1
aaa(lp1066
F20
aF0
a(lp1067
Vauto
p1068
aVauto
p1069
aF0
aF0
aF1
aF1
aaa(lp1070
F33
aF0
a(lp1071
Vauto
p1072
aVauto
p1073
aF0
aF0
aF1
aF1
aaa(lp1074
F47
aF0
a(lp1075
Vauto
p1076
aVauto
p1077
aF0
aF0
aF1
aF1
aaa(lp1078
F56
aF0
a(lp1079
Vauto
p1080
aVauto
p1081
aF0
aF0
aF1
aF1
aaa(lp1082
F65
aF0
a(lp1083
Vauto
p1084
aVauto
p1085
aF0
aF0
aF1
aF1
aaa(lp1086
F76
aF0
a(lp1087
Vauto
p1088
aVauto
p1089
aF0
aF0
aF1
aF1
aaa(lp1090
F96
aF0
a(lp1091
Vauto
p1092
aVauto
p1093
aF0
aF0
aF1
aF1
aaaaa(lp1094
VrotateX
p1095
a(lp1096
(lp1097
F0
aF5.8236625164228268
a(lp1098
Vauto
p1099
aVauto
p1100
aF0
aF0
aF1
aF1
aaa(lp1101
F20
aF-76.328791322531202
a(lp1102
Vauto
p1103
aVauto
p1104
aF0
aF0
aF1
aF1
aaa(lp1105
F33
aF1.0822802815571126
a(lp1106
Vauto
p1107
aVauto
p1108
aF56.111458861947959
aF56.111458861947959
aF1
aF1
aaa(lp1109
F47
aF8.0300141458864278
a(lp1110
Vauto
p1111
aVauto
p1112
aF56.111458861947959
aF56.111458861947959
aF1
aF1
aaa(lp1113
F56
aF73.484791186970895
a(lp1114
Vauto
p1115
aVauto
p1116
aF0
aF0
aF1
aF1
aaa(lp1117
F65
aF-7.2188836708899542
a(lp1118
Vauto
p1119
aVauto
p1120
aF0
aF0
aF1
aF1
aaa(lp1121
F76
aF0
a(lp1122
Vauto
p1123
aVauto
p1124
aF0
aF0
aF1
aF1
aaa(lp1125
F96
aF0
a(lp1126
Vauto
p1127
aVauto
p1128
aF0
aF0
aF1
aF1
aaaaa(lp1129
VrotateY
p1130
a(lp1131
(lp1132
F0
aF79.361731298627305
a(lp1133
Vauto
p1134
aVauto
p1135
aF0
aF0
aF1
aF1
aaa(lp1136
F20
aF-91.971974596818569
a(lp1137
Vauto
p1138
aVauto
p1139
aF0
aF0
aF1
aF1
aaa(lp1140
F33
aF7.3830602799393343
a(lp1141
Vauto
p1142
aVauto
p1143
aF0
aF0
aF1
aF1
aaa(lp1144
F47
aF-0.46818906780606329
a(lp1145
Vauto
p1146
aVauto
p1147
aF0
aF0
aF1
aF1
aaa(lp1148
F56
aF0.58042333974804716
a(lp1149
Vauto
p1150
aVauto
p1151
aF14.319526599651228
aF14.319526599651228
aF1
aF1
aaa(lp1152
F65
aF4.126487384433041
a(lp1153
Vauto
p1154
aVauto
p1155
aF49.7684944061889
aF49.7684944061889
aF1
aF1
aaa(lp1156
F76
aF69.978828787401383
a(lp1157
Vauto
p1158
aVauto
p1159
aF0
aF0
aF1
aF1
aaa(lp1160
F96
aF69.978828787401383
a(lp1161
Vauto
p1162
aVauto
p1163
aF0
aF0
aF1
aF1
aaaaa(lp1164
VrotateZ
p1165
a(lp1166
(lp1167
F0
aF6.5727522367784017
a(lp1168
Vauto
p1169
aVauto
p1170
aF0
aF0
aF1
aF1
aaa(lp1171
F20
aF33.813655692795706
a(lp1172
Vauto
p1173
aVauto
p1174
aF0
aF0
aF1
aF1
aaa(lp1175
F33
aF0.98760668374239746
a(lp1176
Vauto
p1177
aVauto
p1178
aF-77.663191882196074
aF-77.663191882196074
aF1
aF1
aaa(lp1179
F47
aF-89.638424652711521
a(lp1180
Vauto
p1181
aVauto
p1182
aF0
aF0
aF1
aF1
aaa(lp1183
F56
aF9.6429872903072305
a(lp1184
Vauto
p1185
aVauto
p1186
aF83.13627027545148
aF83.13627027545148
aF1
aF1
aaa(lp1187
F65
aF59.899141269289196
a(lp1188
Vauto
p1189
aVauto
p1190
aF0
aF0
aF1
aF1
aaa(lp1191
F76
aF0
a(lp1192
Vauto
p1193
aVauto
p1194
aF0
aF0
aF1
aF1
aaa(lp1195
F96
aF0
a(lp1196
Vauto
p1197
aVauto
p1198
aF0
aF0
aF1
aF1
aaaaaaaaa(lp1199
S'fk_elbow_l_anim'
p1200
a(lp1201
(lp1202
Na(lp1203
(lp1204
VtranslateX
p1205
a(lp1206
(lp1207
F0
aF0
a(lp1208
Vauto
p1209
aVauto
p1210
aF0
aF0
aF0
aF0
aaaaa(lp1211
VtranslateY
p1212
a(lp1213
(lp1214
F0
aF0
a(lp1215
Vauto
p1216
aVauto
p1217
aF0
aF0
aF0
aF0
aaaaa(lp1218
VtranslateZ
p1219
a(lp1220
(lp1221
F0
aF0
a(lp1222
Vauto
p1223
aVauto
p1224
aF0
aF0
aF0
aF0
aaaaa(lp1225
VrotateX
p1226
a(lp1227
(lp1228
F0
aF-2.5877824246488208
a(lp1229
Vauto
p1230
aVauto
p1231
aF0
aF0
aF0
aF0
aaaaa(lp1232
VrotateY
p1233
a(lp1234
(lp1235
F0
aF1.6604011702006882
a(lp1236
Vauto
p1237
aVauto
p1238
aF0
aF0
aF0
aF0
aaaaa(lp1239
VrotateZ
p1240
a(lp1241
(lp1242
F0
aF-1.9750931232041666
a(lp1243
Vauto
p1244
aVauto
p1245
aF0
aF0
aF0
aF0
aaaaaaaaa(lp1246
S'fk_elbow_r_anim'
p1247
a(lp1248
(lp1249
Na(lp1250
(lp1251
VtranslateX
p1252
a(lp1253
(lp1254
F0
aF0
a(lp1255
Vauto
p1256
aVauto
p1257
aF0
aF0
aF0
aF0
aaaaa(lp1258
VtranslateY
p1259
a(lp1260
(lp1261
F0
aF0
a(lp1262
Vauto
p1263
aVauto
p1264
aF0
aF0
aF0
aF0
aaaaa(lp1265
VtranslateZ
p1266
a(lp1267
(lp1268
F0
aF0
a(lp1269
Vauto
p1270
aVauto
p1271
aF0
aF0
aF0
aF0
aaaaa(lp1272
VrotateX
p1273
a(lp1274
(lp1275
F0
aF-2.3538452993208341
a(lp1276
Vauto
p1277
aVauto
p1278
aF0
aF0
aF0
aF0
aaaaa(lp1279
VrotateY
p1280
a(lp1281
(lp1282
F0
aF1.6616989253686603
a(lp1283
Vauto
p1284
aVauto
p1285
aF0
aF0
aF0
aF0
aaaaa(lp1286
VrotateZ
p1287
a(lp1288
(lp1289
F0
aF-1.9666652072627027
a(lp1290
Vauto
p1291
aVauto
p1292
aF0
aF0
aF0
aF0
aaaaaaaaa(lp1293
S'fk_wrist_l_anim'
p1294
a(lp1295
(lp1296
Na(lp1297
(lp1298
VtranslateX
p1299
a(lp1300
(lp1301
F0
aF0
a(lp1302
Vauto
p1303
aVauto
p1304
aF0
aF0
aF0
aF0
aaaaa(lp1305
VtranslateY
p1306
a(lp1307
(lp1308
F0
aF0
a(lp1309
Vauto
p1310
aVauto
p1311
aF0
aF0
aF0
aF0
aaaaa(lp1312
VtranslateZ
p1313
a(lp1314
(lp1315
F0
aF0
a(lp1316
Vauto
p1317
aVauto
p1318
aF0
aF0
aF0
aF0
aaaaa(lp1319
VrotateX
p1320
a(lp1321
(lp1322
F0
aF-1.6532142072548206
a(lp1323
Vauto
p1324
aVauto
p1325
aF0
aF0
aF0
aF0
aaaaa(lp1326
VrotateY
p1327
a(lp1328
(lp1329
F0
aF0.04600485610767234
a(lp1330
Vauto
p1331
aVauto
p1332
aF0
aF0
aF0
aF0
aaaaa(lp1333
VrotateZ
p1334
a(lp1335
(lp1336
F0
aF-0.034643792651093817
a(lp1337
Vauto
p1338
aVauto
p1339
aF0
aF0
aF0
aF0
aaaaaaaaa(lp1340
S'fk_wrist_r_anim'
p1341
a(lp1342
(lp1343
Na(lp1344
(lp1345
VtranslateX
p1346
a(lp1347
(lp1348
F0
aF0
a(lp1349
Vauto
p1350
aVauto
p1351
aF0
aF0
aF0
aF0
aaaaa(lp1352
VtranslateY
p1353
a(lp1354
(lp1355
F0
aF0
a(lp1356
Vauto
p1357
aVauto
p1358
aF0
aF0
aF0
aF0
aaaaa(lp1359
VtranslateZ
p1360
a(lp1361
(lp1362
F0
aF0
a(lp1363
Vauto
p1364
aVauto
p1365
aF0
aF0
aF0
aF0
aaaaa(lp1366
VrotateX
p1367
a(lp1368
(lp1369
F0
aF-1.9059923144250073
a(lp1370
Vauto
p1371
aVauto
p1372
aF0
aF0
aF0
aF0
aaaaa(lp1373
VrotateY
p1374
a(lp1375
(lp1376
F0
aF0.053151670791756978
a(lp1377
Vauto
p1378
aVauto
p1379
aF0
aF0
aF0
aF0
aaaaa(lp1380
VrotateZ
p1381
a(lp1382
(lp1383
F0
aF-0.034787871657632391
a(lp1384
Vauto
p1385
aVauto
p1386
aF0
aF0
aF0
aF0
aaaaaaaaa(lp1387
S'ik_elbow_l_anim'
p1388
a(lp1389
(lp1390
Na(lp1391
aaaa(lp1392
S'ik_elbow_r_anim'
p1393
a(lp1394
(lp1395
Na(lp1396
aaaa(lp1397
S'ik_wrist_l_anim'
p1398
a(lp1399
(lp1400
Na(lp1401
aaaa(lp1402
S'ik_wrist_r_anim'
p1403
a(lp1404
(lp1405
Na(lp1406
aaaa(lp1407
S'fk_thigh_l_anim'
p1408
a(lp1409
(lp1410
Na(lp1411
aaaa(lp1412
S'fk_thigh_r_anim'
p1413
a(lp1414
(lp1415
Na(lp1416
aaaa(lp1417
S'fk_calf_l_anim'
p1418
a(lp1419
(lp1420
Na(lp1421
aaaa(lp1422
S'fk_calf_r_anim'
p1423
a(lp1424
(lp1425
Na(lp1426
aaaa(lp1427
S'fk_foot_l_anim'
p1428
a(lp1429
(lp1430
Na(lp1431
aaaa(lp1432
S'fk_foot_r_anim'
p1433
a(lp1434
(lp1435
Na(lp1436
aaaa(lp1437
S'fk_ball_l_anim'
p1438
a(lp1439
(lp1440
Na(lp1441
aaaa(lp1442
S'fk_ball_r_anim'
p1443
a(lp1444
(lp1445
Na(lp1446
aaaa(lp1447
S'ik_foot_anim_l'
p1448
a(lp1449
(lp1450
Na(lp1451
aaaa(lp1452
S'ik_foot_anim_r'
p1453
a(lp1454
(lp1455
Na(lp1456
aaaa(lp1457
S'heel_ctrl_l'
p1458
a(lp1459
(lp1460
Na(lp1461
aaaa(lp1462
S'heel_ctrl_r'
p1463
a(lp1464
(lp1465
Na(lp1466
aaaa(lp1467
S'toe_wiggle_ctrl_l'
p1468
a(lp1469
(lp1470
Na(lp1471
aaaa(lp1472
S'toe_wiggle_ctrl_r'
p1473
a(lp1474
(lp1475
Na(lp1476
aaaa(lp1477
S'toe_tip_ctrl_l'
p1478
a(lp1479
(lp1480
Na(lp1481
aaaa(lp1482
S'toe_tip_ctrl_r'
p1483
a(lp1484
(lp1485
Na(lp1486
aaaa(lp1487
S'master_anim'
p1488
a(lp1489
(lp1490
Na(lp1491
aaaa(lp1492
S'offset_anim'
p1493
a(lp1494
(lp1495
Na(lp1496
aaaa(lp1497
S'root_anim'
p1498
a(lp1499
(lp1500
Na(lp1501
aaaa(lp1502
S'upperarm_l_twist_anim'
p1503
a(lp1504
(lp1505
Na(lp1506
aaaa(lp1507
S'upperarm_r_twist_anim'
p1508
a(lp1509
(lp1510
Na(lp1511
aaaa(lp1512
S'thigh_l_twist_anim'
p1513
a(lp1514
(lp1515
Na(lp1516
aaaa(lp1517
S'thigh_r_twist_anim'
p1518
a(lp1519
(lp1520
Na(lp1521
aaaa(lp1522
g1519
aa(lp1523
g1519
aa(lp1524
S'pinky_finger_fk_ctrl_1_l'
p1525
a(lp1526
(lp1527
Na(lp1528
aaaa(lp1529
S'pinky_finger_fk_ctrl_1_r'
p1530
a(lp1531
(lp1532
Na(lp1533
aaaa(lp1534
S'pinky_finger_fk_ctrl_2_l'
p1535
a(lp1536
(lp1537
Na(lp1538
aaaa(lp1539
S'pinky_finger_fk_ctrl_2_r'
p1540
a(lp1541
(lp1542
Na(lp1543
aaaa(lp1544
S'pinky_finger_fk_ctrl_3_l'
p1545
a(lp1546
(lp1547
Na(lp1548
aaaa(lp1549
S'pinky_finger_fk_ctrl_3_r'
p1550
a(lp1551
(lp1552
Na(lp1553
aaaa(lp1554
g1551
aa(lp1555
g1551
aa(lp1556
S'ring_finger_fk_ctrl_1_l'
p1557
a(lp1558
(lp1559
Na(lp1560
aaaa(lp1561
S'ring_finger_fk_ctrl_1_r'
p1562
a(lp1563
(lp1564
Na(lp1565
aaaa(lp1566
S'ring_finger_fk_ctrl_2_l'
p1567
a(lp1568
(lp1569
Na(lp1570
aaaa(lp1571
S'ring_finger_fk_ctrl_2_r'
p1572
a(lp1573
(lp1574
Na(lp1575
aaaa(lp1576
S'ring_finger_fk_ctrl_3_l'
p1577
a(lp1578
(lp1579
Na(lp1580
aaaa(lp1581
S'ring_finger_fk_ctrl_3_r'
p1582
a(lp1583
(lp1584
Na(lp1585
aaaa(lp1586
g1583
aa(lp1587
g1583
aa(lp1588
S'middle_finger_fk_ctrl_1_l'
p1589
a(lp1590
(lp1591
Na(lp1592
aaaa(lp1593
S'middle_finger_fk_ctrl_1_r'
p1594
a(lp1595
(lp1596
Na(lp1597
aaaa(lp1598
S'middle_finger_fk_ctrl_2_l'
p1599
a(lp1600
(lp1601
Na(lp1602
aaaa(lp1603
S'middle_finger_fk_ctrl_2_r'
p1604
a(lp1605
(lp1606
Na(lp1607
aaaa(lp1608
S'middle_finger_fk_ctrl_3_l'
p1609
a(lp1610
(lp1611
Na(lp1612
aaaa(lp1613
S'middle_finger_fk_ctrl_3_r'
p1614
a(lp1615
(lp1616
Na(lp1617
aaaa(lp1618
g1615
aa(lp1619
g1615
aa(lp1620
S'index_finger_fk_ctrl_1_l'
p1621
a(lp1622
(lp1623
Na(lp1624
aaaa(lp1625
S'index_finger_fk_ctrl_1_r'
p1626
a(lp1627
(lp1628
Na(lp1629
aaaa(lp1630
S'index_finger_fk_ctrl_2_l'
p1631
a(lp1632
(lp1633
Na(lp1634
aaaa(lp1635
S'index_finger_fk_ctrl_2_r'
p1636
a(lp1637
(lp1638
Na(lp1639
aaaa(lp1640
S'index_finger_fk_ctrl_3_l'
p1641
a(lp1642
(lp1643
Na(lp1644
aaaa(lp1645
S'index_finger_fk_ctrl_3_r'
p1646
a(lp1647
(lp1648
Na(lp1649
aaaa(lp1650
S'thumb_finger_fk_ctrl_1_l'
p1651
a(lp1652
(lp1653
Na(lp1654
aaaa(lp1655
S'thumb_finger_fk_ctrl_1_r'
p1656
a(lp1657
(lp1658
Na(lp1659
aaaa(lp1660
S'thumb_finger_fk_ctrl_2_l'
p1661
a(lp1662
(lp1663
Na(lp1664
aaaa(lp1665
S'thumb_finger_fk_ctrl_2_r'
p1666
a(lp1667
(lp1668
Na(lp1669
aaaa(lp1670
S'thumb_finger_fk_ctrl_3_l'
p1671
a(lp1672
(lp1673
Na(lp1674
aaaa(lp1675
S'thumb_finger_fk_ctrl_3_r'
p1676
a(lp1677
(lp1678
Na(lp1679
aaaa(lp1680
S'index_l_ik_anim'
p1681
a(lp1682
(lp1683
Na(lp1684
aaaa(lp1685
S'index_r_ik_anim'
p1686
a(lp1687
(lp1688
Na(lp1689
aaaa(lp1690
S'middle_l_ik_anim'
p1691
a(lp1692
(lp1693
Na(lp1694
aaaa(lp1695
S'middle_r_ik_anim'
p1696
a(lp1697
(lp1698
Na(lp1699
aaaa(lp1700
S'ring_l_ik_anim'
p1701
a(lp1702
(lp1703
Na(lp1704
aaaa(lp1705
S'ring_r_ik_anim'
p1706
a(lp1707
(lp1708
Na(lp1709
aaaa(lp1710
S'pinky_l_ik_anim'
p1711
a(lp1712
(lp1713
Na(lp1714
aaaa(lp1715
S'pinky_r_ik_anim'
p1716
a(lp1717
(lp1718
Na(lp1719
aaaa(lp1720
S'thumb_l_ik_anim'
p1721
a(lp1722
(lp1723
Na(lp1724
aaaa(lp1725
S'thumb_r_ik_anim'
p1726
a(lp1727
(lp1728
Na(lp1729
aaaa(lp1730
S'index_l_poleVector'
p1731
a(lp1732
(lp1733
Na(lp1734
aaaa(lp1735
S'index_r_poleVector'
p1736
a(lp1737
(lp1738
Na(lp1739
aaaa(lp1740
S'middle_l_poleVector'
p1741
a(lp1742
(lp1743
Na(lp1744
aaaa(lp1745
S'middle_r_poleVector'
p1746
a(lp1747
(lp1748
Na(lp1749
aaaa(lp1750
S'ring_l_poleVector'
p1751
a(lp1752
(lp1753
Na(lp1754
aaaa(lp1755
S'ring_r_poleVector'
p1756
a(lp1757
(lp1758
Na(lp1759
aaaa(lp1760
S'pinky_l_poleVector'
p1761
a(lp1762
(lp1763
Na(lp1764
aaaa(lp1765
S'pinky_r_poleVector'
p1766
a(lp1767
(lp1768
Na(lp1769
aaaa(lp1770
S'thumb_l_poleVector'
p1771
a(lp1772
(lp1773
Na(lp1774
aaaa(lp1775
S'thumb_r_poleVector'
p1776
a(lp1777
(lp1778
Na(lp1779
aaaa(lp1780
S'l_global_ik_anim'
p1781
a(lp1782
(lp1783
Na(lp1784
aaaa(lp1785
S'r_global_ik_anim'
p1786
a(lp1787
(lp1788
Na(lp1789
aaaa(lp1790
S'Rig_Settings'
p1791
a(lp1792
(lp1793
Na(lp1794
(lp1795
VlArmMode
p1796
a(lp1797
(lp1798
F0
aF0
a(lp1799
Vspline
p1800
aVstep
p1801
aF0
aF0
aF1
aF0
aaaaa(lp1802
VrArmMode
p1803
a(lp1804
(lp1805
F0
aF0
a(lp1806
Vspline
p1807
aVstep
p1808
aF0
aF0
aF1
aF0
aaaaaaaaa(lp1809
Vjaw_anim
p1810
a(lp1811
(lp1812
Na(lp1813
aaaa(lp1814
Vbody_anim_space_switcher
p1815
a(lp1816
(lp1817
Na(lp1818
aaaa(lp1819
Vchest_ik_anim_space_switcher
p1820
a(lp1821
(lp1822
Na(lp1823
aaaa(lp1824
Vik_elbow_l_anim_space_switcher
p1825
a(lp1826
(lp1827
Na(lp1828
aaaa(lp1829
Vik_elbow_r_anim_space_switcher
p1830
a(lp1831
(lp1832
Na(lp1833
aaaa(lp1834
Vik_foot_anim_l_space_switcher
p1835
a(lp1836
(lp1837
Na(lp1838
aaaa(lp1839
Vik_foot_anim_r_space_switcher
p1840
a(lp1841
(lp1842
Na(lp1843
aaaa(lp1844
Vik_wrist_l_anim_space_switcher
p1845
a(lp1846
(lp1847
Na(lp1848
aaaa(lp1849
Vik_wrist_r_anim_space_switcher
p1850
a(lp1851
(lp1852
Na(lp1853
aaaa(lp1854
Vjaw_anim_space_switcher
p1855
a(lp1856
(lp1857
Na(lp1858
aaaa(lp1859
Vl_global_ik_anim_space_switcher
p1860
a(lp1861
(lp1862
Na(lp1863
aaaa(lp1864
Vmaster_anim_space_switcher
p1865
a(lp1866
(lp1867
Na(lp1868
aaaa(lp1869
Vr_global_ik_anim_space_switcher
p1870
a(lp1871
(lp1872
Na(lp1873
aaaa(lp1874
Vspine_01_space_switcher
p1875
a(lp1876
(lp1877
Na(lp1878
aaaa(lp1879
S'chest_ik_world_aligned'
p1880
a(lp1881
(lp1882
Na(lp1883
aaaa(lp1884
S'fk_orient_world_loc_l'
p1885
a(lp1886
(lp1887
Na(lp1888
aaaa(lp1889
S'fk_orient_world_loc_r'
p1890
a(lp1891
(lp1892
Na(lp1893
aaaa(lp1894
S'fk_orient_body_loc_l'
p1895
a(lp1896
(lp1897
Na(lp1898
aaaa(lp1899
S'fk_orient_body_loc_r'
p1900
a(lp1901
(lp1902
Na(lp1903
aaaa(lp1904
S'head_fk_orient_neck'
p1905
a(lp1906
(lp1907
Na(lp1908
aaaa(lp1909
S'head_fk_orient_shoulder'
p1910
a(lp1911
(lp1912
Na(lp1913
aaaa(lp1914
S'head_fk_orient_body'
p1915
a(lp1916
(lp1917
Na(lp1918
aaaa(lp1919
S'head_fk_orient_world'
p1920
a(lp1921
(lp1922
Na(lp1923
aaaa.