(lp1
(lp2
S'head_fk_anim'
p3
a(lp4
(lp5
Na(lp6
aaaa(lp7
S'neck_01_fk_anim'
p8
a(lp9
(lp10
Na(lp11
aaaa(lp12
g9
aa(lp13
g9
aa(lp14
S'spine_01_anim'
p15
a(lp16
(lp17
Na(lp18
aaaa(lp19
S'spine_02_anim'
p20
a(lp21
(lp22
Na(lp23
aaaa(lp24
S'spine_03_anim'
p25
a(lp26
(lp27
Na(lp28
aaaa(lp29
g26
aa(lp30
g26
aa(lp31
S'mid_ik_anim'
p32
a(lp33
(lp34
Na(lp35
aaaa(lp36
S'chest_ik_anim'
p37
a(lp38
(lp39
Na(lp40
aaaa(lp41
S'body_anim'
p42
a(lp43
(lp44
Na(lp45
aaaa(lp46
S'hip_anim'
p47
a(lp48
(lp49
Na(lp50
aaaa(lp51
S'clavicle_l_anim'
p52
a(lp53
(lp54
Na(lp55
aaaa(lp56
S'clavicle_r_anim'
p57
a(lp58
(lp59
Na(lp60
aaaa(lp61
S'fk_arm_l_anim'
p62
a(lp63
(lp64
Na(lp65
aaaa(lp66
S'fk_arm_r_anim'
p67
a(lp68
(lp69
Na(lp70
(lp71
VtranslateX
p72
a(lp73
(lp74
F0
aF0
a(lp75
Vspline
p76
aVspline
p77
aF0
aF0
aF1
aF1
aaa(lp78
F37
aF0
a(lp79
Vspline
p80
aVspline
p81
aF0
aF0
aF1
aF1
aaa(lp82
F62
aF0
a(lp83
Vspline
p84
aVspline
p85
aF0
aF0
aF1
aF1
aaa(lp86
F79
aF0
a(lp87
Vspline
p88
aVspline
p89
aF0
aF0
aF1
aF1
aaa(lp90
F93
aF0
a(lp91
Vspline
p92
aVspline
p93
aF0
aF0
aF1
aF1
aaa(lp94
F150
aF0
a(lp95
Vspline
p96
aVspline
p97
aF0
aF0
aF1
aF1
aaa(lp98
F180
aF0
a(lp99
Vspline
p100
aVspline
p101
aF0
aF0
aF1
aF1
aaaaa(lp102
VtranslateY
p103
a(lp104
(lp105
F0
aF0
a(lp106
Vspline
p107
aVspline
p108
aF0
aF0
aF1
aF1
aaa(lp109
F37
aF0
a(lp110
Vspline
p111
aVspline
p112
aF0
aF0
aF1
aF1
aaa(lp113
F62
aF0
a(lp114
Vspline
p115
aVspline
p116
aF0
aF0
aF1
aF1
aaa(lp117
F79
aF0
a(lp118
Vspline
p119
aVspline
p120
aF0
aF0
aF1
aF1
aaa(lp121
F93
aF0
a(lp122
Vspline
p123
aVspline
p124
aF0
aF0
aF1
aF1
aaa(lp125
F150
aF0
a(lp126
Vspline
p127
aVspline
p128
aF0
aF0
aF1
aF1
aaa(lp129
F180
aF0
a(lp130
Vspline
p131
aVspline
p132
aF0
aF0
aF1
aF1
aaaaa(lp133
VtranslateZ
p134
a(lp135
(lp136
F0
aF0
a(lp137
Vspline
p138
aVspline
p139
aF0
aF0
aF1
aF1
aaa(lp140
F37
aF0
a(lp141
Vspline
p142
aVspline
p143
aF0
aF0
aF1
aF1
aaa(lp144
F62
aF0
a(lp145
Vspline
p146
aVspline
p147
aF0
aF0
aF1
aF1
aaa(lp148
F79
aF0
a(lp149
Vspline
p150
aVspline
p151
aF0
aF0
aF1
aF1
aaa(lp152
F93
aF0
a(lp153
Vspline
p154
aVspline
p155
aF0
aF0
aF1
aF1
aaa(lp156
F150
aF0
a(lp157
Vspline
p158
aVspline
p159
aF0
aF0
aF1
aF1
aaa(lp160
F180
aF0
a(lp161
Vspline
p162
aVspline
p163
aF0
aF0
aF1
aF1
aaaaa(lp164
VrotateX
p165
a(lp166
(lp167
F0
aF-61.150779103805625
a(lp168
Vspline
p169
aVspline
p170
aF62.213993828733408
aF62.213993828733408
aF1
aF1
aaa(lp171
F11
aF-40.275066147842139
a(lp172
Vspline
p173
aVspline
p174
aF-34.868303543117271
aF-34.868303543117271
aF1
aF1
aaa(lp175
F37
aF-86.931918755127327
a(lp176
Vspline
p177
aVspline
p178
aF-61.881042597262791
aF-61.881042597262791
aF1
aF1
aaa(lp179
F62
aF-135.71355287173074
a(lp180
Vspline
p181
aVspline
p182
aF14.467908190501525
aF14.467908190501525
aF1
aF1
aaa(lp183
F79
aF-76.095075423885078
a(lp184
Vspline
p185
aVspline
p186
aF72.67308982553061
aF72.67308982553061
aF1
aF1
aaa(lp187
F93
aF-36.348420869180806
a(lp188
Vspline
p189
aVspline
p190
aF75.985055384258956
aF75.985055384258956
aF1
aF1
aaa(lp191
F118
aF80.151708508604429
a(lp192
Vspline
p193
aVspline
p194
aF21.59967070293785
aF21.59967070293785
aF1
aF1
aaa(lp195
F150
aF-13.7809036678848
a(lp196
Vspline
p197
aVspline
p198
aF-72.851002593031097
aF-72.851002593031097
aF1
aF1
aaa(lp199
F180
aF-120.77092057896651
a(lp200
Vspline
p201
aVspline
p202
aF-74.336507265806347
aF-74.336507265806347
aF1
aF1
aaaaa(lp203
VrotateY
p204
a(lp205
(lp206
F0
aF15.298836145403223
a(lp207
Vspline
p208
aVspline
p209
aF8.9374690148227032
aF8.9374690148227032
aF1
aF1
aaa(lp210
F11
aF17.028760999246185
a(lp211
Vspline
p212
aVspline
p213
aF-40.390374883289176
aF-40.390374883289176
aF1
aF1
aaa(lp214
F37
aF-16.179917051807465
a(lp215
Vspline
p216
aVspline
p217
aF-60.490252157708113
aF-60.490252157708113
aF1
aF1
aaa(lp218
F62
aF-73.077655922759462
a(lp219
Vspline
p220
aVspline
p221
aF52.152196275577502
aF52.152196275577502
aF1
aF1
aaa(lp222
F79
aF37.872975318069543
a(lp223
Vspline
p224
aVspline
p225
aF78.635380518088184
aF78.635380518088184
aF1
aF1
aaa(lp226
F93
aF81.156715819784139
a(lp227
Vspline
p228
aVspline
p229
aF-65.037874069372648
aF-65.037874069372648
aF1
aF1
aaa(lp230
F118
aF-45.907346089365547
a(lp231
Vspline
p232
aVspline
p233
aF-61.305455725716648
aF-61.305455725716648
aF1
aF1
aaa(lp234
F150
aF-22.979476349367687
a(lp235
Vspline
p236
aVspline
p237
aF-4.9440738387355729
aF-4.9440738387355729
aF1
aF1
aaa(lp238
F180
aF-51.270667308750944
a(lp239
Vspline
p240
aVspline
p241
aF-43.32085388630481
aF-43.32085388630481
aF1
aF1
aaaaa(lp242
VrotateZ
p243
a(lp244
(lp245
F0
aF81.524952650164579
a(lp246
Vspline
p247
aVspline
p248
aF-83.556600116974067
aF-83.556600116974067
aF1
aF1
aaa(lp249
F11
aF-15.87619181445471
a(lp250
Vspline
p251
aVspline
p252
aF-77.96858330036568
aF-77.96858330036568
aF1
aF1
aaa(lp253
F37
aF-92.078273559132626
a(lp254
Vspline
p255
aVspline
p256
aF37.06169243656722
aF37.06169243656722
aF1
aF1
aaa(lp257
F62
aF22.641221818787191
a(lp258
Vspline
p259
aVspline
p260
aF75.842980619333531
aF75.842980619333531
aF1
aF1
aaa(lp261
F79
aF74.429278098657946
a(lp262
Vspline
p263
aVspline
p264
aF-58.274654904171868
aF-58.274654904171868
aF1
aF1
aaa(lp265
F93
aF-27.502429955106596
a(lp266
Vspline
p267
aVspline
p268
aF-77.947177487506863
aF-77.947177487506863
aF1
aF1
aaa(lp269
F118
aF-108.22307806077083
a(lp270
Vspline
p271
aVspline
p272
aF57.11941378342884
aF57.11941378342884
aF1
aF1
aaa(lp273
F150
aF60.671647444971349
a(lp274
Vspline
p275
aVspline
p276
aF34.944716284456788
aF34.944716284456788
aF1
aF1
aaa(lp277
F180
aF-64.899304058959174
a(lp278
Vspline
p279
aVspline
p280
aF-76.5634016522298
aF-76.5634016522298
aF1
aF1
aaaaaaaaa(lp281
S'fk_elbow_l_anim'
p282
a(lp283
(lp284
Na(lp285
aaaa(lp286
S'fk_elbow_r_anim'
p287
a(lp288
(lp289
Na(lp290
(lp291
VtranslateX
p292
a(lp293
(lp294
F0
aF0
a(lp295
Vspline
p296
aVspline
p297
aF0
aF0
aF0
aF0
aaaaa(lp298
VtranslateY
p299
a(lp300
(lp301
F0
aF0
a(lp302
Vspline
p303
aVspline
p304
aF0
aF0
aF0
aF0
aaaaa(lp305
VtranslateZ
p306
a(lp307
(lp308
F0
aF0
a(lp309
Vspline
p310
aVspline
p311
aF0
aF0
aF0
aF0
aaaaa(lp312
VrotateX
p313
a(lp314
(lp315
F0
aF-2.242856103816675
a(lp316
Vspline
p317
aVspline
p318
aF17.765873568978645
aF17.765873568978645
aF1
aF1
aaa(lp319
F7
aF0
a(lp320
Vspline
p321
aVspline
p322
aF17.765873568978645
aF17.765873568978645
aF1
aF1
aaaaa(lp323
VrotateY
p324
a(lp325
(lp326
F0
aF-1.8615179623696483
a(lp327
Vspline
p328
aVspline
p329
aF14.892062937959317
aF14.892062937959317
aF1
aF1
aaa(lp330
F7
aF0
a(lp331
Vspline
p332
aVspline
p333
aF14.892062937959317
aF14.892062937959317
aF1
aF1
aaaaa(lp334
VrotateZ
p335
a(lp336
(lp337
F0
aF-76.262162832617918
a(lp338
Vspline
p339
aVspline
p340
aF76.510686252215635
aF76.510686252215635
aF1
aF1
aaa(lp341
F7
aF-47.08109271422019
a(lp342
Vspline
p343
aVspline
p344
aF76.510686252215635
aF76.510686252215635
aF1
aF1
aaaaaaaaa(lp345
S'fk_wrist_l_anim'
p346
a(lp347
(lp348
Na(lp349
aaaa(lp350
S'fk_wrist_r_anim'
p351
a(lp352
(lp353
Na(lp354
(lp355
VtranslateX
p356
a(lp357
(lp358
F0
aF0
a(lp359
Vspline
p360
aVspline
p361
aF0
aF0
aF0
aF0
aaaaa(lp362
VtranslateY
p363
a(lp364
(lp365
F0
aF0
a(lp366
Vspline
p367
aVspline
p368
aF0
aF0
aF0
aF0
aaaaa(lp369
VtranslateZ
p370
a(lp371
(lp372
F0
aF0
a(lp373
Vspline
p374
aVspline
p375
aF0
aF0
aF0
aF0
aaaaa(lp376
VrotateX
p377
a(lp378
(lp379
F0
aF-1.8611235135707644
a(lp380
Vspline
p381
aVspline
p382
aF0
aF0
aF0
aF0
aaaaa(lp383
VrotateY
p384
a(lp385
(lp386
F0
aF0.053183711818456506
a(lp387
Vspline
p388
aVspline
p389
aF0
aF0
aF0
aF0
aaaaa(lp390
VrotateZ
p391
a(lp392
(lp393
F0
aF-0.032023567707148766
a(lp394
Vspline
p395
aVspline
p396
aF0
aF0
aF0
aF0
aaaaaaaaa(lp397
S'ik_elbow_l_anim'
p398
a(lp399
(lp400
Na(lp401
aaaa(lp402
S'ik_elbow_r_anim'
p403
a(lp404
(lp405
Na(lp406
aaaa(lp407
S'ik_wrist_l_anim'
p408
a(lp409
(lp410
Na(lp411
aaaa(lp412
S'ik_wrist_r_anim'
p413
a(lp414
(lp415
Na(lp416
aaaa(lp417
S'fk_thigh_l_anim'
p418
a(lp419
(lp420
Na(lp421
aaaa(lp422
S'fk_thigh_r_anim'
p423
a(lp424
(lp425
Na(lp426
aaaa(lp427
S'fk_calf_l_anim'
p428
a(lp429
(lp430
Na(lp431
aaaa(lp432
S'fk_calf_r_anim'
p433
a(lp434
(lp435
Na(lp436
aaaa(lp437
S'fk_foot_l_anim'
p438
a(lp439
(lp440
Na(lp441
aaaa(lp442
S'fk_foot_r_anim'
p443
a(lp444
(lp445
Na(lp446
aaaa(lp447
S'fk_ball_l_anim'
p448
a(lp449
(lp450
Na(lp451
aaaa(lp452
S'fk_ball_r_anim'
p453
a(lp454
(lp455
Na(lp456
aaaa(lp457
S'ik_foot_anim_l'
p458
a(lp459
(lp460
Na(lp461
aaaa(lp462
S'ik_foot_anim_r'
p463
a(lp464
(lp465
Na(lp466
aaaa(lp467
S'heel_ctrl_l'
p468
a(lp469
(lp470
Na(lp471
aaaa(lp472
S'heel_ctrl_r'
p473
a(lp474
(lp475
Na(lp476
aaaa(lp477
S'toe_wiggle_ctrl_l'
p478
a(lp479
(lp480
Na(lp481
aaaa(lp482
S'toe_wiggle_ctrl_r'
p483
a(lp484
(lp485
Na(lp486
aaaa(lp487
S'toe_tip_ctrl_l'
p488
a(lp489
(lp490
Na(lp491
aaaa(lp492
S'toe_tip_ctrl_r'
p493
a(lp494
(lp495
Na(lp496
aaaa(lp497
S'master_anim'
p498
a(lp499
(lp500
Na(lp501
aaaa(lp502
S'offset_anim'
p503
a(lp504
(lp505
Na(lp506
aaaa(lp507
S'root_anim'
p508
a(lp509
(lp510
Na(lp511
aaaa(lp512
S'upperarm_l_twist_anim'
p513
a(lp514
(lp515
Na(lp516
aaaa(lp517
S'upperarm_r_twist_anim'
p518
a(lp519
(lp520
Na(lp521
aaaa(lp522
S'thigh_l_twist_anim'
p523
a(lp524
(lp525
Na(lp526
aaaa(lp527
S'thigh_r_twist_anim'
p528
a(lp529
(lp530
Na(lp531
aaaa(lp532
g529
aa(lp533
g529
aa(lp534
S'pinky_finger_fk_ctrl_1_l'
p535
a(lp536
(lp537
Na(lp538
aaaa(lp539
S'pinky_finger_fk_ctrl_1_r'
p540
a(lp541
(lp542
Na(lp543
aaaa(lp544
S'pinky_finger_fk_ctrl_2_l'
p545
a(lp546
(lp547
Na(lp548
aaaa(lp549
S'pinky_finger_fk_ctrl_2_r'
p550
a(lp551
(lp552
Na(lp553
aaaa(lp554
S'pinky_finger_fk_ctrl_3_l'
p555
a(lp556
(lp557
Na(lp558
aaaa(lp559
S'pinky_finger_fk_ctrl_3_r'
p560
a(lp561
(lp562
Na(lp563
aaaa(lp564
g561
aa(lp565
g561
aa(lp566
S'ring_finger_fk_ctrl_1_l'
p567
a(lp568
(lp569
Na(lp570
aaaa(lp571
S'ring_finger_fk_ctrl_1_r'
p572
a(lp573
(lp574
Na(lp575
aaaa(lp576
S'ring_finger_fk_ctrl_2_l'
p577
a(lp578
(lp579
Na(lp580
aaaa(lp581
S'ring_finger_fk_ctrl_2_r'
p582
a(lp583
(lp584
Na(lp585
aaaa(lp586
S'ring_finger_fk_ctrl_3_l'
p587
a(lp588
(lp589
Na(lp590
aaaa(lp591
S'ring_finger_fk_ctrl_3_r'
p592
a(lp593
(lp594
Na(lp595
aaaa(lp596
g593
aa(lp597
g593
aa(lp598
S'middle_finger_fk_ctrl_1_l'
p599
a(lp600
(lp601
Na(lp602
aaaa(lp603
S'middle_finger_fk_ctrl_1_r'
p604
a(lp605
(lp606
Na(lp607
aaaa(lp608
S'middle_finger_fk_ctrl_2_l'
p609
a(lp610
(lp611
Na(lp612
aaaa(lp613
S'middle_finger_fk_ctrl_2_r'
p614
a(lp615
(lp616
Na(lp617
aaaa(lp618
S'middle_finger_fk_ctrl_3_l'
p619
a(lp620
(lp621
Na(lp622
aaaa(lp623
S'middle_finger_fk_ctrl_3_r'
p624
a(lp625
(lp626
Na(lp627
aaaa(lp628
g625
aa(lp629
g625
aa(lp630
S'index_finger_fk_ctrl_1_l'
p631
a(lp632
(lp633
Na(lp634
aaaa(lp635
S'index_finger_fk_ctrl_1_r'
p636
a(lp637
(lp638
Na(lp639
aaaa(lp640
S'index_finger_fk_ctrl_2_l'
p641
a(lp642
(lp643
Na(lp644
aaaa(lp645
S'index_finger_fk_ctrl_2_r'
p646
a(lp647
(lp648
Na(lp649
aaaa(lp650
S'index_finger_fk_ctrl_3_l'
p651
a(lp652
(lp653
Na(lp654
aaaa(lp655
S'index_finger_fk_ctrl_3_r'
p656
a(lp657
(lp658
Na(lp659
aaaa(lp660
S'thumb_finger_fk_ctrl_1_l'
p661
a(lp662
(lp663
Na(lp664
aaaa(lp665
S'thumb_finger_fk_ctrl_1_r'
p666
a(lp667
(lp668
Na(lp669
aaaa(lp670
S'thumb_finger_fk_ctrl_2_l'
p671
a(lp672
(lp673
Na(lp674
aaaa(lp675
S'thumb_finger_fk_ctrl_2_r'
p676
a(lp677
(lp678
Na(lp679
aaaa(lp680
S'thumb_finger_fk_ctrl_3_l'
p681
a(lp682
(lp683
Na(lp684
aaaa(lp685
S'thumb_finger_fk_ctrl_3_r'
p686
a(lp687
(lp688
Na(lp689
aaaa(lp690
S'index_l_ik_anim'
p691
a(lp692
(lp693
Na(lp694
aaaa(lp695
S'index_r_ik_anim'
p696
a(lp697
(lp698
Na(lp699
aaaa(lp700
S'middle_l_ik_anim'
p701
a(lp702
(lp703
Na(lp704
aaaa(lp705
S'middle_r_ik_anim'
p706
a(lp707
(lp708
Na(lp709
aaaa(lp710
S'ring_l_ik_anim'
p711
a(lp712
(lp713
Na(lp714
aaaa(lp715
S'ring_r_ik_anim'
p716
a(lp717
(lp718
Na(lp719
aaaa(lp720
S'pinky_l_ik_anim'
p721
a(lp722
(lp723
Na(lp724
aaaa(lp725
S'pinky_r_ik_anim'
p726
a(lp727
(lp728
Na(lp729
aaaa(lp730
S'thumb_l_ik_anim'
p731
a(lp732
(lp733
Na(lp734
aaaa(lp735
S'thumb_r_ik_anim'
p736
a(lp737
(lp738
Na(lp739
aaaa(lp740
S'index_l_poleVector'
p741
a(lp742
(lp743
Na(lp744
aaaa(lp745
S'index_r_poleVector'
p746
a(lp747
(lp748
Na(lp749
aaaa(lp750
S'middle_l_poleVector'
p751
a(lp752
(lp753
Na(lp754
aaaa(lp755
S'middle_r_poleVector'
p756
a(lp757
(lp758
Na(lp759
aaaa(lp760
S'ring_l_poleVector'
p761
a(lp762
(lp763
Na(lp764
aaaa(lp765
S'ring_r_poleVector'
p766
a(lp767
(lp768
Na(lp769
aaaa(lp770
S'pinky_l_poleVector'
p771
a(lp772
(lp773
Na(lp774
aaaa(lp775
S'pinky_r_poleVector'
p776
a(lp777
(lp778
Na(lp779
aaaa(lp780
S'thumb_l_poleVector'
p781
a(lp782
(lp783
Na(lp784
aaaa(lp785
S'thumb_r_poleVector'
p786
a(lp787
(lp788
Na(lp789
aaaa(lp790
S'l_global_ik_anim'
p791
a(lp792
(lp793
Na(lp794
aaaa(lp795
S'r_global_ik_anim'
p796
a(lp797
(lp798
Na(lp799
aaaa(lp800
S'Rig_Settings'
p801
a(lp802
(lp803
Na(lp804
(lp805
VrArmMode
p806
a(lp807
(lp808
F0
aF0
a(lp809
Vspline
p810
aVstep
p811
aF0
aF0
aF1
aF0
aaaaaaaaa(lp812
Vjaw_anim
p813
a(lp814
(lp815
Na(lp816
aaaa(lp817
Vbody_anim_space_switcher
p818
a(lp819
(lp820
Na(lp821
aaaa(lp822
Vchest_ik_anim_space_switcher
p823
a(lp824
(lp825
Na(lp826
aaaa(lp827
Vik_elbow_l_anim_space_switcher
p828
a(lp829
(lp830
Na(lp831
aaaa(lp832
Vik_elbow_r_anim_space_switcher
p833
a(lp834
(lp835
Na(lp836
aaaa(lp837
Vik_foot_anim_l_space_switcher
p838
a(lp839
(lp840
Na(lp841
aaaa(lp842
Vik_foot_anim_r_space_switcher
p843
a(lp844
(lp845
Na(lp846
aaaa(lp847
Vik_wrist_l_anim_space_switcher
p848
a(lp849
(lp850
Na(lp851
aaaa(lp852
Vik_wrist_r_anim_space_switcher
p853
a(lp854
(lp855
Na(lp856
aaaa(lp857
Vjaw_anim_space_switcher
p858
a(lp859
(lp860
Na(lp861
aaaa(lp862
Vl_global_ik_anim_space_switcher
p863
a(lp864
(lp865
Na(lp866
aaaa(lp867
Vmaster_anim_space_switcher
p868
a(lp869
(lp870
Na(lp871
aaaa(lp872
Vr_global_ik_anim_space_switcher
p873
a(lp874
(lp875
Na(lp876
aaaa(lp877
Vspine_01_space_switcher
p878
a(lp879
(lp880
Na(lp881
aaaa(lp882
S'chest_ik_world_aligned'
p883
a(lp884
(lp885
Na(lp886
aaaa(lp887
S'fk_orient_world_loc_l'
p888
a(lp889
(lp890
Na(lp891
aaaa(lp892
S'fk_orient_world_loc_r'
p893
a(lp894
(lp895
Na(lp896
aaaa(lp897
S'fk_orient_body_loc_l'
p898
a(lp899
(lp900
Na(lp901
aaaa(lp902
S'fk_orient_body_loc_r'
p903
a(lp904
(lp905
Na(lp906
aaaa(lp907
S'head_fk_orient_neck'
p908
a(lp909
(lp910
Na(lp911
aaaa(lp912
S'head_fk_orient_shoulder'
p913
a(lp914
(lp915
Na(lp916
aaaa(lp917
S'head_fk_orient_body'
p918
a(lp919
(lp920
Na(lp921
aaaa(lp922
S'head_fk_orient_world'
p923
a(lp924
(lp925
Na(lp926
aaaa.