(lp1
(lp2
S'head_fk_anim'
p3
a(lp4
(lp5
Na(lp6
aaaa(lp7
S'neck_01_fk_anim'
p8
a(lp9
(lp10
Na(lp11
aaaa(lp12
g9
aa(lp13
g9
aa(lp14
S'spine_01_anim'
p15
a(lp16
(lp17
Na(lp18
aaaa(lp19
S'spine_02_anim'
p20
a(lp21
(lp22
Na(lp23
aaaa(lp24
S'spine_03_anim'
p25
a(lp26
(lp27
Na(lp28
aaaa(lp29
g26
aa(lp30
g26
aa(lp31
S'mid_ik_anim'
p32
a(lp33
(lp34
Na(lp35
aaaa(lp36
S'chest_ik_anim'
p37
a(lp38
(lp39
Na(lp40
aaaa(lp41
S'body_anim'
p42
a(lp43
(lp44
Na(lp45
aaaa(lp46
S'hip_anim'
p47
a(lp48
(lp49
Na(lp50
aaaa(lp51
S'clavicle_l_anim'
p52
a(lp53
(lp54
Na(lp55
aaaa(lp56
S'clavicle_r_anim'
p57
a(lp58
(lp59
Na(lp60
aaaa(lp61
S'fk_arm_l_anim'
p62
a(lp63
(lp64
Na(lp65
aaaa(lp66
S'fk_arm_r_anim'
p67
a(lp68
(lp69
Na(lp70
aaaa(lp71
S'fk_elbow_l_anim'
p72
a(lp73
(lp74
Na(lp75
aaaa(lp76
S'fk_elbow_r_anim'
p77
a(lp78
(lp79
Na(lp80
aaaa(lp81
S'fk_wrist_l_anim'
p82
a(lp83
(lp84
Na(lp85
aaaa(lp86
S'fk_wrist_r_anim'
p87
a(lp88
(lp89
Na(lp90
aaaa(lp91
S'ik_elbow_l_anim'
p92
a(lp93
(lp94
Na(lp95
aaaa(lp96
S'ik_elbow_r_anim'
p97
a(lp98
(lp99
Na(lp100
aaaa(lp101
S'ik_wrist_l_anim'
p102
a(lp103
(lp104
Na(lp105
aaaa(lp106
S'ik_wrist_r_anim'
p107
a(lp108
(lp109
Na(lp110
aaaa(lp111
S'fk_thigh_l_anim'
p112
a(lp113
(lp114
Na(lp115
aaaa(lp116
S'fk_thigh_r_anim'
p117
a(lp118
(lp119
Na(lp120
aaaa(lp121
S'fk_calf_l_anim'
p122
a(lp123
(lp124
Na(lp125
aaaa(lp126
S'fk_calf_r_anim'
p127
a(lp128
(lp129
Na(lp130
aaaa(lp131
S'fk_foot_l_anim'
p132
a(lp133
(lp134
Na(lp135
aaaa(lp136
S'fk_foot_r_anim'
p137
a(lp138
(lp139
Na(lp140
aaaa(lp141
S'fk_ball_l_anim'
p142
a(lp143
(lp144
Na(lp145
aaaa(lp146
S'fk_ball_r_anim'
p147
a(lp148
(lp149
Na(lp150
aaaa(lp151
S'ik_foot_anim_l'
p152
a(lp153
(lp154
Na(lp155
aaaa(lp156
S'ik_foot_anim_r'
p157
a(lp158
(lp159
Na(lp160
aaaa(lp161
S'heel_ctrl_l'
p162
a(lp163
(lp164
Na(lp165
aaaa(lp166
S'heel_ctrl_r'
p167
a(lp168
(lp169
Na(lp170
aaaa(lp171
S'toe_wiggle_ctrl_l'
p172
a(lp173
(lp174
Na(lp175
aaaa(lp176
S'toe_wiggle_ctrl_r'
p177
a(lp178
(lp179
Na(lp180
aaaa(lp181
S'toe_tip_ctrl_l'
p182
a(lp183
(lp184
Na(lp185
aaaa(lp186
S'toe_tip_ctrl_r'
p187
a(lp188
(lp189
Na(lp190
aaaa(lp191
S'master_anim'
p192
a(lp193
(lp194
Na(lp195
aaaa(lp196
S'offset_anim'
p197
a(lp198
(lp199
Na(lp200
aaaa(lp201
S'root_anim'
p202
a(lp203
(lp204
Na(lp205
aaaa(lp206
S'upperarm_l_twist_anim'
p207
a(lp208
(lp209
Na(lp210
aaaa(lp211
S'upperarm_r_twist_anim'
p212
a(lp213
(lp214
Na(lp215
aaaa(lp216
S'thigh_l_twist_anim'
p217
a(lp218
(lp219
Na(lp220
aaaa(lp221
S'thigh_r_twist_anim'
p222
a(lp223
(lp224
Na(lp225
aaaa(lp226
g223
aa(lp227
g223
aa(lp228
S'pinky_finger_fk_ctrl_1_l'
p229
a(lp230
(lp231
Na(lp232
aaaa(lp233
S'pinky_finger_fk_ctrl_1_r'
p234
a(lp235
(lp236
Na(lp237
aaaa(lp238
S'pinky_finger_fk_ctrl_2_l'
p239
a(lp240
(lp241
Na(lp242
aaaa(lp243
S'pinky_finger_fk_ctrl_2_r'
p244
a(lp245
(lp246
Na(lp247
aaaa(lp248
S'pinky_finger_fk_ctrl_3_l'
p249
a(lp250
(lp251
Na(lp252
aaaa(lp253
S'pinky_finger_fk_ctrl_3_r'
p254
a(lp255
(lp256
Na(lp257
aaaa(lp258
g255
aa(lp259
g255
aa(lp260
S'ring_finger_fk_ctrl_1_l'
p261
a(lp262
(lp263
Na(lp264
aaaa(lp265
S'ring_finger_fk_ctrl_1_r'
p266
a(lp267
(lp268
Na(lp269
aaaa(lp270
S'ring_finger_fk_ctrl_2_l'
p271
a(lp272
(lp273
Na(lp274
aaaa(lp275
S'ring_finger_fk_ctrl_2_r'
p276
a(lp277
(lp278
Na(lp279
aaaa(lp280
S'ring_finger_fk_ctrl_3_l'
p281
a(lp282
(lp283
Na(lp284
aaaa(lp285
S'ring_finger_fk_ctrl_3_r'
p286
a(lp287
(lp288
Na(lp289
aaaa(lp290
g287
aa(lp291
g287
aa(lp292
S'middle_finger_fk_ctrl_1_l'
p293
a(lp294
(lp295
Na(lp296
aaaa(lp297
S'middle_finger_fk_ctrl_1_r'
p298
a(lp299
(lp300
Na(lp301
aaaa(lp302
S'middle_finger_fk_ctrl_2_l'
p303
a(lp304
(lp305
Na(lp306
aaaa(lp307
S'middle_finger_fk_ctrl_2_r'
p308
a(lp309
(lp310
Na(lp311
aaaa(lp312
S'middle_finger_fk_ctrl_3_l'
p313
a(lp314
(lp315
Na(lp316
aaaa(lp317
S'middle_finger_fk_ctrl_3_r'
p318
a(lp319
(lp320
Na(lp321
aaaa(lp322
g319
aa(lp323
g319
aa(lp324
S'index_finger_fk_ctrl_1_l'
p325
a(lp326
(lp327
Na(lp328
aaaa(lp329
S'index_finger_fk_ctrl_1_r'
p330
a(lp331
(lp332
Na(lp333
aaaa(lp334
S'index_finger_fk_ctrl_2_l'
p335
a(lp336
(lp337
Na(lp338
aaaa(lp339
S'index_finger_fk_ctrl_2_r'
p340
a(lp341
(lp342
Na(lp343
aaaa(lp344
S'index_finger_fk_ctrl_3_l'
p345
a(lp346
(lp347
Na(lp348
aaaa(lp349
S'index_finger_fk_ctrl_3_r'
p350
a(lp351
(lp352
Na(lp353
aaaa(lp354
S'thumb_finger_fk_ctrl_1_l'
p355
a(lp356
(lp357
Na(lp358
aaaa(lp359
S'thumb_finger_fk_ctrl_1_r'
p360
a(lp361
(lp362
Na(lp363
aaaa(lp364
S'thumb_finger_fk_ctrl_2_l'
p365
a(lp366
(lp367
Na(lp368
aaaa(lp369
S'thumb_finger_fk_ctrl_2_r'
p370
a(lp371
(lp372
Na(lp373
aaaa(lp374
S'thumb_finger_fk_ctrl_3_l'
p375
a(lp376
(lp377
Na(lp378
aaaa(lp379
S'thumb_finger_fk_ctrl_3_r'
p380
a(lp381
(lp382
Na(lp383
aaaa(lp384
S'index_l_ik_anim'
p385
a(lp386
(lp387
Na(lp388
aaaa(lp389
S'index_r_ik_anim'
p390
a(lp391
(lp392
Na(lp393
aaaa(lp394
S'middle_l_ik_anim'
p395
a(lp396
(lp397
Na(lp398
aaaa(lp399
S'middle_r_ik_anim'
p400
a(lp401
(lp402
Na(lp403
aaaa(lp404
S'ring_l_ik_anim'
p405
a(lp406
(lp407
Na(lp408
aaaa(lp409
S'ring_r_ik_anim'
p410
a(lp411
(lp412
Na(lp413
aaaa(lp414
S'pinky_l_ik_anim'
p415
a(lp416
(lp417
Na(lp418
aaaa(lp419
S'pinky_r_ik_anim'
p420
a(lp421
(lp422
Na(lp423
aaaa(lp424
S'thumb_l_ik_anim'
p425
a(lp426
(lp427
Na(lp428
aaaa(lp429
S'thumb_r_ik_anim'
p430
a(lp431
(lp432
Na(lp433
aaaa(lp434
S'index_l_poleVector'
p435
a(lp436
(lp437
Na(lp438
aaaa(lp439
S'index_r_poleVector'
p440
a(lp441
(lp442
Na(lp443
aaaa(lp444
S'middle_l_poleVector'
p445
a(lp446
(lp447
Na(lp448
aaaa(lp449
S'middle_r_poleVector'
p450
a(lp451
(lp452
Na(lp453
aaaa(lp454
S'ring_l_poleVector'
p455
a(lp456
(lp457
Na(lp458
aaaa(lp459
S'ring_r_poleVector'
p460
a(lp461
(lp462
Na(lp463
aaaa(lp464
S'pinky_l_poleVector'
p465
a(lp466
(lp467
Na(lp468
aaaa(lp469
S'pinky_r_poleVector'
p470
a(lp471
(lp472
Na(lp473
aaaa(lp474
S'thumb_l_poleVector'
p475
a(lp476
(lp477
Na(lp478
aaaa(lp479
S'thumb_r_poleVector'
p480
a(lp481
(lp482
Na(lp483
aaaa(lp484
S'l_global_ik_anim'
p485
a(lp486
(lp487
Na(lp488
aaaa(lp489
S'r_global_ik_anim'
p490
a(lp491
(lp492
Na(lp493
aaaa(lp494
S'Rig_Settings'
p495
a(lp496
(lp497
Na(lp498
aaaa(lp499
Vjaw_anim
p500
a(lp501
(lp502
Na(lp503
aaaa(lp504
Vbelly_anim
p505
a(lp506
(lp507
Na(lp508
aaaa(lp509
Vpectoral_l_anim
p510
a(lp511
(lp512
Na(lp513
aaaa(lp514
Vpectoral_r_anim
p515
a(lp516
(lp517
Na(lp518
aaaa(lp519
Vweapon_r_anim
p520
a(lp521
(lp522
Na(lp523
aaaa(lp524
Vsleeve_r_anim
p525
a(lp526
(lp527
Na(lp528
aaaa(lp529
Vsleeve_l_anim
p530
a(lp531
(lp532
Na(lp533
aaaa(lp534
Vshirt_front_anim
p535
a(lp536
(lp537
Na(lp538
aaaa(lp539
Vshirt_back_anim
p540
a(lp541
(lp542
Na(lp543
aaaa(lp544
Vshirt_l_anim
p545
a(lp546
(lp547
Na(lp548
aaaa(lp549
Vshirt_r_anim
p550
a(lp551
(lp552
Na(lp553
aaaa(lp554
Vspine_adj_01_anim
p555
a(lp556
(lp557
Na(lp558
aaaa(lp559
Vspine_adj_02_anim
p560
a(lp561
(lp562
Na(lp563
aaaa(lp564
Vspine_adj_03_anim
p565
a(lp566
(lp567
Na(lp568
aaaa(lp569
Vshirt_mstr_anim
p570
a(lp571
(lp572
Na(lp573
(lp574
VtranslateX
p575
a(lp576
(lp577
F0
aF-1.4210854715202004e-14
a(lp578
Vauto
p579
aVauto
p580
aF0
aF0
aF1
aF1
aaa(lp581
F1
aF-1.4210854715202004e-14
a(lp582
Vauto
p583
aVauto
p584
aF0
aF0
aF1
aF1
aaa(lp585
F2
aF-1.4210854715202004e-14
a(lp586
Vauto
p587
aVauto
p588
aF0
aF0
aF1
aF1
aaa(lp589
F3
aF-1.4210854715202004e-14
a(lp590
Vauto
p591
aVauto
p592
aF0
aF0
aF1
aF1
aaa(lp593
F4
aF-1.4210854715202004e-14
a(lp594
Vauto
p595
aVauto
p596
aF0
aF0
aF1
aF1
aaa(lp597
F5
aF-1.4210854715202004e-14
a(lp598
Vauto
p599
aVauto
p600
aF0
aF0
aF1
aF1
aaa(lp601
F6
aF-1.4210854715202004e-14
a(lp602
Vauto
p603
aVauto
p604
aF0
aF0
aF1
aF1
aaa(lp605
F7
aF-1.4210854715202004e-14
a(lp606
Vauto
p607
aVauto
p608
aF0
aF0
aF1
aF1
aaa(lp609
F8
aF-1.4210854715202004e-14
a(lp610
Vauto
p611
aVauto
p612
aF0
aF0
aF1
aF1
aaa(lp613
F9
aF-1.4210854715202004e-14
a(lp614
Vauto
p615
aVauto
p616
aF0
aF0
aF1
aF1
aaa(lp617
F10
aF-1.4210854715202004e-14
a(lp618
Vauto
p619
aVauto
p620
aF0
aF0
aF1
aF1
aaa(lp621
F11
aF-1.4210854715202004e-14
a(lp622
Vauto
p623
aVauto
p624
aF0
aF0
aF1
aF1
aaa(lp625
F12
aF-1.4210854715202004e-14
a(lp626
Vauto
p627
aVauto
p628
aF0
aF0
aF1
aF1
aaa(lp629
F13
aF-1.4210854715202004e-14
a(lp630
Vauto
p631
aVauto
p632
aF0
aF0
aF1
aF1
aaa(lp633
F14
aF-1.4210854715202004e-14
a(lp634
Vauto
p635
aVauto
p636
aF0
aF0
aF1
aF1
aaa(lp637
F15
aF-1.4210854715202004e-14
a(lp638
Vauto
p639
aVauto
p640
aF0
aF0
aF1
aF1
aaa(lp641
F16
aF-1.4210854715202004e-14
a(lp642
Vauto
p643
aVauto
p644
aF0
aF0
aF1
aF1
aaa(lp645
F17
aF-1.4210854715202004e-14
a(lp646
Vauto
p647
aVauto
p648
aF0
aF0
aF1
aF1
aaa(lp649
F18
aF-1.4210854715202004e-14
a(lp650
Vauto
p651
aVauto
p652
aF0
aF0
aF1
aF1
aaa(lp653
F19
aF-1.4210854715202004e-14
a(lp654
Vauto
p655
aVauto
p656
aF0
aF0
aF1
aF1
aaa(lp657
F20
aF-1.4210854715202004e-14
a(lp658
Vauto
p659
aVauto
p660
aF0
aF0
aF1
aF1
aaa(lp661
F21
aF-1.4210854715202004e-14
a(lp662
Vauto
p663
aVauto
p664
aF0
aF0
aF1
aF1
aaa(lp665
F22
aF-1.4210854715202004e-14
a(lp666
Vauto
p667
aVauto
p668
aF0
aF0
aF1
aF1
aaa(lp669
F23
aF-1.4210854715202004e-14
a(lp670
Vauto
p671
aVauto
p672
aF0
aF0
aF1
aF1
aaa(lp673
F24
aF-1.4210854715202004e-14
a(lp674
Vauto
p675
aVauto
p676
aF0
aF0
aF1
aF1
aaa(lp677
F25
aF-1.4210854715202004e-14
a(lp678
Vauto
p679
aVauto
p680
aF0
aF0
aF1
aF1
aaa(lp681
F26
aF-1.4210854715202004e-14
a(lp682
Vauto
p683
aVauto
p684
aF0
aF0
aF1
aF1
aaa(lp685
F27
aF-1.4210854715202004e-14
a(lp686
Vauto
p687
aVauto
p688
aF0
aF0
aF1
aF1
aaa(lp689
F28
aF-1.4210854715202004e-14
a(lp690
Vauto
p691
aVauto
p692
aF0
aF0
aF1
aF1
aaa(lp693
F29
aF-1.4210854715202004e-14
a(lp694
Vauto
p695
aVauto
p696
aF0
aF0
aF1
aF1
aaa(lp697
F30
aF-1.4210854715202004e-14
a(lp698
Vauto
p699
aVauto
p700
aF0
aF0
aF1
aF1
aaa(lp701
F31
aF-1.4210854715202004e-14
a(lp702
Vauto
p703
aVauto
p704
aF0
aF0
aF1
aF1
aaa(lp705
F32
aF-1.4210854715202004e-14
a(lp706
Vauto
p707
aVauto
p708
aF0
aF0
aF1
aF1
aaa(lp709
F33
aF-1.4210854715202004e-14
a(lp710
Vauto
p711
aVauto
p712
aF0
aF0
aF1
aF1
aaa(lp713
F34
aF-1.4210854715202004e-14
a(lp714
Vauto
p715
aVauto
p716
aF0
aF0
aF1
aF1
aaa(lp717
F35
aF-1.4210854715202004e-14
a(lp718
Vauto
p719
aVauto
p720
aF0
aF0
aF1
aF1
aaa(lp721
F36
aF-1.4210854715202004e-14
a(lp722
Vauto
p723
aVauto
p724
aF0
aF0
aF1
aF1
aaa(lp725
F37
aF-1.4210854715202004e-14
a(lp726
Vauto
p727
aVauto
p728
aF0
aF0
aF1
aF1
aaa(lp729
F38
aF-1.4210854715202004e-14
a(lp730
Vauto
p731
aVauto
p732
aF0
aF0
aF1
aF1
aaa(lp733
F39
aF-1.4210854715202004e-14
a(lp734
Vauto
p735
aVauto
p736
aF0
aF0
aF1
aF1
aaa(lp737
F40
aF-1.4210854715202004e-14
a(lp738
Vauto
p739
aVauto
p740
aF0
aF0
aF1
aF1
aaa(lp741
F41
aF-1.4210854715202004e-14
a(lp742
Vauto
p743
aVauto
p744
aF0
aF0
aF1
aF1
aaa(lp745
F42
aF-1.4210854715202004e-14
a(lp746
Vauto
p747
aVauto
p748
aF0
aF0
aF1
aF1
aaa(lp749
F43
aF-1.4210854715202004e-14
a(lp750
Vauto
p751
aVauto
p752
aF0
aF0
aF1
aF1
aaa(lp753
F44
aF-1.4210854715202004e-14
a(lp754
Vauto
p755
aVauto
p756
aF0
aF0
aF1
aF1
aaa(lp757
F45
aF-1.4210854715202004e-14
a(lp758
Vauto
p759
aVauto
p760
aF0
aF0
aF1
aF1
aaa(lp761
F46
aF-1.4210854715202004e-14
a(lp762
Vauto
p763
aVauto
p764
aF0
aF0
aF1
aF1
aaa(lp765
F47
aF-1.4210854715202004e-14
a(lp766
Vauto
p767
aVauto
p768
aF0
aF0
aF1
aF1
aaa(lp769
F48
aF-1.4210854715202004e-14
a(lp770
Vauto
p771
aVauto
p772
aF0
aF0
aF1
aF1
aaa(lp773
F49
aF-1.4210854715202004e-14
a(lp774
Vauto
p775
aVauto
p776
aF0
aF0
aF1
aF1
aaa(lp777
F50
aF-1.4210854715202004e-14
a(lp778
Vauto
p779
aVauto
p780
aF0
aF0
aF1
aF1
aaa(lp781
F51
aF-1.4210854715202004e-14
a(lp782
Vauto
p783
aVauto
p784
aF0
aF0
aF1
aF1
aaa(lp785
F52
aF-1.4210854715202004e-14
a(lp786
Vauto
p787
aVauto
p788
aF0
aF0
aF1
aF1
aaa(lp789
F53
aF-1.4210854715202004e-14
a(lp790
Vauto
p791
aVauto
p792
aF0
aF0
aF1
aF1
aaa(lp793
F54
aF-1.4210854715202004e-14
a(lp794
Vauto
p795
aVauto
p796
aF0
aF0
aF1
aF1
aaa(lp797
F55
aF-1.4210854715202004e-14
a(lp798
Vauto
p799
aVauto
p800
aF0
aF0
aF1
aF1
aaa(lp801
F56
aF-1.4210854715202004e-14
a(lp802
Vauto
p803
aVauto
p804
aF0
aF0
aF1
aF1
aaa(lp805
F57
aF-1.4210854715202004e-14
a(lp806
Vauto
p807
aVauto
p808
aF0
aF0
aF1
aF1
aaa(lp809
F58
aF-1.4210854715202004e-14
a(lp810
Vauto
p811
aVauto
p812
aF0
aF0
aF1
aF1
aaa(lp813
F59
aF-1.4210854715202004e-14
a(lp814
Vauto
p815
aVauto
p816
aF0
aF0
aF1
aF1
aaa(lp817
F60
aF-1.4210854715202004e-14
a(lp818
Vauto
p819
aVauto
p820
aF0
aF0
aF1
aF1
aaa(lp821
F61
aF-1.4210854715202004e-14
a(lp822
Vauto
p823
aVauto
p824
aF0
aF0
aF1
aF1
aaa(lp825
F62
aF-1.4210854715202004e-14
a(lp826
Vauto
p827
aVauto
p828
aF0
aF0
aF1
aF1
aaa(lp829
F63
aF-1.4210854715202004e-14
a(lp830
Vauto
p831
aVauto
p832
aF0
aF0
aF1
aF1
aaa(lp833
F64
aF-1.4210854715202004e-14
a(lp834
Vauto
p835
aVauto
p836
aF0
aF0
aF1
aF1
aaa(lp837
F65
aF-1.4210854715202004e-14
a(lp838
Vauto
p839
aVauto
p840
aF0
aF0
aF1
aF1
aaa(lp841
F66
aF-1.4210854715202004e-14
a(lp842
Vauto
p843
aVauto
p844
aF0
aF0
aF1
aF1
aaa(lp845
F67
aF-1.4210854715202004e-14
a(lp846
Vauto
p847
aVauto
p848
aF0
aF0
aF1
aF1
aaa(lp849
F68
aF-1.4210854715202004e-14
a(lp850
Vauto
p851
aVauto
p852
aF0
aF0
aF1
aF1
aaa(lp853
F69
aF-1.4210854715202004e-14
a(lp854
Vauto
p855
aVauto
p856
aF0
aF0
aF1
aF1
aaa(lp857
F70
aF-1.4210854715202004e-14
a(lp858
Vauto
p859
aVauto
p860
aF0
aF0
aF1
aF1
aaa(lp861
F71
aF-1.4210854715202004e-14
a(lp862
Vauto
p863
aVauto
p864
aF0
aF0
aF1
aF1
aaa(lp865
F72
aF-1.4210854715202004e-14
a(lp866
Vauto
p867
aVauto
p868
aF0
aF0
aF1
aF1
aaa(lp869
F73
aF-1.4210854715202004e-14
a(lp870
Vauto
p871
aVauto
p872
aF0
aF0
aF1
aF1
aaa(lp873
F74
aF-1.4210854715202004e-14
a(lp874
Vauto
p875
aVauto
p876
aF0
aF0
aF1
aF1
aaa(lp877
F75
aF-1.4210854715202004e-14
a(lp878
Vauto
p879
aVauto
p880
aF0
aF0
aF1
aF1
aaa(lp881
F76
aF-1.4210854715202004e-14
a(lp882
Vauto
p883
aVauto
p884
aF0
aF0
aF1
aF1
aaa(lp885
F77
aF-1.4210854715202004e-14
a(lp886
Vauto
p887
aVauto
p888
aF0
aF0
aF1
aF1
aaa(lp889
F78
aF-1.4210854715202004e-14
a(lp890
Vauto
p891
aVauto
p892
aF0
aF0
aF1
aF1
aaa(lp893
F79
aF-1.4210854715202004e-14
a(lp894
Vauto
p895
aVauto
p896
aF0
aF0
aF1
aF1
aaa(lp897
F80
aF-1.4210854715202004e-14
a(lp898
Vauto
p899
aVauto
p900
aF0
aF0
aF1
aF1
aaa(lp901
F81
aF-1.4210854715202004e-14
a(lp902
Vauto
p903
aVauto
p904
aF0
aF0
aF1
aF1
aaa(lp905
F82
aF-1.4210854715202004e-14
a(lp906
Vauto
p907
aVauto
p908
aF0
aF0
aF1
aF1
aaa(lp909
F83
aF-1.4210854715202004e-14
a(lp910
Vauto
p911
aVauto
p912
aF0
aF0
aF1
aF1
aaa(lp913
F84
aF-1.4210854715202004e-14
a(lp914
Vauto
p915
aVauto
p916
aF0
aF0
aF1
aF1
aaa(lp917
F85
aF-1.4210854715202004e-14
a(lp918
Vauto
p919
aVauto
p920
aF0
aF0
aF1
aF1
aaa(lp921
F86
aF-1.4210854715202004e-14
a(lp922
Vauto
p923
aVauto
p924
aF0
aF0
aF1
aF1
aaa(lp925
F87
aF-1.4210854715202004e-14
a(lp926
Vauto
p927
aVauto
p928
aF0
aF0
aF1
aF1
aaa(lp929
F88
aF-1.4210854715202004e-14
a(lp930
Vauto
p931
aVauto
p932
aF0
aF0
aF1
aF1
aaa(lp933
F89
aF-1.4210854715202004e-14
a(lp934
Vauto
p935
aVauto
p936
aF0
aF0
aF1
aF1
aaa(lp937
F90
aF-1.4210854715202004e-14
a(lp938
Vauto
p939
aVauto
p940
aF0
aF0
aF1
aF1
aaa(lp941
F91
aF-1.4210854715202004e-14
a(lp942
Vauto
p943
aVauto
p944
aF0
aF0
aF1
aF1
aaa(lp945
F92
aF-1.4210854715202004e-14
a(lp946
Vauto
p947
aVauto
p948
aF0
aF0
aF1
aF1
aaa(lp949
F93
aF-1.4210854715202004e-14
a(lp950
Vauto
p951
aVauto
p952
aF0
aF0
aF1
aF1
aaa(lp953
F94
aF-1.4210854715202004e-14
a(lp954
Vauto
p955
aVauto
p956
aF0
aF0
aF1
aF1
aaa(lp957
F95
aF-1.4210854715202004e-14
a(lp958
Vauto
p959
aVauto
p960
aF0
aF0
aF1
aF1
aaa(lp961
F96
aF-1.4210854715202004e-14
a(lp962
Vauto
p963
aVauto
p964
aF0
aF0
aF1
aF1
aaa(lp965
F97
aF-1.4210854715202004e-14
a(lp966
Vauto
p967
aVauto
p968
aF0
aF0
aF1
aF1
aaa(lp969
F98
aF-1.4210854715202004e-14
a(lp970
Vauto
p971
aVauto
p972
aF0
aF0
aF1
aF1
aaa(lp973
F99
aF-1.4210854715202004e-14
a(lp974
Vauto
p975
aVauto
p976
aF0
aF0
aF1
aF1
aaa(lp977
F100
aF-1.4210854715202004e-14
a(lp978
Vauto
p979
aVauto
p980
aF0
aF0
aF1
aF1
aaaaa(lp981
VtranslateY
p982
a(lp983
(lp984
F0
aF-8.8817841970012523e-16
a(lp985
Vauto
p986
aVauto
p987
aF0
aF0
aF1
aF1
aaa(lp988
F1
aF-8.8817841970012523e-16
a(lp989
Vauto
p990
aVauto
p991
aF0
aF0
aF1
aF1
aaa(lp992
F2
aF-8.8817841970012523e-16
a(lp993
Vauto
p994
aVauto
p995
aF0
aF0
aF1
aF1
aaa(lp996
F3
aF-8.8817841970012523e-16
a(lp997
Vauto
p998
aVauto
p999
aF0
aF0
aF1
aF1
aaa(lp1000
F4
aF-8.8817841970012523e-16
a(lp1001
Vauto
p1002
aVauto
p1003
aF0
aF0
aF1
aF1
aaa(lp1004
F5
aF-8.8817841970012523e-16
a(lp1005
Vauto
p1006
aVauto
p1007
aF0
aF0
aF1
aF1
aaa(lp1008
F6
aF-8.8817841970012523e-16
a(lp1009
Vauto
p1010
aVauto
p1011
aF0
aF0
aF1
aF1
aaa(lp1012
F7
aF-8.8817841970012523e-16
a(lp1013
Vauto
p1014
aVauto
p1015
aF0
aF0
aF1
aF1
aaa(lp1016
F8
aF-8.8817841970012523e-16
a(lp1017
Vauto
p1018
aVauto
p1019
aF0
aF0
aF1
aF1
aaa(lp1020
F9
aF-8.8817841970012523e-16
a(lp1021
Vauto
p1022
aVauto
p1023
aF0
aF0
aF1
aF1
aaa(lp1024
F10
aF-8.8817841970012523e-16
a(lp1025
Vauto
p1026
aVauto
p1027
aF0
aF0
aF1
aF1
aaa(lp1028
F11
aF-8.8817841970012523e-16
a(lp1029
Vauto
p1030
aVauto
p1031
aF0
aF0
aF1
aF1
aaa(lp1032
F12
aF-8.8817841970012523e-16
a(lp1033
Vauto
p1034
aVauto
p1035
aF0
aF0
aF1
aF1
aaa(lp1036
F13
aF-8.8817841970012523e-16
a(lp1037
Vauto
p1038
aVauto
p1039
aF0
aF0
aF1
aF1
aaa(lp1040
F14
aF-8.8817841970012523e-16
a(lp1041
Vauto
p1042
aVauto
p1043
aF0
aF0
aF1
aF1
aaa(lp1044
F15
aF-8.8817841970012523e-16
a(lp1045
Vauto
p1046
aVauto
p1047
aF0
aF0
aF1
aF1
aaa(lp1048
F16
aF-8.8817841970012523e-16
a(lp1049
Vauto
p1050
aVauto
p1051
aF0
aF0
aF1
aF1
aaa(lp1052
F17
aF-8.8817841970012523e-16
a(lp1053
Vauto
p1054
aVauto
p1055
aF0
aF0
aF1
aF1
aaa(lp1056
F18
aF-8.8817841970012523e-16
a(lp1057
Vauto
p1058
aVauto
p1059
aF0
aF0
aF1
aF1
aaa(lp1060
F19
aF-8.8817841970012523e-16
a(lp1061
Vauto
p1062
aVauto
p1063
aF0
aF0
aF1
aF1
aaa(lp1064
F20
aF-8.8817841970012523e-16
a(lp1065
Vauto
p1066
aVauto
p1067
aF0
aF0
aF1
aF1
aaa(lp1068
F21
aF-8.8817841970012523e-16
a(lp1069
Vauto
p1070
aVauto
p1071
aF0
aF0
aF1
aF1
aaa(lp1072
F22
aF-8.8817841970012523e-16
a(lp1073
Vauto
p1074
aVauto
p1075
aF0
aF0
aF1
aF1
aaa(lp1076
F23
aF-8.8817841970012523e-16
a(lp1077
Vauto
p1078
aVauto
p1079
aF0
aF0
aF1
aF1
aaa(lp1080
F24
aF-8.8817841970012523e-16
a(lp1081
Vauto
p1082
aVauto
p1083
aF0
aF0
aF1
aF1
aaa(lp1084
F25
aF-8.8817841970012523e-16
a(lp1085
Vauto
p1086
aVauto
p1087
aF0
aF0
aF1
aF1
aaa(lp1088
F26
aF-8.8817841970012523e-16
a(lp1089
Vauto
p1090
aVauto
p1091
aF0
aF0
aF1
aF1
aaa(lp1092
F27
aF-8.8817841970012523e-16
a(lp1093
Vauto
p1094
aVauto
p1095
aF0
aF0
aF1
aF1
aaa(lp1096
F28
aF-8.8817841970012523e-16
a(lp1097
Vauto
p1098
aVauto
p1099
aF0
aF0
aF1
aF1
aaa(lp1100
F29
aF-8.8817841970012523e-16
a(lp1101
Vauto
p1102
aVauto
p1103
aF0
aF0
aF1
aF1
aaa(lp1104
F30
aF-8.8817841970012523e-16
a(lp1105
Vauto
p1106
aVauto
p1107
aF0
aF0
aF1
aF1
aaa(lp1108
F31
aF-8.8817841970012523e-16
a(lp1109
Vauto
p1110
aVauto
p1111
aF0
aF0
aF1
aF1
aaa(lp1112
F32
aF-8.8817841970012523e-16
a(lp1113
Vauto
p1114
aVauto
p1115
aF0
aF0
aF1
aF1
aaa(lp1116
F33
aF-8.8817841970012523e-16
a(lp1117
Vauto
p1118
aVauto
p1119
aF0
aF0
aF1
aF1
aaa(lp1120
F34
aF-8.8817841970012523e-16
a(lp1121
Vauto
p1122
aVauto
p1123
aF0
aF0
aF1
aF1
aaa(lp1124
F35
aF-8.8817841970012523e-16
a(lp1125
Vauto
p1126
aVauto
p1127
aF0
aF0
aF1
aF1
aaa(lp1128
F36
aF-8.8817841970012523e-16
a(lp1129
Vauto
p1130
aVauto
p1131
aF0
aF0
aF1
aF1
aaa(lp1132
F37
aF-8.8817841970012523e-16
a(lp1133
Vauto
p1134
aVauto
p1135
aF0
aF0
aF1
aF1
aaa(lp1136
F38
aF-8.8817841970012523e-16
a(lp1137
Vauto
p1138
aVauto
p1139
aF0
aF0
aF1
aF1
aaa(lp1140
F39
aF-8.8817841970012523e-16
a(lp1141
Vauto
p1142
aVauto
p1143
aF0
aF0
aF1
aF1
aaa(lp1144
F40
aF-8.8817841970012523e-16
a(lp1145
Vauto
p1146
aVauto
p1147
aF0
aF0
aF1
aF1
aaa(lp1148
F41
aF-8.8817841970012523e-16
a(lp1149
Vauto
p1150
aVauto
p1151
aF0
aF0
aF1
aF1
aaa(lp1152
F42
aF-8.8817841970012523e-16
a(lp1153
Vauto
p1154
aVauto
p1155
aF0
aF0
aF1
aF1
aaa(lp1156
F43
aF-8.8817841970012523e-16
a(lp1157
Vauto
p1158
aVauto
p1159
aF0
aF0
aF1
aF1
aaa(lp1160
F44
aF-8.8817841970012523e-16
a(lp1161
Vauto
p1162
aVauto
p1163
aF0
aF0
aF1
aF1
aaa(lp1164
F45
aF-8.8817841970012523e-16
a(lp1165
Vauto
p1166
aVauto
p1167
aF0
aF0
aF1
aF1
aaa(lp1168
F46
aF-8.8817841970012523e-16
a(lp1169
Vauto
p1170
aVauto
p1171
aF0
aF0
aF1
aF1
aaa(lp1172
F47
aF-8.8817841970012523e-16
a(lp1173
Vauto
p1174
aVauto
p1175
aF0
aF0
aF1
aF1
aaa(lp1176
F48
aF-8.8817841970012523e-16
a(lp1177
Vauto
p1178
aVauto
p1179
aF0
aF0
aF1
aF1
aaa(lp1180
F49
aF-8.8817841970012523e-16
a(lp1181
Vauto
p1182
aVauto
p1183
aF0
aF0
aF1
aF1
aaa(lp1184
F50
aF-8.8817841970012523e-16
a(lp1185
Vauto
p1186
aVauto
p1187
aF0
aF0
aF1
aF1
aaa(lp1188
F51
aF-8.8817841970012523e-16
a(lp1189
Vauto
p1190
aVauto
p1191
aF0
aF0
aF1
aF1
aaa(lp1192
F52
aF-8.8817841970012523e-16
a(lp1193
Vauto
p1194
aVauto
p1195
aF0
aF0
aF1
aF1
aaa(lp1196
F53
aF-8.8817841970012523e-16
a(lp1197
Vauto
p1198
aVauto
p1199
aF0
aF0
aF1
aF1
aaa(lp1200
F54
aF-8.8817841970012523e-16
a(lp1201
Vauto
p1202
aVauto
p1203
aF0
aF0
aF1
aF1
aaa(lp1204
F55
aF-8.8817841970012523e-16
a(lp1205
Vauto
p1206
aVauto
p1207
aF0
aF0
aF1
aF1
aaa(lp1208
F56
aF-8.8817841970012523e-16
a(lp1209
Vauto
p1210
aVauto
p1211
aF0
aF0
aF1
aF1
aaa(lp1212
F57
aF-8.8817841970012523e-16
a(lp1213
Vauto
p1214
aVauto
p1215
aF0
aF0
aF1
aF1
aaa(lp1216
F58
aF-8.8817841970012523e-16
a(lp1217
Vauto
p1218
aVauto
p1219
aF0
aF0
aF1
aF1
aaa(lp1220
F59
aF-8.8817841970012523e-16
a(lp1221
Vauto
p1222
aVauto
p1223
aF0
aF0
aF1
aF1
aaa(lp1224
F60
aF-8.8817841970012523e-16
a(lp1225
Vauto
p1226
aVauto
p1227
aF0
aF0
aF1
aF1
aaa(lp1228
F61
aF-8.8817841970012523e-16
a(lp1229
Vauto
p1230
aVauto
p1231
aF0
aF0
aF1
aF1
aaa(lp1232
F62
aF-8.8817841970012523e-16
a(lp1233
Vauto
p1234
aVauto
p1235
aF0
aF0
aF1
aF1
aaa(lp1236
F63
aF-8.8817841970012523e-16
a(lp1237
Vauto
p1238
aVauto
p1239
aF0
aF0
aF1
aF1
aaa(lp1240
F64
aF-8.8817841970012523e-16
a(lp1241
Vauto
p1242
aVauto
p1243
aF0
aF0
aF1
aF1
aaa(lp1244
F65
aF-8.8817841970012523e-16
a(lp1245
Vauto
p1246
aVauto
p1247
aF0
aF0
aF1
aF1
aaa(lp1248
F66
aF-8.8817841970012523e-16
a(lp1249
Vauto
p1250
aVauto
p1251
aF0
aF0
aF1
aF1
aaa(lp1252
F67
aF-8.8817841970012523e-16
a(lp1253
Vauto
p1254
aVauto
p1255
aF0
aF0
aF1
aF1
aaa(lp1256
F68
aF-8.8817841970012523e-16
a(lp1257
Vauto
p1258
aVauto
p1259
aF0
aF0
aF1
aF1
aaa(lp1260
F69
aF-8.8817841970012523e-16
a(lp1261
Vauto
p1262
aVauto
p1263
aF0
aF0
aF1
aF1
aaa(lp1264
F70
aF-8.8817841970012523e-16
a(lp1265
Vauto
p1266
aVauto
p1267
aF0
aF0
aF1
aF1
aaa(lp1268
F71
aF-8.8817841970012523e-16
a(lp1269
Vauto
p1270
aVauto
p1271
aF0
aF0
aF1
aF1
aaa(lp1272
F72
aF-8.8817841970012523e-16
a(lp1273
Vauto
p1274
aVauto
p1275
aF0
aF0
aF1
aF1
aaa(lp1276
F73
aF-8.8817841970012523e-16
a(lp1277
Vauto
p1278
aVauto
p1279
aF0
aF0
aF1
aF1
aaa(lp1280
F74
aF-8.8817841970012523e-16
a(lp1281
Vauto
p1282
aVauto
p1283
aF0
aF0
aF1
aF1
aaa(lp1284
F75
aF-8.8817841970012523e-16
a(lp1285
Vauto
p1286
aVauto
p1287
aF0
aF0
aF1
aF1
aaa(lp1288
F76
aF-8.8817841970012523e-16
a(lp1289
Vauto
p1290
aVauto
p1291
aF0
aF0
aF1
aF1
aaa(lp1292
F77
aF-8.8817841970012523e-16
a(lp1293
Vauto
p1294
aVauto
p1295
aF0
aF0
aF1
aF1
aaa(lp1296
F78
aF-8.8817841970012523e-16
a(lp1297
Vauto
p1298
aVauto
p1299
aF0
aF0
aF1
aF1
aaa(lp1300
F79
aF-8.8817841970012523e-16
a(lp1301
Vauto
p1302
aVauto
p1303
aF0
aF0
aF1
aF1
aaa(lp1304
F80
aF-8.8817841970012523e-16
a(lp1305
Vauto
p1306
aVauto
p1307
aF0
aF0
aF1
aF1
aaa(lp1308
F81
aF-8.8817841970012523e-16
a(lp1309
Vauto
p1310
aVauto
p1311
aF0
aF0
aF1
aF1
aaa(lp1312
F82
aF-8.8817841970012523e-16
a(lp1313
Vauto
p1314
aVauto
p1315
aF0
aF0
aF1
aF1
aaa(lp1316
F83
aF-8.8817841970012523e-16
a(lp1317
Vauto
p1318
aVauto
p1319
aF0
aF0
aF1
aF1
aaa(lp1320
F84
aF-8.8817841970012523e-16
a(lp1321
Vauto
p1322
aVauto
p1323
aF0
aF0
aF1
aF1
aaa(lp1324
F85
aF-8.8817841970012523e-16
a(lp1325
Vauto
p1326
aVauto
p1327
aF0
aF0
aF1
aF1
aaa(lp1328
F86
aF-8.8817841970012523e-16
a(lp1329
Vauto
p1330
aVauto
p1331
aF0
aF0
aF1
aF1
aaa(lp1332
F87
aF-8.8817841970012523e-16
a(lp1333
Vauto
p1334
aVauto
p1335
aF0
aF0
aF1
aF1
aaa(lp1336
F88
aF-8.8817841970012523e-16
a(lp1337
Vauto
p1338
aVauto
p1339
aF0
aF0
aF1
aF1
aaa(lp1340
F89
aF-8.8817841970012523e-16
a(lp1341
Vauto
p1342
aVauto
p1343
aF0
aF0
aF1
aF1
aaa(lp1344
F90
aF-8.8817841970012523e-16
a(lp1345
Vauto
p1346
aVauto
p1347
aF0
aF0
aF1
aF1
aaa(lp1348
F91
aF-8.8817841970012523e-16
a(lp1349
Vauto
p1350
aVauto
p1351
aF0
aF0
aF1
aF1
aaa(lp1352
F92
aF-8.8817841970012523e-16
a(lp1353
Vauto
p1354
aVauto
p1355
aF0
aF0
aF1
aF1
aaa(lp1356
F93
aF-8.8817841970012523e-16
a(lp1357
Vauto
p1358
aVauto
p1359
aF0
aF0
aF1
aF1
aaa(lp1360
F94
aF-8.8817841970012523e-16
a(lp1361
Vauto
p1362
aVauto
p1363
aF0
aF0
aF1
aF1
aaa(lp1364
F95
aF-8.8817841970012523e-16
a(lp1365
Vauto
p1366
aVauto
p1367
aF0
aF0
aF1
aF1
aaa(lp1368
F96
aF-8.8817841970012523e-16
a(lp1369
Vauto
p1370
aVauto
p1371
aF0
aF0
aF1
aF1
aaa(lp1372
F97
aF-8.8817841970012523e-16
a(lp1373
Vauto
p1374
aVauto
p1375
aF0
aF0
aF1
aF1
aaa(lp1376
F98
aF-8.8817841970012523e-16
a(lp1377
Vauto
p1378
aVauto
p1379
aF0
aF0
aF1
aF1
aaa(lp1380
F99
aF-8.8817841970012523e-16
a(lp1381
Vauto
p1382
aVauto
p1383
aF0
aF0
aF1
aF1
aaa(lp1384
F100
aF-8.8817841970012523e-16
a(lp1385
Vauto
p1386
aVauto
p1387
aF0
aF0
aF1
aF1
aaaaa(lp1388
VtranslateZ
p1389
a(lp1390
(lp1391
F0
aF0
a(lp1392
Vauto
p1393
aVauto
p1394
aF0
aF0
aF1
aF1
aaa(lp1395
F1
aF0
a(lp1396
Vauto
p1397
aVauto
p1398
aF0
aF0
aF1
aF1
aaa(lp1399
F2
aF0
a(lp1400
Vauto
p1401
aVauto
p1402
aF0
aF0
aF1
aF1
aaa(lp1403
F3
aF0
a(lp1404
Vauto
p1405
aVauto
p1406
aF0
aF0
aF1
aF1
aaa(lp1407
F4
aF0
a(lp1408
Vauto
p1409
aVauto
p1410
aF0
aF0
aF1
aF1
aaa(lp1411
F5
aF0
a(lp1412
Vauto
p1413
aVauto
p1414
aF0
aF0
aF1
aF1
aaa(lp1415
F6
aF0
a(lp1416
Vauto
p1417
aVauto
p1418
aF0
aF0
aF1
aF1
aaa(lp1419
F7
aF0
a(lp1420
Vauto
p1421
aVauto
p1422
aF0
aF0
aF1
aF1
aaa(lp1423
F8
aF0
a(lp1424
Vauto
p1425
aVauto
p1426
aF0
aF0
aF1
aF1
aaa(lp1427
F9
aF0
a(lp1428
Vauto
p1429
aVauto
p1430
aF0
aF0
aF1
aF1
aaa(lp1431
F10
aF0
a(lp1432
Vauto
p1433
aVauto
p1434
aF0
aF0
aF1
aF1
aaa(lp1435
F11
aF0
a(lp1436
Vauto
p1437
aVauto
p1438
aF0
aF0
aF1
aF1
aaa(lp1439
F12
aF0
a(lp1440
Vauto
p1441
aVauto
p1442
aF0
aF0
aF1
aF1
aaa(lp1443
F13
aF0
a(lp1444
Vauto
p1445
aVauto
p1446
aF0
aF0
aF1
aF1
aaa(lp1447
F14
aF0
a(lp1448
Vauto
p1449
aVauto
p1450
aF0
aF0
aF1
aF1
aaa(lp1451
F15
aF0
a(lp1452
Vauto
p1453
aVauto
p1454
aF0
aF0
aF1
aF1
aaa(lp1455
F16
aF0
a(lp1456
Vauto
p1457
aVauto
p1458
aF0
aF0
aF1
aF1
aaa(lp1459
F17
aF0
a(lp1460
Vauto
p1461
aVauto
p1462
aF0
aF0
aF1
aF1
aaa(lp1463
F18
aF0
a(lp1464
Vauto
p1465
aVauto
p1466
aF0
aF0
aF1
aF1
aaa(lp1467
F19
aF0
a(lp1468
Vauto
p1469
aVauto
p1470
aF0
aF0
aF1
aF1
aaa(lp1471
F20
aF0
a(lp1472
Vauto
p1473
aVauto
p1474
aF0
aF0
aF1
aF1
aaa(lp1475
F21
aF0
a(lp1476
Vauto
p1477
aVauto
p1478
aF0
aF0
aF1
aF1
aaa(lp1479
F22
aF0
a(lp1480
Vauto
p1481
aVauto
p1482
aF0
aF0
aF1
aF1
aaa(lp1483
F23
aF0
a(lp1484
Vauto
p1485
aVauto
p1486
aF0
aF0
aF1
aF1
aaa(lp1487
F24
aF0
a(lp1488
Vauto
p1489
aVauto
p1490
aF0
aF0
aF1
aF1
aaa(lp1491
F25
aF0
a(lp1492
Vauto
p1493
aVauto
p1494
aF0
aF0
aF1
aF1
aaa(lp1495
F26
aF0
a(lp1496
Vauto
p1497
aVauto
p1498
aF0
aF0
aF1
aF1
aaa(lp1499
F27
aF0
a(lp1500
Vauto
p1501
aVauto
p1502
aF0
aF0
aF1
aF1
aaa(lp1503
F28
aF0
a(lp1504
Vauto
p1505
aVauto
p1506
aF0
aF0
aF1
aF1
aaa(lp1507
F29
aF0
a(lp1508
Vauto
p1509
aVauto
p1510
aF0
aF0
aF1
aF1
aaa(lp1511
F30
aF0
a(lp1512
Vauto
p1513
aVauto
p1514
aF0
aF0
aF1
aF1
aaa(lp1515
F31
aF0
a(lp1516
Vauto
p1517
aVauto
p1518
aF0
aF0
aF1
aF1
aaa(lp1519
F32
aF0
a(lp1520
Vauto
p1521
aVauto
p1522
aF0
aF0
aF1
aF1
aaa(lp1523
F33
aF0
a(lp1524
Vauto
p1525
aVauto
p1526
aF0
aF0
aF1
aF1
aaa(lp1527
F34
aF0
a(lp1528
Vauto
p1529
aVauto
p1530
aF0
aF0
aF1
aF1
aaa(lp1531
F35
aF0
a(lp1532
Vauto
p1533
aVauto
p1534
aF0
aF0
aF1
aF1
aaa(lp1535
F36
aF0
a(lp1536
Vauto
p1537
aVauto
p1538
aF0
aF0
aF1
aF1
aaa(lp1539
F37
aF0
a(lp1540
Vauto
p1541
aVauto
p1542
aF0
aF0
aF1
aF1
aaa(lp1543
F38
aF0
a(lp1544
Vauto
p1545
aVauto
p1546
aF0
aF0
aF1
aF1
aaa(lp1547
F39
aF0
a(lp1548
Vauto
p1549
aVauto
p1550
aF0
aF0
aF1
aF1
aaa(lp1551
F40
aF0
a(lp1552
Vauto
p1553
aVauto
p1554
aF0
aF0
aF1
aF1
aaa(lp1555
F41
aF0
a(lp1556
Vauto
p1557
aVauto
p1558
aF0
aF0
aF1
aF1
aaa(lp1559
F42
aF0
a(lp1560
Vauto
p1561
aVauto
p1562
aF0
aF0
aF1
aF1
aaa(lp1563
F43
aF0
a(lp1564
Vauto
p1565
aVauto
p1566
aF0
aF0
aF1
aF1
aaa(lp1567
F44
aF0
a(lp1568
Vauto
p1569
aVauto
p1570
aF0
aF0
aF1
aF1
aaa(lp1571
F45
aF0
a(lp1572
Vauto
p1573
aVauto
p1574
aF0
aF0
aF1
aF1
aaa(lp1575
F46
aF0
a(lp1576
Vauto
p1577
aVauto
p1578
aF0
aF0
aF1
aF1
aaa(lp1579
F47
aF0
a(lp1580
Vauto
p1581
aVauto
p1582
aF0
aF0
aF1
aF1
aaa(lp1583
F48
aF0
a(lp1584
Vauto
p1585
aVauto
p1586
aF0
aF0
aF1
aF1
aaa(lp1587
F49
aF0
a(lp1588
Vauto
p1589
aVauto
p1590
aF0
aF0
aF1
aF1
aaa(lp1591
F50
aF0
a(lp1592
Vauto
p1593
aVauto
p1594
aF0
aF0
aF1
aF1
aaa(lp1595
F51
aF0
a(lp1596
Vauto
p1597
aVauto
p1598
aF0
aF0
aF1
aF1
aaa(lp1599
F52
aF0
a(lp1600
Vauto
p1601
aVauto
p1602
aF0
aF0
aF1
aF1
aaa(lp1603
F53
aF0
a(lp1604
Vauto
p1605
aVauto
p1606
aF0
aF0
aF1
aF1
aaa(lp1607
F54
aF0
a(lp1608
Vauto
p1609
aVauto
p1610
aF0
aF0
aF1
aF1
aaa(lp1611
F55
aF0
a(lp1612
Vauto
p1613
aVauto
p1614
aF0
aF0
aF1
aF1
aaa(lp1615
F56
aF0
a(lp1616
Vauto
p1617
aVauto
p1618
aF0
aF0
aF1
aF1
aaa(lp1619
F57
aF0
a(lp1620
Vauto
p1621
aVauto
p1622
aF0
aF0
aF1
aF1
aaa(lp1623
F58
aF0
a(lp1624
Vauto
p1625
aVauto
p1626
aF0
aF0
aF1
aF1
aaa(lp1627
F59
aF0
a(lp1628
Vauto
p1629
aVauto
p1630
aF0
aF0
aF1
aF1
aaa(lp1631
F60
aF0
a(lp1632
Vauto
p1633
aVauto
p1634
aF0
aF0
aF1
aF1
aaa(lp1635
F61
aF0
a(lp1636
Vauto
p1637
aVauto
p1638
aF0
aF0
aF1
aF1
aaa(lp1639
F62
aF0
a(lp1640
Vauto
p1641
aVauto
p1642
aF0
aF0
aF1
aF1
aaa(lp1643
F63
aF0
a(lp1644
Vauto
p1645
aVauto
p1646
aF0
aF0
aF1
aF1
aaa(lp1647
F64
aF0
a(lp1648
Vauto
p1649
aVauto
p1650
aF0
aF0
aF1
aF1
aaa(lp1651
F65
aF0
a(lp1652
Vauto
p1653
aVauto
p1654
aF0
aF0
aF1
aF1
aaa(lp1655
F66
aF0
a(lp1656
Vauto
p1657
aVauto
p1658
aF0
aF0
aF1
aF1
aaa(lp1659
F67
aF0
a(lp1660
Vauto
p1661
aVauto
p1662
aF0
aF0
aF1
aF1
aaa(lp1663
F68
aF0
a(lp1664
Vauto
p1665
aVauto
p1666
aF0
aF0
aF1
aF1
aaa(lp1667
F69
aF0
a(lp1668
Vauto
p1669
aVauto
p1670
aF0
aF0
aF1
aF1
aaa(lp1671
F70
aF0
a(lp1672
Vauto
p1673
aVauto
p1674
aF0
aF0
aF1
aF1
aaa(lp1675
F71
aF0
a(lp1676
Vauto
p1677
aVauto
p1678
aF0
aF0
aF1
aF1
aaa(lp1679
F72
aF0
a(lp1680
Vauto
p1681
aVauto
p1682
aF0
aF0
aF1
aF1
aaa(lp1683
F73
aF0
a(lp1684
Vauto
p1685
aVauto
p1686
aF0
aF0
aF1
aF1
aaa(lp1687
F74
aF0
a(lp1688
Vauto
p1689
aVauto
p1690
aF0
aF0
aF1
aF1
aaa(lp1691
F75
aF0
a(lp1692
Vauto
p1693
aVauto
p1694
aF0
aF0
aF1
aF1
aaa(lp1695
F76
aF0
a(lp1696
Vauto
p1697
aVauto
p1698
aF0
aF0
aF1
aF1
aaa(lp1699
F77
aF0
a(lp1700
Vauto
p1701
aVauto
p1702
aF0
aF0
aF1
aF1
aaa(lp1703
F78
aF0
a(lp1704
Vauto
p1705
aVauto
p1706
aF0
aF0
aF1
aF1
aaa(lp1707
F79
aF0
a(lp1708
Vauto
p1709
aVauto
p1710
aF0
aF0
aF1
aF1
aaa(lp1711
F80
aF0
a(lp1712
Vauto
p1713
aVauto
p1714
aF0
aF0
aF1
aF1
aaa(lp1715
F81
aF0
a(lp1716
Vauto
p1717
aVauto
p1718
aF0
aF0
aF1
aF1
aaa(lp1719
F82
aF0
a(lp1720
Vauto
p1721
aVauto
p1722
aF0
aF0
aF1
aF1
aaa(lp1723
F83
aF0
a(lp1724
Vauto
p1725
aVauto
p1726
aF0
aF0
aF1
aF1
aaa(lp1727
F84
aF0
a(lp1728
Vauto
p1729
aVauto
p1730
aF0
aF0
aF1
aF1
aaa(lp1731
F85
aF0
a(lp1732
Vauto
p1733
aVauto
p1734
aF0
aF0
aF1
aF1
aaa(lp1735
F86
aF0
a(lp1736
Vauto
p1737
aVauto
p1738
aF0
aF0
aF1
aF1
aaa(lp1739
F87
aF0
a(lp1740
Vauto
p1741
aVauto
p1742
aF0
aF0
aF1
aF1
aaa(lp1743
F88
aF0
a(lp1744
Vauto
p1745
aVauto
p1746
aF0
aF0
aF1
aF1
aaa(lp1747
F89
aF0
a(lp1748
Vauto
p1749
aVauto
p1750
aF0
aF0
aF1
aF1
aaa(lp1751
F90
aF0
a(lp1752
Vauto
p1753
aVauto
p1754
aF0
aF0
aF1
aF1
aaa(lp1755
F91
aF0
a(lp1756
Vauto
p1757
aVauto
p1758
aF0
aF0
aF1
aF1
aaa(lp1759
F92
aF0
a(lp1760
Vauto
p1761
aVauto
p1762
aF0
aF0
aF1
aF1
aaa(lp1763
F93
aF0
a(lp1764
Vauto
p1765
aVauto
p1766
aF0
aF0
aF1
aF1
aaa(lp1767
F94
aF0
a(lp1768
Vauto
p1769
aVauto
p1770
aF0
aF0
aF1
aF1
aaa(lp1771
F95
aF0
a(lp1772
Vauto
p1773
aVauto
p1774
aF0
aF0
aF1
aF1
aaa(lp1775
F96
aF0
a(lp1776
Vauto
p1777
aVauto
p1778
aF0
aF0
aF1
aF1
aaa(lp1779
F97
aF0
a(lp1780
Vauto
p1781
aVauto
p1782
aF0
aF0
aF1
aF1
aaa(lp1783
F98
aF0
a(lp1784
Vauto
p1785
aVauto
p1786
aF0
aF0
aF1
aF1
aaa(lp1787
F99
aF0
a(lp1788
Vauto
p1789
aVauto
p1790
aF0
aF0
aF1
aF1
aaa(lp1791
F100
aF0
a(lp1792
Vauto
p1793
aVauto
p1794
aF0
aF0
aF1
aF1
aaaaa(lp1795
VrotateX
p1796
a(lp1797
(lp1798
F0
aF-8.7465253740242207e-15
a(lp1799
Vauto
p1800
aVauto
p1801
aF0
aF0
aF1
aF1
aaa(lp1802
F1
aF-8.7465253740242207e-15
a(lp1803
Vauto
p1804
aVauto
p1805
aF0
aF0
aF1
aF1
aaa(lp1806
F2
aF-8.7465253740242207e-15
a(lp1807
Vauto
p1808
aVauto
p1809
aF0
aF0
aF1
aF1
aaa(lp1810
F3
aF-8.7465253740242207e-15
a(lp1811
Vauto
p1812
aVauto
p1813
aF0
aF0
aF1
aF1
aaa(lp1814
F4
aF-8.7465253740242207e-15
a(lp1815
Vauto
p1816
aVauto
p1817
aF0
aF0
aF1
aF1
aaa(lp1818
F5
aF-8.7465253740242207e-15
a(lp1819
Vauto
p1820
aVauto
p1821
aF0
aF0
aF1
aF1
aaa(lp1822
F6
aF-8.7465253740242207e-15
a(lp1823
Vauto
p1824
aVauto
p1825
aF0
aF0
aF1
aF1
aaa(lp1826
F7
aF-8.7465253740242207e-15
a(lp1827
Vauto
p1828
aVauto
p1829
aF0
aF0
aF1
aF1
aaa(lp1830
F8
aF-8.7465253740242207e-15
a(lp1831
Vauto
p1832
aVauto
p1833
aF0
aF0
aF1
aF1
aaa(lp1834
F9
aF-8.7465253740242207e-15
a(lp1835
Vauto
p1836
aVauto
p1837
aF0
aF0
aF1
aF1
aaa(lp1838
F10
aF-8.7465253740242207e-15
a(lp1839
Vauto
p1840
aVauto
p1841
aF0
aF0
aF1
aF1
aaa(lp1842
F11
aF-8.7465253740242207e-15
a(lp1843
Vauto
p1844
aVauto
p1845
aF0
aF0
aF1
aF1
aaa(lp1846
F12
aF-8.7465253740242207e-15
a(lp1847
Vauto
p1848
aVauto
p1849
aF0
aF0
aF1
aF1
aaa(lp1850
F13
aF-8.7465253740242207e-15
a(lp1851
Vauto
p1852
aVauto
p1853
aF0
aF0
aF1
aF1
aaa(lp1854
F14
aF-8.7465253740242207e-15
a(lp1855
Vauto
p1856
aVauto
p1857
aF0
aF0
aF1
aF1
aaa(lp1858
F15
aF-8.7465253740242207e-15
a(lp1859
Vauto
p1860
aVauto
p1861
aF0
aF0
aF1
aF1
aaa(lp1862
F16
aF-8.7465253740242207e-15
a(lp1863
Vauto
p1864
aVauto
p1865
aF0
aF0
aF1
aF1
aaa(lp1866
F17
aF-8.7465253740242207e-15
a(lp1867
Vauto
p1868
aVauto
p1869
aF0
aF0
aF1
aF1
aaa(lp1870
F18
aF-8.7465253740242207e-15
a(lp1871
Vauto
p1872
aVauto
p1873
aF0
aF0
aF1
aF1
aaa(lp1874
F19
aF-8.7465253740242207e-15
a(lp1875
Vauto
p1876
aVauto
p1877
aF0
aF0
aF1
aF1
aaa(lp1878
F20
aF-8.7465253740242207e-15
a(lp1879
Vauto
p1880
aVauto
p1881
aF0
aF0
aF1
aF1
aaa(lp1882
F21
aF-8.7465253740242207e-15
a(lp1883
Vauto
p1884
aVauto
p1885
aF0
aF0
aF1
aF1
aaa(lp1886
F22
aF-8.7465253740242207e-15
a(lp1887
Vauto
p1888
aVauto
p1889
aF0
aF0
aF1
aF1
aaa(lp1890
F23
aF-8.7465253740242207e-15
a(lp1891
Vauto
p1892
aVauto
p1893
aF0
aF0
aF1
aF1
aaa(lp1894
F24
aF-8.7465253740242207e-15
a(lp1895
Vauto
p1896
aVauto
p1897
aF0
aF0
aF1
aF1
aaa(lp1898
F25
aF-8.7465253740242207e-15
a(lp1899
Vauto
p1900
aVauto
p1901
aF0
aF0
aF1
aF1
aaa(lp1902
F26
aF-8.7465253740242207e-15
a(lp1903
Vauto
p1904
aVauto
p1905
aF0
aF0
aF1
aF1
aaa(lp1906
F27
aF-8.7465253740242207e-15
a(lp1907
Vauto
p1908
aVauto
p1909
aF0
aF0
aF1
aF1
aaa(lp1910
F28
aF-8.7465253740242207e-15
a(lp1911
Vauto
p1912
aVauto
p1913
aF0
aF0
aF1
aF1
aaa(lp1914
F29
aF-8.7465253740242207e-15
a(lp1915
Vauto
p1916
aVauto
p1917
aF0
aF0
aF1
aF1
aaa(lp1918
F30
aF-8.7465253740242207e-15
a(lp1919
Vauto
p1920
aVauto
p1921
aF0
aF0
aF1
aF1
aaa(lp1922
F31
aF-8.7465253740242207e-15
a(lp1923
Vauto
p1924
aVauto
p1925
aF0
aF0
aF1
aF1
aaa(lp1926
F32
aF-8.7465253740242207e-15
a(lp1927
Vauto
p1928
aVauto
p1929
aF0
aF0
aF1
aF1
aaa(lp1930
F33
aF-8.7465253740242207e-15
a(lp1931
Vauto
p1932
aVauto
p1933
aF0
aF0
aF1
aF1
aaa(lp1934
F34
aF-8.7465253740242207e-15
a(lp1935
Vauto
p1936
aVauto
p1937
aF0
aF0
aF1
aF1
aaa(lp1938
F35
aF-8.7465253740242207e-15
a(lp1939
Vauto
p1940
aVauto
p1941
aF0
aF0
aF1
aF1
aaa(lp1942
F36
aF-8.7465253740242207e-15
a(lp1943
Vauto
p1944
aVauto
p1945
aF0
aF0
aF1
aF1
aaa(lp1946
F37
aF-8.7465253740242207e-15
a(lp1947
Vauto
p1948
aVauto
p1949
aF0
aF0
aF1
aF1
aaa(lp1950
F38
aF-8.7465253740242207e-15
a(lp1951
Vauto
p1952
aVauto
p1953
aF0
aF0
aF1
aF1
aaa(lp1954
F39
aF-8.7465253740242207e-15
a(lp1955
Vauto
p1956
aVauto
p1957
aF0
aF0
aF1
aF1
aaa(lp1958
F40
aF-8.7465253740242207e-15
a(lp1959
Vauto
p1960
aVauto
p1961
aF0
aF0
aF1
aF1
aaa(lp1962
F41
aF-8.7465253740242207e-15
a(lp1963
Vauto
p1964
aVauto
p1965
aF0
aF0
aF1
aF1
aaa(lp1966
F42
aF-8.7465253740242207e-15
a(lp1967
Vauto
p1968
aVauto
p1969
aF0
aF0
aF1
aF1
aaa(lp1970
F43
aF-8.7465253740242207e-15
a(lp1971
Vauto
p1972
aVauto
p1973
aF0
aF0
aF1
aF1
aaa(lp1974
F44
aF-8.7465253740242207e-15
a(lp1975
Vauto
p1976
aVauto
p1977
aF0
aF0
aF1
aF1
aaa(lp1978
F45
aF-8.7465253740242207e-15
a(lp1979
Vauto
p1980
aVauto
p1981
aF0
aF0
aF1
aF1
aaa(lp1982
F46
aF-8.7465253740242207e-15
a(lp1983
Vauto
p1984
aVauto
p1985
aF0
aF0
aF1
aF1
aaa(lp1986
F47
aF-8.7465253740242207e-15
a(lp1987
Vauto
p1988
aVauto
p1989
aF0
aF0
aF1
aF1
aaa(lp1990
F48
aF-8.7465253740242207e-15
a(lp1991
Vauto
p1992
aVauto
p1993
aF0
aF0
aF1
aF1
aaa(lp1994
F49
aF-8.7465253740242207e-15
a(lp1995
Vauto
p1996
aVauto
p1997
aF0
aF0
aF1
aF1
aaa(lp1998
F50
aF-8.7465253740242207e-15
a(lp1999
Vauto
p2000
aVauto
p2001
aF0
aF0
aF1
aF1
aaa(lp2002
F51
aF-8.7465253740242207e-15
a(lp2003
Vauto
p2004
aVauto
p2005
aF0
aF0
aF1
aF1
aaa(lp2006
F52
aF-8.7465253740242207e-15
a(lp2007
Vauto
p2008
aVauto
p2009
aF0
aF0
aF1
aF1
aaa(lp2010
F53
aF-8.7465253740242207e-15
a(lp2011
Vauto
p2012
aVauto
p2013
aF0
aF0
aF1
aF1
aaa(lp2014
F54
aF-8.7465253740242207e-15
a(lp2015
Vauto
p2016
aVauto
p2017
aF0
aF0
aF1
aF1
aaa(lp2018
F55
aF-8.7465253740242207e-15
a(lp2019
Vauto
p2020
aVauto
p2021
aF0
aF0
aF1
aF1
aaa(lp2022
F56
aF-8.7465253740242207e-15
a(lp2023
Vauto
p2024
aVauto
p2025
aF0
aF0
aF1
aF1
aaa(lp2026
F57
aF-8.7465253740242207e-15
a(lp2027
Vauto
p2028
aVauto
p2029
aF0
aF0
aF1
aF1
aaa(lp2030
F58
aF-8.7465253740242207e-15
a(lp2031
Vauto
p2032
aVauto
p2033
aF0
aF0
aF1
aF1
aaa(lp2034
F59
aF-8.7465253740242207e-15
a(lp2035
Vauto
p2036
aVauto
p2037
aF0
aF0
aF1
aF1
aaa(lp2038
F60
aF-8.7465253740242207e-15
a(lp2039
Vauto
p2040
aVauto
p2041
aF0
aF0
aF1
aF1
aaa(lp2042
F61
aF-8.7465253740242207e-15
a(lp2043
Vauto
p2044
aVauto
p2045
aF0
aF0
aF1
aF1
aaa(lp2046
F62
aF-8.7465253740242207e-15
a(lp2047
Vauto
p2048
aVauto
p2049
aF0
aF0
aF1
aF1
aaa(lp2050
F63
aF-8.7465253740242207e-15
a(lp2051
Vauto
p2052
aVauto
p2053
aF0
aF0
aF1
aF1
aaa(lp2054
F64
aF-8.7465253740242207e-15
a(lp2055
Vauto
p2056
aVauto
p2057
aF0
aF0
aF1
aF1
aaa(lp2058
F65
aF-8.7465253740242207e-15
a(lp2059
Vauto
p2060
aVauto
p2061
aF0
aF0
aF1
aF1
aaa(lp2062
F66
aF-8.7465253740242207e-15
a(lp2063
Vauto
p2064
aVauto
p2065
aF0
aF0
aF1
aF1
aaa(lp2066
F67
aF-8.7465253740242207e-15
a(lp2067
Vauto
p2068
aVauto
p2069
aF0
aF0
aF1
aF1
aaa(lp2070
F68
aF-8.7465253740242207e-15
a(lp2071
Vauto
p2072
aVauto
p2073
aF0
aF0
aF1
aF1
aaa(lp2074
F69
aF-8.7465253740242207e-15
a(lp2075
Vauto
p2076
aVauto
p2077
aF0
aF0
aF1
aF1
aaa(lp2078
F70
aF-8.7465253740242207e-15
a(lp2079
Vauto
p2080
aVauto
p2081
aF0
aF0
aF1
aF1
aaa(lp2082
F71
aF-8.7465253740242207e-15
a(lp2083
Vauto
p2084
aVauto
p2085
aF0
aF0
aF1
aF1
aaa(lp2086
F72
aF-8.7465253740242207e-15
a(lp2087
Vauto
p2088
aVauto
p2089
aF0
aF0
aF1
aF1
aaa(lp2090
F73
aF-8.7465253740242207e-15
a(lp2091
Vauto
p2092
aVauto
p2093
aF0
aF0
aF1
aF1
aaa(lp2094
F74
aF-8.7465253740242207e-15
a(lp2095
Vauto
p2096
aVauto
p2097
aF0
aF0
aF1
aF1
aaa(lp2098
F75
aF-8.7465253740242207e-15
a(lp2099
Vauto
p2100
aVauto
p2101
aF0
aF0
aF1
aF1
aaa(lp2102
F76
aF-8.7465253740242207e-15
a(lp2103
Vauto
p2104
aVauto
p2105
aF0
aF0
aF1
aF1
aaa(lp2106
F77
aF-8.7465253740242207e-15
a(lp2107
Vauto
p2108
aVauto
p2109
aF0
aF0
aF1
aF1
aaa(lp2110
F78
aF-8.7465253740242207e-15
a(lp2111
Vauto
p2112
aVauto
p2113
aF0
aF0
aF1
aF1
aaa(lp2114
F79
aF-8.7465253740242207e-15
a(lp2115
Vauto
p2116
aVauto
p2117
aF0
aF0
aF1
aF1
aaa(lp2118
F80
aF-8.7465253740242207e-15
a(lp2119
Vauto
p2120
aVauto
p2121
aF0
aF0
aF1
aF1
aaa(lp2122
F81
aF-8.7465253740242207e-15
a(lp2123
Vauto
p2124
aVauto
p2125
aF0
aF0
aF1
aF1
aaa(lp2126
F82
aF-8.7465253740242207e-15
a(lp2127
Vauto
p2128
aVauto
p2129
aF0
aF0
aF1
aF1
aaa(lp2130
F83
aF-8.7465253740242207e-15
a(lp2131
Vauto
p2132
aVauto
p2133
aF0
aF0
aF1
aF1
aaa(lp2134
F84
aF-8.7465253740242207e-15
a(lp2135
Vauto
p2136
aVauto
p2137
aF0
aF0
aF1
aF1
aaa(lp2138
F85
aF-8.7465253740242207e-15
a(lp2139
Vauto
p2140
aVauto
p2141
aF0
aF0
aF1
aF1
aaa(lp2142
F86
aF-8.7465253740242207e-15
a(lp2143
Vauto
p2144
aVauto
p2145
aF0
aF0
aF1
aF1
aaa(lp2146
F87
aF-8.7465253740242207e-15
a(lp2147
Vauto
p2148
aVauto
p2149
aF0
aF0
aF1
aF1
aaa(lp2150
F88
aF-8.7465253740242207e-15
a(lp2151
Vauto
p2152
aVauto
p2153
aF0
aF0
aF1
aF1
aaa(lp2154
F89
aF-8.7465253740242207e-15
a(lp2155
Vauto
p2156
aVauto
p2157
aF0
aF0
aF1
aF1
aaa(lp2158
F90
aF-8.7465253740242207e-15
a(lp2159
Vauto
p2160
aVauto
p2161
aF0
aF0
aF1
aF1
aaa(lp2162
F91
aF-8.7465253740242207e-15
a(lp2163
Vauto
p2164
aVauto
p2165
aF0
aF0
aF1
aF1
aaa(lp2166
F92
aF-8.7465253740242207e-15
a(lp2167
Vauto
p2168
aVauto
p2169
aF0
aF0
aF1
aF1
aaa(lp2170
F93
aF-8.7465253740242207e-15
a(lp2171
Vauto
p2172
aVauto
p2173
aF0
aF0
aF1
aF1
aaa(lp2174
F94
aF-8.7465253740242207e-15
a(lp2175
Vauto
p2176
aVauto
p2177
aF0
aF0
aF1
aF1
aaa(lp2178
F95
aF-8.7465253740242207e-15
a(lp2179
Vauto
p2180
aVauto
p2181
aF0
aF0
aF1
aF1
aaa(lp2182
F96
aF-8.7465253740242207e-15
a(lp2183
Vauto
p2184
aVauto
p2185
aF0
aF0
aF1
aF1
aaa(lp2186
F97
aF-8.7465253740242207e-15
a(lp2187
Vauto
p2188
aVauto
p2189
aF0
aF0
aF1
aF1
aaa(lp2190
F98
aF-8.7465253740242207e-15
a(lp2191
Vauto
p2192
aVauto
p2193
aF0
aF0
aF1
aF1
aaa(lp2194
F99
aF-8.7465253740242207e-15
a(lp2195
Vauto
p2196
aVauto
p2197
aF0
aF0
aF1
aF1
aaa(lp2198
F100
aF-8.7465253740242207e-15
a(lp2199
Vauto
p2200
aVauto
p2201
aF0
aF0
aF1
aF1
aaaaa(lp2202
VrotateY
p2203
a(lp2204
(lp2205
F0
aF-3.1060104312436449e-16
a(lp2206
Vauto
p2207
aVauto
p2208
aF0
aF0
aF1
aF1
aaa(lp2209
F1
aF-3.1060104312436449e-16
a(lp2210
Vauto
p2211
aVauto
p2212
aF0
aF0
aF1
aF1
aaa(lp2213
F2
aF-3.1060104312436449e-16
a(lp2214
Vauto
p2215
aVauto
p2216
aF0
aF0
aF1
aF1
aaa(lp2217
F3
aF-3.1060104312436449e-16
a(lp2218
Vauto
p2219
aVauto
p2220
aF0
aF0
aF1
aF1
aaa(lp2221
F4
aF-3.1060104312436449e-16
a(lp2222
Vauto
p2223
aVauto
p2224
aF0
aF0
aF1
aF1
aaa(lp2225
F5
aF-3.1060104312436449e-16
a(lp2226
Vauto
p2227
aVauto
p2228
aF0
aF0
aF1
aF1
aaa(lp2229
F6
aF-3.1060104312436449e-16
a(lp2230
Vauto
p2231
aVauto
p2232
aF0
aF0
aF1
aF1
aaa(lp2233
F7
aF-3.1060104312436449e-16
a(lp2234
Vauto
p2235
aVauto
p2236
aF0
aF0
aF1
aF1
aaa(lp2237
F8
aF-3.1060104312436449e-16
a(lp2238
Vauto
p2239
aVauto
p2240
aF0
aF0
aF1
aF1
aaa(lp2241
F9
aF-3.1060104312436449e-16
a(lp2242
Vauto
p2243
aVauto
p2244
aF0
aF0
aF1
aF1
aaa(lp2245
F10
aF-3.1060104312436449e-16
a(lp2246
Vauto
p2247
aVauto
p2248
aF0
aF0
aF1
aF1
aaa(lp2249
F11
aF-3.1060104312436449e-16
a(lp2250
Vauto
p2251
aVauto
p2252
aF0
aF0
aF1
aF1
aaa(lp2253
F12
aF-3.1060104312436449e-16
a(lp2254
Vauto
p2255
aVauto
p2256
aF0
aF0
aF1
aF1
aaa(lp2257
F13
aF-3.1060104312436449e-16
a(lp2258
Vauto
p2259
aVauto
p2260
aF0
aF0
aF1
aF1
aaa(lp2261
F14
aF-3.1060104312436449e-16
a(lp2262
Vauto
p2263
aVauto
p2264
aF0
aF0
aF1
aF1
aaa(lp2265
F15
aF-3.1060104312436449e-16
a(lp2266
Vauto
p2267
aVauto
p2268
aF0
aF0
aF1
aF1
aaa(lp2269
F16
aF-3.1060104312436449e-16
a(lp2270
Vauto
p2271
aVauto
p2272
aF0
aF0
aF1
aF1
aaa(lp2273
F17
aF-3.1060104312436449e-16
a(lp2274
Vauto
p2275
aVauto
p2276
aF0
aF0
aF1
aF1
aaa(lp2277
F18
aF-3.1060104312436449e-16
a(lp2278
Vauto
p2279
aVauto
p2280
aF0
aF0
aF1
aF1
aaa(lp2281
F19
aF-3.1060104312436449e-16
a(lp2282
Vauto
p2283
aVauto
p2284
aF0
aF0
aF1
aF1
aaa(lp2285
F20
aF-3.1060104312436449e-16
a(lp2286
Vauto
p2287
aVauto
p2288
aF0
aF0
aF1
aF1
aaa(lp2289
F21
aF-3.1060104312436449e-16
a(lp2290
Vauto
p2291
aVauto
p2292
aF0
aF0
aF1
aF1
aaa(lp2293
F22
aF-3.1060104312436449e-16
a(lp2294
Vauto
p2295
aVauto
p2296
aF0
aF0
aF1
aF1
aaa(lp2297
F23
aF-3.1060104312436449e-16
a(lp2298
Vauto
p2299
aVauto
p2300
aF0
aF0
aF1
aF1
aaa(lp2301
F24
aF-3.1060104312436449e-16
a(lp2302
Vauto
p2303
aVauto
p2304
aF0
aF0
aF1
aF1
aaa(lp2305
F25
aF-3.1060104312436449e-16
a(lp2306
Vauto
p2307
aVauto
p2308
aF0
aF0
aF1
aF1
aaa(lp2309
F26
aF-3.1060104312436449e-16
a(lp2310
Vauto
p2311
aVauto
p2312
aF0
aF0
aF1
aF1
aaa(lp2313
F27
aF-3.1060104312436449e-16
a(lp2314
Vauto
p2315
aVauto
p2316
aF0
aF0
aF1
aF1
aaa(lp2317
F28
aF-3.1060104312436449e-16
a(lp2318
Vauto
p2319
aVauto
p2320
aF0
aF0
aF1
aF1
aaa(lp2321
F29
aF-3.1060104312436449e-16
a(lp2322
Vauto
p2323
aVauto
p2324
aF0
aF0
aF1
aF1
aaa(lp2325
F30
aF-3.1060104312436449e-16
a(lp2326
Vauto
p2327
aVauto
p2328
aF0
aF0
aF1
aF1
aaa(lp2329
F31
aF-3.1060104312436449e-16
a(lp2330
Vauto
p2331
aVauto
p2332
aF0
aF0
aF1
aF1
aaa(lp2333
F32
aF-3.1060104312436449e-16
a(lp2334
Vauto
p2335
aVauto
p2336
aF0
aF0
aF1
aF1
aaa(lp2337
F33
aF-3.1060104312436449e-16
a(lp2338
Vauto
p2339
aVauto
p2340
aF0
aF0
aF1
aF1
aaa(lp2341
F34
aF-3.1060104312436449e-16
a(lp2342
Vauto
p2343
aVauto
p2344
aF0
aF0
aF1
aF1
aaa(lp2345
F35
aF-3.1060104312436449e-16
a(lp2346
Vauto
p2347
aVauto
p2348
aF0
aF0
aF1
aF1
aaa(lp2349
F36
aF-3.1060104312436449e-16
a(lp2350
Vauto
p2351
aVauto
p2352
aF0
aF0
aF1
aF1
aaa(lp2353
F37
aF-3.1060104312436449e-16
a(lp2354
Vauto
p2355
aVauto
p2356
aF0
aF0
aF1
aF1
aaa(lp2357
F38
aF-3.1060104312436449e-16
a(lp2358
Vauto
p2359
aVauto
p2360
aF0
aF0
aF1
aF1
aaa(lp2361
F39
aF-3.1060104312436449e-16
a(lp2362
Vauto
p2363
aVauto
p2364
aF0
aF0
aF1
aF1
aaa(lp2365
F40
aF-3.1060104312436449e-16
a(lp2366
Vauto
p2367
aVauto
p2368
aF0
aF0
aF1
aF1
aaa(lp2369
F41
aF-3.1060104312436449e-16
a(lp2370
Vauto
p2371
aVauto
p2372
aF0
aF0
aF1
aF1
aaa(lp2373
F42
aF-3.1060104312436449e-16
a(lp2374
Vauto
p2375
aVauto
p2376
aF0
aF0
aF1
aF1
aaa(lp2377
F43
aF-3.1060104312436449e-16
a(lp2378
Vauto
p2379
aVauto
p2380
aF0
aF0
aF1
aF1
aaa(lp2381
F44
aF-3.1060104312436449e-16
a(lp2382
Vauto
p2383
aVauto
p2384
aF0
aF0
aF1
aF1
aaa(lp2385
F45
aF-3.1060104312436449e-16
a(lp2386
Vauto
p2387
aVauto
p2388
aF0
aF0
aF1
aF1
aaa(lp2389
F46
aF-3.1060104312436449e-16
a(lp2390
Vauto
p2391
aVauto
p2392
aF0
aF0
aF1
aF1
aaa(lp2393
F47
aF-3.1060104312436449e-16
a(lp2394
Vauto
p2395
aVauto
p2396
aF0
aF0
aF1
aF1
aaa(lp2397
F48
aF-3.1060104312436449e-16
a(lp2398
Vauto
p2399
aVauto
p2400
aF0
aF0
aF1
aF1
aaa(lp2401
F49
aF-3.1060104312436449e-16
a(lp2402
Vauto
p2403
aVauto
p2404
aF0
aF0
aF1
aF1
aaa(lp2405
F50
aF-3.1060104312436449e-16
a(lp2406
Vauto
p2407
aVauto
p2408
aF0
aF0
aF1
aF1
aaa(lp2409
F51
aF-3.1060104312436449e-16
a(lp2410
Vauto
p2411
aVauto
p2412
aF0
aF0
aF1
aF1
aaa(lp2413
F52
aF-3.1060104312436449e-16
a(lp2414
Vauto
p2415
aVauto
p2416
aF0
aF0
aF1
aF1
aaa(lp2417
F53
aF-3.1060104312436449e-16
a(lp2418
Vauto
p2419
aVauto
p2420
aF0
aF0
aF1
aF1
aaa(lp2421
F54
aF-3.1060104312436449e-16
a(lp2422
Vauto
p2423
aVauto
p2424
aF0
aF0
aF1
aF1
aaa(lp2425
F55
aF-3.1060104312436449e-16
a(lp2426
Vauto
p2427
aVauto
p2428
aF0
aF0
aF1
aF1
aaa(lp2429
F56
aF-3.1060104312436449e-16
a(lp2430
Vauto
p2431
aVauto
p2432
aF0
aF0
aF1
aF1
aaa(lp2433
F57
aF-3.1060104312436449e-16
a(lp2434
Vauto
p2435
aVauto
p2436
aF0
aF0
aF1
aF1
aaa(lp2437
F58
aF-3.1060104312436449e-16
a(lp2438
Vauto
p2439
aVauto
p2440
aF0
aF0
aF1
aF1
aaa(lp2441
F59
aF-3.1060104312436449e-16
a(lp2442
Vauto
p2443
aVauto
p2444
aF0
aF0
aF1
aF1
aaa(lp2445
F60
aF-3.1060104312436449e-16
a(lp2446
Vauto
p2447
aVauto
p2448
aF0
aF0
aF1
aF1
aaa(lp2449
F61
aF-3.1060104312436449e-16
a(lp2450
Vauto
p2451
aVauto
p2452
aF0
aF0
aF1
aF1
aaa(lp2453
F62
aF-3.1060104312436449e-16
a(lp2454
Vauto
p2455
aVauto
p2456
aF0
aF0
aF1
aF1
aaa(lp2457
F63
aF-3.1060104312436449e-16
a(lp2458
Vauto
p2459
aVauto
p2460
aF0
aF0
aF1
aF1
aaa(lp2461
F64
aF-3.1060104312436449e-16
a(lp2462
Vauto
p2463
aVauto
p2464
aF0
aF0
aF1
aF1
aaa(lp2465
F65
aF-3.1060104312436449e-16
a(lp2466
Vauto
p2467
aVauto
p2468
aF0
aF0
aF1
aF1
aaa(lp2469
F66
aF-3.1060104312436449e-16
a(lp2470
Vauto
p2471
aVauto
p2472
aF0
aF0
aF1
aF1
aaa(lp2473
F67
aF-3.1060104312436449e-16
a(lp2474
Vauto
p2475
aVauto
p2476
aF0
aF0
aF1
aF1
aaa(lp2477
F68
aF-3.1060104312436449e-16
a(lp2478
Vauto
p2479
aVauto
p2480
aF0
aF0
aF1
aF1
aaa(lp2481
F69
aF-3.1060104312436449e-16
a(lp2482
Vauto
p2483
aVauto
p2484
aF0
aF0
aF1
aF1
aaa(lp2485
F70
aF-3.1060104312436449e-16
a(lp2486
Vauto
p2487
aVauto
p2488
aF0
aF0
aF1
aF1
aaa(lp2489
F71
aF-3.1060104312436449e-16
a(lp2490
Vauto
p2491
aVauto
p2492
aF0
aF0
aF1
aF1
aaa(lp2493
F72
aF-3.1060104312436449e-16
a(lp2494
Vauto
p2495
aVauto
p2496
aF0
aF0
aF1
aF1
aaa(lp2497
F73
aF-3.1060104312436449e-16
a(lp2498
Vauto
p2499
aVauto
p2500
aF0
aF0
aF1
aF1
aaa(lp2501
F74
aF-3.1060104312436449e-16
a(lp2502
Vauto
p2503
aVauto
p2504
aF0
aF0
aF1
aF1
aaa(lp2505
F75
aF-3.1060104312436449e-16
a(lp2506
Vauto
p2507
aVauto
p2508
aF0
aF0
aF1
aF1
aaa(lp2509
F76
aF-3.1060104312436449e-16
a(lp2510
Vauto
p2511
aVauto
p2512
aF0
aF0
aF1
aF1
aaa(lp2513
F77
aF-3.1060104312436449e-16
a(lp2514
Vauto
p2515
aVauto
p2516
aF0
aF0
aF1
aF1
aaa(lp2517
F78
aF-3.1060104312436449e-16
a(lp2518
Vauto
p2519
aVauto
p2520
aF0
aF0
aF1
aF1
aaa(lp2521
F79
aF-3.1060104312436449e-16
a(lp2522
Vauto
p2523
aVauto
p2524
aF0
aF0
aF1
aF1
aaa(lp2525
F80
aF-3.1060104312436449e-16
a(lp2526
Vauto
p2527
aVauto
p2528
aF0
aF0
aF1
aF1
aaa(lp2529
F81
aF-3.1060104312436449e-16
a(lp2530
Vauto
p2531
aVauto
p2532
aF0
aF0
aF1
aF1
aaa(lp2533
F82
aF-3.1060104312436449e-16
a(lp2534
Vauto
p2535
aVauto
p2536
aF0
aF0
aF1
aF1
aaa(lp2537
F83
aF-3.1060104312436449e-16
a(lp2538
Vauto
p2539
aVauto
p2540
aF0
aF0
aF1
aF1
aaa(lp2541
F84
aF-3.1060104312436449e-16
a(lp2542
Vauto
p2543
aVauto
p2544
aF0
aF0
aF1
aF1
aaa(lp2545
F85
aF-3.1060104312436449e-16
a(lp2546
Vauto
p2547
aVauto
p2548
aF0
aF0
aF1
aF1
aaa(lp2549
F86
aF-3.1060104312436449e-16
a(lp2550
Vauto
p2551
aVauto
p2552
aF0
aF0
aF1
aF1
aaa(lp2553
F87
aF-3.1060104312436449e-16
a(lp2554
Vauto
p2555
aVauto
p2556
aF0
aF0
aF1
aF1
aaa(lp2557
F88
aF-3.1060104312436449e-16
a(lp2558
Vauto
p2559
aVauto
p2560
aF0
aF0
aF1
aF1
aaa(lp2561
F89
aF-3.1060104312436449e-16
a(lp2562
Vauto
p2563
aVauto
p2564
aF0
aF0
aF1
aF1
aaa(lp2565
F90
aF-3.1060104312436449e-16
a(lp2566
Vauto
p2567
aVauto
p2568
aF0
aF0
aF1
aF1
aaa(lp2569
F91
aF-3.1060104312436449e-16
a(lp2570
Vauto
p2571
aVauto
p2572
aF0
aF0
aF1
aF1
aaa(lp2573
F92
aF-3.1060104312436449e-16
a(lp2574
Vauto
p2575
aVauto
p2576
aF0
aF0
aF1
aF1
aaa(lp2577
F93
aF-3.1060104312436449e-16
a(lp2578
Vauto
p2579
aVauto
p2580
aF0
aF0
aF1
aF1
aaa(lp2581
F94
aF-3.1060104312436449e-16
a(lp2582
Vauto
p2583
aVauto
p2584
aF0
aF0
aF1
aF1
aaa(lp2585
F95
aF-3.1060104312436449e-16
a(lp2586
Vauto
p2587
aVauto
p2588
aF0
aF0
aF1
aF1
aaa(lp2589
F96
aF-3.1060104312436449e-16
a(lp2590
Vauto
p2591
aVauto
p2592
aF0
aF0
aF1
aF1
aaa(lp2593
F97
aF-3.1060104312436449e-16
a(lp2594
Vauto
p2595
aVauto
p2596
aF0
aF0
aF1
aF1
aaa(lp2597
F98
aF-3.1060104312436449e-16
a(lp2598
Vauto
p2599
aVauto
p2600
aF0
aF0
aF1
aF1
aaa(lp2601
F99
aF-3.1060104312436449e-16
a(lp2602
Vauto
p2603
aVauto
p2604
aF0
aF0
aF1
aF1
aaa(lp2605
F100
aF-3.1060104312436449e-16
a(lp2606
Vauto
p2607
aVauto
p2608
aF0
aF0
aF1
aF1
aaaaa(lp2609
VrotateZ
p2610
a(lp2611
(lp2612
F0
aF-1.6629490395098478e-10
a(lp2613
Vauto
p2614
aVauto
p2615
aF0
aF0
aF1
aF1
aaa(lp2616
F1
aF-1.6629490395098478e-10
a(lp2617
Vauto
p2618
aVauto
p2619
aF0
aF0
aF1
aF1
aaa(lp2620
F2
aF-1.6629490395098478e-10
a(lp2621
Vauto
p2622
aVauto
p2623
aF0
aF0
aF1
aF1
aaa(lp2624
F3
aF-1.6629490395098478e-10
a(lp2625
Vauto
p2626
aVauto
p2627
aF0
aF0
aF1
aF1
aaa(lp2628
F4
aF-1.6629490395098478e-10
a(lp2629
Vauto
p2630
aVauto
p2631
aF0
aF0
aF1
aF1
aaa(lp2632
F5
aF-1.6629490395098478e-10
a(lp2633
Vauto
p2634
aVauto
p2635
aF0
aF0
aF1
aF1
aaa(lp2636
F6
aF-1.6629490395098478e-10
a(lp2637
Vauto
p2638
aVauto
p2639
aF0
aF0
aF1
aF1
aaa(lp2640
F7
aF-1.6629490395098478e-10
a(lp2641
Vauto
p2642
aVauto
p2643
aF0
aF0
aF1
aF1
aaa(lp2644
F8
aF-1.6629490395098478e-10
a(lp2645
Vauto
p2646
aVauto
p2647
aF0
aF0
aF1
aF1
aaa(lp2648
F9
aF-1.6629490395098478e-10
a(lp2649
Vauto
p2650
aVauto
p2651
aF0
aF0
aF1
aF1
aaa(lp2652
F10
aF-1.6629490395098478e-10
a(lp2653
Vauto
p2654
aVauto
p2655
aF0
aF0
aF1
aF1
aaa(lp2656
F11
aF-1.6629490395098478e-10
a(lp2657
Vauto
p2658
aVauto
p2659
aF0
aF0
aF1
aF1
aaa(lp2660
F12
aF-1.6629490395098478e-10
a(lp2661
Vauto
p2662
aVauto
p2663
aF0
aF0
aF1
aF1
aaa(lp2664
F13
aF-1.6629490395098478e-10
a(lp2665
Vauto
p2666
aVauto
p2667
aF0
aF0
aF1
aF1
aaa(lp2668
F14
aF-1.6629490395098478e-10
a(lp2669
Vauto
p2670
aVauto
p2671
aF0
aF0
aF1
aF1
aaa(lp2672
F15
aF-1.6629490395098478e-10
a(lp2673
Vauto
p2674
aVauto
p2675
aF0
aF0
aF1
aF1
aaa(lp2676
F16
aF-1.6629490395098478e-10
a(lp2677
Vauto
p2678
aVauto
p2679
aF0
aF0
aF1
aF1
aaa(lp2680
F17
aF-1.6629490395098478e-10
a(lp2681
Vauto
p2682
aVauto
p2683
aF0
aF0
aF1
aF1
aaa(lp2684
F18
aF-1.6629490395098478e-10
a(lp2685
Vauto
p2686
aVauto
p2687
aF0
aF0
aF1
aF1
aaa(lp2688
F19
aF-1.6629490395098478e-10
a(lp2689
Vauto
p2690
aVauto
p2691
aF0
aF0
aF1
aF1
aaa(lp2692
F20
aF-1.6629490395098478e-10
a(lp2693
Vauto
p2694
aVauto
p2695
aF0
aF0
aF1
aF1
aaa(lp2696
F21
aF-1.6629490395098478e-10
a(lp2697
Vauto
p2698
aVauto
p2699
aF0
aF0
aF1
aF1
aaa(lp2700
F22
aF-1.6629490395098478e-10
a(lp2701
Vauto
p2702
aVauto
p2703
aF0
aF0
aF1
aF1
aaa(lp2704
F23
aF-1.6629490395098478e-10
a(lp2705
Vauto
p2706
aVauto
p2707
aF0
aF0
aF1
aF1
aaa(lp2708
F24
aF-1.6629490395098478e-10
a(lp2709
Vauto
p2710
aVauto
p2711
aF0
aF0
aF1
aF1
aaa(lp2712
F25
aF-1.6629490395098478e-10
a(lp2713
Vauto
p2714
aVauto
p2715
aF0
aF0
aF1
aF1
aaa(lp2716
F26
aF-1.6629490395098478e-10
a(lp2717
Vauto
p2718
aVauto
p2719
aF0
aF0
aF1
aF1
aaa(lp2720
F27
aF-1.6629490395098478e-10
a(lp2721
Vauto
p2722
aVauto
p2723
aF0
aF0
aF1
aF1
aaa(lp2724
F28
aF-1.6629490395098478e-10
a(lp2725
Vauto
p2726
aVauto
p2727
aF0
aF0
aF1
aF1
aaa(lp2728
F29
aF-1.6629490395098478e-10
a(lp2729
Vauto
p2730
aVauto
p2731
aF0
aF0
aF1
aF1
aaa(lp2732
F30
aF-1.6629490395098478e-10
a(lp2733
Vauto
p2734
aVauto
p2735
aF0
aF0
aF1
aF1
aaa(lp2736
F31
aF-1.6629490395098478e-10
a(lp2737
Vauto
p2738
aVauto
p2739
aF0
aF0
aF1
aF1
aaa(lp2740
F32
aF-1.6629490395098478e-10
a(lp2741
Vauto
p2742
aVauto
p2743
aF0
aF0
aF1
aF1
aaa(lp2744
F33
aF-1.6629490395098478e-10
a(lp2745
Vauto
p2746
aVauto
p2747
aF0
aF0
aF1
aF1
aaa(lp2748
F34
aF-1.6629490395098478e-10
a(lp2749
Vauto
p2750
aVauto
p2751
aF0
aF0
aF1
aF1
aaa(lp2752
F35
aF-1.6629490395098478e-10
a(lp2753
Vauto
p2754
aVauto
p2755
aF0
aF0
aF1
aF1
aaa(lp2756
F36
aF-1.6629490395098478e-10
a(lp2757
Vauto
p2758
aVauto
p2759
aF0
aF0
aF1
aF1
aaa(lp2760
F37
aF-1.6629490395098478e-10
a(lp2761
Vauto
p2762
aVauto
p2763
aF0
aF0
aF1
aF1
aaa(lp2764
F38
aF-1.6629490395098478e-10
a(lp2765
Vauto
p2766
aVauto
p2767
aF0
aF0
aF1
aF1
aaa(lp2768
F39
aF-1.6629490395098478e-10
a(lp2769
Vauto
p2770
aVauto
p2771
aF0
aF0
aF1
aF1
aaa(lp2772
F40
aF-1.6629490395098478e-10
a(lp2773
Vauto
p2774
aVauto
p2775
aF0
aF0
aF1
aF1
aaa(lp2776
F41
aF-1.6629490395098478e-10
a(lp2777
Vauto
p2778
aVauto
p2779
aF0
aF0
aF1
aF1
aaa(lp2780
F42
aF-1.6629490395098478e-10
a(lp2781
Vauto
p2782
aVauto
p2783
aF0
aF0
aF1
aF1
aaa(lp2784
F43
aF-1.6629490395098478e-10
a(lp2785
Vauto
p2786
aVauto
p2787
aF0
aF0
aF1
aF1
aaa(lp2788
F44
aF-1.6629490395098478e-10
a(lp2789
Vauto
p2790
aVauto
p2791
aF0
aF0
aF1
aF1
aaa(lp2792
F45
aF-1.6629490395098478e-10
a(lp2793
Vauto
p2794
aVauto
p2795
aF0
aF0
aF1
aF1
aaa(lp2796
F46
aF-1.6629490395098478e-10
a(lp2797
Vauto
p2798
aVauto
p2799
aF0
aF0
aF1
aF1
aaa(lp2800
F47
aF-1.6629490395098478e-10
a(lp2801
Vauto
p2802
aVauto
p2803
aF0
aF0
aF1
aF1
aaa(lp2804
F48
aF-1.6629490395098478e-10
a(lp2805
Vauto
p2806
aVauto
p2807
aF0
aF0
aF1
aF1
aaa(lp2808
F49
aF-1.6629490395098478e-10
a(lp2809
Vauto
p2810
aVauto
p2811
aF0
aF0
aF1
aF1
aaa(lp2812
F50
aF-1.6629490395098478e-10
a(lp2813
Vauto
p2814
aVauto
p2815
aF0
aF0
aF1
aF1
aaa(lp2816
F51
aF-1.6629490395098478e-10
a(lp2817
Vauto
p2818
aVauto
p2819
aF0
aF0
aF1
aF1
aaa(lp2820
F52
aF-1.6629490395098478e-10
a(lp2821
Vauto
p2822
aVauto
p2823
aF0
aF0
aF1
aF1
aaa(lp2824
F53
aF-1.6629490395098478e-10
a(lp2825
Vauto
p2826
aVauto
p2827
aF0
aF0
aF1
aF1
aaa(lp2828
F54
aF-1.6629490395098478e-10
a(lp2829
Vauto
p2830
aVauto
p2831
aF0
aF0
aF1
aF1
aaa(lp2832
F55
aF-1.6629490395098478e-10
a(lp2833
Vauto
p2834
aVauto
p2835
aF0
aF0
aF1
aF1
aaa(lp2836
F56
aF-1.6629490395098478e-10
a(lp2837
Vauto
p2838
aVauto
p2839
aF0
aF0
aF1
aF1
aaa(lp2840
F57
aF-1.6629490395098478e-10
a(lp2841
Vauto
p2842
aVauto
p2843
aF0
aF0
aF1
aF1
aaa(lp2844
F58
aF-1.6629490395098478e-10
a(lp2845
Vauto
p2846
aVauto
p2847
aF0
aF0
aF1
aF1
aaa(lp2848
F59
aF-1.6629490395098478e-10
a(lp2849
Vauto
p2850
aVauto
p2851
aF0
aF0
aF1
aF1
aaa(lp2852
F60
aF-1.6629490395098478e-10
a(lp2853
Vauto
p2854
aVauto
p2855
aF0
aF0
aF1
aF1
aaa(lp2856
F61
aF-1.6629490395098478e-10
a(lp2857
Vauto
p2858
aVauto
p2859
aF0
aF0
aF1
aF1
aaa(lp2860
F62
aF-1.6629490395098478e-10
a(lp2861
Vauto
p2862
aVauto
p2863
aF0
aF0
aF1
aF1
aaa(lp2864
F63
aF-1.6629490395098478e-10
a(lp2865
Vauto
p2866
aVauto
p2867
aF0
aF0
aF1
aF1
aaa(lp2868
F64
aF-1.6629490395098478e-10
a(lp2869
Vauto
p2870
aVauto
p2871
aF0
aF0
aF1
aF1
aaa(lp2872
F65
aF-1.6629490395098478e-10
a(lp2873
Vauto
p2874
aVauto
p2875
aF0
aF0
aF1
aF1
aaa(lp2876
F66
aF-1.6629490395098478e-10
a(lp2877
Vauto
p2878
aVauto
p2879
aF0
aF0
aF1
aF1
aaa(lp2880
F67
aF-1.6629490395098478e-10
a(lp2881
Vauto
p2882
aVauto
p2883
aF0
aF0
aF1
aF1
aaa(lp2884
F68
aF-1.6629490395098478e-10
a(lp2885
Vauto
p2886
aVauto
p2887
aF0
aF0
aF1
aF1
aaa(lp2888
F69
aF-1.6629490395098478e-10
a(lp2889
Vauto
p2890
aVauto
p2891
aF0
aF0
aF1
aF1
aaa(lp2892
F70
aF-1.6629490395098478e-10
a(lp2893
Vauto
p2894
aVauto
p2895
aF0
aF0
aF1
aF1
aaa(lp2896
F71
aF-1.6629490395098478e-10
a(lp2897
Vauto
p2898
aVauto
p2899
aF0
aF0
aF1
aF1
aaa(lp2900
F72
aF-1.6629490395098478e-10
a(lp2901
Vauto
p2902
aVauto
p2903
aF0
aF0
aF1
aF1
aaa(lp2904
F73
aF-1.6629490395098478e-10
a(lp2905
Vauto
p2906
aVauto
p2907
aF0
aF0
aF1
aF1
aaa(lp2908
F74
aF-1.6629490395098478e-10
a(lp2909
Vauto
p2910
aVauto
p2911
aF0
aF0
aF1
aF1
aaa(lp2912
F75
aF-1.6629490395098478e-10
a(lp2913
Vauto
p2914
aVauto
p2915
aF0
aF0
aF1
aF1
aaa(lp2916
F76
aF-1.6629490395098478e-10
a(lp2917
Vauto
p2918
aVauto
p2919
aF0
aF0
aF1
aF1
aaa(lp2920
F77
aF-1.6629490395098478e-10
a(lp2921
Vauto
p2922
aVauto
p2923
aF0
aF0
aF1
aF1
aaa(lp2924
F78
aF-1.6629490395098478e-10
a(lp2925
Vauto
p2926
aVauto
p2927
aF0
aF0
aF1
aF1
aaa(lp2928
F79
aF-1.6629490395098478e-10
a(lp2929
Vauto
p2930
aVauto
p2931
aF0
aF0
aF1
aF1
aaa(lp2932
F80
aF-1.6629490395098478e-10
a(lp2933
Vauto
p2934
aVauto
p2935
aF0
aF0
aF1
aF1
aaa(lp2936
F81
aF-1.6629490395098478e-10
a(lp2937
Vauto
p2938
aVauto
p2939
aF0
aF0
aF1
aF1
aaa(lp2940
F82
aF-1.6629490395098478e-10
a(lp2941
Vauto
p2942
aVauto
p2943
aF0
aF0
aF1
aF1
aaa(lp2944
F83
aF-1.6629490395098478e-10
a(lp2945
Vauto
p2946
aVauto
p2947
aF0
aF0
aF1
aF1
aaa(lp2948
F84
aF-1.6629490395098478e-10
a(lp2949
Vauto
p2950
aVauto
p2951
aF0
aF0
aF1
aF1
aaa(lp2952
F85
aF-1.6629490395098478e-10
a(lp2953
Vauto
p2954
aVauto
p2955
aF0
aF0
aF1
aF1
aaa(lp2956
F86
aF-1.6629490395098478e-10
a(lp2957
Vauto
p2958
aVauto
p2959
aF0
aF0
aF1
aF1
aaa(lp2960
F87
aF-1.6629490395098478e-10
a(lp2961
Vauto
p2962
aVauto
p2963
aF0
aF0
aF1
aF1
aaa(lp2964
F88
aF-1.6629490395098478e-10
a(lp2965
Vauto
p2966
aVauto
p2967
aF0
aF0
aF1
aF1
aaa(lp2968
F89
aF-1.6629490395098478e-10
a(lp2969
Vauto
p2970
aVauto
p2971
aF0
aF0
aF1
aF1
aaa(lp2972
F90
aF-1.6629490395098478e-10
a(lp2973
Vauto
p2974
aVauto
p2975
aF0
aF0
aF1
aF1
aaa(lp2976
F91
aF-1.6629490395098478e-10
a(lp2977
Vauto
p2978
aVauto
p2979
aF0
aF0
aF1
aF1
aaa(lp2980
F92
aF-1.6629490395098478e-10
a(lp2981
Vauto
p2982
aVauto
p2983
aF0
aF0
aF1
aF1
aaa(lp2984
F93
aF-1.6629490395098478e-10
a(lp2985
Vauto
p2986
aVauto
p2987
aF0
aF0
aF1
aF1
aaa(lp2988
F94
aF-1.6629490395098478e-10
a(lp2989
Vauto
p2990
aVauto
p2991
aF0
aF0
aF1
aF1
aaa(lp2992
F95
aF-1.6629490395098478e-10
a(lp2993
Vauto
p2994
aVauto
p2995
aF0
aF0
aF1
aF1
aaa(lp2996
F96
aF-1.6629490395098478e-10
a(lp2997
Vauto
p2998
aVauto
p2999
aF0
aF0
aF1
aF1
aaa(lp3000
F97
aF-1.6629490395098478e-10
a(lp3001
Vauto
p3002
aVauto
p3003
aF0
aF0
aF1
aF1
aaa(lp3004
F98
aF-1.6629490395098478e-10
a(lp3005
Vauto
p3006
aVauto
p3007
aF0
aF0
aF1
aF1
aaa(lp3008
F99
aF-1.6629490395098478e-10
a(lp3009
Vauto
p3010
aVauto
p3011
aF0
aF0
aF1
aF1
aaa(lp3012
F100
aF-1.6629490395098478e-10
a(lp3013
Vauto
p3014
aVauto
p3015
aF0
aF0
aF1
aF1
aaaaa(lp3016
VscaleX
p3017
a(lp3018
(lp3019
F0
aF1
a(lp3020
Vauto
p3021
aVauto
p3022
aF0
aF0
aF1
aF1
aaa(lp3023
F1
aF1
a(lp3024
Vauto
p3025
aVauto
p3026
aF0
aF0
aF1
aF1
aaa(lp3027
F2
aF1
a(lp3028
Vauto
p3029
aVauto
p3030
aF0
aF0
aF1
aF1
aaa(lp3031
F3
aF1
a(lp3032
Vauto
p3033
aVauto
p3034
aF0
aF0
aF1
aF1
aaa(lp3035
F4
aF1
a(lp3036
Vauto
p3037
aVauto
p3038
aF0
aF0
aF1
aF1
aaa(lp3039
F5
aF1
a(lp3040
Vauto
p3041
aVauto
p3042
aF0
aF0
aF1
aF1
aaa(lp3043
F6
aF1
a(lp3044
Vauto
p3045
aVauto
p3046
aF0
aF0
aF1
aF1
aaa(lp3047
F7
aF1
a(lp3048
Vauto
p3049
aVauto
p3050
aF0
aF0
aF1
aF1
aaa(lp3051
F8
aF1
a(lp3052
Vauto
p3053
aVauto
p3054
aF0
aF0
aF1
aF1
aaa(lp3055
F9
aF1
a(lp3056
Vauto
p3057
aVauto
p3058
aF0
aF0
aF1
aF1
aaa(lp3059
F10
aF1
a(lp3060
Vauto
p3061
aVauto
p3062
aF0
aF0
aF1
aF1
aaa(lp3063
F11
aF1
a(lp3064
Vauto
p3065
aVauto
p3066
aF0
aF0
aF1
aF1
aaa(lp3067
F12
aF1
a(lp3068
Vauto
p3069
aVauto
p3070
aF0
aF0
aF1
aF1
aaa(lp3071
F13
aF1
a(lp3072
Vauto
p3073
aVauto
p3074
aF0
aF0
aF1
aF1
aaa(lp3075
F14
aF1
a(lp3076
Vauto
p3077
aVauto
p3078
aF0
aF0
aF1
aF1
aaa(lp3079
F15
aF1
a(lp3080
Vauto
p3081
aVauto
p3082
aF0
aF0
aF1
aF1
aaa(lp3083
F16
aF1
a(lp3084
Vauto
p3085
aVauto
p3086
aF0
aF0
aF1
aF1
aaa(lp3087
F17
aF1
a(lp3088
Vauto
p3089
aVauto
p3090
aF0
aF0
aF1
aF1
aaa(lp3091
F18
aF1
a(lp3092
Vauto
p3093
aVauto
p3094
aF0
aF0
aF1
aF1
aaa(lp3095
F19
aF1
a(lp3096
Vauto
p3097
aVauto
p3098
aF0
aF0
aF1
aF1
aaa(lp3099
F20
aF1
a(lp3100
Vauto
p3101
aVauto
p3102
aF0
aF0
aF1
aF1
aaa(lp3103
F21
aF1
a(lp3104
Vauto
p3105
aVauto
p3106
aF0
aF0
aF1
aF1
aaa(lp3107
F22
aF1
a(lp3108
Vauto
p3109
aVauto
p3110
aF0
aF0
aF1
aF1
aaa(lp3111
F23
aF1
a(lp3112
Vauto
p3113
aVauto
p3114
aF0
aF0
aF1
aF1
aaa(lp3115
F24
aF1
a(lp3116
Vauto
p3117
aVauto
p3118
aF0
aF0
aF1
aF1
aaa(lp3119
F25
aF1
a(lp3120
Vauto
p3121
aVauto
p3122
aF0
aF0
aF1
aF1
aaa(lp3123
F26
aF1
a(lp3124
Vauto
p3125
aVauto
p3126
aF0
aF0
aF1
aF1
aaa(lp3127
F27
aF1
a(lp3128
Vauto
p3129
aVauto
p3130
aF0
aF0
aF1
aF1
aaa(lp3131
F28
aF1
a(lp3132
Vauto
p3133
aVauto
p3134
aF0
aF0
aF1
aF1
aaa(lp3135
F29
aF1
a(lp3136
Vauto
p3137
aVauto
p3138
aF0
aF0
aF1
aF1
aaa(lp3139
F30
aF1
a(lp3140
Vauto
p3141
aVauto
p3142
aF0
aF0
aF1
aF1
aaa(lp3143
F31
aF1
a(lp3144
Vauto
p3145
aVauto
p3146
aF0
aF0
aF1
aF1
aaa(lp3147
F32
aF1
a(lp3148
Vauto
p3149
aVauto
p3150
aF0
aF0
aF1
aF1
aaa(lp3151
F33
aF1
a(lp3152
Vauto
p3153
aVauto
p3154
aF0
aF0
aF1
aF1
aaa(lp3155
F34
aF1
a(lp3156
Vauto
p3157
aVauto
p3158
aF0
aF0
aF1
aF1
aaa(lp3159
F35
aF1
a(lp3160
Vauto
p3161
aVauto
p3162
aF0
aF0
aF1
aF1
aaa(lp3163
F36
aF1
a(lp3164
Vauto
p3165
aVauto
p3166
aF0
aF0
aF1
aF1
aaa(lp3167
F37
aF1
a(lp3168
Vauto
p3169
aVauto
p3170
aF0
aF0
aF1
aF1
aaa(lp3171
F38
aF1
a(lp3172
Vauto
p3173
aVauto
p3174
aF0
aF0
aF1
aF1
aaa(lp3175
F39
aF1
a(lp3176
Vauto
p3177
aVauto
p3178
aF0
aF0
aF1
aF1
aaa(lp3179
F40
aF1
a(lp3180
Vauto
p3181
aVauto
p3182
aF0
aF0
aF1
aF1
aaa(lp3183
F41
aF1
a(lp3184
Vauto
p3185
aVauto
p3186
aF0
aF0
aF1
aF1
aaa(lp3187
F42
aF1
a(lp3188
Vauto
p3189
aVauto
p3190
aF0
aF0
aF1
aF1
aaa(lp3191
F43
aF1
a(lp3192
Vauto
p3193
aVauto
p3194
aF0
aF0
aF1
aF1
aaa(lp3195
F44
aF1
a(lp3196
Vauto
p3197
aVauto
p3198
aF0
aF0
aF1
aF1
aaa(lp3199
F45
aF1
a(lp3200
Vauto
p3201
aVauto
p3202
aF0
aF0
aF1
aF1
aaa(lp3203
F46
aF1
a(lp3204
Vauto
p3205
aVauto
p3206
aF0
aF0
aF1
aF1
aaa(lp3207
F47
aF1
a(lp3208
Vauto
p3209
aVauto
p3210
aF0
aF0
aF1
aF1
aaa(lp3211
F48
aF1
a(lp3212
Vauto
p3213
aVauto
p3214
aF0
aF0
aF1
aF1
aaa(lp3215
F49
aF1
a(lp3216
Vauto
p3217
aVauto
p3218
aF0
aF0
aF1
aF1
aaa(lp3219
F50
aF1
a(lp3220
Vauto
p3221
aVauto
p3222
aF0
aF0
aF1
aF1
aaa(lp3223
F51
aF1
a(lp3224
Vauto
p3225
aVauto
p3226
aF0
aF0
aF1
aF1
aaa(lp3227
F52
aF1
a(lp3228
Vauto
p3229
aVauto
p3230
aF0
aF0
aF1
aF1
aaa(lp3231
F53
aF1
a(lp3232
Vauto
p3233
aVauto
p3234
aF0
aF0
aF1
aF1
aaa(lp3235
F54
aF1
a(lp3236
Vauto
p3237
aVauto
p3238
aF0
aF0
aF1
aF1
aaa(lp3239
F55
aF1
a(lp3240
Vauto
p3241
aVauto
p3242
aF0
aF0
aF1
aF1
aaa(lp3243
F56
aF1
a(lp3244
Vauto
p3245
aVauto
p3246
aF0
aF0
aF1
aF1
aaa(lp3247
F57
aF1
a(lp3248
Vauto
p3249
aVauto
p3250
aF0
aF0
aF1
aF1
aaa(lp3251
F58
aF1
a(lp3252
Vauto
p3253
aVauto
p3254
aF0
aF0
aF1
aF1
aaa(lp3255
F59
aF1
a(lp3256
Vauto
p3257
aVauto
p3258
aF0
aF0
aF1
aF1
aaa(lp3259
F60
aF1
a(lp3260
Vauto
p3261
aVauto
p3262
aF0
aF0
aF1
aF1
aaa(lp3263
F61
aF1
a(lp3264
Vauto
p3265
aVauto
p3266
aF0
aF0
aF1
aF1
aaa(lp3267
F62
aF1
a(lp3268
Vauto
p3269
aVauto
p3270
aF0
aF0
aF1
aF1
aaa(lp3271
F63
aF1
a(lp3272
Vauto
p3273
aVauto
p3274
aF0
aF0
aF1
aF1
aaa(lp3275
F64
aF1
a(lp3276
Vauto
p3277
aVauto
p3278
aF0
aF0
aF1
aF1
aaa(lp3279
F65
aF1
a(lp3280
Vauto
p3281
aVauto
p3282
aF0
aF0
aF1
aF1
aaa(lp3283
F66
aF1
a(lp3284
Vauto
p3285
aVauto
p3286
aF0
aF0
aF1
aF1
aaa(lp3287
F67
aF1
a(lp3288
Vauto
p3289
aVauto
p3290
aF0
aF0
aF1
aF1
aaa(lp3291
F68
aF1
a(lp3292
Vauto
p3293
aVauto
p3294
aF0
aF0
aF1
aF1
aaa(lp3295
F69
aF1
a(lp3296
Vauto
p3297
aVauto
p3298
aF0
aF0
aF1
aF1
aaa(lp3299
F70
aF1
a(lp3300
Vauto
p3301
aVauto
p3302
aF0
aF0
aF1
aF1
aaa(lp3303
F71
aF1
a(lp3304
Vauto
p3305
aVauto
p3306
aF0
aF0
aF1
aF1
aaa(lp3307
F72
aF1
a(lp3308
Vauto
p3309
aVauto
p3310
aF0
aF0
aF1
aF1
aaa(lp3311
F73
aF1
a(lp3312
Vauto
p3313
aVauto
p3314
aF0
aF0
aF1
aF1
aaa(lp3315
F74
aF1
a(lp3316
Vauto
p3317
aVauto
p3318
aF0
aF0
aF1
aF1
aaa(lp3319
F75
aF1
a(lp3320
Vauto
p3321
aVauto
p3322
aF0
aF0
aF1
aF1
aaa(lp3323
F76
aF1
a(lp3324
Vauto
p3325
aVauto
p3326
aF0
aF0
aF1
aF1
aaa(lp3327
F77
aF1
a(lp3328
Vauto
p3329
aVauto
p3330
aF0
aF0
aF1
aF1
aaa(lp3331
F78
aF1
a(lp3332
Vauto
p3333
aVauto
p3334
aF0
aF0
aF1
aF1
aaa(lp3335
F79
aF1
a(lp3336
Vauto
p3337
aVauto
p3338
aF0
aF0
aF1
aF1
aaa(lp3339
F80
aF1
a(lp3340
Vauto
p3341
aVauto
p3342
aF0
aF0
aF1
aF1
aaa(lp3343
F81
aF1
a(lp3344
Vauto
p3345
aVauto
p3346
aF0
aF0
aF1
aF1
aaa(lp3347
F82
aF1
a(lp3348
Vauto
p3349
aVauto
p3350
aF0
aF0
aF1
aF1
aaa(lp3351
F83
aF1
a(lp3352
Vauto
p3353
aVauto
p3354
aF0
aF0
aF1
aF1
aaa(lp3355
F84
aF1
a(lp3356
Vauto
p3357
aVauto
p3358
aF0
aF0
aF1
aF1
aaa(lp3359
F85
aF1
a(lp3360
Vauto
p3361
aVauto
p3362
aF0
aF0
aF1
aF1
aaa(lp3363
F86
aF1
a(lp3364
Vauto
p3365
aVauto
p3366
aF0
aF0
aF1
aF1
aaa(lp3367
F87
aF1
a(lp3368
Vauto
p3369
aVauto
p3370
aF0
aF0
aF1
aF1
aaa(lp3371
F88
aF1
a(lp3372
Vauto
p3373
aVauto
p3374
aF0
aF0
aF1
aF1
aaa(lp3375
F89
aF1
a(lp3376
Vauto
p3377
aVauto
p3378
aF0
aF0
aF1
aF1
aaa(lp3379
F90
aF1
a(lp3380
Vauto
p3381
aVauto
p3382
aF0
aF0
aF1
aF1
aaa(lp3383
F91
aF1
a(lp3384
Vauto
p3385
aVauto
p3386
aF0
aF0
aF1
aF1
aaa(lp3387
F92
aF1
a(lp3388
Vauto
p3389
aVauto
p3390
aF0
aF0
aF1
aF1
aaa(lp3391
F93
aF1
a(lp3392
Vauto
p3393
aVauto
p3394
aF0
aF0
aF1
aF1
aaa(lp3395
F94
aF1
a(lp3396
Vauto
p3397
aVauto
p3398
aF0
aF0
aF1
aF1
aaa(lp3399
F95
aF1
a(lp3400
Vauto
p3401
aVauto
p3402
aF0
aF0
aF1
aF1
aaa(lp3403
F96
aF1
a(lp3404
Vauto
p3405
aVauto
p3406
aF0
aF0
aF1
aF1
aaa(lp3407
F97
aF1
a(lp3408
Vauto
p3409
aVauto
p3410
aF0
aF0
aF1
aF1
aaa(lp3411
F98
aF1
a(lp3412
Vauto
p3413
aVauto
p3414
aF0
aF0
aF1
aF1
aaa(lp3415
F99
aF1
a(lp3416
Vauto
p3417
aVauto
p3418
aF0
aF0
aF1
aF1
aaa(lp3419
F100
aF1
a(lp3420
Vauto
p3421
aVauto
p3422
aF0
aF0
aF1
aF1
aaaaa(lp3423
VscaleY
p3424
a(lp3425
(lp3426
F0
aF1
a(lp3427
Vauto
p3428
aVauto
p3429
aF0
aF0
aF1
aF1
aaa(lp3430
F1
aF1
a(lp3431
Vauto
p3432
aVauto
p3433
aF0
aF0
aF1
aF1
aaa(lp3434
F2
aF1
a(lp3435
Vauto
p3436
aVauto
p3437
aF0
aF0
aF1
aF1
aaa(lp3438
F3
aF1
a(lp3439
Vauto
p3440
aVauto
p3441
aF0
aF0
aF1
aF1
aaa(lp3442
F4
aF1
a(lp3443
Vauto
p3444
aVauto
p3445
aF0
aF0
aF1
aF1
aaa(lp3446
F5
aF1
a(lp3447
Vauto
p3448
aVauto
p3449
aF0
aF0
aF1
aF1
aaa(lp3450
F6
aF1
a(lp3451
Vauto
p3452
aVauto
p3453
aF0
aF0
aF1
aF1
aaa(lp3454
F7
aF1
a(lp3455
Vauto
p3456
aVauto
p3457
aF0
aF0
aF1
aF1
aaa(lp3458
F8
aF1
a(lp3459
Vauto
p3460
aVauto
p3461
aF0
aF0
aF1
aF1
aaa(lp3462
F9
aF1
a(lp3463
Vauto
p3464
aVauto
p3465
aF0
aF0
aF1
aF1
aaa(lp3466
F10
aF1
a(lp3467
Vauto
p3468
aVauto
p3469
aF0
aF0
aF1
aF1
aaa(lp3470
F11
aF1
a(lp3471
Vauto
p3472
aVauto
p3473
aF0
aF0
aF1
aF1
aaa(lp3474
F12
aF1
a(lp3475
Vauto
p3476
aVauto
p3477
aF0
aF0
aF1
aF1
aaa(lp3478
F13
aF1
a(lp3479
Vauto
p3480
aVauto
p3481
aF0
aF0
aF1
aF1
aaa(lp3482
F14
aF1
a(lp3483
Vauto
p3484
aVauto
p3485
aF0
aF0
aF1
aF1
aaa(lp3486
F15
aF1
a(lp3487
Vauto
p3488
aVauto
p3489
aF0
aF0
aF1
aF1
aaa(lp3490
F16
aF1
a(lp3491
Vauto
p3492
aVauto
p3493
aF0
aF0
aF1
aF1
aaa(lp3494
F17
aF1
a(lp3495
Vauto
p3496
aVauto
p3497
aF0
aF0
aF1
aF1
aaa(lp3498
F18
aF1
a(lp3499
Vauto
p3500
aVauto
p3501
aF0
aF0
aF1
aF1
aaa(lp3502
F19
aF1
a(lp3503
Vauto
p3504
aVauto
p3505
aF0
aF0
aF1
aF1
aaa(lp3506
F20
aF1
a(lp3507
Vauto
p3508
aVauto
p3509
aF0
aF0
aF1
aF1
aaa(lp3510
F21
aF1
a(lp3511
Vauto
p3512
aVauto
p3513
aF0
aF0
aF1
aF1
aaa(lp3514
F22
aF1
a(lp3515
Vauto
p3516
aVauto
p3517
aF0
aF0
aF1
aF1
aaa(lp3518
F23
aF1
a(lp3519
Vauto
p3520
aVauto
p3521
aF0
aF0
aF1
aF1
aaa(lp3522
F24
aF1
a(lp3523
Vauto
p3524
aVauto
p3525
aF0
aF0
aF1
aF1
aaa(lp3526
F25
aF1
a(lp3527
Vauto
p3528
aVauto
p3529
aF0
aF0
aF1
aF1
aaa(lp3530
F26
aF1
a(lp3531
Vauto
p3532
aVauto
p3533
aF0
aF0
aF1
aF1
aaa(lp3534
F27
aF1
a(lp3535
Vauto
p3536
aVauto
p3537
aF0
aF0
aF1
aF1
aaa(lp3538
F28
aF1
a(lp3539
Vauto
p3540
aVauto
p3541
aF0
aF0
aF1
aF1
aaa(lp3542
F29
aF1
a(lp3543
Vauto
p3544
aVauto
p3545
aF0
aF0
aF1
aF1
aaa(lp3546
F30
aF1
a(lp3547
Vauto
p3548
aVauto
p3549
aF0
aF0
aF1
aF1
aaa(lp3550
F31
aF1
a(lp3551
Vauto
p3552
aVauto
p3553
aF0
aF0
aF1
aF1
aaa(lp3554
F32
aF1
a(lp3555
Vauto
p3556
aVauto
p3557
aF0
aF0
aF1
aF1
aaa(lp3558
F33
aF1
a(lp3559
Vauto
p3560
aVauto
p3561
aF0
aF0
aF1
aF1
aaa(lp3562
F34
aF1
a(lp3563
Vauto
p3564
aVauto
p3565
aF0
aF0
aF1
aF1
aaa(lp3566
F35
aF1
a(lp3567
Vauto
p3568
aVauto
p3569
aF0
aF0
aF1
aF1
aaa(lp3570
F36
aF1
a(lp3571
Vauto
p3572
aVauto
p3573
aF0
aF0
aF1
aF1
aaa(lp3574
F37
aF1
a(lp3575
Vauto
p3576
aVauto
p3577
aF0
aF0
aF1
aF1
aaa(lp3578
F38
aF1
a(lp3579
Vauto
p3580
aVauto
p3581
aF0
aF0
aF1
aF1
aaa(lp3582
F39
aF1
a(lp3583
Vauto
p3584
aVauto
p3585
aF0
aF0
aF1
aF1
aaa(lp3586
F40
aF1
a(lp3587
Vauto
p3588
aVauto
p3589
aF0
aF0
aF1
aF1
aaa(lp3590
F41
aF1
a(lp3591
Vauto
p3592
aVauto
p3593
aF0
aF0
aF1
aF1
aaa(lp3594
F42
aF1
a(lp3595
Vauto
p3596
aVauto
p3597
aF0
aF0
aF1
aF1
aaa(lp3598
F43
aF1
a(lp3599
Vauto
p3600
aVauto
p3601
aF0
aF0
aF1
aF1
aaa(lp3602
F44
aF1
a(lp3603
Vauto
p3604
aVauto
p3605
aF0
aF0
aF1
aF1
aaa(lp3606
F45
aF1
a(lp3607
Vauto
p3608
aVauto
p3609
aF0
aF0
aF1
aF1
aaa(lp3610
F46
aF1
a(lp3611
Vauto
p3612
aVauto
p3613
aF0
aF0
aF1
aF1
aaa(lp3614
F47
aF1
a(lp3615
Vauto
p3616
aVauto
p3617
aF0
aF0
aF1
aF1
aaa(lp3618
F48
aF1
a(lp3619
Vauto
p3620
aVauto
p3621
aF0
aF0
aF1
aF1
aaa(lp3622
F49
aF1
a(lp3623
Vauto
p3624
aVauto
p3625
aF0
aF0
aF1
aF1
aaa(lp3626
F50
aF1
a(lp3627
Vauto
p3628
aVauto
p3629
aF0
aF0
aF1
aF1
aaa(lp3630
F51
aF1
a(lp3631
Vauto
p3632
aVauto
p3633
aF0
aF0
aF1
aF1
aaa(lp3634
F52
aF1
a(lp3635
Vauto
p3636
aVauto
p3637
aF0
aF0
aF1
aF1
aaa(lp3638
F53
aF1
a(lp3639
Vauto
p3640
aVauto
p3641
aF0
aF0
aF1
aF1
aaa(lp3642
F54
aF1
a(lp3643
Vauto
p3644
aVauto
p3645
aF0
aF0
aF1
aF1
aaa(lp3646
F55
aF1
a(lp3647
Vauto
p3648
aVauto
p3649
aF0
aF0
aF1
aF1
aaa(lp3650
F56
aF1
a(lp3651
Vauto
p3652
aVauto
p3653
aF0
aF0
aF1
aF1
aaa(lp3654
F57
aF1
a(lp3655
Vauto
p3656
aVauto
p3657
aF0
aF0
aF1
aF1
aaa(lp3658
F58
aF1
a(lp3659
Vauto
p3660
aVauto
p3661
aF0
aF0
aF1
aF1
aaa(lp3662
F59
aF1
a(lp3663
Vauto
p3664
aVauto
p3665
aF0
aF0
aF1
aF1
aaa(lp3666
F60
aF1
a(lp3667
Vauto
p3668
aVauto
p3669
aF0
aF0
aF1
aF1
aaa(lp3670
F61
aF1
a(lp3671
Vauto
p3672
aVauto
p3673
aF0
aF0
aF1
aF1
aaa(lp3674
F62
aF1
a(lp3675
Vauto
p3676
aVauto
p3677
aF0
aF0
aF1
aF1
aaa(lp3678
F63
aF1
a(lp3679
Vauto
p3680
aVauto
p3681
aF0
aF0
aF1
aF1
aaa(lp3682
F64
aF1
a(lp3683
Vauto
p3684
aVauto
p3685
aF0
aF0
aF1
aF1
aaa(lp3686
F65
aF1
a(lp3687
Vauto
p3688
aVauto
p3689
aF0
aF0
aF1
aF1
aaa(lp3690
F66
aF1
a(lp3691
Vauto
p3692
aVauto
p3693
aF0
aF0
aF1
aF1
aaa(lp3694
F67
aF1
a(lp3695
Vauto
p3696
aVauto
p3697
aF0
aF0
aF1
aF1
aaa(lp3698
F68
aF1
a(lp3699
Vauto
p3700
aVauto
p3701
aF0
aF0
aF1
aF1
aaa(lp3702
F69
aF1
a(lp3703
Vauto
p3704
aVauto
p3705
aF0
aF0
aF1
aF1
aaa(lp3706
F70
aF1
a(lp3707
Vauto
p3708
aVauto
p3709
aF0
aF0
aF1
aF1
aaa(lp3710
F71
aF1
a(lp3711
Vauto
p3712
aVauto
p3713
aF0
aF0
aF1
aF1
aaa(lp3714
F72
aF1
a(lp3715
Vauto
p3716
aVauto
p3717
aF0
aF0
aF1
aF1
aaa(lp3718
F73
aF1
a(lp3719
Vauto
p3720
aVauto
p3721
aF0
aF0
aF1
aF1
aaa(lp3722
F74
aF1
a(lp3723
Vauto
p3724
aVauto
p3725
aF0
aF0
aF1
aF1
aaa(lp3726
F75
aF1
a(lp3727
Vauto
p3728
aVauto
p3729
aF0
aF0
aF1
aF1
aaa(lp3730
F76
aF1
a(lp3731
Vauto
p3732
aVauto
p3733
aF0
aF0
aF1
aF1
aaa(lp3734
F77
aF1
a(lp3735
Vauto
p3736
aVauto
p3737
aF0
aF0
aF1
aF1
aaa(lp3738
F78
aF1
a(lp3739
Vauto
p3740
aVauto
p3741
aF0
aF0
aF1
aF1
aaa(lp3742
F79
aF1
a(lp3743
Vauto
p3744
aVauto
p3745
aF0
aF0
aF1
aF1
aaa(lp3746
F80
aF1
a(lp3747
Vauto
p3748
aVauto
p3749
aF0
aF0
aF1
aF1
aaa(lp3750
F81
aF1
a(lp3751
Vauto
p3752
aVauto
p3753
aF0
aF0
aF1
aF1
aaa(lp3754
F82
aF1
a(lp3755
Vauto
p3756
aVauto
p3757
aF0
aF0
aF1
aF1
aaa(lp3758
F83
aF1
a(lp3759
Vauto
p3760
aVauto
p3761
aF0
aF0
aF1
aF1
aaa(lp3762
F84
aF1
a(lp3763
Vauto
p3764
aVauto
p3765
aF0
aF0
aF1
aF1
aaa(lp3766
F85
aF1
a(lp3767
Vauto
p3768
aVauto
p3769
aF0
aF0
aF1
aF1
aaa(lp3770
F86
aF1
a(lp3771
Vauto
p3772
aVauto
p3773
aF0
aF0
aF1
aF1
aaa(lp3774
F87
aF1
a(lp3775
Vauto
p3776
aVauto
p3777
aF0
aF0
aF1
aF1
aaa(lp3778
F88
aF1
a(lp3779
Vauto
p3780
aVauto
p3781
aF0
aF0
aF1
aF1
aaa(lp3782
F89
aF1
a(lp3783
Vauto
p3784
aVauto
p3785
aF0
aF0
aF1
aF1
aaa(lp3786
F90
aF1
a(lp3787
Vauto
p3788
aVauto
p3789
aF0
aF0
aF1
aF1
aaa(lp3790
F91
aF1
a(lp3791
Vauto
p3792
aVauto
p3793
aF0
aF0
aF1
aF1
aaa(lp3794
F92
aF1
a(lp3795
Vauto
p3796
aVauto
p3797
aF0
aF0
aF1
aF1
aaa(lp3798
F93
aF1
a(lp3799
Vauto
p3800
aVauto
p3801
aF0
aF0
aF1
aF1
aaa(lp3802
F94
aF1
a(lp3803
Vauto
p3804
aVauto
p3805
aF0
aF0
aF1
aF1
aaa(lp3806
F95
aF1
a(lp3807
Vauto
p3808
aVauto
p3809
aF0
aF0
aF1
aF1
aaa(lp3810
F96
aF1
a(lp3811
Vauto
p3812
aVauto
p3813
aF0
aF0
aF1
aF1
aaa(lp3814
F97
aF1
a(lp3815
Vauto
p3816
aVauto
p3817
aF0
aF0
aF1
aF1
aaa(lp3818
F98
aF1
a(lp3819
Vauto
p3820
aVauto
p3821
aF0
aF0
aF1
aF1
aaa(lp3822
F99
aF1
a(lp3823
Vauto
p3824
aVauto
p3825
aF0
aF0
aF1
aF1
aaa(lp3826
F100
aF1
a(lp3827
Vauto
p3828
aVauto
p3829
aF0
aF0
aF1
aF1
aaaaa(lp3830
VscaleZ
p3831
a(lp3832
(lp3833
F0
aF1
a(lp3834
Vauto
p3835
aVauto
p3836
aF0
aF0
aF1
aF1
aaa(lp3837
F1
aF1
a(lp3838
Vauto
p3839
aVauto
p3840
aF0
aF0
aF1
aF1
aaa(lp3841
F2
aF1
a(lp3842
Vauto
p3843
aVauto
p3844
aF0
aF0
aF1
aF1
aaa(lp3845
F3
aF1
a(lp3846
Vauto
p3847
aVauto
p3848
aF0
aF0
aF1
aF1
aaa(lp3849
F4
aF1
a(lp3850
Vauto
p3851
aVauto
p3852
aF0
aF0
aF1
aF1
aaa(lp3853
F5
aF1
a(lp3854
Vauto
p3855
aVauto
p3856
aF0
aF0
aF1
aF1
aaa(lp3857
F6
aF1
a(lp3858
Vauto
p3859
aVauto
p3860
aF0
aF0
aF1
aF1
aaa(lp3861
F7
aF1
a(lp3862
Vauto
p3863
aVauto
p3864
aF0
aF0
aF1
aF1
aaa(lp3865
F8
aF1
a(lp3866
Vauto
p3867
aVauto
p3868
aF0
aF0
aF1
aF1
aaa(lp3869
F9
aF1
a(lp3870
Vauto
p3871
aVauto
p3872
aF0
aF0
aF1
aF1
aaa(lp3873
F10
aF1
a(lp3874
Vauto
p3875
aVauto
p3876
aF0
aF0
aF1
aF1
aaa(lp3877
F11
aF1
a(lp3878
Vauto
p3879
aVauto
p3880
aF0
aF0
aF1
aF1
aaa(lp3881
F12
aF1
a(lp3882
Vauto
p3883
aVauto
p3884
aF0
aF0
aF1
aF1
aaa(lp3885
F13
aF1
a(lp3886
Vauto
p3887
aVauto
p3888
aF0
aF0
aF1
aF1
aaa(lp3889
F14
aF1
a(lp3890
Vauto
p3891
aVauto
p3892
aF0
aF0
aF1
aF1
aaa(lp3893
F15
aF1
a(lp3894
Vauto
p3895
aVauto
p3896
aF0
aF0
aF1
aF1
aaa(lp3897
F16
aF1
a(lp3898
Vauto
p3899
aVauto
p3900
aF0
aF0
aF1
aF1
aaa(lp3901
F17
aF1
a(lp3902
Vauto
p3903
aVauto
p3904
aF0
aF0
aF1
aF1
aaa(lp3905
F18
aF1
a(lp3906
Vauto
p3907
aVauto
p3908
aF0
aF0
aF1
aF1
aaa(lp3909
F19
aF1
a(lp3910
Vauto
p3911
aVauto
p3912
aF0
aF0
aF1
aF1
aaa(lp3913
F20
aF1
a(lp3914
Vauto
p3915
aVauto
p3916
aF0
aF0
aF1
aF1
aaa(lp3917
F21
aF1
a(lp3918
Vauto
p3919
aVauto
p3920
aF0
aF0
aF1
aF1
aaa(lp3921
F22
aF1
a(lp3922
Vauto
p3923
aVauto
p3924
aF0
aF0
aF1
aF1
aaa(lp3925
F23
aF1
a(lp3926
Vauto
p3927
aVauto
p3928
aF0
aF0
aF1
aF1
aaa(lp3929
F24
aF1
a(lp3930
Vauto
p3931
aVauto
p3932
aF0
aF0
aF1
aF1
aaa(lp3933
F25
aF1
a(lp3934
Vauto
p3935
aVauto
p3936
aF0
aF0
aF1
aF1
aaa(lp3937
F26
aF1
a(lp3938
Vauto
p3939
aVauto
p3940
aF0
aF0
aF1
aF1
aaa(lp3941
F27
aF1
a(lp3942
Vauto
p3943
aVauto
p3944
aF0
aF0
aF1
aF1
aaa(lp3945
F28
aF1
a(lp3946
Vauto
p3947
aVauto
p3948
aF0
aF0
aF1
aF1
aaa(lp3949
F29
aF1
a(lp3950
Vauto
p3951
aVauto
p3952
aF0
aF0
aF1
aF1
aaa(lp3953
F30
aF1
a(lp3954
Vauto
p3955
aVauto
p3956
aF0
aF0
aF1
aF1
aaa(lp3957
F31
aF1
a(lp3958
Vauto
p3959
aVauto
p3960
aF0
aF0
aF1
aF1
aaa(lp3961
F32
aF1
a(lp3962
Vauto
p3963
aVauto
p3964
aF0
aF0
aF1
aF1
aaa(lp3965
F33
aF1
a(lp3966
Vauto
p3967
aVauto
p3968
aF0
aF0
aF1
aF1
aaa(lp3969
F34
aF1
a(lp3970
Vauto
p3971
aVauto
p3972
aF0
aF0
aF1
aF1
aaa(lp3973
F35
aF1
a(lp3974
Vauto
p3975
aVauto
p3976
aF0
aF0
aF1
aF1
aaa(lp3977
F36
aF1
a(lp3978
Vauto
p3979
aVauto
p3980
aF0
aF0
aF1
aF1
aaa(lp3981
F37
aF1
a(lp3982
Vauto
p3983
aVauto
p3984
aF0
aF0
aF1
aF1
aaa(lp3985
F38
aF1
a(lp3986
Vauto
p3987
aVauto
p3988
aF0
aF0
aF1
aF1
aaa(lp3989
F39
aF1
a(lp3990
Vauto
p3991
aVauto
p3992
aF0
aF0
aF1
aF1
aaa(lp3993
F40
aF1
a(lp3994
Vauto
p3995
aVauto
p3996
aF0
aF0
aF1
aF1
aaa(lp3997
F41
aF1
a(lp3998
Vauto
p3999
aVauto
p4000
aF0
aF0
aF1
aF1
aaa(lp4001
F42
aF1
a(lp4002
Vauto
p4003
aVauto
p4004
aF0
aF0
aF1
aF1
aaa(lp4005
F43
aF1
a(lp4006
Vauto
p4007
aVauto
p4008
aF0
aF0
aF1
aF1
aaa(lp4009
F44
aF1
a(lp4010
Vauto
p4011
aVauto
p4012
aF0
aF0
aF1
aF1
aaa(lp4013
F45
aF1
a(lp4014
Vauto
p4015
aVauto
p4016
aF0
aF0
aF1
aF1
aaa(lp4017
F46
aF1
a(lp4018
Vauto
p4019
aVauto
p4020
aF0
aF0
aF1
aF1
aaa(lp4021
F47
aF1
a(lp4022
Vauto
p4023
aVauto
p4024
aF0
aF0
aF1
aF1
aaa(lp4025
F48
aF1
a(lp4026
Vauto
p4027
aVauto
p4028
aF0
aF0
aF1
aF1
aaa(lp4029
F49
aF1
a(lp4030
Vauto
p4031
aVauto
p4032
aF0
aF0
aF1
aF1
aaa(lp4033
F50
aF1
a(lp4034
Vauto
p4035
aVauto
p4036
aF0
aF0
aF1
aF1
aaa(lp4037
F51
aF1
a(lp4038
Vauto
p4039
aVauto
p4040
aF0
aF0
aF1
aF1
aaa(lp4041
F52
aF1
a(lp4042
Vauto
p4043
aVauto
p4044
aF0
aF0
aF1
aF1
aaa(lp4045
F53
aF1
a(lp4046
Vauto
p4047
aVauto
p4048
aF0
aF0
aF1
aF1
aaa(lp4049
F54
aF1
a(lp4050
Vauto
p4051
aVauto
p4052
aF0
aF0
aF1
aF1
aaa(lp4053
F55
aF1
a(lp4054
Vauto
p4055
aVauto
p4056
aF0
aF0
aF1
aF1
aaa(lp4057
F56
aF1
a(lp4058
Vauto
p4059
aVauto
p4060
aF0
aF0
aF1
aF1
aaa(lp4061
F57
aF1
a(lp4062
Vauto
p4063
aVauto
p4064
aF0
aF0
aF1
aF1
aaa(lp4065
F58
aF1
a(lp4066
Vauto
p4067
aVauto
p4068
aF0
aF0
aF1
aF1
aaa(lp4069
F59
aF1
a(lp4070
Vauto
p4071
aVauto
p4072
aF0
aF0
aF1
aF1
aaa(lp4073
F60
aF1
a(lp4074
Vauto
p4075
aVauto
p4076
aF0
aF0
aF1
aF1
aaa(lp4077
F61
aF1
a(lp4078
Vauto
p4079
aVauto
p4080
aF0
aF0
aF1
aF1
aaa(lp4081
F62
aF1
a(lp4082
Vauto
p4083
aVauto
p4084
aF0
aF0
aF1
aF1
aaa(lp4085
F63
aF1
a(lp4086
Vauto
p4087
aVauto
p4088
aF0
aF0
aF1
aF1
aaa(lp4089
F64
aF1
a(lp4090
Vauto
p4091
aVauto
p4092
aF0
aF0
aF1
aF1
aaa(lp4093
F65
aF1
a(lp4094
Vauto
p4095
aVauto
p4096
aF0
aF0
aF1
aF1
aaa(lp4097
F66
aF1
a(lp4098
Vauto
p4099
aVauto
p4100
aF0
aF0
aF1
aF1
aaa(lp4101
F67
aF1
a(lp4102
Vauto
p4103
aVauto
p4104
aF0
aF0
aF1
aF1
aaa(lp4105
F68
aF1
a(lp4106
Vauto
p4107
aVauto
p4108
aF0
aF0
aF1
aF1
aaa(lp4109
F69
aF1
a(lp4110
Vauto
p4111
aVauto
p4112
aF0
aF0
aF1
aF1
aaa(lp4113
F70
aF1
a(lp4114
Vauto
p4115
aVauto
p4116
aF0
aF0
aF1
aF1
aaa(lp4117
F71
aF1
a(lp4118
Vauto
p4119
aVauto
p4120
aF0
aF0
aF1
aF1
aaa(lp4121
F72
aF1
a(lp4122
Vauto
p4123
aVauto
p4124
aF0
aF0
aF1
aF1
aaa(lp4125
F73
aF1
a(lp4126
Vauto
p4127
aVauto
p4128
aF0
aF0
aF1
aF1
aaa(lp4129
F74
aF1
a(lp4130
Vauto
p4131
aVauto
p4132
aF0
aF0
aF1
aF1
aaa(lp4133
F75
aF1
a(lp4134
Vauto
p4135
aVauto
p4136
aF0
aF0
aF1
aF1
aaa(lp4137
F76
aF1
a(lp4138
Vauto
p4139
aVauto
p4140
aF0
aF0
aF1
aF1
aaa(lp4141
F77
aF1
a(lp4142
Vauto
p4143
aVauto
p4144
aF0
aF0
aF1
aF1
aaa(lp4145
F78
aF1
a(lp4146
Vauto
p4147
aVauto
p4148
aF0
aF0
aF1
aF1
aaa(lp4149
F79
aF1
a(lp4150
Vauto
p4151
aVauto
p4152
aF0
aF0
aF1
aF1
aaa(lp4153
F80
aF1
a(lp4154
Vauto
p4155
aVauto
p4156
aF0
aF0
aF1
aF1
aaa(lp4157
F81
aF1
a(lp4158
Vauto
p4159
aVauto
p4160
aF0
aF0
aF1
aF1
aaa(lp4161
F82
aF1
a(lp4162
Vauto
p4163
aVauto
p4164
aF0
aF0
aF1
aF1
aaa(lp4165
F83
aF1
a(lp4166
Vauto
p4167
aVauto
p4168
aF0
aF0
aF1
aF1
aaa(lp4169
F84
aF1
a(lp4170
Vauto
p4171
aVauto
p4172
aF0
aF0
aF1
aF1
aaa(lp4173
F85
aF1
a(lp4174
Vauto
p4175
aVauto
p4176
aF0
aF0
aF1
aF1
aaa(lp4177
F86
aF1
a(lp4178
Vauto
p4179
aVauto
p4180
aF0
aF0
aF1
aF1
aaa(lp4181
F87
aF1
a(lp4182
Vauto
p4183
aVauto
p4184
aF0
aF0
aF1
aF1
aaa(lp4185
F88
aF1
a(lp4186
Vauto
p4187
aVauto
p4188
aF0
aF0
aF1
aF1
aaa(lp4189
F89
aF1
a(lp4190
Vauto
p4191
aVauto
p4192
aF0
aF0
aF1
aF1
aaa(lp4193
F90
aF1
a(lp4194
Vauto
p4195
aVauto
p4196
aF0
aF0
aF1
aF1
aaa(lp4197
F91
aF1
a(lp4198
Vauto
p4199
aVauto
p4200
aF0
aF0
aF1
aF1
aaa(lp4201
F92
aF1
a(lp4202
Vauto
p4203
aVauto
p4204
aF0
aF0
aF1
aF1
aaa(lp4205
F93
aF1
a(lp4206
Vauto
p4207
aVauto
p4208
aF0
aF0
aF1
aF1
aaa(lp4209
F94
aF1
a(lp4210
Vauto
p4211
aVauto
p4212
aF0
aF0
aF1
aF1
aaa(lp4213
F95
aF1
a(lp4214
Vauto
p4215
aVauto
p4216
aF0
aF0
aF1
aF1
aaa(lp4217
F96
aF1
a(lp4218
Vauto
p4219
aVauto
p4220
aF0
aF0
aF1
aF1
aaa(lp4221
F97
aF1
a(lp4222
Vauto
p4223
aVauto
p4224
aF0
aF0
aF1
aF1
aaa(lp4225
F98
aF1
a(lp4226
Vauto
p4227
aVauto
p4228
aF0
aF0
aF1
aF1
aaa(lp4229
F99
aF1
a(lp4230
Vauto
p4231
aVauto
p4232
aF0
aF0
aF1
aF1
aaa(lp4233
F100
aF1
a(lp4234
Vauto
p4235
aVauto
p4236
aF0
aF0
aF1
aF1
aaaaaaaaa(lp4237
Vbody_anim_space_switcher
p4238
a(lp4239
(lp4240
Na(lp4241
aaaa(lp4242
Vchest_ik_anim_space_switcher
p4243
a(lp4244
(lp4245
Na(lp4246
aaaa(lp4247
Vik_elbow_l_anim_space_switcher
p4248
a(lp4249
(lp4250
Na(lp4251
aaaa(lp4252
Vik_elbow_r_anim_space_switcher
p4253
a(lp4254
(lp4255
Na(lp4256
aaaa(lp4257
Vik_foot_anim_l_space_switcher
p4258
a(lp4259
(lp4260
Na(lp4261
aaaa(lp4262
Vik_foot_anim_r_space_switcher
p4263
a(lp4264
(lp4265
Na(lp4266
aaaa(lp4267
Vik_wrist_l_anim_space_switcher
p4268
a(lp4269
(lp4270
Na(lp4271
aaaa(lp4272
Vik_wrist_r_anim_space_switcher
p4273
a(lp4274
(lp4275
Na(lp4276
aaaa(lp4277
Vjaw_anim_space_switcher
p4278
a(lp4279
(lp4280
Na(lp4281
aaaa(lp4282
Vl_global_ik_anim_space_switcher
p4283
a(lp4284
(lp4285
Na(lp4286
aaaa(lp4287
Vmaster_anim_space_switcher
p4288
a(lp4289
(lp4290
Na(lp4291
aaaa(lp4292
Vr_global_ik_anim_space_switcher
p4293
a(lp4294
(lp4295
Na(lp4296
aaaa(lp4297
Vshirt_back_anim_space_switcher
p4298
a(lp4299
(lp4300
Na(lp4301
aaaa(lp4302
Vshirt_front_anim_space_switcher
p4303
a(lp4304
(lp4305
Na(lp4306
aaaa(lp4307
Vshirt_l_anim_space_switcher
p4308
a(lp4309
(lp4310
Na(lp4311
aaaa(lp4312
Vshirt_mstr_anim_space_switcher
p4313
a(lp4314
(lp4315
Na(lp4316
aaaa(lp4317
Vshirt_r_anim_space_switcher
p4318
a(lp4319
(lp4320
Na(lp4321
aaaa(lp4322
Vsleeve_l_anim_space_switcher
p4323
a(lp4324
(lp4325
Na(lp4326
aaaa(lp4327
Vsleeve_r_anim_space_switcher
p4328
a(lp4329
(lp4330
Na(lp4331
aaaa(lp4332
Vspine_01_space_switcher
p4333
a(lp4334
(lp4335
Na(lp4336
aaaa(lp4337
Vspine_adj_01_anim_space_switcher
p4338
a(lp4339
(lp4340
Na(lp4341
aaaa(lp4342
Vspine_adj_02_anim_space_switcher
p4343
a(lp4344
(lp4345
Na(lp4346
aaaa(lp4347
Vspine_adj_03_anim_space_switcher
p4348
a(lp4349
(lp4350
Na(lp4351
aaaa(lp4352
Vweapon_r_anim_space_switcher
p4353
a(lp4354
(lp4355
Na(lp4356
aaaa(lp4357
S'chest_ik_world_aligned'
p4358
a(lp4359
(lp4360
Na(lp4361
aaaa(lp4362
S'fk_orient_world_loc_l'
p4363
a(lp4364
(lp4365
Na(lp4366
aaaa(lp4367
S'fk_orient_world_loc_r'
p4368
a(lp4369
(lp4370
Na(lp4371
aaaa(lp4372
S'fk_orient_body_loc_l'
p4373
a(lp4374
(lp4375
Na(lp4376
aaaa(lp4377
S'fk_orient_body_loc_r'
p4378
a(lp4379
(lp4380
Na(lp4381
aaaa(lp4382
S'head_fk_orient_neck'
p4383
a(lp4384
(lp4385
Na(lp4386
aaaa(lp4387
S'head_fk_orient_shoulder'
p4388
a(lp4389
(lp4390
Na(lp4391
aaaa(lp4392
S'head_fk_orient_body'
p4393
a(lp4394
(lp4395
Na(lp4396
aaaa(lp4397
S'head_fk_orient_world'
p4398
a(lp4399
(lp4400
Na(lp4401
aaaa.