(lp1
(lp2
S'head_fk_anim'
p3
a(lp4
VtranslateX
p5
aVtranslateY
p6
aVtranslateZ
p7
aVrotateX
p8
aVrotateY
p9
aVrotateZ
p10
aVscaleX
p11
aVscaleY
p12
aVscaleZ
p13
aVfkOrientation
p14
aaF0
aF0
aF0
aF34.045461490371892
aF2.7711649821917921
aF-43.948358637692337
aF1
aF1
aF1
aI3
aa(lp15
S'neck_01_fk_anim'
p16
a(lp17
VtranslateX
p18
aVtranslateY
p19
aVtranslateZ
p20
aVrotateX
p21
aVrotateY
p22
aVrotateZ
p23
aVscaleX
p24
aVscaleY
p25
aVscaleZ
p26
aVfkOrientation
p27
aaF2.8421709430404007e-14
aF0
aF0
aF-6.7086940341370926
aF23.63447412654984
aF-10.544733340805086
aF1
aF1
aF1
aI2
aa(lp28
S'neck_02_fk_anim'
p29
a(lp30
VtranslateX
p31
aVtranslateY
p32
aVtranslateZ
p33
aVrotateX
p34
aVrotateY
p35
aVrotateZ
p36
aVscaleX
p37
aVscaleY
p38
aVscaleZ
p39
aaF0
aF0
aF0
aF28.868942985851206
aF-2.4473594907857121
aF-2.633
aF1
aF1
aF1
aa(lp40
S'spine_01_anim'
p41
a(lp42
Vlength
p43
aVtranslateY
p44
aVtranslateZ
p45
aVrotateX
p46
aVrotateY
p47
aVrotateZ
p48
aaF0
aF0
aF0
aF0
aF0
aF0
aa(lp49
S'spine_02_anim'
p50
a(lp51
Vlength
p52
aVtranslateY
p53
aVtranslateZ
p54
aVrotateX
p55
aVrotateY
p56
aVrotateZ
p57
aaF0
aF0
aF0
aF0
aF0
aF0
aa(lp58
S'spine_03_anim'
p59
a(lp60
Vlength
p61
aVtranslateY
p62
aVtranslateZ
p63
aVrotateX
p64
aVrotateY
p65
aVrotateZ
p66
aaF0
aF0
aF0
aF0
aF0
aF0
aa(lp67
S'spine_04_anim'
p68
a(lp69
Vlength
p70
aVtranslateY
p71
aVtranslateZ
p72
aVrotateX
p73
aVrotateY
p74
aVrotateZ
p75
aaF0
aF0
aF0
aF0
aF0
aF0
aa(lp76
S'spine_05_anim'
p77
a(lp78
Vlength
p79
aVtranslateY
p80
aVtranslateZ
p81
aVrotateX
p82
aVrotateY
p83
aVrotateZ
p84
aaF0
aF0
aF0
aF0
aF0
aF0
aa(lp85
S'mid_ik_anim'
p86
a(lp87
VtranslateX
p88
aVtranslateY
p89
aVtranslateZ
p90
aVrotateX
p91
aVrotateY
p92
aVrotateZ
p93
aaF-15.418120646566422
aF3.8999999999999999
aF11.639987333500244
aF0
aF0
aF0
aa(lp94
S'chest_ik_anim'
p95
a(lp96
VtranslateX
p97
aVtranslateY
p98
aVtranslateZ
p99
aVrotateX
p100
aVrotateY
p101
aVrotateZ
p102
aVstretch
p103
aVsquash
p104
aVtwist_amount
p105
aVspine_01_twistAmount
p106
aVspine_02_twistAmount
p107
aVspine_03_twistAmount
p108
aVspine_04_twistAmount
p109
aVautoSpine
p110
aVrotationInfluence
p111
aaF-0.008260903224197591
aF0.0123
aF-7.8690122697881231
aF-17.443707583213353
aF18.625644797212008
aF-2.5722359523102032
aF0
aF0
aF1
aF0
aF0
aF0
aF0
aF0
aF0.25
aa(lp112
S'body_anim'
p113
a(lp114
VtranslateX
p115
aVtranslateY
p116
aVtranslateZ
p117
aVrotateX
p118
aVrotateY
p119
aVrotateZ
p120
aaF5.7962482025517398e-14
aF-1.5672945544560846e-15
aF-5.5851148181634542
aF0.65410930592691785
aF-6.7308175961328152
aF5.5599999999999996
aa(lp121
S'hip_anim'
p122
a(lp123
VtranslateX
p124
aVtranslateY
p125
aVtranslateZ
p126
aVrotateX
p127
aVrotateY
p128
aVrotateZ
p129
aVlTwistCtrlVis
p130
aVlCalfTwistCtrlVis
p131
aVrTwistCtrlVis
p132
aVrCalfTwistCtrlVis
p133
aVautoHips
p134
aaF0
aF-0.003064713612693505
aF-0.0085811967065534105
aF-2.3189764244335684
aF-25.446659216350263
aF34.117715140157117
aI00
aI00
aI00
aI00
aF0
aa(lp135
S'clavicle_l_anim'
p136
a(lp137
VtranslateX
p138
aVtranslateY
p139
aVtranslateZ
p140
aVautoShoulders
p141
aVtwistCtrlVis
p142
aVtwistCtrlVisLower
p143
aaF0
aF-0.9995064912953634
aF4.7506841167500449
aF0
aI00
aI00
aa(lp144
S'clavicle_r_anim'
p145
a(lp146
VtranslateX
p147
aVtranslateY
p148
aVtranslateZ
p149
aVautoShoulders
p150
aVtwistCtrlVis
p151
aVtwistCtrlVisLower
p152
aaF0
aF0.40556329936951191
aF9.7777603182346251
aF0
aI00
aI00
aa(lp153
S'fk_arm_l_anim'
p154
a(lp155
VtranslateX
p156
aVtranslateY
p157
aVtranslateZ
p158
aVrotateX
p159
aVrotateY
p160
aVrotateZ
p161
aaF0
aF0
aF0
aF26.478693852470975
aF46.416783594825937
aF31.006226864109532
aa(lp162
S'fk_arm_r_anim'
p163
a(lp164
VtranslateX
p165
aVtranslateY
p166
aVtranslateZ
p167
aVrotateX
p168
aVrotateY
p169
aVrotateZ
p170
aaF0
aF0
aF0
aF0
aF0
aF0
aa(lp171
S'fk_elbow_l_anim'
p172
a(lp173
VtranslateX
p174
aVtranslateY
p175
aVtranslateZ
p176
aVrotateX
p177
aVrotateY
p178
aVrotateZ
p179
aaF0
aF0
aF0
aF0
aF0
aF-113.87529019698144
aa(lp180
S'fk_elbow_r_anim'
p181
a(lp182
VtranslateX
p183
aVtranslateY
p184
aVtranslateZ
p185
aVrotateX
p186
aVrotateY
p187
aVrotateZ
p188
aaF0
aF0
aF0
aF0
aF0
aF0
aa(lp189
S'fk_wrist_l_anim'
p190
a(lp191
VtranslateX
p192
aVtranslateY
p193
aVtranslateZ
p194
aVrotateX
p195
aVrotateY
p196
aVrotateZ
p197
aaF0
aF0
aF0
aF2.580299939816304
aF-62.281799834710263
aF178.05520195053626
aa(lp198
S'fk_wrist_r_anim'
p199
a(lp200
VtranslateX
p201
aVtranslateY
p202
aVtranslateZ
p203
aVrotateX
p204
aVrotateY
p205
aVrotateZ
p206
aaF0
aF0
aF0
aF0
aF0
aF0
aa(lp207
S'ik_elbow_l_anim'
p208
a(lp209
VtranslateX
p210
aVtranslateY
p211
aVtranslateZ
p212
aaF-20.993663364712823
aF-11.564281687097125
aF-52.990266013915971
aa(lp213
S'ik_elbow_r_anim'
p214
a(lp215
VtranslateX
p216
aVtranslateY
p217
aVtranslateZ
p218
aaF2.8900014517633679
aF50.948297660075212
aF-6.7329103080867014
aa(lp219
S'ik_wrist_l_anim'
p220
a(lp221
VtranslateX
p222
aVtranslateY
p223
aVtranslateZ
p224
aVrotateX
p225
aVrotateY
p226
aVrotateZ
p227
aVstretch
p228
aVsquash
p229
aVside
p230
aVmid_bend
p231
aVmid_swivel
p232
aVtip_pivot
p233
aVtip_swivel
p234
aaF-119.55882498595264
aF-59.854664247612831
aF-52.834843357195695
aF55.896698238227799
aF-237.83164833325111
aF217.62240733916536
aF0
aF0
aF0
aF0
aF0
aF0
aF0
aa(lp235
S'ik_wrist_r_anim'
p236
a(lp237
VtranslateX
p238
aVtranslateY
p239
aVtranslateZ
p240
aVrotateX
p241
aVrotateY
p242
aVrotateZ
p243
aVstretch
p244
aVsquash
p245
aVside
p246
aVmid_bend
p247
aVmid_swivel
p248
aVtip_pivot
p249
aVtip_swivel
p250
aaF94.224017427274816
aF34.344714735737668
aF-79.782072107373523
aF4.4100278179286692
aF-133.67263949599021
aF-44.66210803917361
aF0
aF0
aF0
aF0
aF0
aF0
aF0
aa(lp251
S'fk_thigh_l_anim'
p252
a(lp253
VrotateX
p254
aVrotateY
p255
aVrotateZ
p256
aaF-8.7602599519429258
aF12.97492360088904
aF13.230894190694569
aa(lp257
S'fk_thigh_r_anim'
p258
a(lp259
VrotateX
p260
aVrotateY
p261
aVrotateZ
p262
aaF-26.579383891690899
aF4.8723929946727154
aF31.250416525901301
aa(lp263
S'fk_calf_l_anim'
p264
a(lp265
VrotateX
p266
aVrotateY
p267
aVrotateZ
p268
aaF-0.22220768923676973
aF-4.4126181339991781
aF-48.129712744877622
aa(lp269
S'fk_calf_r_anim'
p270
a(lp271
VrotateX
p272
aVrotateY
p273
aVrotateZ
p274
aaF-11.732931552514987
aF0.38801017507163188
aF-74.153600105620058
aa(lp275
S'fk_foot_l_anim'
p276
a(lp277
VrotateX
p278
aVrotateY
p279
aVrotateZ
p280
aaF0.37236169512885708
aF2.6423460587052174
aF-4.0347281835568038
aa(lp281
S'fk_foot_r_anim'
p282
a(lp283
VrotateX
p284
aVrotateY
p285
aVrotateZ
p286
aaF-0.086481825565503156
aF-1.8578339941485731
aF-3.1978552231286472
aa(lp287
S'ik_foot_anim_l'
p288
a(lp289
VtranslateX
p290
aVtranslateY
p291
aVtranslateZ
p292
aVrotateX
p293
aVrotateY
p294
aVrotateZ
p295
aVknee_twist
p296
aVstretch
p297
aVsquash
p298
aVtoeCtrlVis
p299
aaF13.671525456658529
aF29.278692935191025
aF24.864264583863417
aF0
aF0
aF0
aF-14.5
aF0
aF0
aI00
aa(lp300
S'ik_foot_anim_r'
p301
a(lp302
VtranslateX
p303
aVtranslateY
p304
aVtranslateZ
p305
aVrotateX
p306
aVrotateY
p307
aVrotateZ
p308
aVknee_twist
p309
aVstretch
p310
aVsquash
p311
aVtoeCtrlVis
p312
aaF-13.499216778053871
aF1.8630938681245155
aF29.440798978800785
aF0
aF0
aF0
aF-22.899999999999999
aF0
aF0
aI00
aa(lp313
S'heel_ctrl_l'
p314
a(lp315
VrotateX
p316
aVrotateY
p317
aVrotateZ
p318
aVheelPivot
p319
aVballPivot
p320
aaF0
aF0
aF0
aF0
aF0
aa(lp321
S'heel_ctrl_r'
p322
a(lp323
VrotateX
p324
aVrotateY
p325
aVrotateZ
p326
aVheelPivot
p327
aVballPivot
p328
aaF0
aF0
aF0
aF0
aF0
aa(lp329
S'toe_wiggle_ctrl_l'
p330
a(lp331
VrotateX
p332
aVrotateY
p333
aVrotateZ
p334
aaF0
aF0
aF0
aa(lp335
S'toe_wiggle_ctrl_r'
p336
a(lp337
VrotateX
p338
aVrotateY
p339
aVrotateZ
p340
aaF0
aF0
aF0
aa(lp341
S'toe_tip_ctrl_l'
p342
a(lp343
VrotateX
p344
aVrotateY
p345
aVrotateZ
p346
aaF0
aF0
aF0
aa(lp347
S'toe_tip_ctrl_r'
p348
a(lp349
VrotateX
p350
aVrotateY
p351
aVrotateZ
p352
aaF0
aF0
aF0
aa(lp353
S'master_anim'
p354
a(lp355
VtranslateX
p356
aVtranslateY
p357
aVtranslateZ
p358
aVrotateX
p359
aVrotateY
p360
aVrotateZ
p361
aaF8.8817841970012523e-16
aF2.2204460492503131e-16
aF0
aF0
aF0
aF0
aa(lp362
S'offset_anim'
p363
a(lp364
VtranslateX
p365
aVtranslateY
p366
aVtranslateZ
p367
aVrotateX
p368
aVrotateY
p369
aVrotateZ
p370
aaF0
aF0
aF0
aF0
aF0
aF0
aa(lp371
S'root_anim'
p372
a(lp373
VtranslateX
p374
aVtranslateY
p375
aVtranslateZ
p376
aVrotateX
p377
aVrotateY
p378
aVrotateZ
p379
aaF0
aF0
aF0
aF0
aF0
aF0
aa(lp380
S'upperarm_l_twist_anim'
p381
a(lp382
VtranslateX
p383
aVtranslateY
p384
aVtranslateZ
p385
aVrotateX
p386
aVrotateY
p387
aVrotateZ
p388
aaF0
aF0
aF0
aF-12.750173863942406
aF0
aF0
aa(lp389
S'upperarm_r_twist_anim'
p390
a(lp391
VtranslateX
p392
aVtranslateY
p393
aVtranslateZ
p394
aVrotateX
p395
aVrotateY
p396
aVrotateZ
p397
aaF-0.15918308998358233
aF0.11604286961959638
aF-0.25036698224426462
aF87.494804650853382
aF-0.26819342280779457
aF0.29659856576011528
aa(lp398
S'thigh_l_twist_anim'
p399
a(lp400
VtranslateX
p401
aVtranslateY
p402
aVtranslateZ
p403
aVrotateX
p404
aVrotateY
p405
aVrotateZ
p406
aaF0
aF0
aF0
aF0
aF0
aF0
aa(lp407
S'thigh_r_twist_anim'
p408
a(lp409
VtranslateX
p410
aVtranslateY
p411
aVtranslateZ
p412
aVrotateX
p413
aVrotateY
p414
aVrotateZ
p415
aaF0
aF0
aF0
aF0
aF0
aF0
aa(lp416
S'ring_metacarpal_ctrl_r'
p417
a(lp418
VrotateX
p419
aVrotateY
p420
aVrotateZ
p421
aaF0
aF0
aF6.9623525060000002
aa(lp422
S'ring_finger_fk_ctrl_1_r'
p423
a(lp424
VtranslateX
p425
aVtranslateY
p426
aVtranslateZ
p427
aVrotateX
p428
aVrotateY
p429
aVrotateZ
p430
aVsticky
p431
aaF0
aF0
aF0
aF-16.45154672182716
aF-6.9278302700433896
aF64.205117585007059
aF0
aa(lp432
S'ring_finger_fk_ctrl_2_r'
p433
a(lp434
VtranslateX
p435
aVtranslateY
p436
aVtranslateZ
p437
aVrotateX
p438
aVrotateY
p439
aVrotateZ
p440
aaF0
aF0
aF0
aF0
aF0
aF70.927409520442367
aa(lp441
S'ring_finger_fk_ctrl_3_r'
p442
a(lp443
VtranslateX
p444
aVtranslateY
p445
aVtranslateZ
p446
aVrotateX
p447
aVrotateY
p448
aVrotateZ
p449
aaF0
aF0
aF0
aF0
aF0
aF44.640729859101327
aa(lp450
S'middle_metacarpal_ctrl_r'
p451
a(lp452
VrotateX
p453
aVrotateY
p454
aVrotateZ
p455
aaF-0.14270584700124456
aF2.2053518020560139
aF-2.2146444226186528
aa(lp456
S'middle_finger_fk_ctrl_1_l'
p457
a(lp458
VtranslateX
p459
aVtranslateY
p460
aVtranslateZ
p461
aVrotateX
p462
aVrotateY
p463
aVrotateZ
p464
aVsticky
p465
aaF0
aF0
aF0
aF-0.90747845023940288
aF-7.8098087441487651
aF57.98515464186309
aF0
aa(lp466
S'middle_finger_fk_ctrl_1_r'
p467
a(lp468
VtranslateX
p469
aVtranslateY
p470
aVtranslateZ
p471
aVrotateX
p472
aVrotateY
p473
aVrotateZ
p474
aVsticky
p475
aaF0
aF0
aF0
aF-20.807342874401385
aF8.7017527624108197
aF8.3633699033950908
aF0
aa(lp476
S'middle_finger_fk_ctrl_2_r'
p477
a(lp478
VtranslateX
p479
aVtranslateY
p480
aVtranslateZ
p481
aVrotateX
p482
aVrotateY
p483
aVrotateZ
p484
aaF0
aF0
aF0
aF0
aF0
aF22.908247503614579
aa(lp485
S'middle_finger_fk_ctrl_3_r'
p486
a(lp487
VtranslateX
p488
aVtranslateY
p489
aVtranslateZ
p490
aVrotateX
p491
aVrotateY
p492
aVrotateZ
p493
aaF0
aF0
aF0
aF0
aF0
aF24.937138932606441
aa(lp494
S'index_metacarpal_ctrl_r'
p495
a(lp496
VrotateX
p497
aVrotateY
p498
aVrotateZ
p499
aaF-0.21133400216501733
aF4.2056216537900974
aF-4.345692325569817
aa(lp500
S'index_finger_fk_ctrl_1_r'
p501
a(lp502
VtranslateX
p503
aVtranslateY
p504
aVtranslateZ
p505
aVrotateX
p506
aVrotateY
p507
aVrotateZ
p508
aVsticky
p509
aaF0
aF0
aF0
aF5.7160584387563462
aF2.1807889662948572
aF-4.2488216676876771
aF0
aa(lp510
S'index_finger_fk_ctrl_2_r'
p511
a(lp512
VtranslateX
p513
aVtranslateY
p514
aVtranslateZ
p515
aVrotateX
p516
aVrotateY
p517
aVrotateZ
p518
aaF0
aF0
aF0
aF0
aF0
aF3.3742253698933156
aa(lp519
S'index_finger_fk_ctrl_3_r'
p520
a(lp521
VtranslateX
p522
aVtranslateY
p523
aVtranslateZ
p524
aVrotateX
p525
aVrotateY
p526
aVrotateZ
p527
aaF0
aF0
aF0
aF0
aF0
aF27.408130521843834
aa(lp528
S'thumb_finger_fk_ctrl_1_r'
p529
a(lp530
VtranslateX
p531
aVtranslateY
p532
aVtranslateZ
p533
aVrotateX
p534
aVrotateY
p535
aVrotateZ
p536
aVsticky
p537
aaF0
aF0
aF0
aF-15.243037003121096
aF55.499506274728844
aF-33.01803006346848
aF0
aa(lp538
S'thumb_finger_fk_ctrl_2_r'
p539
a(lp540
VtranslateX
p541
aVtranslateY
p542
aVtranslateZ
p543
aVrotateX
p544
aVrotateY
p545
aVrotateZ
p546
aaF0
aF0
aF0
aF1.162818924
aF-8.8647133779999994
aF21.318266739999999
aa(lp547
S'thumb_finger_fk_ctrl_3_r'
p548
a(lp549
VtranslateX
p550
aVtranslateY
p551
aVtranslateZ
p552
aVrotateX
p553
aVrotateY
p554
aVrotateZ
p555
aaF0
aF0
aF0
aF0
aF0
aF24.835490065977037
aa(lp556
S'index_r_ik_anim'
p557
a(lp558
VtranslateX
p559
aVtranslateY
p560
aVtranslateZ
p561
aVrotateX
p562
aVrotateY
p563
aVrotateZ
p564
aVpoleVectorVis
p565
aaF0
aF0
aF0
aF0
aF0
aF0
aF0
aa(lp566
S'middle_r_ik_anim'
p567
a(lp568
VtranslateX
p569
aVtranslateY
p570
aVtranslateZ
p571
aVrotateX
p572
aVrotateY
p573
aVrotateZ
p574
aVpoleVectorVis
p575
aaF0
aF0
aF0
aF0
aF0
aF0
aF0
aa(lp576
S'ring_r_ik_anim'
p577
a(lp578
VtranslateX
p579
aVtranslateY
p580
aVtranslateZ
p581
aVrotateX
p582
aVrotateY
p583
aVrotateZ
p584
aVpoleVectorVis
p585
aaF0
aF0
aF0
aF0
aF0
aF0
aF0
aa(lp586
S'thumb_r_ik_anim'
p587
a(lp588
VtranslateX
p589
aVtranslateY
p590
aVtranslateZ
p591
aVrotateX
p592
aVrotateY
p593
aVrotateZ
p594
aVpoleVectorVis
p595
aaF0
aF0
aF0
aF0
aF0
aF0
aF0
aa(lp596
S'index_r_poleVector'
p597
a(lp598
VtranslateX
p599
aVtranslateY
p600
aVtranslateZ
p601
aVrotateX
p602
aVrotateY
p603
aVrotateZ
p604
aaF0
aF0
aF0
aF0
aF0
aF0
aa(lp605
S'middle_r_poleVector'
p606
a(lp607
VtranslateX
p608
aVtranslateY
p609
aVtranslateZ
p610
aVrotateX
p611
aVrotateY
p612
aVrotateZ
p613
aaF0
aF0
aF0
aF0
aF0
aF0
aa(lp614
S'ring_r_poleVector'
p615
a(lp616
VtranslateX
p617
aVtranslateY
p618
aVtranslateZ
p619
aVrotateX
p620
aVrotateY
p621
aVrotateZ
p622
aaF0
aF0
aF0
aF0
aF0
aF0
aa(lp623
S'thumb_r_poleVector'
p624
a(lp625
VtranslateX
p626
aVtranslateY
p627
aVtranslateZ
p628
aVrotateX
p629
aVrotateY
p630
aVrotateZ
p631
aaF0
aF0
aF0
aF0
aF0
aF0
aa(lp632
S'r_global_ik_anim'
p633
a(lp634
VtranslateX
p635
aVtranslateY
p636
aVtranslateZ
p637
aVrotateX
p638
aVrotateY
p639
aVrotateZ
p640
aaF0
aF0
aF0
aF0
aF0
aF0
aa(lp641
S'Rig_Settings'
p642
a(lp643
Vspine_ik
p644
aVspine_fk
p645
aVlLegMode
p646
aVlThighTwistAmount
p647
aVlThighTwist2Amount
p648
aVlThighTwist3Amount
p649
aVlCalfTwistAmount
p650
aVlCalfTwist2Amount
p651
aVlCalfTwist3Amount
p652
aVrLegMode
p653
aVrThighTwistAmount
p654
aVrThighTwist2Amount
p655
aVrThighTwist3Amount
p656
aVrCalfTwistAmount
p657
aVrCalfTwist2Amount
p658
aVrCalfTwist3Amount
p659
aVlFkArmOrient
p660
aVrFkArmOrient
p661
aVlArmMode
p662
aVlUpperarmTwistAmount
p663
aVlUpperarmTwist2Amount
p664
aVlUpperarmTwist3Amount
p665
aVlForearmTwistAmount
p666
aVlForearmTwist2Amount
p667
aVlForearmTwist3Amount
p668
aVrArmMode
p669
aVrUpperarmTwistAmount
p670
aVrUpperarmTwist2Amount
p671
aVrUpperarmTwist3Amount
p672
aVrForearmTwistAmount
p673
aVrForearmTwist2Amount
p674
aVrForearmTwist3Amount
p675
aVleg_chain_l_fk
p676
aVleg_chain_l_ik
p677
aVleg_chain_l_dynamic
p678
aVleg_chain_r_fk
p679
aVleg_chain_r_ik
p680
aVleg_chain_r_dynamic
p681
aVhairC_fk
p682
aVhairC_ik
p683
aVhairC_dynamic
p684
aVhairB_fk
p685
aVhairB_ik
p686
aVhairB_dynamic
p687
aVhairA_fk
p688
aVhairA_ik
p689
aVhairA_dynamic
p690
aaF1
aF0
aI1
aF0.90000000000000002
aF0.5
aF0.25
aF0.75
aF0.5
aF0.25
aI1
aF0.90000000000000002
aF0.5
aF0.25
aF0.75
aF0.5
aF0.25
aI2
aI0
aI1
aF0
aF0
aF0
aF0
aF0
aF0
aI1
aF0
aF0
aF0
aF0.75
aF0.5
aF0.25
aF0
aF1
aF0
aF0
aF1
aF0
aF1
aF0
aF0
aF1
aF0
aF0
aF1
aF0
aF0
aa(lp691
Vleg_chain_l_dyn_anim
p692
a(lp693
VtranslateX
p694
aVtranslateY
p695
aVtranslateZ
p696
aVrotateX
p697
aVrotateY
p698
aVrotateZ
p699
aVchainAttach
p700
aVchainStartEnvelope
p701
aVchainStartFrame
p702
aVchainStiffness
p703
aVchainDamping
p704
aVchainGravity
p705
aVchainIteration
p706
aVchainCollide
p707
aVchainWidthBase
p708
aVchainWidthExtremity
p709
aVchainCollideGround
p710
aVchainCollideGroundHeight
p711
aaF0
aF0
aF0
aF0
aF0
aF0
aI1
aF1
aF1
aF0.10000000000000001
aF0.20000000000000001
aF1
aI1
aI00
aF1
aF1
aI00
aF0
aa(lp712
Vleg_chain_l_ik_2_anim
p713
a(lp714
VtranslateX
p715
aVtranslateY
p716
aVtranslateZ
p717
aVrotateX
p718
aVrotateY
p719
aVrotateZ
p720
aaF0
aF0
aF0
aF0
aF0
aF0
aa(lp721
Vleg_chain_l_ik_3_anim
p722
a(lp723
VtranslateX
p724
aVtranslateY
p725
aVtranslateZ
p726
aVrotateX
p727
aVrotateY
p728
aVrotateZ
p729
aaF0
aF0
aF0
aF0
aF0
aF0
aa(lp730
Vleg_chain_l_ik_4_anim
p731
a(lp732
VtranslateX
p733
aVtranslateY
p734
aVtranslateZ
p735
aVrotateX
p736
aVrotateY
p737
aVrotateZ
p738
aVclusterControlVis
p739
aaF0
aF0
aF0
aF0
aF0
aF0
aI00
aa(lp740
Vleg_chain_l_ik_base_anim
p741
a(lp742
VtranslateX
p743
aVtranslateY
p744
aVtranslateZ
p745
aVrotateX
p746
aVrotateY
p747
aVrotateZ
p748
aVglobal_scale
p749
aaF0
aF0
aF0
aF0
aF0
aF0
aF0.99999999999999989
aa(lp750
Vfk_leg_chain_l_01_anim
p751
a(lp752
VtranslateX
p753
aVtranslateY
p754
aVtranslateZ
p755
aVrotateX
p756
aVrotateY
p757
aVrotateZ
p758
aVglobal_scale
p759
aVlagMode
p760
aaF0
aF0
aF0
aF0
aF0
aF0
aF0.99999999999999989
aF0
aa(lp761
Vleg_chain_l_cv_0_anim
p762
a(lp763
VtranslateX
p764
aVtranslateY
p765
aVtranslateZ
p766
aaF0
aF0
aF0
aa(lp767
Vfk_leg_chain_l_02_anim
p768
a(lp769
VtranslateX
p770
aVtranslateY
p771
aVtranslateZ
p772
aVrotateX
p773
aVrotateY
p774
aVrotateZ
p775
aaF0
aF0
aF0
aF0
aF0
aF0
aa(lp776
Vleg_chain_l_cv_1_anim
p777
a(lp778
VtranslateX
p779
aVtranslateY
p780
aVtranslateZ
p781
aaF0
aF0
aF0
aa(lp782
Vfk_leg_chain_l_03_anim
p783
a(lp784
VtranslateX
p785
aVtranslateY
p786
aVtranslateZ
p787
aVrotateX
p788
aVrotateY
p789
aVrotateZ
p790
aaF0
aF0
aF0
aF0
aF0
aF0
aa(lp791
Vleg_chain_l_cv_2_anim
p792
a(lp793
VtranslateX
p794
aVtranslateY
p795
aVtranslateZ
p796
aaF0
aF0
aF0
aa(lp797
Vfk_leg_chain_l_04_anim
p798
a(lp799
VtranslateX
p800
aVtranslateY
p801
aVtranslateZ
p802
aVrotateX
p803
aVrotateY
p804
aVrotateZ
p805
aaF0
aF0
aF0
aF0
aF0
aF0
aa(lp806
Vleg_chain_l_cv_3_anim
p807
a(lp808
VtranslateX
p809
aVtranslateY
p810
aVtranslateZ
p811
aaF0
aF0
aF0
aa(lp812
Vfk_leg_chain_l_05_anim
p813
a(lp814
VtranslateX
p815
aVtranslateY
p816
aVtranslateZ
p817
aVrotateX
p818
aVrotateY
p819
aVrotateZ
p820
aaF0
aF0
aF0
aF0
aF0
aF0
aa(lp821
Vleg_chain_l_cv_4_anim
p822
a(lp823
VtranslateX
p824
aVtranslateY
p825
aVtranslateZ
p826
aaF0
aF0
aF0
aa(lp827
Vfk_leg_chain_l_06_anim
p828
a(lp829
VtranslateX
p830
aVtranslateY
p831
aVtranslateZ
p832
aVrotateX
p833
aVrotateY
p834
aVrotateZ
p835
aaF0
aF0
aF0
aF0
aF0
aF0
aa(lp836
Vleg_chain_l_cv_5_anim
p837
a(lp838
VtranslateX
p839
aVtranslateY
p840
aVtranslateZ
p841
aaF0
aF0
aF0
aa(lp842
Vfk_leg_chain_l_07_anim
p843
a(lp844
VtranslateX
p845
aVtranslateY
p846
aVtranslateZ
p847
aVrotateX
p848
aVrotateY
p849
aVrotateZ
p850
aaF0
aF0
aF0
aF0
aF0
aF0
aa(lp851
Vleg_chain_l_cv_6_anim
p852
a(lp853
VtranslateX
p854
aVtranslateY
p855
aVtranslateZ
p856
aaF0
aF0
aF0
aa(lp857
Vfk_leg_chain_l_08_anim
p858
a(lp859
VtranslateX
p860
aVtranslateY
p861
aVtranslateZ
p862
aVrotateX
p863
aVrotateY
p864
aVrotateZ
p865
aaF0
aF0
aF0
aF0
aF0
aF0
aa(lp866
Vleg_chain_l_cv_7_anim
p867
a(lp868
VtranslateX
p869
aVtranslateY
p870
aVtranslateZ
p871
aaF0
aF0
aF0
aa(lp872
Vspine_01_adj_anim
p873
a(lp874
VtranslateX
p875
aVtranslateY
p876
aVtranslateZ
p877
aVrotateX
p878
aVrotateY
p879
aVrotateZ
p880
aVscaleX
p881
aVscaleY
p882
aVscaleZ
p883
aaF-0.029795437447570638
aF-0.056525482889867577
aF0.011257594153553478
aF-7.4666532125539931
aF0.39171156283170394
aF0.072722966912287704
aF0.99999999999999967
aF0.99999999999999989
aF0.99999999999999989
aa(lp884
Vleg_chain_r_dyn_anim
p885
a(lp886
VtranslateX
p887
aVtranslateY
p888
aVtranslateZ
p889
aVrotateX
p890
aVrotateY
p891
aVrotateZ
p892
aVchainAttach
p893
aVchainStartEnvelope
p894
aVchainStartFrame
p895
aVchainStiffness
p896
aVchainDamping
p897
aVchainGravity
p898
aVchainIteration
p899
aVchainCollide
p900
aVchainWidthBase
p901
aVchainWidthExtremity
p902
aVchainCollideGround
p903
aVchainCollideGroundHeight
p904
aaF0
aF0
aF0
aF0
aF0
aF0
aI1
aF1
aF1
aF0.10000000000000001
aF0.20000000000000001
aF1
aI1
aI00
aF1
aF1
aI00
aF0
aa(lp905
Vleg_chain_r_ik_2_anim
p906
a(lp907
VtranslateX
p908
aVtranslateY
p909
aVtranslateZ
p910
aVrotateX
p911
aVrotateY
p912
aVrotateZ
p913
aaF0
aF0
aF0
aF0
aF0
aF0
aa(lp914
Vleg_chain_r_ik_3_anim
p915
a(lp916
VtranslateX
p917
aVtranslateY
p918
aVtranslateZ
p919
aVrotateX
p920
aVrotateY
p921
aVrotateZ
p922
aaF0
aF0
aF0
aF0
aF0
aF0
aa(lp923
Vleg_chain_r_ik_4_anim
p924
a(lp925
VtranslateX
p926
aVtranslateY
p927
aVtranslateZ
p928
aVrotateX
p929
aVrotateY
p930
aVrotateZ
p931
aVclusterControlVis
p932
aaF0
aF0
aF0
aF0
aF0
aF0
aI00
aa(lp933
Vleg_chain_r_ik_base_anim
p934
a(lp935
VtranslateX
p936
aVtranslateY
p937
aVtranslateZ
p938
aVrotateX
p939
aVrotateY
p940
aVrotateZ
p941
aVglobal_scale
p942
aaF0
aF0
aF0
aF0
aF0
aF0
aF1.0000000000000004
aa(lp943
Vfk_leg_chain_r_01_anim
p944
a(lp945
VtranslateX
p946
aVtranslateY
p947
aVtranslateZ
p948
aVrotateX
p949
aVrotateY
p950
aVrotateZ
p951
aVglobal_scale
p952
aVlagMode
p953
aaF0
aF0
aF0
aF0
aF0
aF0
aF0.99999999999999967
aF0
aa(lp954
Vleg_chain_r_cv_0_anim
p955
a(lp956
VtranslateX
p957
aVtranslateY
p958
aVtranslateZ
p959
aaF0
aF0
aF0
aa(lp960
Vfk_leg_chain_r_02_anim
p961
a(lp962
VtranslateX
p963
aVtranslateY
p964
aVtranslateZ
p965
aVrotateX
p966
aVrotateY
p967
aVrotateZ
p968
aaF0
aF0
aF0
aF0
aF0
aF0
aa(lp969
Vleg_chain_r_cv_1_anim
p970
a(lp971
VtranslateX
p972
aVtranslateY
p973
aVtranslateZ
p974
aaF0
aF0
aF0
aa(lp975
Vfk_leg_chain_r_03_anim
p976
a(lp977
VtranslateX
p978
aVtranslateY
p979
aVtranslateZ
p980
aVrotateX
p981
aVrotateY
p982
aVrotateZ
p983
aaF0
aF0
aF0
aF0
aF0
aF0
aa(lp984
Vleg_chain_r_cv_2_anim
p985
a(lp986
VtranslateX
p987
aVtranslateY
p988
aVtranslateZ
p989
aaF0
aF0
aF0
aa(lp990
Vfk_leg_chain_r_04_anim
p991
a(lp992
VtranslateX
p993
aVtranslateY
p994
aVtranslateZ
p995
aVrotateX
p996
aVrotateY
p997
aVrotateZ
p998
aaF0
aF0
aF0
aF0
aF0
aF0
aa(lp999
Vleg_chain_r_cv_3_anim
p1000
a(lp1001
VtranslateX
p1002
aVtranslateY
p1003
aVtranslateZ
p1004
aaF0
aF0
aF0
aa(lp1005
Vfk_leg_chain_r_05_anim
p1006
a(lp1007
VtranslateX
p1008
aVtranslateY
p1009
aVtranslateZ
p1010
aVrotateX
p1011
aVrotateY
p1012
aVrotateZ
p1013
aaF0
aF0
aF0
aF0
aF0
aF0
aa(lp1014
Vleg_chain_r_cv_4_anim
p1015
a(lp1016
VtranslateX
p1017
aVtranslateY
p1018
aVtranslateZ
p1019
aaF0
aF0
aF0
aa(lp1020
Vfk_leg_chain_r_06_anim
p1021
a(lp1022
VtranslateX
p1023
aVtranslateY
p1024
aVtranslateZ
p1025
aVrotateX
p1026
aVrotateY
p1027
aVrotateZ
p1028
aaF0
aF0
aF0
aF0
aF0
aF0
aa(lp1029
Vleg_chain_r_cv_5_anim
p1030
a(lp1031
VtranslateX
p1032
aVtranslateY
p1033
aVtranslateZ
p1034
aaF0
aF0
aF0
aa(lp1035
Vfk_leg_chain_r_07_anim
p1036
a(lp1037
VtranslateX
p1038
aVtranslateY
p1039
aVtranslateZ
p1040
aVrotateX
p1041
aVrotateY
p1042
aVrotateZ
p1043
aaF0
aF0
aF0
aF0
aF0
aF0
aa(lp1044
Vleg_chain_r_cv_6_anim
p1045
a(lp1046
VtranslateX
p1047
aVtranslateY
p1048
aVtranslateZ
p1049
aaF0
aF0
aF0
aa(lp1050
Vfk_leg_chain_r_08_anim
p1051
a(lp1052
VtranslateX
p1053
aVtranslateY
p1054
aVtranslateZ
p1055
aVrotateX
p1056
aVrotateY
p1057
aVrotateZ
p1058
aaF0
aF0
aF0
aF0
aF0
aF0
aa(lp1059
Vleg_chain_r_cv_7_anim
p1060
a(lp1061
VtranslateX
p1062
aVtranslateY
p1063
aVtranslateZ
p1064
aaF0
aF0
aF0
aa(lp1065
Vspine_03_adj_anim
p1066
a(lp1067
VtranslateX
p1068
aVtranslateY
p1069
aVtranslateZ
p1070
aVrotateX
p1071
aVrotateY
p1072
aVrotateZ
p1073
aVscaleX
p1074
aVscaleY
p1075
aVscaleZ
p1076
aaF-1.3034546490019525
aF4.4440880305413639
aF1.7649080623367994
aF-12.13441491159624
aF3.591448614759901
aF0.085210325079078608
aF1.0000000000000002
aF1.0000000000000002
aF0.64091743867402928
aa(lp1077
VhairC_dyn_anim
p1078
a(lp1079
VtranslateX
p1080
aVtranslateY
p1081
aVtranslateZ
p1082
aVrotateX
p1083
aVrotateY
p1084
aVrotateZ
p1085
aVchainAttach
p1086
aVchainStartEnvelope
p1087
aVchainStartFrame
p1088
aVchainStiffness
p1089
aVchainDamping
p1090
aVchainGravity
p1091
aVchainIteration
p1092
aVchainCollide
p1093
aVchainWidthBase
p1094
aVchainWidthExtremity
p1095
aVchainCollideGround
p1096
aVchainCollideGroundHeight
p1097
aaF0
aF0
aF0
aF0
aF0
aF0
aI1
aF1
aF1
aF0.10000000000000001
aF0.20000000000000001
aF1
aI1
aI00
aF1
aF1
aI00
aF0
aa(lp1098
VhairC_ik_2_anim
p1099
a(lp1100
VtranslateX
p1101
aVtranslateY
p1102
aVtranslateZ
p1103
aVrotateX
p1104
aVrotateY
p1105
aVrotateZ
p1106
aaF-3.5527136788005009e-15
aF2.8421709430404007e-14
aF-2.8421709430404007e-14
aF-3.1805546814635168e-15
aF-7.9513867036587919e-16
aF2.3854160110976376e-15
aa(lp1107
VhairC_ik_3_anim
p1108
a(lp1109
VtranslateX
p1110
aVtranslateY
p1111
aVtranslateZ
p1112
aVrotateX
p1113
aVrotateY
p1114
aVrotateZ
p1115
aVclusterControlVis
p1116
aaF0
aF2.8421709430404007e-14
aF0
aF-3.1805546814635168e-15
aF-7.9513867036587919e-16
aF2.3854160110976376e-15
aI00
aa(lp1117
VhairC_ik_base_anim
p1118
a(lp1119
VtranslateX
p1120
aVtranslateY
p1121
aVtranslateZ
p1122
aVrotateX
p1123
aVrotateY
p1124
aVrotateZ
p1125
aVglobal_scale
p1126
aaF-1.0658141036401503e-14
aF-2.8421709430404007e-14
aF0
aF0
aF2.894801721800779e-15
aF-9.9392333795734899e-17
aF1
aa(lp1127
Vfk_hairC_01_anim
p1128
a(lp1129
VtranslateX
p1130
aVtranslateY
p1131
aVtranslateZ
p1132
aVrotateX
p1133
aVrotateY
p1134
aVrotateZ
p1135
aVglobal_scale
p1136
aVlagMode
p1137
aaF0
aF0
aF0
aF3.1805546814635168e-15
aF1.4846729860737901e-15
aF1.4908850069360235e-16
aF0.99999999999999978
aF0
aa(lp1138
VhairC_cv_0_anim
p1139
a(lp1140
VtranslateX
p1141
aVtranslateY
p1142
aVtranslateZ
p1143
aaF0
aF0
aF0
aa(lp1144
Vfk_hairC_02_anim
p1145
a(lp1146
VtranslateX
p1147
aVtranslateY
p1148
aVtranslateZ
p1149
aVrotateX
p1150
aVrotateY
p1151
aVrotateZ
p1152
aaF0
aF0
aF-2.8421709430404007e-14
aF0
aF3.7272125173400585e-16
aF3.3544912656060527e-16
aa(lp1153
VhairC_cv_1_anim
p1154
a(lp1155
VtranslateX
p1156
aVtranslateY
p1157
aVtranslateZ
p1158
aaF0
aF0
aF0
aa(lp1159
Vfk_hairC_03_anim
p1160
a(lp1161
VtranslateX
p1162
aVtranslateY
p1163
aVtranslateZ
p1164
aVrotateX
p1165
aVrotateY
p1166
aVrotateZ
p1167
aaF-7.1054273576010019e-15
aF0
aF0
aF0
aF0
aF0
aa(lp1168
VhairC_cv_2_anim
p1169
a(lp1170
VtranslateX
p1171
aVtranslateY
p1172
aVtranslateZ
p1173
aaF0
aF0
aF0
aa(lp1174
Vspine_04_adj_anim
p1175
a(lp1176
VtranslateX
p1177
aVtranslateY
p1178
aVtranslateZ
p1179
aVrotateX
p1180
aVrotateY
p1181
aVrotateZ
p1182
aVscaleX
p1183
aVscaleY
p1184
aVscaleZ
p1185
aaF-0.50183033338983096
aF-0.073956122540823843
aF1.3996909276049474
aF-13.948032443759637
aF-2.7808428718843556
aF-1.0258475139524099
aF1
aF1.0010019486615269
aF0.96612136945585259
aa(lp1186
Vhumpback_anim
p1187
a(lp1188
VtranslateX
p1189
aVtranslateY
p1190
aVtranslateZ
p1191
aVrotateX
p1192
aVrotateY
p1193
aVrotateZ
p1194
aVscaleX
p1195
aVscaleY
p1196
aVscaleZ
p1197
aaF0
aF0
aF0
aF0
aF0
aF0
aF1.0000000000000002
aF1.0000000000000002
aF1.0000000000000002
aa(lp1198
VhairB_dyn_anim
p1199
a(lp1200
VtranslateX
p1201
aVtranslateY
p1202
aVtranslateZ
p1203
aVrotateX
p1204
aVrotateY
p1205
aVrotateZ
p1206
aVchainAttach
p1207
aVchainStartEnvelope
p1208
aVchainStartFrame
p1209
aVchainStiffness
p1210
aVchainDamping
p1211
aVchainGravity
p1212
aVchainIteration
p1213
aVchainCollide
p1214
aVchainWidthBase
p1215
aVchainWidthExtremity
p1216
aVchainCollideGround
p1217
aVchainCollideGroundHeight
p1218
aaF0
aF0
aF0
aF0
aF0
aF0
aI1
aF1
aF1
aF0.10000000000000001
aF0.20000000000000001
aF1
aI1
aI00
aF1
aF1
aI00
aF0
aa(lp1219
VhairB_ik_2_anim
p1220
a(lp1221
VtranslateX
p1222
aVtranslateY
p1223
aVtranslateZ
p1224
aVrotateX
p1225
aVrotateY
p1226
aVrotateZ
p1227
aaF3.5527136788005009e-15
aF7.1054273576010019e-15
aF0
aF0
aF-1.5902773407317584e-15
aF-3.5781240166464568e-15
aa(lp1228
VhairB_ik_3_anim
p1229
a(lp1230
VtranslateX
p1231
aVtranslateY
p1232
aVtranslateZ
p1233
aVrotateX
p1234
aVrotateY
p1235
aVrotateZ
p1236
aVclusterControlVis
p1237
aaF3.5527136788005009e-15
aF0
aF-2.8421709430404007e-14
aF0
aF-0
aF-3.975693351829396e-15
aI00
aa(lp1238
VhairB_ik_base_anim
p1239
a(lp1240
VtranslateX
p1241
aVtranslateY
p1242
aVtranslateZ
p1243
aVrotateX
p1244
aVrotateY
p1245
aVrotateZ
p1246
aVglobal_scale
p1247
aaF0
aF-5.6843418860808015e-14
aF0
aF0
aF4.1247818525229977e-15
aF-9.5665121278394817e-16
aF1.0000000000000002
aa(lp1248
Vfk_hairB_01_anim
p1249
a(lp1250
VtranslateX
p1251
aVtranslateY
p1252
aVtranslateZ
p1253
aVrotateX
p1254
aVrotateY
p1255
aVrotateZ
p1256
aVglobal_scale
p1257
aVlagMode
p1258
aaF-3.5527136788005009e-15
aF-2.8421709430404007e-14
aF0
aF0
aF-2.2363275104040351e-15
aF6.4605016967227689e-16
aF1
aF0
aa(lp1259
VhairB_cv_0_anim
p1260
a(lp1261
VtranslateX
p1262
aVtranslateY
p1263
aVtranslateZ
p1264
aaF0
aF0
aF0
aa(lp1265
Vfk_hairB_02_anim
p1266
a(lp1267
VtranslateX
p1268
aVtranslateY
p1269
aVtranslateZ
p1270
aVrotateX
p1271
aVrotateY
p1272
aVrotateZ
p1273
aaF0
aF8.8817841970012523e-16
aF5.6843418860808015e-14
aF0
aF-1.4908850069360235e-16
aF3.7008114286755665e-15
aa(lp1274
VhairB_cv_1_anim
p1275
a(lp1276
VtranslateX
p1277
aVtranslateY
p1278
aVtranslateZ
p1279
aaF0
aF0
aF0
aa(lp1280
Vfk_hairB_03_anim
p1281
a(lp1282
VtranslateX
p1283
aVtranslateY
p1284
aVtranslateZ
p1285
aVrotateX
p1286
aVrotateY
p1287
aVrotateZ
p1288
aaF3.5527136788005009e-15
aF-7.1054273576010019e-15
aF0
aF0
aF-1.5902773407317576e-15
aF-7.951386703658788e-16
aa(lp1289
VhairB_cv_2_anim
p1290
a(lp1291
VtranslateX
p1292
aVtranslateY
p1293
aVtranslateZ
p1294
aaF0
aF0
aF0
aa(lp1295
VEye_r_anim
p1296
a(lp1297
VtranslateX
p1298
aVtranslateY
p1299
aVtranslateZ
p1300
aVrotateX
p1301
aVrotateY
p1302
aVrotateZ
p1303
aVscaleX
p1304
aVscaleY
p1305
aVscaleZ
p1306
aaF0
aF0
aF0
aF4.9696166897867449e-17
aF-0
aF4.0067534561405631e-16
aF0.99999999999999978
aF0.99999999999999967
aF0.99999999999999978
aa(lp1307
Vspine_05_adj_anim
p1308
a(lp1309
VtranslateX
p1310
aVtranslateY
p1311
aVtranslateZ
p1312
aVrotateX
p1313
aVrotateY
p1314
aVrotateZ
p1315
aVscaleX
p1316
aVscaleY
p1317
aVscaleZ
p1318
aaF0
aF0
aF0
aF2.4848083448933725e-17
aF6.2120208622334312e-18
aF6.0664266232748354e-19
aF1
aF1
aF1
aa(lp1319
Vspine_02_adj_anim
p1320
a(lp1321
VtranslateX
p1322
aVtranslateY
p1323
aVtranslateZ
p1324
aVrotateX
p1325
aVrotateY
p1326
aVrotateZ
p1327
aVscaleX
p1328
aVscaleY
p1329
aVscaleZ
p1330
aaF-1.8363598841336142
aF0.30253429770478846
aF1.7579754462752704
aF-13.739731543163277
aF-0.77415598804134911
aF0.8223641175297518
aF1
aF1
aF1
aa(lp1331
VJaw_anim
p1332
a(lp1333
VtranslateX
p1334
aVtranslateY
p1335
aVtranslateZ
p1336
aVrotateX
p1337
aVrotateY
p1338
aVrotateZ
p1339
aVscaleX
p1340
aVscaleY
p1341
aVscaleZ
p1342
aaF0
aF0
aF0
aF0.45080242099219869
aF-0.31171817897842513
aF0
aF1
aF1
aF1
aa(lp1343
VhairA_dyn_anim
p1344
a(lp1345
VtranslateX
p1346
aVtranslateY
p1347
aVtranslateZ
p1348
aVrotateX
p1349
aVrotateY
p1350
aVrotateZ
p1351
aVchainAttach
p1352
aVchainStartEnvelope
p1353
aVchainStartFrame
p1354
aVchainStiffness
p1355
aVchainDamping
p1356
aVchainGravity
p1357
aVchainIteration
p1358
aVchainCollide
p1359
aVchainWidthBase
p1360
aVchainWidthExtremity
p1361
aVchainCollideGround
p1362
aVchainCollideGroundHeight
p1363
aaF0
aF0
aF0
aF0
aF0
aF0
aI1
aF1
aF1
aF0.10000000000000001
aF0.20000000000000001
aF1
aI1
aI00
aF1
aF1
aI00
aF0
aa(lp1364
VhairA_ik_2_anim
p1365
a(lp1366
VtranslateX
p1367
aVtranslateY
p1368
aVtranslateZ
p1369
aVrotateX
p1370
aVrotateY
p1371
aVrotateZ
p1372
aaF0
aF-2.8421709430404007e-14
aF2.8421709430404007e-14
aF0
aF2.3854160110976376e-15
aF1.5902773407317584e-15
aa(lp1373
VhairA_ik_3_anim
p1374
a(lp1375
VtranslateX
p1376
aVtranslateY
p1377
aVtranslateZ
p1378
aVrotateX
p1379
aVrotateY
p1380
aVrotateZ
p1381
aVclusterControlVis
p1382
aaF7.1054273576010019e-15
aF-2.8421709430404007e-14
aF2.8421709430404007e-14
aF0
aF2.3854160110976376e-15
aF1.5902773407317584e-15
aI00
aa(lp1383
VhairA_ik_base_anim
p1384
a(lp1385
VtranslateX
p1386
aVtranslateY
p1387
aVtranslateZ
p1388
aVrotateX
p1389
aVrotateY
p1390
aVrotateZ
p1391
aVglobal_scale
p1392
aaF-1.7763568394002505e-15
aF0
aF0
aF0
aF1.6803516432341432e-15
aF-5.3423379415207512e-16
aF1
aa(lp1393
Vfk_hairA_01_anim
p1394
a(lp1395
VtranslateX
p1396
aVtranslateY
p1397
aVtranslateZ
p1398
aVrotateX
p1399
aVrotateY
p1400
aVrotateZ
p1401
aVglobal_scale
p1402
aVlagMode
p1403
aaF3.5527136788005009e-15
aF0
aF0
aF0
aF1.6803516432341432e-15
aF-5.3423379415207512e-16
aF0.99999999999999978
aF0
aa(lp1404
VhairA_cv_0_anim
p1405
a(lp1406
VtranslateX
p1407
aVtranslateY
p1408
aVtranslateZ
p1409
aaF0
aF0
aF0
aa(lp1410
Vfk_hairA_02_anim
p1411
a(lp1412
VtranslateX
p1413
aVtranslateY
p1414
aVtranslateZ
p1415
aVrotateX
p1416
aVrotateY
p1417
aVrotateZ
p1418
aaF-1.0658141036401503e-14
aF2.8421709430404007e-14
aF0
aF-3.1805546814635168e-15
aF2.5966247204135741e-15
aF6.4605016967227689e-16
aa(lp1419
VhairA_cv_1_anim
p1420
a(lp1421
VtranslateX
p1422
aVtranslateY
p1423
aVtranslateZ
p1424
aaF0
aF0
aF0
aa(lp1425
Vfk_hairA_03_anim
p1426
a(lp1427
VtranslateX
p1428
aVtranslateY
p1429
aVtranslateZ
p1430
aVrotateX
p1431
aVrotateY
p1432
aVrotateZ
p1433
aaF-7.1054273576010019e-15
aF2.8421709430404007e-14
aF0
aF3.1805546814635168e-15
aF2.3854160110976376e-15
aF-3.1805546814635168e-15
aa(lp1434
VhairA_cv_2_anim
p1435
a(lp1436
VtranslateX
p1437
aVtranslateY
p1438
aVtranslateZ
p1439
aaF0
aF0
aF0
aa(lp1440
VEye_l_anim
p1441
a(lp1442
VtranslateX
p1443
aVtranslateY
p1444
aVtranslateZ
p1445
aVrotateX
p1446
aVrotateY
p1447
aVrotateZ
p1448
aVscaleX
p1449
aVscaleY
p1450
aVscaleZ
p1451
aaF1.4210854715202004e-14
aF1.7763568394002505e-15
aF-2.8421709430404007e-14
aF-4.5968954380527377e-16
aF-0
aF1.3899396679247301e-16
aF1
aF1
aF1
aa(lp1452
VEye_l_space_switcher
p1453
a(lp1454
Vvisibility
p1455
aVtranslateX
p1456
aVtranslateY
p1457
aVtranslateZ
p1458
aVrotateX
p1459
aVrotateY
p1460
aVrotateZ
p1461
aVscaleX
p1462
aVscaleY
p1463
aVscaleZ
p1464
aVspace_world
p1465
aaI01
aF0
aF0
aF2.8421709430404007e-14
aF-1.490885006936023e-16
aF-0
aF1.2424041724466859e-17
aF1.0000000000000002
aF1.0000000000000002
aF1.0000000000000002
aF0
aa(lp1466
VEye_r_space_switcher
p1467
a(lp1468
Vvisibility
p1469
aVtranslateX
p1470
aVtranslateY
p1471
aVtranslateZ
p1472
aVrotateX
p1473
aVrotateY
p1474
aVrotateZ
p1475
aVscaleX
p1476
aVscaleY
p1477
aVscaleZ
p1478
aVspace_world
p1479
aaI01
aF-3.5527136788005009e-15
aF-1.7763568394002505e-15
aF-2.8421709430404007e-14
aF1.987846675914698e-16
aF-0
aF-2.5096564283423067e-15
aF0.99999999999999989
aF1
aF1
aF0
aa(lp1480
VJaw_space_switcher
p1481
a(lp1482
Vvisibility
p1483
aVtranslateX
p1484
aVtranslateY
p1485
aVtranslateZ
p1486
aVrotateX
p1487
aVrotateY
p1488
aVrotateZ
p1489
aVscaleX
p1490
aVscaleY
p1491
aVscaleZ
p1492
aVspace_world
p1493
aaI01
aF4.4408920985006262e-16
aF-3.5527136788005009e-15
aF-2.8421709430404007e-14
aF0
aF-0
aF-4.1387588994630237e-16
aF1
aF0.99999999999999989
aF0.99999999999999989
aF0
aa(lp1494
Vbody_anim_space_switcher
p1495
a(lp1496
Vvisibility
p1497
aVtranslateX
p1498
aVtranslateY
p1499
aVtranslateZ
p1500
aVrotateX
p1501
aVrotateY
p1502
aVrotateZ
p1503
aVscaleX
p1504
aVscaleY
p1505
aVscaleZ
p1506
aVspace_world
p1507
aaI01
aF0
aF0
aF-4.4408920985006262e-16
aF1.1034765745125394e-32
aF-2.8249000307521008e-30
aF0
aF1.0000000000000002
aF1.0000000000000002
aF1
aF0
aa(lp1508
Vchest_ik_anim_space_switcher
p1509
a(lp1510
Vvisibility
p1511
aVtranslateX
p1512
aVtranslateY
p1513
aVtranslateZ
p1514
aVrotateX
p1515
aVrotateY
p1516
aVrotateZ
p1517
aVscaleX
p1518
aVscaleY
p1519
aVscaleZ
p1520
aVspace_world
p1521
aVspace_chest_ik_world_aligned
p1522
aaI01
aF0
aF0
aF0
aF-1.5530052155583574e-18
aF-0
aF0
aF1
aF1.0000000000000002
aF1
aF0
aF1
aa(lp1523
Vhumpback_space_switcher
p1524
a(lp1525
Vvisibility
p1526
aVtranslateX
p1527
aVtranslateY
p1528
aVtranslateZ
p1529
aVrotateX
p1530
aVrotateY
p1531
aVrotateZ
p1532
aVscaleX
p1533
aVscaleY
p1534
aVscaleZ
p1535
aVspace_world
p1536
aaI01
aF-8.8817841970012523e-16
aF-8.8817841970012523e-16
aF-2.8421709430404007e-14
aF0
aF-2.4848083448933719e-17
aF-1.0094533901129323e-17
aF1.0000000000000002
aF1
aF1.0000000000000002
aF0
aa(lp1537
Vik_elbow_l_anim_space_switcher
p1538
a(lp1539
Vvisibility
p1540
aVtranslateX
p1541
aVtranslateY
p1542
aVtranslateZ
p1543
aVrotateX
p1544
aVrotateY
p1545
aVrotateZ
p1546
aVscaleX
p1547
aVscaleY
p1548
aVscaleZ
p1549
aVspace_world
p1550
aVspace_body_anim
p1551
aVspace_chest_ik_anim
p1552
aaI00
aF0
aF0
aF0
aF0
aF0
aF0
aF1
aF1
aF1
aF0
aF0
aF0
aa(lp1553
Vik_elbow_r_anim_space_switcher
p1554
a(lp1555
Vvisibility
p1556
aVtranslateX
p1557
aVtranslateY
p1558
aVtranslateZ
p1559
aVrotateX
p1560
aVrotateY
p1561
aVrotateZ
p1562
aVscaleX
p1563
aVscaleY
p1564
aVscaleZ
p1565
aVspace_world
p1566
aVspace_body_anim
p1567
aVspace_chest_ik_anim
p1568
aaI01
aF0
aF0
aF0
aF0
aF0
aF0
aF1
aF1
aF1
aF0
aF0
aF0
aa(lp1569
Vik_foot_anim_l_space_switcher
p1570
a(lp1571
Vvisibility
p1572
aVtranslateX
p1573
aVtranslateY
p1574
aVtranslateZ
p1575
aVrotateX
p1576
aVrotateY
p1577
aVrotateZ
p1578
aVscaleX
p1579
aVscaleY
p1580
aVscaleZ
p1581
aVspace_world
p1582
aVspace_body_anim
p1583
aaI01
aF0
aF0
aF0
aF0
aF0
aF0
aF1
aF1
aF1
aF0
aF0
aa(lp1584
Vik_foot_anim_r_space_switcher
p1585
a(lp1586
Vvisibility
p1587
aVtranslateX
p1588
aVtranslateY
p1589
aVtranslateZ
p1590
aVrotateX
p1591
aVrotateY
p1592
aVrotateZ
p1593
aVscaleX
p1594
aVscaleY
p1595
aVscaleZ
p1596
aVspace_world
p1597
aVspace_body_anim
p1598
aaI01
aF0
aF0
aF0
aF0
aF0
aF0
aF1
aF1
aF1
aF0
aF0
aa(lp1599
Vik_wrist_l_anim_space_switcher
p1600
a(lp1601
Vvisibility
p1602
aVtranslateX
p1603
aVtranslateY
p1604
aVtranslateZ
p1605
aVrotateX
p1606
aVrotateY
p1607
aVrotateZ
p1608
aVscaleX
p1609
aVscaleY
p1610
aVscaleZ
p1611
aVspace_world
p1612
aVspace_body_anim
p1613
aVspace_head_fk_anim
p1614
aVspace_chest_ik_anim
p1615
aaI00
aF0
aF0
aF0
aF0
aF0
aF0
aF1
aF1
aF1
aF0
aF0
aF0
aF0
aa(lp1616
Vik_wrist_r_anim_space_switcher
p1617
a(lp1618
Vvisibility
p1619
aVtranslateX
p1620
aVtranslateY
p1621
aVtranslateZ
p1622
aVrotateX
p1623
aVrotateY
p1624
aVrotateZ
p1625
aVscaleX
p1626
aVscaleY
p1627
aVscaleZ
p1628
aVspace_world
p1629
aVspace_body_anim
p1630
aVspace_head_fk_anim
p1631
aVspace_chest_ik_anim
p1632
aaI01
aF0
aF0
aF0
aF0
aF0
aF0
aF1
aF1
aF1
aF0
aF0
aF0
aF0
aa(lp1633
Vmaster_anim_space_switcher
p1634
a(lp1635
Vvisibility
p1636
aVtranslateX
p1637
aVtranslateY
p1638
aVtranslateZ
p1639
aVrotateX
p1640
aVrotateY
p1641
aVrotateZ
p1642
aVscaleX
p1643
aVscaleY
p1644
aVscaleZ
p1645
aVspace_world
p1646
aaI01
aF0
aF0
aF0
aF0
aF0
aF0
aF1
aF1
aF1
aF0
aa(lp1647
Vr_global_ik_anim_space_switcher
p1648
a(lp1649
Vvisibility
p1650
aVtranslateX
p1651
aVtranslateY
p1652
aVtranslateZ
p1653
aVrotateX
p1654
aVrotateY
p1655
aVrotateZ
p1656
aVscaleX
p1657
aVscaleY
p1658
aVscaleZ
p1659
aVspace_world
p1660
aaI01
aF0
aF0
aF0
aF0
aF0
aF0
aF1
aF1
aF1
aF0
aa(lp1661
Vspine_01_adj_space_switcher
p1662
a(lp1663
Vvisibility
p1664
aVtranslateX
p1665
aVtranslateY
p1666
aVtranslateZ
p1667
aVrotateX
p1668
aVrotateY
p1669
aVrotateZ
p1670
aVscaleX
p1671
aVscaleY
p1672
aVscaleZ
p1673
aVspace_world
p1674
aaI01
aF0
aF-3.5527136788005009e-15
aF0
aF0
aF-0
aF7.9513867036587939e-16
aF0.99999999999999989
aF0.99999999999999989
aF0.99999999999999989
aF0
aa(lp1675
Vspine_01_space_switcher
p1676
a(lp1677
Vvisibility
p1678
aVtranslateX
p1679
aVtranslateY
p1680
aVtranslateZ
p1681
aVrotateX
p1682
aVrotateY
p1683
aVrotateZ
p1684
aVscaleX
p1685
aVscaleY
p1686
aVscaleZ
p1687
aVspace_world
p1688
aaI01
aF0
aF0
aF0
aF0
aF1.2424041724466865e-17
aF7.9513867036587939e-16
aF0.99999999999999989
aF0.99999999999999989
aF0.99999999999999989
aF0
aa(lp1689
Vspine_02_adj_space_switcher
p1690
a(lp1691
Vvisibility
p1692
aVtranslateX
p1693
aVtranslateY
p1694
aVtranslateZ
p1695
aVrotateX
p1696
aVrotateY
p1697
aVrotateZ
p1698
aVscaleX
p1699
aVscaleY
p1700
aVscaleZ
p1701
aVspace_world
p1702
aaI01
aF0
aF0
aF-4.4408920985006262e-16
aF0
aF-0
aF7.9513867036587939e-16
aF0.99999999999999989
aF0.99999999999999989
aF0.99999999999999989
aF0
aa(lp1703
Vspine_03_adj_space_switcher
p1704
a(lp1705
Vvisibility
p1706
aVtranslateX
p1707
aVtranslateY
p1708
aVtranslateZ
p1709
aVrotateX
p1710
aVrotateY
p1711
aVrotateZ
p1712
aVscaleX
p1713
aVscaleY
p1714
aVscaleZ
p1715
aVspace_world
p1716
aaI01
aF2.8421709430404007e-14
aF-7.1054273576010019e-15
aF8.8817841970012523e-16
aF0
aF9.9392333795734874e-17
aF3.180554681463516e-15
aF1.0000000000000002
aF1.0000000000000002
aF1.0000000000000002
aF0
aa(lp1717
Vspine_04_adj_space_switcher
p1718
a(lp1719
Vvisibility
p1720
aVtranslateX
p1721
aVtranslateY
p1722
aVtranslateZ
p1723
aVrotateX
p1724
aVrotateY
p1725
aVrotateZ
p1726
aVscaleX
p1727
aVscaleY
p1728
aVscaleZ
p1729
aVspace_world
p1730
aaI01
aF5.6843418860808015e-14
aF-8.8817841970012523e-16
aF1.7763568394002505e-15
aF1.2424041724466862e-17
aF-3.975693351829396e-16
aF-3.975693351829396e-16
aF1
aF1
aF0.99999999999999989
aF0
aa(lp1731
Vspine_05_adj_space_switcher
p1732
a(lp1733
Vvisibility
p1734
aVtranslateX
p1735
aVtranslateY
p1736
aVtranslateZ
p1737
aVrotateX
p1738
aVrotateY
p1739
aVrotateZ
p1740
aVscaleX
p1741
aVscaleY
p1742
aVscaleZ
p1743
aVspace_world
p1744
aaI01
aF2.8421709430404007e-14
aF0
aF0
aF-7.7650260777917905e-18
aF-0
aF0
aF1
aF0.99999999999999989
aF0.99999999999999989
aF0
aa.