(lp1
(lp2
Vindex_finger_fk_ctrl_1_r
p3
a(lp4
VtranslateX
p5
aVtranslateY
p6
aVtranslateZ
p7
aVrotateX
p8
aVrotateY
p9
aVrotateZ
p10
aVsticky
p11
aaF0
aF0
aF0
aF-7.8292626783388455
aF2.0551317769238433
aF88.799652951161264
aF0
aa(lp12
Vmiddle_finger_fk_ctrl_1_r
p13
a(lp14
VtranslateX
p15
aVtranslateY
p16
aVtranslateZ
p17
aVrotateX
p18
aVrotateY
p19
aVrotateZ
p20
aVsticky
p21
aaF0
aF0
aF0
aF-6.2079138400860776
aF11.39536069322919
aF92.948202446775085
aF0
aa(lp22
Vring_finger_fk_ctrl_1_r
p23
a(lp24
VtranslateX
p25
aVtranslateY
p26
aVtranslateZ
p27
aVrotateX
p28
aVrotateY
p29
aVrotateZ
p30
aVsticky
p31
aaF0
aF0
aF0
aF0.22909007387816369
aF5.5710318261781175
aF96.319492339720938
aF0
aa(lp32
Vpinky_finger_fk_ctrl_1_r
p33
a(lp34
VtranslateX
p35
aVtranslateY
p36
aVtranslateZ
p37
aVrotateX
p38
aVrotateY
p39
aVrotateZ
p40
aVsticky
p41
aaF0
aF0
aF0
aF4.8171740769197351
aF10.58554754400485
aF89.315936487804777
aF0
aa(lp42
Vthumb_finger_fk_ctrl_1_r
p43
a(lp44
VtranslateX
p45
aVtranslateY
p46
aVtranslateZ
p47
aVrotateX
p48
aVrotateY
p49
aVrotateZ
p50
aVsticky
p51
aaF0
aF0
aF0
aF1.524073255716289
aF-10.908551275408144
aF-1.6937727554125399
aF0
aa(lp52
Vindex_finger_fk_ctrl_2_r
p53
a(lp54
VtranslateX
p55
aVtranslateY
p56
aVtranslateZ
p57
aVrotateX
p58
aVrotateY
p59
aVrotateZ
p60
aaF0
aF0
aF0
aF-0.78776778140253667
aF-0.14602431530392634
aF72.259907897660469
aa(lp61
Vmiddle_finger_fk_ctrl_2_r
p62
a(lp63
VtranslateX
p64
aVtranslateY
p65
aVtranslateZ
p66
aVrotateX
p67
aVrotateY
p68
aVrotateZ
p69
aaF0
aF0
aF0
aF3.8669256455473091
aF-0.17650203737934173
aF66.563635569223678
aa(lp70
Vring_finger_fk_ctrl_2_r
p71
a(lp72
VtranslateX
p73
aVtranslateY
p74
aVtranslateZ
p75
aVrotateX
p76
aVrotateY
p77
aVrotateZ
p78
aaF0
aF0
aF0
aF0.00040069912717022256
aF-0.0015006477269724344
aF79.622520150271882
aa(lp79
Vpinky_finger_fk_ctrl_2_r
p80
a(lp81
VtranslateX
p82
aVtranslateY
p83
aVtranslateZ
p84
aVrotateX
p85
aVrotateY
p86
aVrotateZ
p87
aaF0
aF0
aF0
aF-0.17555467546957643
aF0.40588699944507139
aF61.836832946437006
aa(lp88
Vthumb_finger_fk_ctrl_2_r
p89
a(lp90
VtranslateX
p91
aVtranslateY
p92
aVtranslateZ
p93
aVrotateX
p94
aVrotateY
p95
aVrotateZ
p96
aaF0
aF0
aF0
aF-16.680793365596859
aF37.756822019618347
aF53.057220094315717
aa(lp97
Vindex_finger_fk_ctrl_3_r
p98
a(lp99
VtranslateX
p100
aVtranslateY
p101
aVtranslateZ
p102
aVrotateX
p103
aVrotateY
p104
aVrotateZ
p105
aaF0
aF0
aF0
aF0.80115052028521205
aF-0.0079610096552314921
aF88.795491214932127
aa(lp106
Vmiddle_finger_fk_ctrl_3_r
p107
a(lp108
VtranslateX
p109
aVtranslateY
p110
aVtranslateZ
p111
aVrotateX
p112
aVrotateY
p113
aVrotateZ
p114
aaF0
aF0
aF0
aF2.1602095171292679
aF0.9291589713266678
aF89.368010305745287
aa(lp115
Vring_finger_fk_ctrl_3_r
p116
a(lp117
VtranslateX
p118
aVtranslateY
p119
aVtranslateZ
p120
aVrotateX
p121
aVrotateY
p122
aVrotateZ
p123
aaF0
aF0
aF0
aF-2.6306416855902454e-06
aF-2.8173715536383597e-08
aF78.621089840159371
aa(lp124
Vpinky_finger_fk_ctrl_3_r
p125
a(lp126
VtranslateX
p127
aVtranslateY
p128
aVtranslateZ
p129
aVrotateX
p130
aVrotateY
p131
aVrotateZ
p132
aaF0
aF0
aF0
aF1.1257774692940279
aF-0.034888900528023598
aF84.617742873985563
aa(lp133
Vthumb_finger_fk_ctrl_3_r
p134
a(lp135
VtranslateX
p136
aVtranslateY
p137
aVtranslateZ
p138
aVrotateX
p139
aVrotateY
p140
aVrotateZ
p141
aaF0
aF0
aF0
aF-1.7993961655101698
aF0.89449688979310116
aF66.53233886693846
aa.