(lp1
(lp2
Vindex_finger_fk_ctrl_1_r
p3
a(lp4
VtranslateX
p5
aVtranslateY
p6
aVtranslateZ
p7
aVrotateX
p8
aVrotateY
p9
aVrotateZ
p10
aVsticky
p11
aVblendOrient1
p12
aaF0
aF0
aF0
aF-4.962787862054749
aF-15.155969845651303
aF-0.90363670390586948
aF0
aF0
aa(lp13
Vmiddle_finger_fk_ctrl_1_r
p14
a(lp15
VtranslateX
p16
aVtranslateY
p17
aVtranslateZ
p18
aVrotateX
p19
aVrotateY
p20
aVrotateZ
p21
aVsticky
p22
aVblendOrient1
p23
aaF0
aF0
aF0
aF0.21906257190765407
aF-8.4817097741227911
aF7.7428691763387354
aF0
aF0
aa(lp24
Vring_finger_fk_ctrl_1_r
p25
a(lp26
VtranslateX
p27
aVtranslateY
p28
aVtranslateZ
p29
aVrotateX
p30
aVrotateY
p31
aVrotateZ
p32
aVsticky
p33
aVblendOrient1
p34
aaF0
aF0
aF0
aF-5.7372659727511328
aF4.677755914440886
aF4.7095243098764961
aF0
aF0
aa(lp35
Vpinky_finger_fk_ctrl_1_r
p36
a(lp37
VtranslateX
p38
aVtranslateY
p39
aVtranslateZ
p40
aVrotateX
p41
aVrotateY
p42
aVrotateZ
p43
aVsticky
p44
aVblendOrient1
p45
aaF0
aF0
aF0
aF-9.7073819479947012
aF14.958126275539605
aF-0.72734978845282316
aF0
aF0
aa(lp46
Vthumb_finger_fk_ctrl_1_r
p47
a(lp48
VtranslateX
p49
aVtranslateY
p50
aVtranslateZ
p51
aVrotateX
p52
aVrotateY
p53
aVrotateZ
p54
aVsticky
p55
aVblendOrient1
p56
aaF0
aF0
aF0
aF12.242567159266233
aF-27.18830301940277
aF-12.686928732068768
aF0
aF0
aa(lp57
Vindex_finger_fk_ctrl_2_r
p58
a(lp59
VtranslateX
p60
aVtranslateY
p61
aVtranslateZ
p62
aVrotateX
p63
aVrotateY
p64
aVrotateZ
p65
aVblendOrient1
p66
aaF0
aF0
aF0
aF-0.10095807123539703
aF-0.79480057628812484
aF2.8644382124592265e-05
aF0
aa(lp67
Vmiddle_finger_fk_ctrl_2_r
p68
a(lp69
VtranslateX
p70
aVtranslateY
p71
aVtranslateZ
p72
aVrotateX
p73
aVrotateY
p74
aVrotateZ
p75
aVblendOrient1
p76
aaF0
aF0
aF0
aF1.301411848330033
aF3.645933834063285
aF-6.3864588343049844
aF0
aa(lp77
Vring_finger_fk_ctrl_2_r
p78
a(lp79
VtranslateX
p80
aVtranslateY
p81
aVtranslateZ
p82
aVrotateX
p83
aVrotateY
p84
aVrotateZ
p85
aVblendOrient1
p86
aaF0
aF0
aF0
aF0.0015482925809919834
aF0.0001236667885677889
aF0.0060082257139322448
aF0
aa(lp87
Vpinky_finger_fk_ctrl_2_r
p88
a(lp89
VtranslateX
p90
aVtranslateY
p91
aVtranslateZ
p92
aVrotateX
p93
aVrotateY
p94
aVrotateZ
p95
aVblendOrient1
p96
aaF0
aF0
aF0
aF-0.44068840884357469
aF0.036836638249952265
aF0.0046582907468503687
aF0
aa(lp97
Vthumb_finger_fk_ctrl_2_r
p98
a(lp99
VtranslateX
p100
aVtranslateY
p101
aVtranslateZ
p102
aVrotateX
p103
aVrotateY
p104
aVrotateZ
p105
aVblendOrient1
p106
aaF0
aF0
aF0
aF-37.970180474228115
aF16.117158882357248
aF8.7134064905528348
aF0
aa(lp107
Vindex_finger_fk_ctrl_3_r
p108
a(lp109
VtranslateX
p110
aVtranslateY
p111
aVtranslateZ
p112
aVrotateX
p113
aVrotateY
p114
aVrotateZ
p115
aVblendOrient1
p116
aaF0
aF0
aF0
aF0.10139958262373922
aF0.79474795613053739
aF5.4973574448477089
aF0
aa(lp117
Vmiddle_finger_fk_ctrl_3_r
p118
a(lp119
VtranslateX
p120
aVtranslateY
p121
aVtranslateZ
p122
aVrotateX
p123
aVrotateY
p124
aVrotateZ
p125
aVblendOrient1
p126
aaF0
aF0
aF0
aF-1.0058265047089974
aF2.1256080683194321
aF-2.6996569447555068
aF0
aa(lp127
Vring_finger_fk_ctrl_3_r
p128
a(lp129
VtranslateX
p130
aVtranslateY
p131
aVtranslateZ
p132
aVrotateX
p133
aVrotateY
p134
aVrotateZ
p135
aVblendOrient1
p136
aaF0
aF0
aF0
aF-1.7450204900024674e-06
aF-2.367615823066301e-06
aF-5.7199581519147342
aF0
aa(lp137
Vpinky_finger_fk_ctrl_3_r
p138
a(lp139
VtranslateX
p140
aVtranslateY
p141
aVtranslateZ
p142
aVrotateX
p143
aVrotateY
p144
aVrotateZ
p145
aVblendOrient1
p146
aaF0
aF0
aF0
aF0.1386405741771716
aF1.1177536485133714
aF-0.086082833741556411
aF0
aa(lp147
Vthumb_finger_fk_ctrl_3_r
p148
a(lp149
VtranslateX
p150
aVtranslateY
p151
aVtranslateZ
p152
aVrotateX
p153
aVrotateY
p154
aVrotateZ
p155
aVblendOrient1
p156
aaF0
aF0
aF0
aF-1.6058541342657258
aF-1.2080160652896248
aF3.1650225254175686
aF0
aa.