(lp1
(lp2
Vindex_finger_fk_ctrl_1_r
p3
a(lp4
VtranslateX
p5
aVtranslateY
p6
aVtranslateZ
p7
aVrotateX
p8
aVrotateY
p9
aVrotateZ
p10
aVsticky
p11
aaF0
aF0
aF0
aF3.5186949062469499
aF-4.2735163805554235
aF0.078209384842822083
aF0
aa(lp12
Vmiddle_finger_fk_ctrl_1_r
p13
a(lp14
VtranslateX
p15
aVtranslateY
p16
aVtranslateZ
p17
aVrotateX
p18
aVrotateY
p19
aVrotateZ
p20
aVsticky
p21
aaF0
aF0
aF0
aF0.2185013619045722
aF-7.4301083512051509
aF7.7469236684181286
aF0
aa(lp22
Vring_finger_fk_ctrl_1_r
p23
a(lp24
VtranslateX
p25
aVtranslateY
p26
aVtranslateZ
p27
aVrotateX
p28
aVrotateY
p29
aVrotateZ
p30
aVsticky
p31
aaF0
aF0
aF0
aF6.5096907657912002
aF-2.4895933776743111
aF7.7456785598614166
aF0
aa(lp32
Vpinky_finger_fk_ctrl_1_r
p33
a(lp34
VtranslateX
p35
aVtranslateY
p36
aVtranslateZ
p37
aVrotateX
p38
aVrotateY
p39
aVrotateZ
p40
aVsticky
p41
aaF0
aF0
aF0
aF7.1333505375052342
aF-4.3439640174422527
aF7.5215614544925682
aF0
aa(lp42
Vthumb_finger_fk_ctrl_1_r
p43
a(lp44
VtranslateX
p45
aVtranslateY
p46
aVtranslateZ
p47
aVrotateX
p48
aVrotateY
p49
aVrotateZ
p50
aVsticky
p51
aaF0
aF0
aF0
aF-0.064077825471419658
aF-0.90644393390337452
aF3.1217772648184061
aF0
aa(lp52
Vindex_finger_fk_ctrl_2_r
p53
a(lp54
VtranslateX
p55
aVtranslateY
p56
aVtranslateZ
p57
aVrotateX
p58
aVrotateY
p59
aVrotateZ
p60
aaF0
aF0
aF0
aF-0.10095807123539703
aF-0.79480057628812484
aF2.8644382124592265e-05
aa(lp61
Vmiddle_finger_fk_ctrl_2_r
p62
a(lp63
VtranslateX
p64
aVtranslateY
p65
aVtranslateZ
p66
aVrotateX
p67
aVrotateY
p68
aVrotateZ
p69
aaF0
aF0
aF0
aF1.301411848330033
aF3.645933834063285
aF-6.3864588343049844
aa(lp70
Vring_finger_fk_ctrl_2_r
p71
a(lp72
VtranslateX
p73
aVtranslateY
p74
aVtranslateZ
p75
aVrotateX
p76
aVrotateY
p77
aVrotateZ
p78
aaF0
aF0
aF0
aF0.0015482925809919834
aF0.0001236667885677889
aF0.0060082257139322448
aa(lp79
Vpinky_finger_fk_ctrl_2_r
p80
a(lp81
VtranslateX
p82
aVtranslateY
p83
aVtranslateZ
p84
aVrotateX
p85
aVrotateY
p86
aVrotateZ
p87
aaF0
aF0
aF0
aF-0.44068840884357469
aF0.036836638249952265
aF0.0046582907468503687
aa(lp88
Vthumb_finger_fk_ctrl_2_r
p89
a(lp90
VtranslateX
p91
aVtranslateY
p92
aVtranslateZ
p93
aVrotateX
p94
aVrotateY
p95
aVrotateZ
p96
aaF0
aF0
aF0
aF-40.23500515797889
aF7.221131805923334
aF-2.4167818410320527
aa(lp97
Vindex_finger_fk_ctrl_3_r
p98
a(lp99
VtranslateX
p100
aVtranslateY
p101
aVtranslateZ
p102
aVrotateX
p103
aVrotateY
p104
aVrotateZ
p105
aaF0
aF0
aF0
aF0.10139958262373922
aF0.79474795613053739
aF5.4973574448477089
aa(lp106
Vmiddle_finger_fk_ctrl_3_r
p107
a(lp108
VtranslateX
p109
aVtranslateY
p110
aVtranslateZ
p111
aVrotateX
p112
aVrotateY
p113
aVrotateZ
p114
aaF0
aF0
aF0
aF-1.0058265047089974
aF2.1256080683194321
aF-2.6996569447555068
aa(lp115
Vring_finger_fk_ctrl_3_r
p116
a(lp117
VtranslateX
p118
aVtranslateY
p119
aVtranslateZ
p120
aVrotateX
p121
aVrotateY
p122
aVrotateZ
p123
aaF0
aF0
aF0
aF-1.7450204900024674e-06
aF-2.3676158230663006e-06
aF-5.7199581519147342
aa(lp124
Vpinky_finger_fk_ctrl_3_r
p125
a(lp126
VtranslateX
p127
aVtranslateY
p128
aVtranslateZ
p129
aVrotateX
p130
aVrotateY
p131
aVrotateZ
p132
aaF0
aF0
aF0
aF0.1386405741771716
aF1.1177536485133714
aF-0.086082833741556411
aa(lp133
Vthumb_finger_fk_ctrl_3_r
p134
a(lp135
VtranslateX
p136
aVtranslateY
p137
aVtranslateZ
p138
aVrotateX
p139
aVrotateY
p140
aVrotateZ
p141
aaF0
aF0
aF0
aF-1.6058541342657258
aF-1.2080160652896248
aF3.1650225254175686
aa.