(lp1
(lp2
Vindex_finger_fk_ctrl_1_r
p3
a(lp4
VtranslateX
p5
aVtranslateY
p6
aVtranslateZ
p7
aVrotateX
p8
aVrotateY
p9
aVrotateZ
p10
aVsticky
p11
aaF0
aF0
aF0
aF2.1465890955921063
aF-5.1015214994379452
aF16.749980935581245
aF0
aa(lp12
Vmiddle_finger_fk_ctrl_1_r
p13
a(lp14
VtranslateX
p15
aVtranslateY
p16
aVtranslateZ
p17
aVrotateX
p18
aVrotateY
p19
aVrotateZ
p20
aVsticky
p21
aaF0
aF0
aF0
aF-3.896766947378461
aF-7.6031129366108035
aF33.231172234086685
aF0
aa(lp22
Vring_finger_fk_ctrl_1_r
p23
a(lp24
VtranslateX
p25
aVtranslateY
p26
aVtranslateZ
p27
aVrotateX
p28
aVrotateY
p29
aVrotateZ
p30
aVsticky
p31
aaF0
aF0
aF0
aF4.0309285346581047
aF-5.687925629832093
aF41.491376041477658
aF0
aa(lp32
Vpinky_finger_fk_ctrl_1_r
p33
a(lp34
VtranslateX
p35
aVtranslateY
p36
aVtranslateZ
p37
aVrotateX
p38
aVrotateY
p39
aVrotateZ
p40
aVsticky
p41
aaF0
aF0
aF0
aF3.8527263870239894
aF-7.4092127820488427
aF38.762795290125553
aF0
aa(lp42
Vthumb_finger_fk_ctrl_1_r
p43
a(lp44
VtranslateX
p45
aVtranslateY
p46
aVtranslateZ
p47
aVrotateX
p48
aVrotateY
p49
aVrotateZ
p50
aVsticky
p51
aaF0
aF0
aF0
aF-1.9207578548057789
aF-6.1430545730426225
aF2.0438376293036087
aF0
aa(lp52
Vindex_finger_fk_ctrl_2_r
p53
a(lp54
VtranslateX
p55
aVtranslateY
p56
aVtranslateZ
p57
aVrotateX
p58
aVrotateY
p59
aVrotateZ
p60
aaF0
aF0
aF0
aF-0.40844889477019408
aF-0.68925857457155126
aF23.412330170890183
aa(lp61
Vmiddle_finger_fk_ctrl_2_r
p62
a(lp63
VtranslateX
p64
aVtranslateY
p65
aVtranslateZ
p66
aVrotateX
p67
aVrotateY
p68
aVrotateZ
p69
aaF0
aF0
aF0
aF2.6435330188560684
aF2.8287156676360068
aF17.047944608584508
aa(lp70
Vring_finger_fk_ctrl_2_r
p71
a(lp72
VtranslateX
p73
aVtranslateY
p74
aVtranslateZ
p75
aVrotateX
p76
aVrotateY
p77
aVrotateZ
p78
aaF0
aF0
aF0
aF0.0014932342017516405
aF-0.00042749854936163453
aF20.548606215430649
aa(lp79
Vpinky_finger_fk_ctrl_2_r
p80
a(lp81
VtranslateX
p82
aVtranslateY
p83
aVtranslateZ
p84
aVrotateX
p85
aVrotateY
p86
aVrotateZ
p87
aaF0
aF0
aF0
aF-0.38977731987421843
aF0.20889590454420526
aF23.414634354699977
aa(lp88
Vthumb_finger_fk_ctrl_2_r
p89
a(lp90
VtranslateX
p91
aVtranslateY
p92
aVtranslateZ
p93
aVrotateX
p94
aVrotateY
p95
aVrotateZ
p96
aaF0
aF0
aF0
aF-39.113271526770767
aF12.555088226465919
aF4.101475670996618
aa(lp97
Vindex_finger_fk_ctrl_3_r
p98
a(lp99
VtranslateX
p100
aVtranslateY
p101
aVtranslateZ
p102
aVrotateX
p103
aVrotateY
p104
aVrotateZ
p105
aaF0
aF0
aF0
aF0.34094809571720741
aF0.72502836530312831
aF23.412532475915736
aa(lp106
Vmiddle_finger_fk_ctrl_3_r
p107
a(lp108
VtranslateX
p109
aVtranslateY
p110
aVtranslateZ
p111
aVrotateX
p112
aVrotateY
p113
aVrotateZ
p114
aaF0
aF0
aF0
aF0.032716429818332358
aF2.3512470446290883
aF23.428381029268351
aa(lp115
Vring_finger_fk_ctrl_3_r
p116
a(lp117
VtranslateX
p118
aVtranslateY
p119
aVtranslateZ
p120
aVrotateX
p121
aVrotateY
p122
aVrotateZ
p123
aaF0
aF0
aF0
aF-2.4316338655396689e-06
aF-1.654647376368465e-06
aF13.654445657211545
aa(lp124
Vpinky_finger_fk_ctrl_3_r
p125
a(lp126
VtranslateX
p127
aVtranslateY
p128
aVtranslateZ
p129
aVrotateX
p130
aVrotateY
p131
aVrotateZ
p132
aaF0
aF0
aF0
aF0.57136914074030887
aF0.97064953837733348
aF23.327949687674696
aa(lp133
Vthumb_finger_fk_ctrl_3_r
p134
a(lp135
VtranslateX
p136
aVtranslateY
p137
aVtranslateZ
p138
aVrotateX
p139
aVrotateY
p140
aVrotateZ
p141
aaF0
aF0
aF0
aF-1.7526045220709661
aF-0.98303966598052872
aF10.829033236437802
aa.