(lp1
(lp2
S'head_fk_anim'
p3
a(lp4
VtranslateX
p5
aVtranslateY
p6
aVtranslateZ
p7
aVrotateX
p8
aVrotateY
p9
aVrotateZ
p10
aVscaleX
p11
aVscaleY
p12
aVscaleZ
p13
aVfkOrientation
p14
aVLidTop_l
p15
aVLidBot_l
p16
aVLidTop_r
p17
aVLidBot_r
p18
aaF0
aF0
aF0
aF-2.1576079208573788
aF22.475192708969072
aF-12.828539863978596
aF1
aF1
aF1
aI3
aF0.46437022
aF1.0477734999999999
aF0.31311888478493821
aF0.23221849
aa(lp19
S'neck_01_fk_anim'
p20
a(lp21
VtranslateX
p22
aVtranslateY
p23
aVtranslateZ
p24
aVrotateX
p25
aVrotateY
p26
aVrotateZ
p27
aVscaleX
p28
aVscaleY
p29
aVscaleZ
p30
aVfkOrientation
p31
aaF0
aF0
aF0
aF2.6414479189550062
aF3.0480989894664674
aF2.0579797153001103
aF1
aF1
aF1
aI0
aa(lp32
S'spine_01_anim'
p33
a(lp34
Vlength
p35
aVtranslateY
p36
aVtranslateZ
p37
aVrotateX
p38
aVrotateY
p39
aVrotateZ
p40
aVlength
p41
aaF0
aF0
aF0
aF0
aF0
aF0
aF0
aa(lp42
S'spine_02_anim'
p43
a(lp44
Vlength
p45
aVtranslateY
p46
aVtranslateZ
p47
aVrotateX
p48
aVrotateY
p49
aVrotateZ
p50
aVlength
p51
aaF0
aF0
aF0
aF0
aF0
aF0
aF0
aa(lp52
S'spine_03_anim'
p53
a(lp54
Vlength
p55
aVtranslateY
p56
aVtranslateZ
p57
aVrotateX
p58
aVrotateY
p59
aVrotateZ
p60
aVlength
p61
aaF0
aF0
aF0
aF0
aF0
aF0
aF0
aa(lp62
S'mid_ik_anim'
p63
a(lp64
VtranslateX
p65
aVtranslateY
p66
aVtranslateZ
p67
aVrotateX
p68
aVrotateY
p69
aVrotateZ
p70
aaF0
aF0.50438918603846017
aF-0.95151596624671153
aF0
aF0
aF0
aa(lp71
S'chest_ik_anim'
p72
a(lp73
VtranslateX
p74
aVtranslateY
p75
aVtranslateZ
p76
aVrotateX
p77
aVrotateY
p78
aVrotateZ
p79
aVstretch
p80
aVsquash
p81
aVtwist_amount
p82
aVautoSpine
p83
aVrotationInfluence
p84
aaF0
aF0
aF0
aF-19.280964096611452
aF15.866078659482234
aF-0.30340816465776477
aF0
aF0
aF1
aF1
aF0.10000000000000001
aa(lp85
S'body_anim'
p86
a(lp87
VtranslateX
p88
aVtranslateY
p89
aVtranslateZ
p90
aVrotateX
p91
aVrotateY
p92
aVrotateZ
p93
aaF-5.2292441961218898
aF0.7386221421617889
aF0.66432898442944377
aF-7.3256601493536895
aF5.3011099157953074
aF-5.7000154042829525
aa(lp94
S'hip_anim'
p95
a(lp96
VtranslateX
p97
aVtranslateY
p98
aVtranslateZ
p99
aVrotateX
p100
aVrotateY
p101
aVrotateZ
p102
aVlTwistCtrlVis
p103
aVlCalfTwistCtrlVis
p104
aVrTwistCtrlVis
p105
aVrCalfTwistCtrlVis
p106
aVautoHips
p107
aaF0
aF0
aF0
aF-1.5300045624362322
aF-4.2027884682747718
aF15.981930224350993
aI00
aI00
aI00
aI00
aF0
aa(lp108
S'clavicle_l_anim'
p109
a(lp110
VtranslateX
p111
aVtranslateY
p112
aVtranslateZ
p113
aVautoShoulders
p114
aaF-1.7201800752219898
aF-0.94400330407359345
aF5.8502821276231831
aF0
aa(lp115
S'clavicle_r_anim'
p116
a(lp117
VtranslateX
p118
aVtranslateY
p119
aVtranslateZ
p120
aVautoShoulders
p121
aaF0.79551810954942015
aF-8.3932301348419216
aF6.8809704666122276
aF0
aa(lp122
S'fk_arm_l_anim'
p123
a(lp124
VtranslateX
p125
aVtranslateY
p126
aVtranslateZ
p127
aVrotateX
p128
aVrotateY
p129
aVrotateZ
p130
aaF0
aF0
aF0
aF-2.4955950000000029
aF60.966937600000001
aF-30.165476000000005
aa(lp131
S'fk_arm_r_anim'
p132
a(lp133
VtranslateX
p134
aVtranslateY
p135
aVtranslateZ
p136
aVrotateX
p137
aVrotateY
p138
aVrotateZ
p139
aaF0
aF0
aF0
aF-139.59211529999999
aF-40.674819299999996
aF-37.493144000000001
aa(lp140
S'fk_elbow_l_anim'
p141
a(lp142
VtranslateX
p143
aVtranslateY
p144
aVtranslateZ
p145
aVrotateX
p146
aVrotateY
p147
aVrotateZ
p148
aaF0
aF0
aF0
aF0
aF4.1957883e-05
aF-69.747497999999993
aa(lp149
S'fk_elbow_r_anim'
p150
a(lp151
VtranslateX
p152
aVtranslateY
p153
aVtranslateZ
p154
aVrotateX
p155
aVrotateY
p156
aVrotateZ
p157
aaF0
aF0
aF0
aF-0.00020896224000000003
aF0.00018667039999999997
aF-62.00433799999999
aa(lp158
S'fk_wrist_l_anim'
p159
a(lp160
VtranslateX
p161
aVtranslateY
p162
aVtranslateZ
p163
aVrotateX
p164
aVrotateY
p165
aVrotateZ
p166
aaF0
aF0
aF0
aF32.336911999999998
aF-13.976982000000001
aF15.152151
aa(lp167
S'fk_wrist_r_anim'
p168
a(lp169
VtranslateX
p170
aVtranslateY
p171
aVtranslateZ
p172
aVrotateX
p173
aVrotateY
p174
aVrotateZ
p175
aaF0
aF0
aF0
aF-36.388572000000003
aF-2.3069379800000003
aF33.7264561
aa(lp176
S'ik_elbow_l_anim'
p177
a(lp178
VtranslateX
p179
aVtranslateY
p180
aVtranslateZ
p181
aaF-9.0701488553182834
aF13.093999999999999
aF-23.292999999999999
aa(lp182
S'ik_elbow_r_anim'
p183
a(lp184
VtranslateX
p185
aVtranslateY
p186
aVtranslateZ
p187
aaF-20.234661385304999
aF-20.672944506491085
aF-8.5384608939591278
aa(lp188
S'ik_wrist_l_anim'
p189
a(lp190
VtranslateX
p191
aVtranslateY
p192
aVtranslateZ
p193
aVrotateX
p194
aVrotateY
p195
aVrotateZ
p196
aVstretch
p197
aVsquash
p198
aVside
p199
aVmid_bend
p200
aVmid_swivel
p201
aVtip_pivot
p202
aVtip_swivel
p203
aVblendParent1
p204
aaF-27.723963999999999
aF18.420535000000001
aF-35.430529
aF40.404057000000002
aF76.132337000000021
aF14.100932000000002
aF0
aF0
aF0
aF0
aF0
aF0
aF0
aF0
aa(lp205
S'ik_wrist_r_anim'
p206
a(lp207
VtranslateX
p208
aVtranslateY
p209
aVtranslateZ
p210
aVrotateX
p211
aVrotateY
p212
aVrotateZ
p213
aVstretch
p214
aVsquash
p215
aVside
p216
aVmid_bend
p217
aVmid_swivel
p218
aVtip_pivot
p219
aVtip_swivel
p220
aaF34.785957750071638
aF-17.073284758391161
aF21.872048853009389
aF92.313089103640479
aF69.628449608668333
aF144.58080815049169
aF0
aF0
aF0
aF0
aF0
aF0
aF0
aa(lp221
S'fk_thigh_l_anim'
p222
a(lp223
VrotateX
p224
aVrotateY
p225
aVrotateZ
p226
aaF0
aF0
aF0
aa(lp227
S'fk_thigh_r_anim'
p228
a(lp229
VrotateX
p230
aVrotateY
p231
aVrotateZ
p232
aaF0
aF0
aF0
aa(lp233
S'fk_calf_l_anim'
p234
a(lp235
VrotateX
p236
aVrotateY
p237
aVrotateZ
p238
aaF0
aF0
aF0
aa(lp239
S'fk_calf_r_anim'
p240
a(lp241
VrotateX
p242
aVrotateY
p243
aVrotateZ
p244
aaF0
aF0
aF0
aa(lp245
S'fk_foot_l_anim'
p246
a(lp247
VrotateX
p248
aVrotateY
p249
aVrotateZ
p250
aaF0
aF0
aF0
aa(lp251
S'fk_foot_r_anim'
p252
a(lp253
VrotateX
p254
aVrotateY
p255
aVrotateZ
p256
aaF0
aF0
aF0
aa(lp257
S'fk_ball_l_anim'
p258
a(lp259
VrotateX
p260
aVrotateY
p261
aVrotateZ
p262
aaF0
aF0
aF0
aa(lp263
S'fk_ball_r_anim'
p264
a(lp265
VrotateX
p266
aVrotateY
p267
aVrotateZ
p268
aaF0
aF0
aF0
aa(lp269
S'ik_foot_anim_l'
p270
a(lp271
VtranslateX
p272
aVtranslateY
p273
aVtranslateZ
p274
aVrotateX
p275
aVrotateY
p276
aVrotateZ
p277
aVknee_twist
p278
aVstretch
p279
aVsquash
p280
aVtoeCtrlVis
p281
aVToeSplay_l
p282
aaF8.0188151320000003
aF-15.07495784
aF0
aF0
aF0
aF17.331592270000002
aF12.236870769999999
aF0
aF0
aI00
aF0.62999999520000005
aa(lp283
S'ik_foot_anim_r'
p284
a(lp285
VtranslateX
p286
aVtranslateY
p287
aVtranslateZ
p288
aVrotateX
p289
aVrotateY
p290
aVrotateZ
p291
aVknee_twist
p292
aVstretch
p293
aVsquash
p294
aVtoeCtrlVis
p295
aVToeSplay_r
p296
aaF-5.6717421899999998
aF9.070547929
aF0
aF0
aF0
aF-27.115684210000005
aF23
aF0
aF0
aI00
aF0.43000000719999998
aa(lp297
S'heel_ctrl_l'
p298
a(lp299
VrotateX
p300
aVrotateY
p301
aVrotateZ
p302
aVheelPivot
p303
aVballPivot
p304
aaF0
aF0
aF0
aF0
aF0
aa(lp305
S'heel_ctrl_r'
p306
a(lp307
VrotateX
p308
aVrotateY
p309
aVrotateZ
p310
aVheelPivot
p311
aVballPivot
p312
aaF0
aF0
aF0
aF0
aF0
aa(lp313
S'toe_wiggle_ctrl_l'
p314
a(lp315
VrotateX
p316
aVrotateY
p317
aVrotateZ
p318
aaF0
aF0
aF0
aa(lp319
S'toe_wiggle_ctrl_r'
p320
a(lp321
VrotateX
p322
aVrotateY
p323
aVrotateZ
p324
aaF0
aF0
aF0
aa(lp325
S'toe_tip_ctrl_l'
p326
a(lp327
VrotateX
p328
aVrotateY
p329
aVrotateZ
p330
aaF0
aF0
aF0
aa(lp331
S'toe_tip_ctrl_r'
p332
a(lp333
VrotateX
p334
aVrotateY
p335
aVrotateZ
p336
aaF0
aF0
aF0
aa(lp337
S'master_anim'
p338
a(lp339
VtranslateX
p340
aVtranslateY
p341
aVtranslateZ
p342
aVrotateX
p343
aVrotateY
p344
aVrotateZ
p345
aaF0
aF0
aF0
aF0
aF0
aF0
aa(lp346
S'offset_anim'
p347
a(lp348
VtranslateX
p349
aVtranslateY
p350
aVtranslateZ
p351
aVrotateX
p352
aVrotateY
p353
aVrotateZ
p354
aaF0
aF0
aF0
aF0
aF0
aF0
aa(lp355
S'root_anim'
p356
a(lp357
VtranslateX
p358
aVtranslateY
p359
aVtranslateZ
p360
aVrotateX
p361
aVrotateY
p362
aVrotateZ
p363
aaF0
aF0
aF0
aF0
aF0
aF0
aa(lp364
S'upperarm_l_twist_anim'
p365
a(lp366
VtranslateX
p367
aVtranslateY
p368
aVtranslateZ
p369
aVrotateX
p370
aVrotateY
p371
aVrotateZ
p372
aVscaleX
p373
aVscaleY
p374
aVscaleZ
p375
aaF0
aF0
aF0
aF-11.739655000000001
aF0
aF0
aF1
aF1
aF1
aa(lp376
S'upperarm_r_twist_anim'
p377
a(lp378
VtranslateX
p379
aVtranslateY
p380
aVtranslateZ
p381
aVrotateX
p382
aVrotateY
p383
aVrotateZ
p384
aVscaleX
p385
aVscaleY
p386
aVscaleZ
p387
aaF0
aF0
aF0
aF49.192161649807971
aF3.6822776186549566
aF-7.6261569340137259
aF1
aF1
aF1
aa(lp388
S'thigh_l_twist_anim'
p389
a(lp390
VtranslateX
p391
aVtranslateY
p392
aVtranslateZ
p393
aVrotateX
p394
aVrotateY
p395
aVrotateZ
p396
aaF0
aF0
aF0
aF0
aF0
aF0
aa(lp397
S'thigh_r_twist_anim'
p398
a(lp399
VtranslateX
p400
aVtranslateY
p401
aVtranslateZ
p402
aVrotateX
p403
aVrotateY
p404
aVrotateZ
p405
aaF0
aF0
aF0
aF0
aF0
aF0
aa(lp406
S'pinky_finger_fk_ctrl_1_l'
p407
a(lp408
VtranslateX
p409
aVtranslateY
p410
aVtranslateZ
p411
aVrotateX
p412
aVrotateY
p413
aVrotateZ
p414
aVsticky
p415
aaF0
aF0
aF0
aF-4.6056994656873362
aF5.4997957099015213
aF43.519908088114107
aF0
aa(lp416
S'pinky_finger_fk_ctrl_1_r'
p417
a(lp418
VtranslateX
p419
aVtranslateY
p420
aVtranslateZ
p421
aVrotateX
p422
aVrotateY
p423
aVrotateZ
p424
aVsticky
p425
aaF0
aF0
aF0
aF28.419348419219606
aF14.500448816290458
aF29.087560744202651
aF0
aa(lp426
S'pinky_finger_fk_ctrl_2_l'
p427
a(lp428
VtranslateX
p429
aVtranslateY
p430
aVtranslateZ
p431
aVrotateX
p432
aVrotateY
p433
aVrotateZ
p434
aaF0
aF0
aF0
aF0
aF0
aF81.706064452637534
aa(lp435
S'pinky_finger_fk_ctrl_2_r'
p436
a(lp437
VtranslateX
p438
aVtranslateY
p439
aVtranslateZ
p440
aVrotateX
p441
aVrotateY
p442
aVrotateZ
p443
aaF0
aF0
aF0
aF0
aF0
aF62.673389719999996
aa(lp444
S'pinky_finger_fk_ctrl_3_l'
p445
a(lp446
VtranslateX
p447
aVtranslateY
p448
aVtranslateZ
p449
aVrotateX
p450
aVrotateY
p451
aVrotateZ
p452
aaF0
aF0
aF0
aF0
aF0
aF41.276611134580129
aa(lp453
S'pinky_finger_fk_ctrl_3_r'
p454
a(lp455
VtranslateX
p456
aVtranslateY
p457
aVtranslateZ
p458
aVrotateX
p459
aVrotateY
p460
aVrotateZ
p461
aaF0
aF0
aF0
aF0
aF0
aF56.553272569999997
aa(lp462
S'ring_finger_fk_ctrl_1_l'
p463
a(lp464
VtranslateX
p465
aVtranslateY
p466
aVtranslateZ
p467
aVrotateX
p468
aVrotateY
p469
aVrotateZ
p470
aVsticky
p471
aaF0
aF0
aF0
aF-2.7445294788196013
aF-2.1122887470963287
aF55.527966606864254
aF0
aa(lp472
S'ring_finger_fk_ctrl_1_r'
p473
a(lp474
VtranslateX
p475
aVtranslateY
p476
aVtranslateZ
p477
aVrotateX
p478
aVrotateY
p479
aVrotateZ
p480
aVsticky
p481
aaF0
aF0
aF0
aF20.156810585972806
aF-1.398288928214636
aF72.592656686837515
aF0
aa(lp482
S'ring_finger_fk_ctrl_2_l'
p483
a(lp484
VtranslateX
p485
aVtranslateY
p486
aVtranslateZ
p487
aVrotateX
p488
aVrotateY
p489
aVrotateZ
p490
aaF0
aF0
aF0
aF0
aF0
aF76.222569452637529
aa(lp491
S'ring_finger_fk_ctrl_2_r'
p492
a(lp493
VtranslateX
p494
aVtranslateY
p495
aVtranslateZ
p496
aVrotateX
p497
aVrotateY
p498
aVrotateZ
p499
aaF0
aF0
aF0
aF0
aF0
aF50.276212540000003
aa(lp500
S'ring_finger_fk_ctrl_3_l'
p501
a(lp502
VtranslateX
p503
aVtranslateY
p504
aVtranslateZ
p505
aVrotateX
p506
aVrotateY
p507
aVrotateZ
p508
aaF0
aF0
aF0
aF0
aF0
aF35.139665360352367
aa(lp509
S'ring_finger_fk_ctrl_3_r'
p510
a(lp511
VtranslateX
p512
aVtranslateY
p513
aVtranslateZ
p514
aVrotateX
p515
aVrotateY
p516
aVrotateZ
p517
aaF0
aF0
aF0
aF0
aF0
aF41.71586649428157
aa(lp518
S'middle_finger_fk_ctrl_1_l'
p519
a(lp520
VtranslateX
p521
aVtranslateY
p522
aVtranslateZ
p523
aVrotateX
p524
aVrotateY
p525
aVrotateZ
p526
aVsticky
p527
aaF0
aF0
aF0
aF-1.4293909598250709
aF-4.4537226290963376
aF20.920944251115966
aF0
aa(lp528
S'middle_finger_fk_ctrl_1_r'
p529
a(lp530
VtranslateX
p531
aVtranslateY
p532
aVtranslateZ
p533
aVrotateX
p534
aVrotateY
p535
aVrotateZ
p536
aVsticky
p537
aaF0
aF0
aF0
aF0
aF0
aF71.917442070000007
aF0
aa(lp538
S'middle_finger_fk_ctrl_2_l'
p539
a(lp540
VtranslateX
p541
aVtranslateY
p542
aVtranslateZ
p543
aVrotateX
p544
aVrotateY
p545
aVrotateZ
p546
aaF0
aF0
aF0
aF0
aF0
aF72.919859746521198
aa(lp547
S'middle_finger_fk_ctrl_2_r'
p548
a(lp549
VtranslateX
p550
aVtranslateY
p551
aVtranslateZ
p552
aVrotateX
p553
aVrotateY
p554
aVrotateZ
p555
aaF0
aF0
aF0
aF0
aF0
aF64.801350110000001
aa(lp556
S'middle_finger_fk_ctrl_3_l'
p557
a(lp558
VtranslateX
p559
aVtranslateY
p560
aVtranslateZ
p561
aVrotateX
p562
aVrotateY
p563
aVrotateZ
p564
aaF0
aF0
aF0
aF0
aF0
aF63.663671452637544
aa(lp565
S'middle_finger_fk_ctrl_3_r'
p566
a(lp567
VtranslateX
p568
aVtranslateY
p569
aVtranslateZ
p570
aVrotateX
p571
aVrotateY
p572
aVrotateZ
p573
aaF0
aF0
aF0
aF0
aF0
aF33.683086789999997
aa(lp574
S'index_finger_fk_ctrl_1_l'
p575
a(lp576
VtranslateX
p577
aVtranslateY
p578
aVtranslateZ
p579
aVrotateX
p580
aVrotateY
p581
aVrotateZ
p582
aVsticky
p583
aaF0
aF0
aF0
aF-1.0563547000000002
aF-3.1829575000000001
aF0.6082157249519865
aF0
aa(lp584
S'index_finger_fk_ctrl_1_r'
p585
a(lp586
VtranslateX
p587
aVtranslateY
p588
aVtranslateZ
p589
aVrotateX
p590
aVrotateY
p591
aVrotateZ
p592
aVsticky
p593
aaF0
aF0
aF0
aF0
aF0
aF78.726562939999994
aF0
aa(lp594
S'index_finger_fk_ctrl_2_l'
p595
a(lp596
VtranslateX
p597
aVtranslateY
p598
aVtranslateZ
p599
aVrotateX
p600
aVrotateY
p601
aVrotateZ
p602
aaF0
aF0
aF0
aF0
aF0
aF52.006061360352369
aa(lp603
S'index_finger_fk_ctrl_2_r'
p604
a(lp605
VtranslateX
p606
aVtranslateY
p607
aVtranslateZ
p608
aVrotateX
p609
aVrotateY
p610
aVrotateZ
p611
aaF0
aF0
aF0
aF0
aF0
aF64.801350110000001
aa(lp612
S'index_finger_fk_ctrl_3_l'
p613
a(lp614
VtranslateX
p615
aVtranslateY
p616
aVtranslateZ
p617
aVrotateX
p618
aVrotateY
p619
aVrotateZ
p620
aaF0
aF0
aF0
aF0
aF0
aF34.738697452637538
aa(lp621
S'index_finger_fk_ctrl_3_r'
p622
a(lp623
VtranslateX
p624
aVtranslateY
p625
aVtranslateZ
p626
aVrotateX
p627
aVrotateY
p628
aVrotateZ
p629
aaF0
aF0
aF0
aF0
aF0
aF33.683086789999997
aa(lp630
S'thumb_finger_fk_ctrl_1_l'
p631
a(lp632
VtranslateX
p633
aVtranslateY
p634
aVtranslateZ
p635
aVrotateX
p636
aVrotateY
p637
aVrotateZ
p638
aVsticky
p639
aaF0
aF0
aF0
aF-1.6132445701425655
aF3.3394170189675108
aF-6.2483177351023915
aF0
aa(lp640
S'thumb_finger_fk_ctrl_1_r'
p641
a(lp642
VtranslateX
p643
aVtranslateY
p644
aVtranslateZ
p645
aVrotateX
p646
aVrotateY
p647
aVrotateZ
p648
aVsticky
p649
aaF0
aF0
aF0
aF49.119977779999999
aF16.498442799999999
aF7.3444444829999993
aF0
aa(lp650
S'thumb_finger_fk_ctrl_2_l'
p651
a(lp652
VtranslateX
p653
aVtranslateY
p654
aVtranslateZ
p655
aVrotateX
p656
aVrotateY
p657
aVrotateZ
p658
aaF0
aF0
aF0
aF0
aF0
aF22.740201961266425
aa(lp659
S'thumb_finger_fk_ctrl_2_r'
p660
a(lp661
VtranslateX
p662
aVtranslateY
p663
aVtranslateZ
p664
aVrotateX
p665
aVrotateY
p666
aVrotateZ
p667
aaF0
aF0
aF0
aF0
aF0
aF33.683086789999997
aa(lp668
S'thumb_finger_fk_ctrl_3_l'
p669
a(lp670
VtranslateX
p671
aVtranslateY
p672
aVtranslateZ
p673
aVrotateX
p674
aVrotateY
p675
aVrotateZ
p676
aaF0
aF0
aF0
aF0
aF0
aF29.051393697459307
aa(lp677
S'thumb_finger_fk_ctrl_3_r'
p678
a(lp679
VtranslateX
p680
aVtranslateY
p681
aVtranslateZ
p682
aVrotateX
p683
aVrotateY
p684
aVrotateZ
p685
aaF0
aF0
aF0
aF0
aF0
aF33.683086789999997
aa(lp686
S'index_l_ik_anim'
p687
a(lp688
VtranslateX
p689
aVtranslateY
p690
aVtranslateZ
p691
aVrotateX
p692
aVrotateY
p693
aVrotateZ
p694
aVpoleVectorVis
p695
aaF0
aF0
aF0
aF0
aF0
aF0
aF0
aa(lp696
S'index_r_ik_anim'
p697
a(lp698
VtranslateX
p699
aVtranslateY
p700
aVtranslateZ
p701
aVrotateX
p702
aVrotateY
p703
aVrotateZ
p704
aVpoleVectorVis
p705
aaF0
aF0
aF0
aF0
aF0
aF0
aF0
aa(lp706
S'middle_l_ik_anim'
p707
a(lp708
VtranslateX
p709
aVtranslateY
p710
aVtranslateZ
p711
aVrotateX
p712
aVrotateY
p713
aVrotateZ
p714
aVpoleVectorVis
p715
aaF0
aF0
aF0
aF0
aF0
aF0
aF0
aa(lp716
S'middle_r_ik_anim'
p717
a(lp718
VtranslateX
p719
aVtranslateY
p720
aVtranslateZ
p721
aVrotateX
p722
aVrotateY
p723
aVrotateZ
p724
aVpoleVectorVis
p725
aaF0
aF0
aF0
aF0
aF0
aF0
aF0
aa(lp726
S'ring_l_ik_anim'
p727
a(lp728
VtranslateX
p729
aVtranslateY
p730
aVtranslateZ
p731
aVrotateX
p732
aVrotateY
p733
aVrotateZ
p734
aVpoleVectorVis
p735
aaF0
aF0
aF0
aF0
aF0
aF0
aF0
aa(lp736
S'ring_r_ik_anim'
p737
a(lp738
VtranslateX
p739
aVtranslateY
p740
aVtranslateZ
p741
aVrotateX
p742
aVrotateY
p743
aVrotateZ
p744
aVpoleVectorVis
p745
aaF0
aF0
aF0
aF0
aF0
aF0
aF0
aa(lp746
S'pinky_l_ik_anim'
p747
a(lp748
VtranslateX
p749
aVtranslateY
p750
aVtranslateZ
p751
aVrotateX
p752
aVrotateY
p753
aVrotateZ
p754
aVpoleVectorVis
p755
aaF0
aF0
aF0
aF0
aF0
aF0
aF0
aa(lp756
S'pinky_r_ik_anim'
p757
a(lp758
VtranslateX
p759
aVtranslateY
p760
aVtranslateZ
p761
aVrotateX
p762
aVrotateY
p763
aVrotateZ
p764
aVpoleVectorVis
p765
aaF0
aF0
aF0
aF0
aF0
aF0
aF0
aa(lp766
S'thumb_l_ik_anim'
p767
a(lp768
VtranslateX
p769
aVtranslateY
p770
aVtranslateZ
p771
aVrotateX
p772
aVrotateY
p773
aVrotateZ
p774
aVpoleVectorVis
p775
aaF0
aF0
aF0
aF0
aF0
aF0
aF0
aa(lp776
S'thumb_r_ik_anim'
p777
a(lp778
VtranslateX
p779
aVtranslateY
p780
aVtranslateZ
p781
aVrotateX
p782
aVrotateY
p783
aVrotateZ
p784
aVpoleVectorVis
p785
aaF0
aF0
aF0
aF0
aF0
aF0
aF0
aa(lp786
S'index_l_poleVector'
p787
a(lp788
VtranslateX
p789
aVtranslateY
p790
aVtranslateZ
p791
aVrotateX
p792
aVrotateY
p793
aVrotateZ
p794
aaF0
aF0
aF0
aF0
aF0
aF0
aa(lp795
S'index_r_poleVector'
p796
a(lp797
VtranslateX
p798
aVtranslateY
p799
aVtranslateZ
p800
aVrotateX
p801
aVrotateY
p802
aVrotateZ
p803
aaF0
aF0
aF0
aF0
aF0
aF0
aa(lp804
S'middle_l_poleVector'
p805
a(lp806
VtranslateX
p807
aVtranslateY
p808
aVtranslateZ
p809
aVrotateX
p810
aVrotateY
p811
aVrotateZ
p812
aaF0
aF0
aF0
aF0
aF0
aF0
aa(lp813
S'middle_r_poleVector'
p814
a(lp815
VtranslateX
p816
aVtranslateY
p817
aVtranslateZ
p818
aVrotateX
p819
aVrotateY
p820
aVrotateZ
p821
aaF0
aF0
aF0
aF0
aF0
aF0
aa(lp822
S'ring_l_poleVector'
p823
a(lp824
VtranslateX
p825
aVtranslateY
p826
aVtranslateZ
p827
aVrotateX
p828
aVrotateY
p829
aVrotateZ
p830
aaF0
aF0
aF0
aF0
aF0
aF0
aa(lp831
S'ring_r_poleVector'
p832
a(lp833
VtranslateX
p834
aVtranslateY
p835
aVtranslateZ
p836
aVrotateX
p837
aVrotateY
p838
aVrotateZ
p839
aaF0
aF0
aF0
aF0
aF0
aF0
aa(lp840
S'pinky_l_poleVector'
p841
a(lp842
VtranslateX
p843
aVtranslateY
p844
aVtranslateZ
p845
aVrotateX
p846
aVrotateY
p847
aVrotateZ
p848
aaF0
aF0
aF0
aF0
aF0
aF0
aa(lp849
S'pinky_r_poleVector'
p850
a(lp851
VtranslateX
p852
aVtranslateY
p853
aVtranslateZ
p854
aVrotateX
p855
aVrotateY
p856
aVrotateZ
p857
aaF0
aF0
aF0
aF0
aF0
aF0
aa(lp858
S'thumb_l_poleVector'
p859
a(lp860
VtranslateX
p861
aVtranslateY
p862
aVtranslateZ
p863
aVrotateX
p864
aVrotateY
p865
aVrotateZ
p866
aaF0
aF0
aF0
aF0
aF0
aF0
aa(lp867
S'thumb_r_poleVector'
p868
a(lp869
VtranslateX
p870
aVtranslateY
p871
aVtranslateZ
p872
aVrotateX
p873
aVrotateY
p874
aVrotateZ
p875
aaF0
aF0
aF0
aF0
aF0
aF0
aa(lp876
S'l_global_ik_anim'
p877
a(lp878
VtranslateX
p879
aVtranslateY
p880
aVtranslateZ
p881
aVrotateX
p882
aVrotateY
p883
aVrotateZ
p884
aaF0
aF0
aF0
aF0
aF0
aF0
aa(lp885
S'r_global_ik_anim'
p886
a(lp887
VtranslateX
p888
aVtranslateY
p889
aVtranslateZ
p890
aVrotateX
p891
aVrotateY
p892
aVrotateZ
p893
aaF0
aF0
aF0
aF0
aF0
aF0
aa(lp894
S'Rig_Settings'
p895
a(lp896
Vspine_ik
p897
aVspine_fk
p898
aVlLegMode
p899
aVlThighTwistAmount
p900
aVlCalfTwistAmount
p901
aVrLegMode
p902
aVrThighTwistAmount
p903
aVrCalfTwistAmount
p904
aVlFkArmOrient
p905
aVlArmMode
p906
aVlClavMode
p907
aVltwistCtrlVis
p908
aVlUpperarmTwistAmount
p909
aVltwistCtrlVisLower
p910
aVlForearmTwistAmount
p911
aVrFkArmOrient
p912
aVrArmMode
p913
aVrClavMode
p914
aVrtwistCtrlVis
p915
aVrUpperarmTwistAmount
p916
aVrtwistCtrlVisLower
p917
aVrForearmTwistAmount
p918
aVhood_fk
p919
aVhood_ik
p920
aVhood_dynamic
p921
aaF1
aF0
aI1
aF0.90000000000000002
aF0.5
aI1
aF0.90000000000000002
aF0.5
aI2
aI0
aI1
aI00
aF0.59999999999999998
aI00
aF0.5
aI2
aI1
aI1
aI00
aF0
aI00
aF0.5
aF1
aF0
aF0
aa(lp922
Vjaw_anim
p923
a(lp924
VtranslateX
p925
aVtranslateY
p926
aVtranslateZ
p927
aVrotateX
p928
aVrotateY
p929
aVrotateZ
p930
aVscaleX
p931
aVscaleY
p932
aVscaleZ
p933
aaF0
aF0
aF0
aF-13.209378161868626
aF-6.3381560018664302
aF-19.915999595490565
aF1
aF1
aF1
aa(lp934
Vbelly_anim
p935
a(lp936
VtranslateX
p937
aVtranslateY
p938
aVtranslateZ
p939
aVrotateX
p940
aVrotateY
p941
aVrotateZ
p942
aVchainAttach
p943
aVchainStartEnvelope
p944
aVchainStartFrame
p945
aVchainStiffness
p946
aVchainDamping
p947
aVchainGravity
p948
aVchainIteration
p949
aVchainCollide
p950
aVchainWidthBase
p951
aVchainWidthExtremity
p952
aVchainCollideGround
p953
aVchainCollideGroundHeight
p954
aaF0
aF0
aF0
aF0
aF0
aF0
aI0
aF0
aF0
aF0
aF0
aF0
aI0
aI00
aF0
aF0
aI00
aF0
aa(lp955
Vpectoral_l_anim
p956
a(lp957
VtranslateX
p958
aVtranslateY
p959
aVtranslateZ
p960
aVrotateX
p961
aVrotateY
p962
aVrotateZ
p963
aVchainAttach
p964
aVchainStartEnvelope
p965
aVchainStartFrame
p966
aVchainStiffness
p967
aVchainDamping
p968
aVchainGravity
p969
aVchainIteration
p970
aVchainCollide
p971
aVchainWidthBase
p972
aVchainWidthExtremity
p973
aVchainCollideGround
p974
aVchainCollideGroundHeight
p975
aaF0
aF0
aF2.0783561779122306
aF0
aF0
aF0
aI0
aF0
aF0
aF0
aF0
aF0
aI0
aI00
aF0
aF0
aI00
aF0
aa(lp976
Vpectoral_r_anim
p977
a(lp978
VtranslateX
p979
aVtranslateY
p980
aVtranslateZ
p981
aVrotateX
p982
aVrotateY
p983
aVrotateZ
p984
aVchainAttach
p985
aVchainStartEnvelope
p986
aVchainStartFrame
p987
aVchainStiffness
p988
aVchainDamping
p989
aVchainGravity
p990
aVchainIteration
p991
aVchainCollide
p992
aVchainWidthBase
p993
aVchainWidthExtremity
p994
aVchainCollideGround
p995
aVchainCollideGroundHeight
p996
aaF0
aF0
aF0
aF0
aF0
aF0
aI0
aF0
aF0
aF0
aF0
aF0
aI0
aI00
aF0
aF0
aI00
aF0
aa(lp997
Vhood_dyn_anim
p998
a(lp999
VtranslateX
p1000
aVtranslateY
p1001
aVtranslateZ
p1002
aVrotateX
p1003
aVrotateY
p1004
aVrotateZ
p1005
aVchainAttach
p1006
aVchainStartEnvelope
p1007
aVchainStartFrame
p1008
aVchainStiffness
p1009
aVchainDamping
p1010
aVchainGravity
p1011
aVchainIteration
p1012
aVchainCollide
p1013
aVchainWidthBase
p1014
aVchainWidthExtremity
p1015
aVchainCollideGround
p1016
aVchainCollideGroundHeight
p1017
aaF0
aF0
aF0
aF0
aF0
aF0
aI0
aF0
aF0
aF0
aF0
aF0
aI0
aI00
aF0
aF0
aI00
aF0
aa(lp1018
Vhood_ik_2_anim
p1019
a(lp1020
VtranslateX
p1021
aVtranslateY
p1022
aVtranslateZ
p1023
aVrotateX
p1024
aVrotateY
p1025
aVrotateZ
p1026
aaF0
aF0
aF0
aF0
aF0
aF0
aa(lp1027
Vhood_ik_3_anim
p1028
a(lp1029
VtranslateX
p1030
aVtranslateY
p1031
aVtranslateZ
p1032
aVrotateX
p1033
aVrotateY
p1034
aVrotateZ
p1035
aVclusterControlVis
p1036
aaF0
aF0
aF0
aF0
aF0
aF0
aI00
aa(lp1037
Vhood_ik_base_anim
p1038
a(lp1039
VtranslateX
p1040
aVtranslateY
p1041
aVtranslateZ
p1042
aVrotateX
p1043
aVrotateY
p1044
aVrotateZ
p1045
aVglobal_scale
p1046
aVglobal_scale
p1047
aaF0
aF0
aF0
aF0
aF0
aF0
aF9.9999999999999998e-13
aF9.9999999999999998e-13
aa(lp1048
Vfk_hood_01_anim
p1049
a(lp1050
VtranslateX
p1051
aVtranslateY
p1052
aVtranslateZ
p1053
aVrotateX
p1054
aVrotateY
p1055
aVrotateZ
p1056
aVglobal_scale
p1057
aVlagMode
p1058
aVglobal_scale
p1059
aaF0
aF0
aF0
aF0
aF0
aF0
aF1
aF0
aF1
aa(lp1060
Vhood_cv_0_anim
p1061
a(lp1062
VtranslateX
p1063
aVtranslateY
p1064
aVtranslateZ
p1065
aaF0
aF0
aF0
aa(lp1066
Vfk_hood_02_anim
p1067
a(lp1068
VtranslateX
p1069
aVtranslateY
p1070
aVtranslateZ
p1071
aVrotateX
p1072
aVrotateY
p1073
aVrotateZ
p1074
aaF0
aF0
aF0
aF0
aF0
aF0
aa(lp1075
Vhood_cv_1_anim
p1076
a(lp1077
VtranslateX
p1078
aVtranslateY
p1079
aVtranslateZ
p1080
aaF0
aF0
aF0
aa(lp1081
Vfk_hood_03_anim
p1082
a(lp1083
VtranslateX
p1084
aVtranslateY
p1085
aVtranslateZ
p1086
aVrotateX
p1087
aVrotateY
p1088
aVrotateZ
p1089
aaF0
aF0
aF0
aF0
aF0
aF0
aa(lp1090
Vhood_cv_2_anim
p1091
a(lp1092
VtranslateX
p1093
aVtranslateY
p1094
aVtranslateZ
p1095
aaF0
aF0
aF0
aa(lp1096
Vweapon_r_anim
p1097
a(lp1098
VtranslateX
p1099
aVtranslateY
p1100
aVtranslateZ
p1101
aVrotateX
p1102
aVrotateY
p1103
aVrotateZ
p1104
aVscaleX
p1105
aVscaleY
p1106
aVscaleZ
p1107
aaF-10.430118234443142
aF62.345824184164179
aF-1.5497240950284237
aF-88.466894774726512
aF10.934018386342045
aF169.19720623173436
aF1
aF1
aF1
aa(lp1108
Vsleeve_r_anim
p1109
a(lp1110
VtranslateX
p1111
aVtranslateY
p1112
aVtranslateZ
p1113
aVrotateX
p1114
aVrotateY
p1115
aVrotateZ
p1116
aVscaleX
p1117
aVscaleY
p1118
aVscaleZ
p1119
aaF7.1054274000000004e-15
aF-1.3322676000000001e-15
aF0
aF-1.9878467e-16
aF-0
aF-1.3278195e-16
aF1
aF1
aF1
aa(lp1120
Vsleeve_l_anim
p1121
a(lp1122
VtranslateX
p1123
aVtranslateY
p1124
aVtranslateZ
p1125
aVrotateX
p1126
aVrotateY
p1127
aVrotateZ
p1128
aVscaleX
p1129
aVscaleY
p1130
aVscaleZ
p1131
aaF-7.1054274000000004e-15
aF4.4408921000000003e-16
aF0
aF0
aF4.9696167000000001e-17
aF-4.6590156000000002e-18
aF1
aF1
aF1
aa(lp1132
Vshirt_front_anim
p1133
a(lp1134
VtranslateX
p1135
aVtranslateY
p1136
aVtranslateZ
p1137
aVrotateX
p1138
aVrotateY
p1139
aVrotateZ
p1140
aVscaleX
p1141
aVscaleY
p1142
aVscaleZ
p1143
aaF-0.043976107479999998
aF0.28391577280000002
aF-0.35864640889999999
aF0
aF4.9026800010000002
aF7.5830332999999997e-22
aF1
aF1
aF1
aa(lp1144
Vshirt_back_anim
p1145
a(lp1146
VtranslateX
p1147
aVtranslateY
p1148
aVtranslateZ
p1149
aVrotateX
p1150
aVrotateY
p1151
aVrotateZ
p1152
aVscaleX
p1153
aVscaleY
p1154
aVscaleZ
p1155
aaF0.001791493569
aF-3.5527137000000002e-15
aF-2.6672189830000002
aF0
aF-0.76365502389999995
aF7.5830332999999997e-22
aF1
aF1
aF1
aa(lp1156
Vshirt_l_anim
p1157
a(lp1158
VtranslateX
p1159
aVtranslateY
p1160
aVtranslateZ
p1161
aVrotateX
p1162
aVrotateY
p1163
aVrotateZ
p1164
aVscaleX
p1165
aVscaleY
p1166
aVscaleZ
p1167
aaF-0.73930806410000005
aF-0.61354462519999997
aF0.66826461069999998
aF1.204283212
aF3.1479227669999998
aF-1.40252274
aF1
aF1
aF1
aa(lp1168
Vshirt_r_anim
p1169
a(lp1170
VtranslateX
p1171
aVtranslateY
p1172
aVtranslateZ
p1173
aVrotateX
p1174
aVrotateY
p1175
aVrotateZ
p1176
aVscaleX
p1177
aVscaleY
p1178
aVscaleZ
p1179
aaF0
aF0
aF1.549056005
aF7.9513866999999998e-16
aF-0
aF0
aF1
aF1
aF1
aa(lp1180
Vspine_adj_01_anim
p1181
a(lp1182
VtranslateX
p1183
aVtranslateY
p1184
aVtranslateZ
p1185
aVrotateX
p1186
aVrotateY
p1187
aVrotateZ
p1188
aVscaleX
p1189
aVscaleY
p1190
aVscaleZ
p1191
aaF0
aF0
aF0
aF7.5830332999999997e-22
aF-0
aF0
aF1
aF1
aF1
aa(lp1192
Vspine_adj_02_anim
p1193
a(lp1194
VtranslateX
p1195
aVtranslateY
p1196
aVtranslateZ
p1197
aVrotateX
p1198
aVrotateY
p1199
aVrotateZ
p1200
aVscaleX
p1201
aVscaleY
p1202
aVscaleZ
p1203
aaF1.4210855000000001e-14
aF4.5742326359999996
aF2.7755576000000003e-17
aF3.0332133000000002e-21
aF2.4265706e-20
aF0
aF1
aF1
aF1
aa(lp1204
Vspine_adj_03_anim
p1205
a(lp1206
VtranslateX
p1207
aVtranslateY
p1208
aVtranslateZ
p1209
aVrotateX
p1210
aVrotateY
p1211
aVrotateZ
p1212
aVscaleX
p1213
aVscaleY
p1214
aVscaleZ
p1215
aaF0
aF0
aF0
aF-2.9621223999999998e-23
aF-0
aF1.5902773e-15
aF1
aF1
aF1
aa(lp1216
Vshirt_mstr_anim
p1217
a(lp1218
VtranslateX
p1219
aVtranslateY
p1220
aVtranslateZ
p1221
aVrotateX
p1222
aVrotateY
p1223
aVrotateZ
p1224
aVscaleX
p1225
aVscaleY
p1226
aVscaleZ
p1227
aaF0.1211136645
aF0.01288804964
aF-0.89277410339999996
aF-7.5830332999999997e-22
aF-7.7686651949999996
aF6.0741484789999998
aF1
aF1
aF1
aa(lp1228
Vcowl_front_anim
p1229
a(lp1230
VtranslateX
p1231
aVtranslateY
p1232
aVtranslateZ
p1233
aVrotateX
p1234
aVrotateY
p1235
aVrotateZ
p1236
aVscaleX
p1237
aVscaleY
p1238
aVscaleZ
p1239
aaF-2.8421708999999999e-14
aF0
aF0
aF-8.8863671000000004e-23
aF-0
aF1.5902773e-15
aF1
aF1
aF1
aa(lp1240
Vcowl_left_anim
p1241
a(lp1242
VtranslateX
p1243
aVtranslateY
p1244
aVtranslateZ
p1245
aVrotateX
p1246
aVrotateY
p1247
aVrotateZ
p1248
aVscaleX
p1249
aVscaleY
p1250
aVscaleZ
p1251
aaF0
aF0
aF0
aF-8.8863671000000004e-23
aF-0
aF1.5902773e-15
aF1
aF1
aF1
aa(lp1252
Vcowl_right_anim
p1253
a(lp1254
VtranslateX
p1255
aVtranslateY
p1256
aVtranslateZ
p1257
aVrotateX
p1258
aVrotateY
p1259
aVrotateZ
p1260
aVscaleX
p1261
aVscaleY
p1262
aVscaleZ
p1263
aaF0
aF0
aF0
aF-8.8863671000000004e-23
aF-0
aF1.5902773e-15
aF1
aF1
aF1
aa(lp1264
Vbody_anim_space_switcher
p1265
a(lp1266
Vvisibility
p1267
aVtranslateX
p1268
aVtranslateY
p1269
aVtranslateZ
p1270
aVrotateX
p1271
aVrotateY
p1272
aVrotateZ
p1273
aVscaleX
p1274
aVscaleY
p1275
aVscaleZ
p1276
aVspace_world
p1277
aaI01
aF0
aF0
aF0
aF0
aF0
aF0
aF1
aF1
aF1
aF0
aa(lp1278
Vchest_ik_anim_space_switcher
p1279
a(lp1280
Vvisibility
p1281
aVtranslateX
p1282
aVtranslateY
p1283
aVtranslateZ
p1284
aVrotateX
p1285
aVrotateY
p1286
aVrotateZ
p1287
aVscaleX
p1288
aVscaleY
p1289
aVscaleZ
p1290
aVspace_world
p1291
aVspace_chest_ik_world_aligned
p1292
aaI01
aF0
aF0
aF0
aF0
aF0
aF0
aF1
aF1
aF1
aF0
aF1
aa(lp1293
Vcowl_front_anim_space_switcher
p1294
a(lp1295
Vvisibility
p1296
aVtranslateX
p1297
aVtranslateY
p1298
aVtranslateZ
p1299
aVrotateX
p1300
aVrotateY
p1301
aVrotateZ
p1302
aVscaleX
p1303
aVscaleY
p1304
aVscaleZ
p1305
aVspace_world
p1306
aaI01
aF-2.8421708999999999e-14
aF-7.1054274000000004e-15
aF0
aF-8.8863671000000004e-23
aF-0
aF1.5902773e-15
aF1
aF1
aF1
aF0
aa(lp1307
Vcowl_left_anim_space_switcher
p1308
a(lp1309
Vvisibility
p1310
aVtranslateX
p1311
aVtranslateY
p1312
aVtranslateZ
p1313
aVrotateX
p1314
aVrotateY
p1315
aVrotateZ
p1316
aVscaleX
p1317
aVscaleY
p1318
aVscaleZ
p1319
aVspace_world
p1320
aaI01
aF-2.8421708999999999e-14
aF3.5527137000000002e-15
aF-1.7763567999999999e-15
aF-8.8863671000000004e-23
aF-0
aF1.5902773e-15
aF1
aF1
aF1
aF0
aa(lp1321
Vcowl_right_anim_space_switcher
p1322
a(lp1323
Vvisibility
p1324
aVtranslateX
p1325
aVtranslateY
p1326
aVtranslateZ
p1327
aVrotateX
p1328
aVrotateY
p1329
aVrotateZ
p1330
aVscaleX
p1331
aVscaleY
p1332
aVscaleZ
p1333
aVspace_world
p1334
aaI01
aF2.8421708999999999e-14
aF3.5527137000000002e-15
aF1.7763567999999999e-15
aF-8.8863671000000004e-23
aF-0
aF1.5902773e-15
aF1
aF1
aF1
aF0
aa(lp1335
Vik_elbow_l_anim_space_switcher
p1336
a(lp1337
Vvisibility
p1338
aVtranslateX
p1339
aVtranslateY
p1340
aVtranslateZ
p1341
aVrotateX
p1342
aVrotateY
p1343
aVrotateZ
p1344
aVscaleX
p1345
aVscaleY
p1346
aVscaleZ
p1347
aVspace_world
p1348
aVspace_body_anim
p1349
aVspace_chest_ik_anim
p1350
aaI00
aF0
aF0
aF0
aF0
aF0
aF0
aF1
aF1
aF1
aF0
aF0
aF0
aa(lp1351
Vik_elbow_r_anim_space_switcher
p1352
a(lp1353
Vvisibility
p1354
aVtranslateX
p1355
aVtranslateY
p1356
aVtranslateZ
p1357
aVrotateX
p1358
aVrotateY
p1359
aVrotateZ
p1360
aVscaleX
p1361
aVscaleY
p1362
aVscaleZ
p1363
aVspace_world
p1364
aVspace_body_anim
p1365
aVspace_chest_ik_anim
p1366
aaI01
aF0
aF0
aF0
aF0
aF0
aF0
aF1
aF1
aF1
aF0
aF0
aF0
aa(lp1367
Vik_foot_anim_l_space_switcher
p1368
a(lp1369
Vvisibility
p1370
aVtranslateX
p1371
aVtranslateY
p1372
aVtranslateZ
p1373
aVrotateX
p1374
aVrotateY
p1375
aVrotateZ
p1376
aVscaleX
p1377
aVscaleY
p1378
aVscaleZ
p1379
aVspace_world
p1380
aVspace_body_anim
p1381
aaI01
aF0
aF0
aF0
aF0
aF0
aF0
aF1
aF1
aF1
aF0
aF0
aa(lp1382
Vik_foot_anim_r_space_switcher
p1383
a(lp1384
Vvisibility
p1385
aVtranslateX
p1386
aVtranslateY
p1387
aVtranslateZ
p1388
aVrotateX
p1389
aVrotateY
p1390
aVrotateZ
p1391
aVscaleX
p1392
aVscaleY
p1393
aVscaleZ
p1394
aVspace_world
p1395
aVspace_body_anim
p1396
aaI01
aF0
aF0
aF0
aF0
aF0
aF0
aF1
aF1
aF1
aF0
aF0
aa(lp1397
Vik_wrist_l_anim_space_switcher
p1398
a(lp1399
Vvisibility
p1400
aVtranslateX
p1401
aVtranslateY
p1402
aVtranslateZ
p1403
aVrotateX
p1404
aVrotateY
p1405
aVrotateZ
p1406
aVscaleX
p1407
aVscaleY
p1408
aVscaleZ
p1409
aVspace_world
p1410
aVspace_body_anim
p1411
aVspace_head_fk_anim
p1412
aVspace_chest_ik_anim
p1413
aaI00
aF0
aF0
aF0
aF0
aF0
aF0
aF1
aF1
aF1
aF0
aF1
aF0
aF0
aa(lp1414
Vik_wrist_r_anim_space_switcher
p1415
a(lp1416
Vvisibility
p1417
aVtranslateX
p1418
aVtranslateY
p1419
aVtranslateZ
p1420
aVrotateX
p1421
aVrotateY
p1422
aVrotateZ
p1423
aVscaleX
p1424
aVscaleY
p1425
aVscaleZ
p1426
aVspace_world
p1427
aVspace_body_anim
p1428
aVspace_head_fk_anim
p1429
aVspace_chest_ik_anim
p1430
aaI01
aF0
aF0
aF0
aF0
aF0
aF0
aF1
aF1
aF1
aF1
aF0
aF0
aF0
aa(lp1431
Vjaw_anim_space_switcher
p1432
a(lp1433
Vvisibility
p1434
aVtranslateX
p1435
aVtranslateY
p1436
aVtranslateZ
p1437
aVrotateX
p1438
aVrotateY
p1439
aVrotateZ
p1440
aVscaleX
p1441
aVscaleY
p1442
aVscaleZ
p1443
aVspace_world
p1444
aaI01
aF0
aF0
aF0
aF0
aF0
aF0
aF1
aF1
aF1
aF0
aa(lp1445
Vl_global_ik_anim_space_switcher
p1446
a(lp1447
Vvisibility
p1448
aVtranslateX
p1449
aVtranslateY
p1450
aVtranslateZ
p1451
aVrotateX
p1452
aVrotateY
p1453
aVrotateZ
p1454
aVscaleX
p1455
aVscaleY
p1456
aVscaleZ
p1457
aVspace_world
p1458
aaI01
aF0
aF0
aF0
aF0
aF0
aF0
aF1
aF1
aF1
aF0
aa(lp1459
Vmaster_anim_space_switcher
p1460
a(lp1461
Vvisibility
p1462
aVtranslateX
p1463
aVtranslateY
p1464
aVtranslateZ
p1465
aVrotateX
p1466
aVrotateY
p1467
aVrotateZ
p1468
aVscaleX
p1469
aVscaleY
p1470
aVscaleZ
p1471
aVspace_world
p1472
aaI01
aF0
aF0
aF0
aF0
aF0
aF0
aF1
aF1
aF1
aF0
aa(lp1473
Vr_global_ik_anim_space_switcher
p1474
a(lp1475
Vvisibility
p1476
aVtranslateX
p1477
aVtranslateY
p1478
aVtranslateZ
p1479
aVrotateX
p1480
aVrotateY
p1481
aVrotateZ
p1482
aVscaleX
p1483
aVscaleY
p1484
aVscaleZ
p1485
aVspace_world
p1486
aaI01
aF0
aF0
aF0
aF0
aF0
aF0
aF1
aF1
aF1
aF0
aa(lp1487
Vshirt_back_anim_space_switcher
p1488
a(lp1489
Vvisibility
p1490
aVtranslateX
p1491
aVtranslateY
p1492
aVtranslateZ
p1493
aVrotateX
p1494
aVrotateY
p1495
aVrotateZ
p1496
aVscaleX
p1497
aVscaleY
p1498
aVscaleZ
p1499
aVspace_world
p1500
aaI01
aF0
aF-1.7763567999999999e-15
aF1.4210855000000001e-14
aF0
aF1.2132853e-20
aF0
aF1
aF1
aF1
aF0
aa(lp1501
Vshirt_front_anim_space_switcher
p1502
a(lp1503
Vvisibility
p1504
aVtranslateX
p1505
aVtranslateY
p1506
aVtranslateZ
p1507
aVrotateX
p1508
aVrotateY
p1509
aVrotateZ
p1510
aVscaleX
p1511
aVscaleY
p1512
aVscaleZ
p1513
aVspace_world
p1514
aaI01
aF0
aF0
aF1.4210855000000001e-14
aF0
aF1.2132853e-20
aF0
aF1
aF1
aF1
aF0
aa(lp1515
Vshirt_l_anim_space_switcher
p1516
a(lp1517
Vvisibility
p1518
aVtranslateX
p1519
aVtranslateY
p1520
aVtranslateZ
p1521
aVrotateX
p1522
aVrotateY
p1523
aVrotateZ
p1524
aVscaleX
p1525
aVscaleY
p1526
aVscaleZ
p1527
aVspace_world
p1528
aaI01
aF0
aF-8.8817842000000006e-16
aF1.4210855000000001e-14
aF0
aF1.2132853e-20
aF0
aF1
aF1
aF1
aF0
aa(lp1529
Vshirt_mstr_anim_space_switcher
p1530
a(lp1531
Vvisibility
p1532
aVtranslateX
p1533
aVtranslateY
p1534
aVtranslateZ
p1535
aVrotateX
p1536
aVrotateY
p1537
aVrotateZ
p1538
aVscaleX
p1539
aVscaleY
p1540
aVscaleZ
p1541
aVspace_world
p1542
aaI01
aF-1.4210855000000001e-14
aF0
aF2.7755576000000003e-17
aF-7.5830332999999997e-22
aF1.2132853e-20
aF0
aF1
aF1
aF1
aF0
aa(lp1543
Vshirt_r_anim_space_switcher
p1544
a(lp1545
Vvisibility
p1546
aVtranslateX
p1547
aVtranslateY
p1548
aVtranslateZ
p1549
aVrotateX
p1550
aVrotateY
p1551
aVrotateZ
p1552
aVscaleX
p1553
aVscaleY
p1554
aVscaleZ
p1555
aVspace_world
p1556
aaI01
aF0
aF8.8817842000000006e-16
aF-1.4210855000000001e-14
aF0
aF-1.2132853e-20
aF0
aF1
aF1
aF1
aF0
aa(lp1557
Vsleeve_l_anim_space_switcher
p1558
a(lp1559
Vvisibility
p1560
aVtranslateX
p1561
aVtranslateY
p1562
aVtranslateZ
p1563
aVrotateX
p1564
aVrotateY
p1565
aVrotateZ
p1566
aVscaleX
p1567
aVscaleY
p1568
aVscaleZ
p1569
aVspace_world
p1570
aaI01
aF7.1054274000000004e-15
aF-4.4408921000000003e-16
aF2.8421708999999999e-14
aF0
aF4.9696167000000001e-17
aF-5.4355183000000002e-18
aF1
aF1
aF1
aF0
aa(lp1571
Vsleeve_r_anim_space_switcher
p1572
a(lp1573
Vvisibility
p1574
aVtranslateX
p1575
aVtranslateY
p1576
aVtranslateZ
p1577
aVrotateX
p1578
aVrotateY
p1579
aVrotateZ
p1580
aVscaleX
p1581
aVscaleY
p1582
aVscaleZ
p1583
aVspace_world
p1584
aaI01
aF0
aF4.4408921000000003e-16
aF0
aF0
aF-0
aF6.6779223999999994e-17
aF1
aF1
aF1
aF0
aa(lp1585
Vspine_01_space_switcher
p1586
a(lp1587
Vvisibility
p1588
aVtranslateX
p1589
aVtranslateY
p1590
aVtranslateZ
p1591
aVrotateX
p1592
aVrotateY
p1593
aVrotateZ
p1594
aVscaleX
p1595
aVscaleY
p1596
aVscaleZ
p1597
aVspace_world
p1598
aaI01
aF0
aF0
aF0
aF0
aF0
aF0
aF1
aF1
aF1
aF0
aa(lp1599
Vspine_adj_01_anim_space_switcher
p1600
a(lp1601
Vvisibility
p1602
aVtranslateX
p1603
aVtranslateY
p1604
aVtranslateZ
p1605
aVrotateX
p1606
aVrotateY
p1607
aVrotateZ
p1608
aVscaleX
p1609
aVscaleY
p1610
aVscaleZ
p1611
aVspace_world
p1612
aaI01
aF-1.4210855000000001e-14
aF0
aF2.7755576000000003e-17
aF7.5830332999999997e-22
aF-0
aF0
aF1
aF1
aF1
aF0
aa(lp1613
Vspine_adj_02_anim_space_switcher
p1614
a(lp1615
Vvisibility
p1616
aVtranslateX
p1617
aVtranslateY
p1618
aVtranslateZ
p1619
aVrotateX
p1620
aVrotateY
p1621
aVrotateZ
p1622
aVscaleX
p1623
aVscaleY
p1624
aVscaleZ
p1625
aVspace_world
p1626
aaI01
aF0
aF1.7763567999999999e-15
aF0
aF1.5166067000000001e-21
aF1.2132853e-20
aF7.9513866999999998e-16
aF1
aF1
aF1
aF0
aa(lp1627
Vspine_adj_03_anim_space_switcher
p1628
a(lp1629
Vvisibility
p1630
aVtranslateX
p1631
aVtranslateY
p1632
aVtranslateZ
p1633
aVrotateX
p1634
aVrotateY
p1635
aVrotateZ
p1636
aVscaleX
p1637
aVscaleY
p1638
aVscaleZ
p1639
aVspace_world
p1640
aaI01
aF0
aF0
aF-2.7755576000000003e-17
aF-2.9621223999999998e-23
aF-0
aF1.5902773e-15
aF1
aF1
aF1
aF0
aa(lp1641
Vweapon_r_anim_space_switcher
p1642
a(lp1643
Vvisibility
p1644
aVtranslateX
p1645
aVtranslateY
p1646
aVtranslateZ
p1647
aVrotateX
p1648
aVrotateY
p1649
aVrotateZ
p1650
aVscaleX
p1651
aVscaleY
p1652
aVscaleZ
p1653
aVspace_world
p1654
aaI01
aF0
aF0
aF0
aF0
aF-0
aF2.4265706e-20
aF1
aF1
aF1
aF0
aa.