(lp1
(lp2
S'head_fk_anim'
p3
a(lp4
VtranslateX
p5
aVtranslateY
p6
aVtranslateZ
p7
aVrotateX
p8
aVrotateY
p9
aVrotateZ
p10
aVscaleX
p11
aVscaleY
p12
aVscaleZ
p13
aVfkOrientation
p14
aaF-0.13905066461693316
aF0
aF0
aF-6.8194885586818934
aF14.614438860593696
aF-26.280990988691681
aF1
aF1
aF1
aI3
aa(lp15
S'neck_01_fk_anim'
p16
a(lp17
VtranslateX
p18
aVtranslateY
p19
aVtranslateZ
p20
aVrotateX
p21
aVrotateY
p22
aVrotateZ
p23
aVscaleX
p24
aVscaleY
p25
aVscaleZ
p26
aVfkOrientation
p27
aaF0
aF0
aF0
aF-1.4022012661438474
aF4.2300999505710362
aF-4.1609671791655831
aF1
aF1
aF1
aI0
aa(lp28
S'spine_01_anim'
p29
a(lp30
Vlength
p31
aVtranslateY
p32
aVtranslateZ
p33
aVrotateX
p34
aVrotateY
p35
aVrotateZ
p36
aaF0
aF0
aF0
aF0
aF0
aF0
aa(lp37
S'spine_02_anim'
p38
a(lp39
Vlength
p40
aVtranslateY
p41
aVtranslateZ
p42
aVrotateX
p43
aVrotateY
p44
aVrotateZ
p45
aaF0
aF0
aF0
aF0
aF0
aF0
aa(lp46
S'spine_03_anim'
p47
a(lp48
Vlength
p49
aVtranslateY
p50
aVtranslateZ
p51
aVrotateX
p52
aVrotateY
p53
aVrotateZ
p54
aaF0
aF0
aF0
aF0
aF0
aF0
aa(lp55
S'mid_ik_anim'
p56
a(lp57
VtranslateX
p58
aVtranslateY
p59
aVtranslateZ
p60
aVrotateX
p61
aVrotateY
p62
aVrotateZ
p63
aaF0
aF0
aF0
aF0
aF0
aF0
aa(lp64
S'chest_ik_anim'
p65
a(lp66
VtranslateX
p67
aVtranslateY
p68
aVtranslateZ
p69
aVrotateX
p70
aVrotateY
p71
aVrotateZ
p72
aVstretch
p73
aVsquash
p74
aVtwist_amount
p75
aVautoSpine
p76
aVrotationInfluence
p77
aaF-0.92878305182418419
aF0
aF0
aF-2.1235154068033593
aF4.8425165739732181
aF-9.7033368082895368
aF1
aF0
aF1
aF1
aF0.20000000000000001
aa(lp78
S'body_anim'
p79
a(lp80
VtranslateX
p81
aVtranslateY
p82
aVtranslateZ
p83
aVrotateX
p84
aVrotateY
p85
aVrotateZ
p86
aaF-8.5174616934705565
aF3
aF4.5279255312644029
aF-7.3159078611641641
aF5.8339356249594552
aF-10.811742762725881
aa(lp87
S'hip_anim'
p88
a(lp89
VtranslateX
p90
aVtranslateY
p91
aVtranslateZ
p92
aVrotateX
p93
aVrotateY
p94
aVrotateZ
p95
aVlTwistCtrlVis
p96
aVlCalfTwistCtrlVis
p97
aVrTwistCtrlVis
p98
aVrCalfTwistCtrlVis
p99
aVautoHips
p100
aaF0
aF0
aF0
aF1.3193422531011123
aF-0.31902830397554161
aF20.939669228323798
aI00
aI00
aI00
aI00
aF0
aa(lp101
S'clavicle_l_anim'
p102
a(lp103
VtranslateX
p104
aVtranslateY
p105
aVtranslateZ
p106
aVautoShoulders
p107
aaF-0.11603778675524135
aF3.6366917407420241
aF2.6098102270712777
aF0
aa(lp108
S'clavicle_r_anim'
p109
a(lp110
VtranslateX
p111
aVtranslateY
p112
aVtranslateZ
p113
aVautoShoulders
p114
aaF0.10248786875290458
aF-8.0624349756448321
aF7.5358021638974515
aF0
aa(lp115
S'fk_arm_l_anim'
p116
a(lp117
VtranslateX
p118
aVtranslateY
p119
aVtranslateZ
p120
aVrotateX
p121
aVrotateY
p122
aVrotateZ
p123
aaF0
aF0
aF0
aF49.562588500326505
aF56.132524768394575
aF28.062652708586903
aa(lp124
S'fk_arm_r_anim'
p125
a(lp126
VtranslateX
p127
aVtranslateY
p128
aVtranslateZ
p129
aVrotateX
p130
aVrotateY
p131
aVrotateZ
p132
aaF0
aF0
aF0
aF19.849932707199372
aF55.687088566011191
aF7.15155648175626
aa(lp133
S'fk_elbow_l_anim'
p134
a(lp135
VtranslateX
p136
aVtranslateY
p137
aVtranslateZ
p138
aVrotateX
p139
aVrotateY
p140
aVrotateZ
p141
aaF0
aF0
aF0
aF0
aF0
aF-88.894882405740731
aa(lp142
S'fk_elbow_r_anim'
p143
a(lp144
VtranslateX
p145
aVtranslateY
p146
aVtranslateZ
p147
aVrotateX
p148
aVrotateY
p149
aVrotateZ
p150
aaF0
aF0
aF0
aF-6.0958631983542282e-05
aF5.8260173517566378e-05
aF-85.661223347770132
aa(lp151
S'fk_wrist_l_anim'
p152
a(lp153
VtranslateX
p154
aVtranslateY
p155
aVtranslateZ
p156
aVrotateX
p157
aVrotateY
p158
aVrotateZ
p159
aaF0
aF0
aF0
aF8.4163916938677037
aF-27.014591612607472
aF35.961152618296872
aa(lp160
S'fk_wrist_r_anim'
p161
a(lp162
VtranslateX
p163
aVtranslateY
p164
aVtranslateZ
p165
aVrotateX
p166
aVrotateY
p167
aVrotateZ
p168
aaF0
aF0
aF0
aF13.352322220110791
aF-26.337550843027298
aF40.458323314155656
aa(lp169
S'ik_elbow_l_anim'
p170
a(lp171
VtranslateX
p172
aVtranslateY
p173
aVtranslateZ
p174
aVspace_LElbow
p175
aaF-11.062241686358256
aF-10.624216776086959
aF-25.541161019037602
aF1
aa(lp176
S'ik_elbow_r_anim'
p177
a(lp178
VtranslateX
p179
aVtranslateY
p180
aVtranslateZ
p181
aVspace_RElbow
p182
aaF-2.0135602407999755
aF-4.7645156946463416
aF-22.349518421200557
aF1
aa(lp183
S'ik_wrist_l_anim'
p184
a(lp185
VtranslateX
p186
aVtranslateY
p187
aVtranslateZ
p188
aVrotateX
p189
aVrotateY
p190
aVrotateZ
p191
aVstretch
p192
aVsquash
p193
aVside
p194
aVmid_bend
p195
aVmid_swivel
p196
aVtip_pivot
p197
aVtip_swivel
p198
aVspace_LHandAnim
p199
aaF-37.480790340370561
aF-22.448619653291853
aF-35.07348931975902
aF122.94824558198773
aF127.74797128391789
aF53.768815865134343
aF0
aF0
aF0
aF0
aF0
aF0
aF0
aF1
aa(lp200
S'ik_wrist_r_anim'
p201
a(lp202
VtranslateX
p203
aVtranslateY
p204
aVtranslateZ
p205
aVrotateX
p206
aVrotateY
p207
aVrotateZ
p208
aVstretch
p209
aVsquash
p210
aVside
p211
aVmid_bend
p212
aVmid_swivel
p213
aVtip_pivot
p214
aVtip_swivel
p215
aVspace_RHandAnim
p216
aaF29.409429405074867
aF-26.107747482342603
aF-27.933152175875449
aF-51.08202956389075
aF-57.61235386825836
aF124.15859582283989
aF0
aF0
aF0
aF0
aF0
aF0
aF0
aF1
aa(lp217
S'fk_thigh_l_anim'
p218
a(lp219
VrotateX
p220
aVrotateY
p221
aVrotateZ
p222
aaF0
aF0
aF0
aa(lp223
S'fk_thigh_r_anim'
p224
a(lp225
VrotateX
p226
aVrotateY
p227
aVrotateZ
p228
aaF0
aF0
aF0
aa(lp229
S'fk_calf_l_anim'
p230
a(lp231
VrotateX
p232
aVrotateY
p233
aVrotateZ
p234
aaF0
aF0
aF0
aa(lp235
S'fk_calf_r_anim'
p236
a(lp237
VrotateX
p238
aVrotateY
p239
aVrotateZ
p240
aaF0
aF0
aF0
aa(lp241
S'fk_foot_l_anim'
p242
a(lp243
VrotateX
p244
aVrotateY
p245
aVrotateZ
p246
aaF0
aF0
aF0
aa(lp247
S'fk_foot_r_anim'
p248
a(lp249
VrotateX
p250
aVrotateY
p251
aVrotateZ
p252
aaF0
aF0
aF0
aa(lp253
S'fk_ball_l_anim'
p254
a(lp255
VrotateX
p256
aVrotateY
p257
aVrotateZ
p258
aaF0
aF0
aF0
aa(lp259
S'fk_ball_r_anim'
p260
a(lp261
VrotateX
p262
aVrotateY
p263
aVrotateZ
p264
aaF0
aF0
aF0
aa(lp265
S'ik_foot_anim_l'
p266
a(lp267
VtranslateX
p268
aVtranslateY
p269
aVtranslateZ
p270
aVrotateX
p271
aVrotateY
p272
aVrotateZ
p273
aVknee_twist
p274
aVstretch
p275
aVsquash
p276
aVtoeCtrlVis
p277
aaF4.206009859938014
aF6.6273675433300241
aF17.914592848349816
aF74.818843530248884
aF-26.637209692831981
aF16.360993760149611
aF8.6908177611604351
aF0
aF0
aI00
aa(lp278
S'ik_foot_anim_r'
p279
a(lp280
VtranslateX
p281
aVtranslateY
p282
aVtranslateZ
p283
aVrotateX
p284
aVrotateY
p285
aVrotateZ
p286
aVknee_twist
p287
aVstretch
p288
aVsquash
p289
aVtoeCtrlVis
p290
aaF4.4358727985783117
aF-1.6296244854606954
aF0
aF0
aF0
aF-16.76731289861522
aF17.620556234955263
aF0
aF0
aI00
aa(lp291
S'heel_ctrl_l'
p292
a(lp293
VrotateX
p294
aVrotateY
p295
aVrotateZ
p296
aVheelPivot
p297
aVballPivot
p298
aaF0
aF0
aF0
aF0
aF0
aa(lp299
S'heel_ctrl_r'
p300
a(lp301
VrotateX
p302
aVrotateY
p303
aVrotateZ
p304
aVheelPivot
p305
aVballPivot
p306
aaF0
aF0
aF0
aF0
aF0
aa(lp307
S'toe_wiggle_ctrl_l'
p308
a(lp309
VrotateX
p310
aVrotateY
p311
aVrotateZ
p312
aaF0
aF0
aF-10.157520928855364
aa(lp313
S'toe_wiggle_ctrl_r'
p314
a(lp315
VrotateX
p316
aVrotateY
p317
aVrotateZ
p318
aaF0
aF0
aF0
aa(lp319
S'toe_tip_ctrl_l'
p320
a(lp321
VrotateX
p322
aVrotateY
p323
aVrotateZ
p324
aaF0
aF0
aF0
aa(lp325
S'toe_tip_ctrl_r'
p326
a(lp327
VrotateX
p328
aVrotateY
p329
aVrotateZ
p330
aaF0
aF0
aF0
aa(lp331
S'master_anim'
p332
a(lp333
VtranslateX
p334
aVtranslateY
p335
aVtranslateZ
p336
aVrotateX
p337
aVrotateY
p338
aVrotateZ
p339
aaF0
aF0
aF0
aF0
aF0
aF0
aa(lp340
S'offset_anim'
p341
a(lp342
VtranslateX
p343
aVtranslateY
p344
aVtranslateZ
p345
aVrotateX
p346
aVrotateY
p347
aVrotateZ
p348
aaF0
aF0
aF0
aF0
aF0
aF0
aa(lp349
S'root_anim'
p350
a(lp351
VtranslateX
p352
aVtranslateY
p353
aVtranslateZ
p354
aVrotateX
p355
aVrotateY
p356
aVrotateZ
p357
aaF0
aF0
aF0
aF0
aF0
aF0
aa(lp358
S'upperarm_l_twist_anim'
p359
a(lp360
VtranslateX
p361
aVtranslateY
p362
aVtranslateZ
p363
aVrotateX
p364
aVrotateY
p365
aVrotateZ
p366
aVscaleX
p367
aVscaleY
p368
aVscaleZ
p369
aaF0
aF0
aF0
aF4.9845686615042064
aF4.181355604190621
aF-8.4013911587555441
aF1
aF1
aF1
aa(lp370
S'upperarm_r_twist_anim'
p371
a(lp372
VtranslateX
p373
aVtranslateY
p374
aVtranslateZ
p375
aVrotateX
p376
aVrotateY
p377
aVrotateZ
p378
aVscaleX
p379
aVscaleY
p380
aVscaleZ
p381
aaF0
aF0
aF0
aF-26.329193902130655
aF3.9210839153395849
aF-1.1823191009969749
aF1
aF1
aF1
aa(lp382
S'thigh_l_twist_anim'
p383
a(lp384
VtranslateX
p385
aVtranslateY
p386
aVtranslateZ
p387
aVrotateX
p388
aVrotateY
p389
aVrotateZ
p390
aaF0
aF0
aF0
aF0
aF0
aF0
aa(lp391
S'thigh_r_twist_anim'
p392
a(lp393
VtranslateX
p394
aVtranslateY
p395
aVtranslateZ
p396
aVrotateX
p397
aVrotateY
p398
aVrotateZ
p399
aaF0
aF0
aF0
aF0
aF0
aF0
aa(lp400
S'pinky_finger_fk_ctrl_1_l'
p401
a(lp402
VtranslateX
p403
aVtranslateY
p404
aVtranslateZ
p405
aVrotateX
p406
aVrotateY
p407
aVrotateZ
p408
aVsticky
p409
aaF0
aF0
aF0
aF0
aF0
aF61.768503975049988
aF0
aa(lp410
S'pinky_finger_fk_ctrl_1_r'
p411
a(lp412
VtranslateX
p413
aVtranslateY
p414
aVtranslateZ
p415
aVrotateX
p416
aVrotateY
p417
aVrotateZ
p418
aVsticky
p419
aaF0
aF0
aF0
aF0
aF0
aF59.583726176259248
aF0
aa(lp420
S'pinky_finger_fk_ctrl_2_l'
p421
a(lp422
VtranslateX
p423
aVtranslateY
p424
aVtranslateZ
p425
aVrotateX
p426
aVrotateY
p427
aVrotateZ
p428
aaF0
aF0
aF0
aF0
aF0
aF61.768503975049988
aa(lp429
S'pinky_finger_fk_ctrl_2_r'
p430
a(lp431
VtranslateX
p432
aVtranslateY
p433
aVtranslateZ
p434
aVrotateX
p435
aVrotateY
p436
aVrotateZ
p437
aaF0
aF0
aF0
aF0
aF0
aF59.583726176259248
aa(lp438
S'pinky_finger_fk_ctrl_3_l'
p439
a(lp440
VtranslateX
p441
aVtranslateY
p442
aVtranslateZ
p443
aVrotateX
p444
aVrotateY
p445
aVrotateZ
p446
aaF0
aF0
aF0
aF0
aF0
aF61.768503975049988
aa(lp447
S'pinky_finger_fk_ctrl_3_r'
p448
a(lp449
VtranslateX
p450
aVtranslateY
p451
aVtranslateZ
p452
aVrotateX
p453
aVrotateY
p454
aVrotateZ
p455
aaF0
aF0
aF0
aF0
aF0
aF59.583726176259248
aa(lp456
S'ring_finger_fk_ctrl_1_l'
p457
a(lp458
VtranslateX
p459
aVtranslateY
p460
aVtranslateZ
p461
aVrotateX
p462
aVrotateY
p463
aVrotateZ
p464
aVsticky
p465
aaF0
aF0
aF0
aF0
aF0
aF43.288131594587682
aF0
aa(lp466
S'ring_finger_fk_ctrl_1_r'
p467
a(lp468
VtranslateX
p469
aVtranslateY
p470
aVtranslateZ
p471
aVrotateX
p472
aVrotateY
p473
aVrotateZ
p474
aVsticky
p475
aaF0
aF0
aF0
aF0
aF0
aF53.5551719782313
aF0
aa(lp476
S'ring_finger_fk_ctrl_2_l'
p477
a(lp478
VtranslateX
p479
aVtranslateY
p480
aVtranslateZ
p481
aVrotateX
p482
aVrotateY
p483
aVrotateZ
p484
aaF0
aF0
aF0
aF0
aF0
aF43.288131594587682
aa(lp485
S'ring_finger_fk_ctrl_2_r'
p486
a(lp487
VtranslateX
p488
aVtranslateY
p489
aVtranslateZ
p490
aVrotateX
p491
aVrotateY
p492
aVrotateZ
p493
aaF0
aF0
aF0
aF0
aF0
aF53.5551719782313
aa(lp494
S'ring_finger_fk_ctrl_3_l'
p495
a(lp496
VtranslateX
p497
aVtranslateY
p498
aVtranslateZ
p499
aVrotateX
p500
aVrotateY
p501
aVrotateZ
p502
aaF0
aF0
aF0
aF0
aF0
aF43.288131594587682
aa(lp503
S'ring_finger_fk_ctrl_3_r'
p504
a(lp505
VtranslateX
p506
aVtranslateY
p507
aVtranslateZ
p508
aVrotateX
p509
aVrotateY
p510
aVrotateZ
p511
aaF0
aF0
aF0
aF0
aF0
aF53.5551719782313
aa(lp512
S'middle_finger_fk_ctrl_1_l'
p513
a(lp514
VtranslateX
p515
aVtranslateY
p516
aVtranslateZ
p517
aVrotateX
p518
aVrotateY
p519
aVrotateZ
p520
aVsticky
p521
aaF0
aF0
aF0
aF0
aF0
aF49.933463863422531
aF0
aa(lp522
S'middle_finger_fk_ctrl_1_r'
p523
a(lp524
VtranslateX
p525
aVtranslateY
p526
aVtranslateZ
p527
aVrotateX
p528
aVrotateY
p529
aVrotateZ
p530
aVsticky
p531
aaF0
aF0
aF0
aF0
aF0
aF48.030568722447128
aF0
aa(lp532
S'middle_finger_fk_ctrl_2_l'
p533
a(lp534
VtranslateX
p535
aVtranslateY
p536
aVtranslateZ
p537
aVrotateX
p538
aVrotateY
p539
aVrotateZ
p540
aaF0
aF0
aF0
aF0
aF0
aF49.933463863422531
aa(lp541
S'middle_finger_fk_ctrl_2_r'
p542
a(lp543
VtranslateX
p544
aVtranslateY
p545
aVtranslateZ
p546
aVrotateX
p547
aVrotateY
p548
aVrotateZ
p549
aaF0
aF0
aF0
aF0
aF0
aF48.030568722447128
aa(lp550
S'middle_finger_fk_ctrl_3_l'
p551
a(lp552
VtranslateX
p553
aVtranslateY
p554
aVtranslateZ
p555
aVrotateX
p556
aVrotateY
p557
aVrotateZ
p558
aaF0
aF0
aF0
aF0
aF0
aF49.933463863422531
aa(lp559
S'middle_finger_fk_ctrl_3_r'
p560
a(lp561
VtranslateX
p562
aVtranslateY
p563
aVtranslateZ
p564
aVrotateX
p565
aVrotateY
p566
aVrotateZ
p567
aaF0
aF0
aF0
aF0
aF0
aF48.030568722447128
aa(lp568
S'index_finger_fk_ctrl_1_l'
p569
a(lp570
VtranslateX
p571
aVtranslateY
p572
aVtranslateZ
p573
aVrotateX
p574
aVrotateY
p575
aVrotateZ
p576
aVsticky
p577
aaF0
aF0
aF0
aF0
aF0
aF39.109349843969589
aF0
aa(lp578
S'index_finger_fk_ctrl_1_r'
p579
a(lp580
VtranslateX
p581
aVtranslateY
p582
aVtranslateZ
p583
aVrotateX
p584
aVrotateY
p585
aVrotateZ
p586
aVsticky
p587
aaF0
aF0
aF0
aF0
aF0
aF45.995172203455944
aF0
aa(lp588
S'index_finger_fk_ctrl_2_l'
p589
a(lp590
VtranslateX
p591
aVtranslateY
p592
aVtranslateZ
p593
aVrotateX
p594
aVrotateY
p595
aVrotateZ
p596
aaF0
aF0
aF0
aF0
aF0
aF39.109349843969589
aa(lp597
S'index_finger_fk_ctrl_2_r'
p598
a(lp599
VtranslateX
p600
aVtranslateY
p601
aVtranslateZ
p602
aVrotateX
p603
aVrotateY
p604
aVrotateZ
p605
aaF0
aF0
aF0
aF0
aF0
aF45.995172203455944
aa(lp606
S'index_finger_fk_ctrl_3_l'
p607
a(lp608
VtranslateX
p609
aVtranslateY
p610
aVtranslateZ
p611
aVrotateX
p612
aVrotateY
p613
aVrotateZ
p614
aaF0
aF0
aF0
aF0
aF0
aF39.109349843969589
aa(lp615
S'index_finger_fk_ctrl_3_r'
p616
a(lp617
VtranslateX
p618
aVtranslateY
p619
aVtranslateZ
p620
aVrotateX
p621
aVrotateY
p622
aVrotateZ
p623
aaF0
aF0
aF0
aF0
aF0
aF45.995172203455944
aa(lp624
S'thumb_finger_fk_ctrl_1_l'
p625
a(lp626
VtranslateX
p627
aVtranslateY
p628
aVtranslateZ
p629
aVrotateX
p630
aVrotateY
p631
aVrotateZ
p632
aVsticky
p633
aaF0.014276245717178544
aF0.16611068121239614
aF0.54294345758397777
aF16.728491865430279
aF17.75581313392561
aF6.270074794990574
aF0
aa(lp634
S'thumb_finger_fk_ctrl_1_r'
p635
a(lp636
VtranslateX
p637
aVtranslateY
p638
aVtranslateZ
p639
aVrotateX
p640
aVrotateY
p641
aVrotateZ
p642
aVsticky
p643
aaF0
aF0
aF0
aF5.8878634249767767
aF23.863683320554784
aF8.1170387297853956
aF0
aa(lp644
S'thumb_finger_fk_ctrl_2_l'
p645
a(lp646
VtranslateX
p647
aVtranslateY
p648
aVtranslateZ
p649
aVrotateX
p650
aVrotateY
p651
aVrotateZ
p652
aaF0
aF0
aF0
aF0
aF0
aF11.725725177496917
aa(lp653
S'thumb_finger_fk_ctrl_2_r'
p654
a(lp655
VtranslateX
p656
aVtranslateY
p657
aVtranslateZ
p658
aVrotateX
p659
aVrotateY
p660
aVrotateZ
p661
aaF0
aF0
aF0
aF0
aF0
aF13.746155773531786
aa(lp662
S'thumb_finger_fk_ctrl_3_l'
p663
a(lp664
VtranslateX
p665
aVtranslateY
p666
aVtranslateZ
p667
aVrotateX
p668
aVrotateY
p669
aVrotateZ
p670
aaF0
aF0
aF0
aF0
aF0
aF11.725725177496917
aa(lp671
S'thumb_finger_fk_ctrl_3_r'
p672
a(lp673
VtranslateX
p674
aVtranslateY
p675
aVtranslateZ
p676
aVrotateX
p677
aVrotateY
p678
aVrotateZ
p679
aaF0
aF0
aF0
aF0
aF0
aF13.746155773531786
aa(lp680
S'index_l_ik_anim'
p681
a(lp682
VtranslateX
p683
aVtranslateY
p684
aVtranslateZ
p685
aVrotateX
p686
aVrotateY
p687
aVrotateZ
p688
aVpoleVectorVis
p689
aaF0
aF0
aF0
aF0
aF0
aF0
aF0
aa(lp690
S'index_r_ik_anim'
p691
a(lp692
VtranslateX
p693
aVtranslateY
p694
aVtranslateZ
p695
aVrotateX
p696
aVrotateY
p697
aVrotateZ
p698
aVpoleVectorVis
p699
aaF0
aF0
aF0
aF0
aF0
aF0
aF0
aa(lp700
S'middle_l_ik_anim'
p701
a(lp702
VtranslateX
p703
aVtranslateY
p704
aVtranslateZ
p705
aVrotateX
p706
aVrotateY
p707
aVrotateZ
p708
aVpoleVectorVis
p709
aaF0
aF0
aF0
aF0
aF0
aF0
aF0
aa(lp710
S'middle_r_ik_anim'
p711
a(lp712
VtranslateX
p713
aVtranslateY
p714
aVtranslateZ
p715
aVrotateX
p716
aVrotateY
p717
aVrotateZ
p718
aVpoleVectorVis
p719
aaF0
aF0
aF0
aF0
aF0
aF0
aF0
aa(lp720
S'ring_l_ik_anim'
p721
a(lp722
VtranslateX
p723
aVtranslateY
p724
aVtranslateZ
p725
aVrotateX
p726
aVrotateY
p727
aVrotateZ
p728
aVpoleVectorVis
p729
aaF0
aF0
aF0
aF0
aF0
aF0
aF0
aa(lp730
S'ring_r_ik_anim'
p731
a(lp732
VtranslateX
p733
aVtranslateY
p734
aVtranslateZ
p735
aVrotateX
p736
aVrotateY
p737
aVrotateZ
p738
aVpoleVectorVis
p739
aaF0
aF0
aF0
aF0
aF0
aF0
aF0
aa(lp740
S'pinky_l_ik_anim'
p741
a(lp742
VtranslateX
p743
aVtranslateY
p744
aVtranslateZ
p745
aVrotateX
p746
aVrotateY
p747
aVrotateZ
p748
aVpoleVectorVis
p749
aaF0
aF0
aF0
aF0
aF0
aF0
aF0
aa(lp750
S'pinky_r_ik_anim'
p751
a(lp752
VtranslateX
p753
aVtranslateY
p754
aVtranslateZ
p755
aVrotateX
p756
aVrotateY
p757
aVrotateZ
p758
aVpoleVectorVis
p759
aaF0
aF0
aF0
aF0
aF0
aF0
aF0
aa(lp760
S'thumb_l_ik_anim'
p761
a(lp762
VtranslateX
p763
aVtranslateY
p764
aVtranslateZ
p765
aVrotateX
p766
aVrotateY
p767
aVrotateZ
p768
aVpoleVectorVis
p769
aaF0
aF0
aF0
aF0
aF0
aF0
aF0
aa(lp770
S'thumb_r_ik_anim'
p771
a(lp772
VtranslateX
p773
aVtranslateY
p774
aVtranslateZ
p775
aVrotateX
p776
aVrotateY
p777
aVrotateZ
p778
aVpoleVectorVis
p779
aaF0
aF0
aF0
aF0
aF0
aF0
aF0
aa(lp780
S'index_l_poleVector'
p781
a(lp782
VtranslateX
p783
aVtranslateY
p784
aVtranslateZ
p785
aVrotateX
p786
aVrotateY
p787
aVrotateZ
p788
aaF0
aF0
aF0
aF0
aF0
aF0
aa(lp789
S'index_r_poleVector'
p790
a(lp791
VtranslateX
p792
aVtranslateY
p793
aVtranslateZ
p794
aVrotateX
p795
aVrotateY
p796
aVrotateZ
p797
aaF0
aF0
aF0
aF0
aF0
aF0
aa(lp798
S'middle_l_poleVector'
p799
a(lp800
VtranslateX
p801
aVtranslateY
p802
aVtranslateZ
p803
aVrotateX
p804
aVrotateY
p805
aVrotateZ
p806
aaF0
aF0
aF0
aF0
aF0
aF0
aa(lp807
S'middle_r_poleVector'
p808
a(lp809
VtranslateX
p810
aVtranslateY
p811
aVtranslateZ
p812
aVrotateX
p813
aVrotateY
p814
aVrotateZ
p815
aaF0
aF0
aF0
aF0
aF0
aF0
aa(lp816
S'ring_l_poleVector'
p817
a(lp818
VtranslateX
p819
aVtranslateY
p820
aVtranslateZ
p821
aVrotateX
p822
aVrotateY
p823
aVrotateZ
p824
aaF0
aF0
aF0
aF0
aF0
aF0
aa(lp825
S'ring_r_poleVector'
p826
a(lp827
VtranslateX
p828
aVtranslateY
p829
aVtranslateZ
p830
aVrotateX
p831
aVrotateY
p832
aVrotateZ
p833
aaF0
aF0
aF0
aF0
aF0
aF0
aa(lp834
S'pinky_l_poleVector'
p835
a(lp836
VtranslateX
p837
aVtranslateY
p838
aVtranslateZ
p839
aVrotateX
p840
aVrotateY
p841
aVrotateZ
p842
aaF0
aF0
aF0
aF0
aF0
aF0
aa(lp843
S'pinky_r_poleVector'
p844
a(lp845
VtranslateX
p846
aVtranslateY
p847
aVtranslateZ
p848
aVrotateX
p849
aVrotateY
p850
aVrotateZ
p851
aaF0
aF0
aF0
aF0
aF0
aF0
aa(lp852
S'thumb_l_poleVector'
p853
a(lp854
VtranslateX
p855
aVtranslateY
p856
aVtranslateZ
p857
aVrotateX
p858
aVrotateY
p859
aVrotateZ
p860
aaF0
aF0
aF0
aF0
aF0
aF0
aa(lp861
S'thumb_r_poleVector'
p862
a(lp863
VtranslateX
p864
aVtranslateY
p865
aVtranslateZ
p866
aVrotateX
p867
aVrotateY
p868
aVrotateZ
p869
aaF0
aF0
aF0
aF0
aF0
aF0
aa(lp870
S'l_global_ik_anim'
p871
a(lp872
VtranslateX
p873
aVtranslateY
p874
aVtranslateZ
p875
aVrotateX
p876
aVrotateY
p877
aVrotateZ
p878
aaF0
aF0
aF0
aF0
aF0
aF0
aa(lp879
S'r_global_ik_anim'
p880
a(lp881
VtranslateX
p882
aVtranslateY
p883
aVtranslateZ
p884
aVrotateX
p885
aVrotateY
p886
aVrotateZ
p887
aaF0
aF0
aF0
aF0
aF0
aF0
aa(lp888
S'Rig_Settings'
p889
a(lp890
Vspine_ik
p891
aVspine_fk
p892
aVlLegMode
p893
aVlThighTwistAmount
p894
aVlCalfTwistAmount
p895
aVrLegMode
p896
aVrThighTwistAmount
p897
aVrCalfTwistAmount
p898
aVlFkArmOrient
p899
aVlArmMode
p900
aVlClavMode
p901
aVltwistCtrlVis
p902
aVlUpperarmTwistAmount
p903
aVltwistCtrlVisLower
p904
aVlForearmTwistAmount
p905
aVrFkArmOrient
p906
aVrArmMode
p907
aVrClavMode
p908
aVrtwistCtrlVis
p909
aVrUpperarmTwistAmount
p910
aVrtwistCtrlVisLower
p911
aVrForearmTwistAmount
p912
aVhood_fk
p913
aVhood_ik
p914
aVhood_dynamic
p915
aaF1
aF0
aI1
aF0.90000000000000002
aF0.5
aI1
aF0.90000000000000002
aF0.5
aI2
aI1
aI0
aI00
aF0.59999999999999998
aI00
aF0.5
aI2
aI1
aI0
aI00
aF0.59999999999999998
aI00
aF0.5
aF1
aF0
aF0
aa(lp916
Vjaw_anim
p917
a(lp918
VtranslateX
p919
aVtranslateY
p920
aVtranslateZ
p921
aVrotateX
p922
aVrotateY
p923
aVrotateZ
p924
aVscaleX
p925
aVscaleY
p926
aVscaleZ
p927
aaF0
aF0.49757466065136158
aF0
aF-5.862660351234358
aF-7.2347346327124349
aF-3.9650824238622171
aF1
aF1
aF1
aa(lp928
Vbelly_anim
p929
a(lp930
VtranslateX
p931
aVtranslateY
p932
aVtranslateZ
p933
aVrotateX
p934
aVrotateY
p935
aVrotateZ
p936
aVchainAttach
p937
aVchainStartEnvelope
p938
aVchainStartFrame
p939
aVchainStiffness
p940
aVchainDamping
p941
aVchainGravity
p942
aVchainIteration
p943
aVchainCollide
p944
aVchainWidthBase
p945
aVchainWidthExtremity
p946
aVchainCollideGround
p947
aVchainCollideGroundHeight
p948
aaF0
aF0
aF0
aF0
aF0
aF0
aI0
aF0
aF0
aF0
aF0
aF0
aI0
aI00
aF0
aF0
aI00
aF0
aa(lp949
Vpectoral_l_anim
p950
a(lp951
VtranslateX
p952
aVtranslateY
p953
aVtranslateZ
p954
aVrotateX
p955
aVrotateY
p956
aVrotateZ
p957
aVchainAttach
p958
aVchainStartEnvelope
p959
aVchainStartFrame
p960
aVchainStiffness
p961
aVchainDamping
p962
aVchainGravity
p963
aVchainIteration
p964
aVchainCollide
p965
aVchainWidthBase
p966
aVchainWidthExtremity
p967
aVchainCollideGround
p968
aVchainCollideGroundHeight
p969
aaF0
aF0
aF0
aF0
aF0
aF0
aI0
aF0
aF0
aF0
aF0
aF0
aI0
aI00
aF0
aF0
aI00
aF0
aa(lp970
Vpectoral_r_anim
p971
a(lp972
VtranslateX
p973
aVtranslateY
p974
aVtranslateZ
p975
aVrotateX
p976
aVrotateY
p977
aVrotateZ
p978
aVchainAttach
p979
aVchainStartEnvelope
p980
aVchainStartFrame
p981
aVchainStiffness
p982
aVchainDamping
p983
aVchainGravity
p984
aVchainIteration
p985
aVchainCollide
p986
aVchainWidthBase
p987
aVchainWidthExtremity
p988
aVchainCollideGround
p989
aVchainCollideGroundHeight
p990
aaF0
aF0
aF0
aF0
aF0
aF0
aI0
aF0
aF0
aF0
aF0
aF0
aI0
aI00
aF0
aF0
aI00
aF0
aa(lp991
Vhood_dyn_anim
p992
a(lp993
VtranslateX
p994
aVtranslateY
p995
aVtranslateZ
p996
aVrotateX
p997
aVrotateY
p998
aVrotateZ
p999
aVchainAttach
p1000
aVchainStartEnvelope
p1001
aVchainStartFrame
p1002
aVchainStiffness
p1003
aVchainDamping
p1004
aVchainGravity
p1005
aVchainIteration
p1006
aVchainCollide
p1007
aVchainWidthBase
p1008
aVchainWidthExtremity
p1009
aVchainCollideGround
p1010
aVchainCollideGroundHeight
p1011
aaF0
aF0
aF0
aF0
aF0
aF0
aI0
aF0
aF0
aF0
aF0
aF0
aI0
aI00
aF0
aF0
aI00
aF0
aa(lp1012
Vhood_ik_2_anim
p1013
a(lp1014
VtranslateX
p1015
aVtranslateY
p1016
aVtranslateZ
p1017
aVrotateX
p1018
aVrotateY
p1019
aVrotateZ
p1020
aaF0
aF0
aF0
aF0
aF0
aF0
aa(lp1021
Vhood_ik_3_anim
p1022
a(lp1023
VtranslateX
p1024
aVtranslateY
p1025
aVtranslateZ
p1026
aVrotateX
p1027
aVrotateY
p1028
aVrotateZ
p1029
aVclusterControlVis
p1030
aaF0
aF0
aF0
aF0
aF0
aF0
aI00
aa(lp1031
Vhood_ik_base_anim
p1032
a(lp1033
VtranslateX
p1034
aVtranslateY
p1035
aVtranslateZ
p1036
aVrotateX
p1037
aVrotateY
p1038
aVrotateZ
p1039
aVglobal_scale
p1040
aaF0
aF0
aF0
aF0
aF0
aF0
aF1
aa(lp1041
Vfk_hood_01_anim
p1042
a(lp1043
VtranslateX
p1044
aVtranslateY
p1045
aVtranslateZ
p1046
aVrotateX
p1047
aVrotateY
p1048
aVrotateZ
p1049
aVglobal_scale
p1050
aVlagMode
p1051
aaF0
aF0
aF0
aF0
aF0
aF0
aF1
aF0
aa(lp1052
Vhood_cv_0_anim
p1053
a(lp1054
VtranslateX
p1055
aVtranslateY
p1056
aVtranslateZ
p1057
aaF0
aF0
aF0
aa(lp1058
Vfk_hood_02_anim
p1059
a(lp1060
VtranslateX
p1061
aVtranslateY
p1062
aVtranslateZ
p1063
aVrotateX
p1064
aVrotateY
p1065
aVrotateZ
p1066
aaF0
aF0
aF0
aF0
aF0
aF0
aa(lp1067
Vhood_cv_1_anim
p1068
a(lp1069
VtranslateX
p1070
aVtranslateY
p1071
aVtranslateZ
p1072
aaF0
aF0
aF0
aa(lp1073
Vfk_hood_03_anim
p1074
a(lp1075
VtranslateX
p1076
aVtranslateY
p1077
aVtranslateZ
p1078
aVrotateX
p1079
aVrotateY
p1080
aVrotateZ
p1081
aaF0
aF0
aF0
aF0
aF0
aF0
aa(lp1082
Vhood_cv_2_anim
p1083
a(lp1084
VtranslateX
p1085
aVtranslateY
p1086
aVtranslateZ
p1087
aaF0
aF0
aF0
aa(lp1088
Vweapon_r_anim
p1089
a(lp1090
VtranslateX
p1091
aVtranslateY
p1092
aVtranslateZ
p1093
aVrotateX
p1094
aVrotateY
p1095
aVrotateZ
p1096
aVscaleX
p1097
aVscaleY
p1098
aVscaleZ
p1099
aaF0
aF0
aF0
aF0
aF0
aF0
aF1
aF1
aF1
aa(lp1100
Vsleeve_r_anim
p1101
a(lp1102
VtranslateX
p1103
aVtranslateY
p1104
aVtranslateZ
p1105
aVrotateX
p1106
aVrotateY
p1107
aVrotateZ
p1108
aVscaleX
p1109
aVscaleY
p1110
aVscaleZ
p1111
aaF0
aF4.4408920985006262e-16
aF0
aF3.9756933518293979e-16
aF4.9696166897867474e-17
aF-1.6384205024140681e-16
aF0.99999999999999967
aF0.99999999999999967
aF0.99999999999999967
aa(lp1112
Vsleeve_l_anim
p1113
a(lp1114
VtranslateX
p1115
aVtranslateY
p1116
aVtranslateZ
p1117
aVrotateX
p1118
aVrotateY
p1119
aVrotateZ
p1120
aVscaleX
p1121
aVscaleY
p1122
aVscaleZ
p1123
aaF0
aF8.8817841970012523e-16
aF0
aF0
aF-0
aF-3.1060104311167156e-17
aF1
aF1
aF0.99999999999999989
aa(lp1124
Vshirt_front_anim
p1125
a(lp1126
VtranslateX
p1127
aVtranslateY
p1128
aVtranslateZ
p1129
aVrotateX
p1130
aVrotateY
p1131
aVrotateZ
p1132
aVscaleX
p1133
aVscaleY
p1134
aVscaleZ
p1135
aaF0
aF0
aF0
aF0
aF0
aF0
aF1
aF1
aF1
aa(lp1136
Vshirt_back_anim
p1137
a(lp1138
VtranslateX
p1139
aVtranslateY
p1140
aVtranslateZ
p1141
aVrotateX
p1142
aVrotateY
p1143
aVrotateZ
p1144
aVscaleX
p1145
aVscaleY
p1146
aVscaleZ
p1147
aaF2.7755575615628914e-17
aF-3.5527136788005009e-15
aF1.4210854715202004e-14
aF0
aF1.2132853246549667e-20
aF7.583033279093542e-22
aF1.0000000000000002
aF1.0000000000000002
aF1.0000000000000002
aa(lp1148
Vshirt_l_anim
p1149
a(lp1150
VtranslateX
p1151
aVtranslateY
p1152
aVtranslateZ
p1153
aVrotateX
p1154
aVrotateY
p1155
aVrotateZ
p1156
aVscaleX
p1157
aVscaleY
p1158
aVscaleZ
p1159
aaF-3.5527136788005009e-15
aF0
aF1.4210854715202004e-14
aF0
aF1.2132853246549667e-20
aF7.583033279093542e-22
aF1.0000000000000002
aF1.0000000000000002
aF1.0000000000000002
aa(lp1160
Vshirt_r_anim
p1161
a(lp1162
VtranslateX
p1163
aVtranslateY
p1164
aVtranslateZ
p1165
aVrotateX
p1166
aVrotateY
p1167
aVrotateZ
p1168
aVscaleX
p1169
aVscaleY
p1170
aVscaleZ
p1171
aaF0
aF0
aF0
aF0
aF0
aF0
aF1
aF1
aF1
aa(lp1172
Vspine_adj_01_anim
p1173
a(lp1174
VtranslateX
p1175
aVtranslateY
p1176
aVtranslateZ
p1177
aVrotateX
p1178
aVrotateY
p1179
aVrotateZ
p1180
aVscaleX
p1181
aVscaleY
p1182
aVscaleZ
p1183
aaF0
aF0
aF0
aF7.5830332790935439e-22
aF-0
aF0
aF1
aF1
aF1
aa(lp1184
Vspine_adj_02_anim
p1185
a(lp1186
VtranslateX
p1187
aVtranslateY
p1188
aVtranslateZ
p1189
aVrotateX
p1190
aVrotateY
p1191
aVrotateZ
p1192
aVscaleX
p1193
aVscaleY
p1194
aVscaleZ
p1195
aaF1.4210854715202004e-14
aF-1.7763568394002505e-15
aF2.7755575615628914e-17
aF3.0332133116374176e-21
aF2.4265706493099341e-20
aF0
aF1
aF1
aF1
aa(lp1196
Vspine_adj_03_anim
p1197
a(lp1198
VtranslateX
p1199
aVtranslateY
p1200
aVtranslateZ
p1201
aVrotateX
p1202
aVrotateY
p1203
aVrotateZ
p1204
aVscaleX
p1205
aVscaleY
p1206
aVscaleZ
p1207
aaF0
aF0
aF0
aF-2.9621223746459156e-23
aF-0
aF1.5902773407317584e-15
aF1
aF1
aF1
aa(lp1208
Vshirt_mstr_anim
p1209
a(lp1210
VtranslateX
p1211
aVtranslateY
p1212
aVtranslateZ
p1213
aVrotateX
p1214
aVrotateY
p1215
aVrotateZ
p1216
aVscaleX
p1217
aVscaleY
p1218
aVscaleZ
p1219
aaF0
aF0
aF0
aF0
aF0
aF0
aF1
aF1
aF1
aa(lp1220
Vbody_anim_space_switcher
p1221
a(lp1222
Vvisibility
p1223
aVtranslateX
p1224
aVtranslateY
p1225
aVtranslateZ
p1226
aVrotateX
p1227
aVrotateY
p1228
aVrotateZ
p1229
aVscaleX
p1230
aVscaleY
p1231
aVscaleZ
p1232
aVspace_world
p1233
aaI01
aF0
aF0
aF0
aF0
aF0
aF0
aF1
aF1
aF1
aF0
aa(lp1234
Vchest_ik_anim_space_switcher
p1235
a(lp1236
Vvisibility
p1237
aVtranslateX
p1238
aVtranslateY
p1239
aVtranslateZ
p1240
aVrotateX
p1241
aVrotateY
p1242
aVrotateZ
p1243
aVscaleX
p1244
aVscaleY
p1245
aVscaleZ
p1246
aVspace_world
p1247
aVspace_chest_ik_world_aligned
p1248
aaI01
aF0
aF0
aF0
aF0
aF0
aF0
aF1
aF1.0000000000000002
aF1.0000000000000002
aF0
aF1
aa(lp1249
Vik_elbow_l_anim_space_switcher
p1250
a(lp1251
Vvisibility
p1252
aVtranslateX
p1253
aVtranslateY
p1254
aVtranslateZ
p1255
aVrotateX
p1256
aVrotateY
p1257
aVrotateZ
p1258
aVscaleX
p1259
aVscaleY
p1260
aVscaleZ
p1261
aVspace_world
p1262
aVspace_body_anim
p1263
aVspace_chest_ik_anim
p1264
aaI00
aF0
aF0
aF0
aF0
aF0
aF0
aF1
aF1
aF1
aF0
aF0
aF0
aa(lp1265
Vik_elbow_r_anim_space_switcher
p1266
a(lp1267
Vvisibility
p1268
aVtranslateX
p1269
aVtranslateY
p1270
aVtranslateZ
p1271
aVrotateX
p1272
aVrotateY
p1273
aVrotateZ
p1274
aVscaleX
p1275
aVscaleY
p1276
aVscaleZ
p1277
aVspace_world
p1278
aVspace_body_anim
p1279
aVspace_chest_ik_anim
p1280
aaI00
aF0
aF0
aF0
aF0
aF0
aF0
aF1
aF1
aF1
aF0
aF0
aF0
aa(lp1281
Vik_foot_anim_l_space_switcher
p1282
a(lp1283
Vvisibility
p1284
aVtranslateX
p1285
aVtranslateY
p1286
aVtranslateZ
p1287
aVrotateX
p1288
aVrotateY
p1289
aVrotateZ
p1290
aVscaleX
p1291
aVscaleY
p1292
aVscaleZ
p1293
aVspace_world
p1294
aVspace_body_anim
p1295
aaI01
aF0
aF0
aF0
aF0
aF0
aF0
aF1
aF1
aF1
aF0
aF0
aa(lp1296
Vik_foot_anim_r_space_switcher
p1297
a(lp1298
Vvisibility
p1299
aVtranslateX
p1300
aVtranslateY
p1301
aVtranslateZ
p1302
aVrotateX
p1303
aVrotateY
p1304
aVrotateZ
p1305
aVscaleX
p1306
aVscaleY
p1307
aVscaleZ
p1308
aVspace_world
p1309
aVspace_body_anim
p1310
aaI01
aF0
aF0
aF0
aF0
aF0
aF0
aF1
aF1
aF1
aF0
aF0
aa(lp1311
Vik_wrist_l_anim_space_switcher
p1312
a(lp1313
Vvisibility
p1314
aVtranslateX
p1315
aVtranslateY
p1316
aVtranslateZ
p1317
aVrotateX
p1318
aVrotateY
p1319
aVrotateZ
p1320
aVscaleX
p1321
aVscaleY
p1322
aVscaleZ
p1323
aVspace_world
p1324
aVspace_body_anim
p1325
aVspace_head_fk_anim
p1326
aVspace_chest_ik_anim
p1327
aaI00
aF0
aF0
aF0
aF0
aF0
aF0
aF1
aF1
aF1
aF0
aF0
aF0
aF0
aa(lp1328
Vik_wrist_r_anim_space_switcher
p1329
a(lp1330
Vvisibility
p1331
aVtranslateX
p1332
aVtranslateY
p1333
aVtranslateZ
p1334
aVrotateX
p1335
aVrotateY
p1336
aVrotateZ
p1337
aVscaleX
p1338
aVscaleY
p1339
aVscaleZ
p1340
aVspace_world
p1341
aVspace_body_anim
p1342
aVspace_head_fk_anim
p1343
aVspace_chest_ik_anim
p1344
aaI00
aF0
aF0
aF0
aF0
aF0
aF0
aF1
aF1
aF1
aF0
aF0
aF0
aF0
aa(lp1345
Vjaw_anim_space_switcher
p1346
a(lp1347
Vvisibility
p1348
aVtranslateX
p1349
aVtranslateY
p1350
aVtranslateZ
p1351
aVrotateX
p1352
aVrotateY
p1353
aVrotateZ
p1354
aVscaleX
p1355
aVscaleY
p1356
aVscaleZ
p1357
aVspace_world
p1358
aaI01
aF0
aF0
aF0
aF0
aF0
aF0
aF1
aF1
aF1
aF0
aa(lp1359
Vl_global_ik_anim_space_switcher
p1360
a(lp1361
Vvisibility
p1362
aVtranslateX
p1363
aVtranslateY
p1364
aVtranslateZ
p1365
aVrotateX
p1366
aVrotateY
p1367
aVrotateZ
p1368
aVscaleX
p1369
aVscaleY
p1370
aVscaleZ
p1371
aVspace_world
p1372
aaI01
aF0
aF0
aF0
aF0
aF0
aF0
aF1
aF1
aF1
aF0
aa(lp1373
Vmaster_anim_space_switcher
p1374
a(lp1375
Vvisibility
p1376
aVtranslateX
p1377
aVtranslateY
p1378
aVtranslateZ
p1379
aVrotateX
p1380
aVrotateY
p1381
aVrotateZ
p1382
aVscaleX
p1383
aVscaleY
p1384
aVscaleZ
p1385
aVspace_world
p1386
aaI01
aF0
aF0
aF0
aF0
aF0
aF0
aF1
aF1
aF1
aF0
aa(lp1387
Vr_global_ik_anim_space_switcher
p1388
a(lp1389
Vvisibility
p1390
aVtranslateX
p1391
aVtranslateY
p1392
aVtranslateZ
p1393
aVrotateX
p1394
aVrotateY
p1395
aVrotateZ
p1396
aVscaleX
p1397
aVscaleY
p1398
aVscaleZ
p1399
aVspace_world
p1400
aaI01
aF0
aF0
aF0
aF0
aF0
aF0
aF1
aF1
aF1
aF0
aa(lp1401
Vshirt_back_anim_space_switcher
p1402
a(lp1403
Vvisibility
p1404
aVtranslateX
p1405
aVtranslateY
p1406
aVtranslateZ
p1407
aVrotateX
p1408
aVrotateY
p1409
aVrotateZ
p1410
aVscaleX
p1411
aVscaleY
p1412
aVscaleZ
p1413
aVspace_world
p1414
aaI01
aF0
aF-1.7763568394002505e-15
aF1.4210854715202004e-14
aF0
aF1.2132853246549667e-20
aF0
aF1.0000000000000002
aF1.0000000000000002
aF1.0000000000000002
aF0
aa(lp1415
Vshirt_front_anim_space_switcher
p1416
a(lp1417
Vvisibility
p1418
aVtranslateX
p1419
aVtranslateY
p1420
aVtranslateZ
p1421
aVrotateX
p1422
aVrotateY
p1423
aVrotateZ
p1424
aVscaleX
p1425
aVscaleY
p1426
aVscaleZ
p1427
aVspace_world
p1428
aaI01
aF0
aF0
aF1.4210854715202004e-14
aF0
aF1.2132853246549667e-20
aF0
aF1.0000000000000002
aF1.0000000000000002
aF1.0000000000000002
aF0
aa(lp1429
Vshirt_l_anim_space_switcher
p1430
a(lp1431
Vvisibility
p1432
aVtranslateX
p1433
aVtranslateY
p1434
aVtranslateZ
p1435
aVrotateX
p1436
aVrotateY
p1437
aVrotateZ
p1438
aVscaleX
p1439
aVscaleY
p1440
aVscaleZ
p1441
aVspace_world
p1442
aaI01
aF0
aF-8.8817841970012523e-16
aF1.4210854715202004e-14
aF0
aF1.2132853246549667e-20
aF0
aF1.0000000000000002
aF1.0000000000000002
aF1.0000000000000002
aF0
aa(lp1443
Vshirt_mstr_anim_space_switcher
p1444
a(lp1445
Vvisibility
p1446
aVtranslateX
p1447
aVtranslateY
p1448
aVtranslateZ
p1449
aVrotateX
p1450
aVrotateY
p1451
aVrotateZ
p1452
aVscaleX
p1453
aVscaleY
p1454
aVscaleZ
p1455
aVspace_world
p1456
aaI01
aF-1.4210854715202004e-14
aF0
aF2.7755575615628914e-17
aF-7.5830332790935439e-22
aF1.213285324654967e-20
aF0
aF1
aF1
aF1
aF0
aa(lp1457
Vshirt_r_anim_space_switcher
p1458
a(lp1459
Vvisibility
p1460
aVtranslateX
p1461
aVtranslateY
p1462
aVtranslateZ
p1463
aVrotateX
p1464
aVrotateY
p1465
aVrotateZ
p1466
aVscaleX
p1467
aVscaleY
p1468
aVscaleZ
p1469
aVspace_world
p1470
aaI01
aF0
aF8.8817841970012523e-16
aF-1.4210854715202004e-14
aF0
aF-1.2132853246549667e-20
aF0
aF1.0000000000000002
aF1.0000000000000002
aF1
aF0
aa(lp1471
Vsleeve_l_anim_space_switcher
p1472
a(lp1473
Vvisibility
p1474
aVtranslateX
p1475
aVtranslateY
p1476
aVtranslateZ
p1477
aVrotateX
p1478
aVrotateY
p1479
aVrotateZ
p1480
aVscaleX
p1481
aVscaleY
p1482
aVscaleZ
p1483
aVspace_world
p1484
aaI01
aF7.1054273576010019e-15
aF8.8817841970012523e-16
aF-1.4210854715202004e-14
aF0
aF-0
aF1.6772456328030264e-16
aF1
aF0.99999999999999978
aF0.99999999999999989
aF0
aa(lp1485
Vsleeve_r_anim_space_switcher
p1486
a(lp1487
Vvisibility
p1488
aVtranslateX
p1489
aVtranslateY
p1490
aVtranslateZ
p1491
aVrotateX
p1492
aVrotateY
p1493
aVrotateZ
p1494
aVscaleX
p1495
aVscaleY
p1496
aVscaleZ
p1497
aVspace_world
p1498
aaI01
aF-7.1054273576010019e-15
aF4.4408920985006262e-16
aF0
aF0
aF-4.9696166897867462e-17
aF3.1836606918946342e-17
aF0.99999999999999989
aF0.99999999999999989
aF0.99999999999999989
aF0
aa(lp1499
Vspine_01_space_switcher
p1500
a(lp1501
Vvisibility
p1502
aVtranslateX
p1503
aVtranslateY
p1504
aVtranslateZ
p1505
aVrotateX
p1506
aVrotateY
p1507
aVrotateZ
p1508
aVscaleX
p1509
aVscaleY
p1510
aVscaleZ
p1511
aVspace_world
p1512
aaI01
aF0
aF0
aF0
aF0
aF0
aF0
aF1
aF1
aF1
aF0
aa(lp1513
Vspine_adj_01_anim_space_switcher
p1514
a(lp1515
Vvisibility
p1516
aVtranslateX
p1517
aVtranslateY
p1518
aVtranslateZ
p1519
aVrotateX
p1520
aVrotateY
p1521
aVrotateZ
p1522
aVscaleX
p1523
aVscaleY
p1524
aVscaleZ
p1525
aVspace_world
p1526
aaI01
aF-1.4210854715202004e-14
aF0
aF2.7755575615628914e-17
aF7.5830332790935439e-22
aF-0
aF0
aF1
aF1
aF1
aF0
aa(lp1527
Vspine_adj_02_anim_space_switcher
p1528
a(lp1529
Vvisibility
p1530
aVtranslateX
p1531
aVtranslateY
p1532
aVtranslateZ
p1533
aVrotateX
p1534
aVrotateY
p1535
aVrotateZ
p1536
aVscaleX
p1537
aVscaleY
p1538
aVscaleZ
p1539
aVspace_world
p1540
aaI01
aF0
aF1.7763568394002505e-15
aF0
aF1.5166066558187084e-21
aF1.213285324654967e-20
aF7.9513867036587919e-16
aF1
aF1.0000000000000002
aF1.0000000000000002
aF0
aa(lp1541
Vspine_adj_03_anim_space_switcher
p1542
a(lp1543
Vvisibility
p1544
aVtranslateX
p1545
aVtranslateY
p1546
aVtranslateZ
p1547
aVrotateX
p1548
aVrotateY
p1549
aVrotateZ
p1550
aVscaleX
p1551
aVscaleY
p1552
aVscaleZ
p1553
aVspace_world
p1554
aaI01
aF0
aF0
aF-2.7755575615628914e-17
aF-2.9621223746459156e-23
aF-0
aF1.5902773407317584e-15
aF1
aF1
aF1
aF0
aa(lp1555
Vweapon_r_anim_space_switcher
p1556
a(lp1557
Vvisibility
p1558
aVtranslateX
p1559
aVtranslateY
p1560
aVtranslateZ
p1561
aVrotateX
p1562
aVrotateY
p1563
aVrotateZ
p1564
aVscaleX
p1565
aVscaleY
p1566
aVscaleZ
p1567
aVspace_world
p1568
aaI01
aF0
aF0
aF0
aF0
aF0
aF0
aF1
aF1
aF1
aF0
aa.