(lp1
(lp2
S'head_fk_anim'
p3
a(lp4
VrotateX
p5
aVrotateY
p6
aVrotateZ
p7
aVfkOrientation
p8
aaF38.702645986481201
aF9.6222584924710226
aF-13.241871386466117
aI0
aa(lp9
S'neck_01_fk_anim'
p10
a(lp11
VrotateX
p12
aVrotateY
p13
aVrotateZ
p14
aVfkOrientation
p15
aaF0
aF-2.8249000307521001e-30
aF0
aI0
aa(lp16
S'neck_02_fk_anim'
p17
a(lp18
VrotateX
p19
aVrotateY
p20
aVrotateZ
p21
aaF0
aF0
aF0
aa(lp22
S'spine_01_anim'
p23
a(lp24
Vlength
p25
aVtranslateY
p26
aVtranslateZ
p27
aVrotateX
p28
aVrotateY
p29
aVrotateZ
p30
aaF0
aF0
aF0
aF0
aF0
aF0
aa(lp31
S'spine_02_anim'
p32
a(lp33
Vlength
p34
aVtranslateY
p35
aVtranslateZ
p36
aVrotateX
p37
aVrotateY
p38
aVrotateZ
p39
aaF0
aF0
aF0
aF0
aF0
aF0
aa(lp40
S'spine_03_anim'
p41
a(lp42
Vlength
p43
aVtranslateY
p44
aVtranslateZ
p45
aVrotateX
p46
aVrotateY
p47
aVrotateZ
p48
aaF0
aF0
aF0
aF0
aF0
aF0
aa(lp49
S'mid_ik_anim'
p50
a(lp51
VtranslateX
p52
aVtranslateY
p53
aVtranslateZ
p54
aVrotateX
p55
aVrotateY
p56
aVrotateZ
p57
aaF-1.7051003246126648
aF0.24039919115282615
aF-0.38891971347749998
aF0
aF-5.3596997928309698
aF0
aa(lp58
S'chest_ik_anim'
p59
a(lp60
VtranslateX
p61
aVtranslateY
p62
aVtranslateZ
p63
aVrotateX
p64
aVrotateY
p65
aVrotateZ
p66
aVstretch
p67
aVtwist_amount
p68
aVspine_01_twistAmount
p69
aVspine_02_twistAmount
p70
aVautoSpine
p71
aVrotationInfluence
p72
aaF-0.056637611880526802
aF-0.031995609841510696
aF0.71398399488235675
aF-0.5891116057829564
aF-10.65308405637726
aF-2.5150629410156706
aF0
aF1
aF0.33333333333333331
aF0.66666666666666663
aF0
aF0.25
aa(lp73
S'body_anim'
p74
a(lp75
VtranslateX
p76
aVtranslateY
p77
aVtranslateZ
p78
aVrotateX
p79
aVrotateY
p80
aVrotateZ
p81
aaF-6.7456453370716369
aF2.4669717127487574
aF-3.1974588766287102
aF-42.694995171630019
aF-3.723005928541391
aF-3.8819813921114283
aa(lp82
S'hip_anim'
p83
a(lp84
VtranslateX
p85
aVtranslateY
p86
aVtranslateZ
p87
aVrotateX
p88
aVrotateY
p89
aVrotateZ
p90
aVlTwistCtrlVis
p91
aVlCalfTwistCtrlVis
p92
aVrTwistCtrlVis
p93
aVrCalfTwistCtrlVis
p94
aVautoHips
p95
aaF0
aF2.2204460492503131e-16
aF-6.3108872417680944e-30
aF0
aF-5.6498000615042016e-30
aF0
aI00
aI00
aI00
aI00
aF0
aa(lp96
S'clavicle_l_anim'
p97
a(lp98
VtranslateX
p99
aVtranslateY
p100
aVtranslateZ
p101
aVautoShoulders
p102
aVtwistCtrlVis
p103
aVtwistCtrlVisLower
p104
aaF-0.33083908973533482
aF-0.52670793487813472
aF2.0990411305526409
aF0
aI00
aI00
aa(lp105
S'clavicle_r_anim'
p106
a(lp107
VtranslateX
p108
aVtranslateY
p109
aVtranslateZ
p110
aVautoShoulders
p111
aVtwistCtrlVis
p112
aVtwistCtrlVisLower
p113
aaF1.594072701000073
aF1.9007795653829009
aF6.2293886264400591
aF0
aI00
aI00
aa(lp114
S'fk_arm_l_anim'
p115
a(lp116
VtranslateX
p117
aVtranslateY
p118
aVtranslateZ
p119
aVrotateX
p120
aVrotateY
p121
aVrotateZ
p122
aaF0
aF0
aF0
aF0
aF0
aF0
aa(lp123
S'fk_arm_r_anim'
p124
a(lp125
VtranslateX
p126
aVtranslateY
p127
aVtranslateZ
p128
aVrotateX
p129
aVrotateY
p130
aVrotateZ
p131
aaF0
aF0
aF0
aF0
aF0
aF0
aa(lp132
S'fk_elbow_l_anim'
p133
a(lp134
VtranslateX
p135
aVtranslateY
p136
aVtranslateZ
p137
aVrotateX
p138
aVrotateY
p139
aVrotateZ
p140
aaF0
aF0
aF0
aF0
aF0
aF0
aa(lp141
S'fk_elbow_r_anim'
p142
a(lp143
VtranslateX
p144
aVtranslateY
p145
aVtranslateZ
p146
aVrotateX
p147
aVrotateY
p148
aVrotateZ
p149
aaF0
aF0
aF0
aF0
aF0
aF0
aa(lp150
S'fk_wrist_l_anim'
p151
a(lp152
VtranslateX
p153
aVtranslateY
p154
aVtranslateZ
p155
aVrotateX
p156
aVrotateY
p157
aVrotateZ
p158
aaF0
aF0
aF0
aF0
aF0
aF0
aa(lp159
S'fk_wrist_r_anim'
p160
a(lp161
VtranslateX
p162
aVtranslateY
p163
aVtranslateZ
p164
aVrotateX
p165
aVrotateY
p166
aVrotateZ
p167
aaF0
aF0
aF0
aF0
aF0
aF0
aa(lp168
S'ik_elbow_l_anim'
p169
a(lp170
VtranslateX
p171
aVtranslateY
p172
aVtranslateZ
p173
aaF35.325395200229657
aF13.014134259056057
aF36.925748447681798
aa(lp174
S'ik_elbow_r_anim'
p175
a(lp176
VtranslateX
p177
aVtranslateY
p178
aVtranslateZ
p179
aaF19.891256744054658
aF28.120577419015991
aF-16.751993321117041
aa(lp180
S'ik_wrist_l_anim'
p181
a(lp182
VtranslateX
p183
aVtranslateY
p184
aVtranslateZ
p185
aVrotateX
p186
aVrotateY
p187
aVrotateZ
p188
aVstretch
p189
aVbias
p190
aVside
p191
aVmid_bend
p192
aVmid_swivel
p193
aVtip_pivot
p194
aVtip_swivel
p195
aaF-25.459009266393508
aF-24.586897887752428
aF-27.314023326200967
aF-34.948574100595174
aF62.743190746935312
aF-86.415669160583121
aF0
aF1
aF0
aF0
aF0
aF0
aF0
aa(lp196
S'ik_wrist_r_anim'
p197
a(lp198
VtranslateX
p199
aVtranslateY
p200
aVtranslateZ
p201
aVrotateX
p202
aVrotateY
p203
aVrotateZ
p204
aVstretch
p205
aVbias
p206
aVside
p207
aVmid_bend
p208
aVmid_swivel
p209
aVtip_pivot
p210
aVtip_swivel
p211
aaF24.711414284811433
aF23.236168480827651
aF-30.900595940401168
aF-90.655857724736364
aF-34.877490884900162
aF26.083621226453936
aF0
aF1
aF0
aF0
aF0
aF0
aF0
aa(lp212
S'fk_thigh_l_anim'
p213
a(lp214
VrotateX
p215
aVrotateY
p216
aVrotateZ
p217
aaF-2.8207063870240999e-16
aF1.5530052155583578e-18
aF2.4848083448933725e-17
aa(lp218
S'fk_thigh_r_anim'
p219
a(lp220
VrotateX
p221
aVrotateY
p222
aVrotateZ
p223
aaF-5.8618667175380076e-16
aF-0
aF2.4848083448933731e-17
aa(lp224
S'fk_calf_l_anim'
p225
a(lp226
VrotateX
p227
aVrotateY
p228
aVrotateZ
p229
aaF0
aF0
aF0
aa(lp230
S'fk_calf_r_anim'
p231
a(lp232
VrotateX
p233
aVrotateY
p234
aVrotateZ
p235
aaF0
aF0
aF0
aa(lp236
S'fk_foot_l_anim'
p237
a(lp238
VrotateX
p239
aVrotateY
p240
aVrotateZ
p241
aaF0
aF0
aF0
aa(lp242
S'fk_foot_r_anim'
p243
a(lp244
VrotateX
p245
aVrotateY
p246
aVrotateZ
p247
aaF-3.7635228676863548e-44
aF-0
aF0
aa(lp248
S'fk_ball_l_anim'
p249
a(lp250
VrotateX
p251
aVrotateY
p252
aVrotateZ
p253
aaF1.1299600123008406e-29
aF-0
aF0
aa(lp254
S'fk_ball_r_anim'
p255
a(lp256
VrotateX
p257
aVrotateY
p258
aVrotateZ
p259
aaF0
aF-2.6483437402281104e-30
aF0
aa(lp260
S'ik_foot_anim_l'
p261
a(lp262
VtranslateX
p263
aVtranslateY
p264
aVtranslateZ
p265
aVrotateX
p266
aVrotateY
p267
aVrotateZ
p268
aVknee_twist
p269
aVstretch
p270
aVbias
p271
aVtoeCtrlVis
p272
aaF10.375862410228351
aF-18.469768053791171
aF1.2031967447338499
aF0
aF0
aF22.11116836151729
aF15
aF0
aF1
aI00
aa(lp273
S'ik_foot_anim_r'
p274
a(lp275
VtranslateX
p276
aVtranslateY
p277
aVtranslateZ
p278
aVrotateX
p279
aVrotateY
p280
aVrotateZ
p281
aVknee_twist
p282
aVstretch
p283
aVbias
p284
aVtoeCtrlVis
p285
aaF-6.4156957350749666
aF17.41429166239265
aF0.75310681591444584
aF0
aF0
aF-47.368398082311671
aF54
aF0
aF1
aI00
aa(lp286
S'heel_ctrl_l'
p287
a(lp288
VrotateX
p289
aVrotateY
p290
aVrotateZ
p291
aaF-1.484403394074652e-13
aF1.3032819768965741e-14
aF0
aa(lp292
S'heel_ctrl_r'
p293
a(lp294
VrotateX
p295
aVrotateY
p296
aVrotateZ
p297
aaF-2.8034170711477671e-16
aF-0
aF0
aa(lp298
S'toe_wiggle_ctrl_l'
p299
a(lp300
VrotateX
p301
aVrotateY
p302
aVrotateZ
p303
aaF0
aF1.765562493485407e-31
aF0
aa(lp304
S'toe_wiggle_ctrl_r'
p305
a(lp306
VrotateX
p307
aVrotateY
p308
aVrotateZ
p309
aaF0
aF1.765562493485407e-31
aF0
aa(lp310
S'toe_tip_ctrl_l'
p311
a(lp312
VrotateX
p313
aVrotateY
p314
aVrotateZ
p315
aaF0
aF1.765562493485407e-31
aF0
aa(lp316
S'toe_tip_ctrl_r'
p317
a(lp318
VrotateX
p319
aVrotateY
p320
aVrotateZ
p321
aaF0
aF1.765562493485407e-31
aF0
aa(lp322
S'master_anim'
p323
a(lp324
VtranslateX
p325
aVtranslateY
p326
aVtranslateZ
p327
aVrotateX
p328
aVrotateY
p329
aVrotateZ
p330
aaF0
aF0
aF0
aF0
aF0
aF0
aa(lp331
S'offset_anim'
p332
a(lp333
VtranslateX
p334
aVtranslateY
p335
aVtranslateZ
p336
aVrotateX
p337
aVrotateY
p338
aVrotateZ
p339
aaF0
aF0
aF0
aF0
aF0
aF0
aa(lp340
S'root_anim'
p341
a(lp342
VtranslateX
p343
aVtranslateY
p344
aVtranslateZ
p345
aVrotateX
p346
aVrotateY
p347
aVrotateZ
p348
aaF0
aF0
aF0
aF0
aF0
aF0
aa(lp349
S'upperarm_l_twist_anim'
p350
a(lp351
VtranslateX
p352
aVtranslateY
p353
aVtranslateZ
p354
aVrotateX
p355
aVrotateY
p356
aVrotateZ
p357
aaF0
aF0
aF0
aF0
aF0
aF0
aa(lp358
S'upperarm_r_twist_anim'
p359
a(lp360
VtranslateX
p361
aVtranslateY
p362
aVtranslateZ
p363
aVrotateX
p364
aVrotateY
p365
aVrotateZ
p366
aaF0
aF0
aF0
aF0
aF0
aF0
aa(lp367
S'thigh_l_twist_anim'
p368
a(lp369
VtranslateX
p370
aVtranslateY
p371
aVtranslateZ
p372
aVrotateX
p373
aVrotateY
p374
aVrotateZ
p375
aaF0
aF0
aF0
aF0
aF0
aF0
aa(lp376
S'thigh_r_twist_anim'
p377
a(lp378
VtranslateX
p379
aVtranslateY
p380
aVtranslateZ
p381
aVrotateX
p382
aVrotateY
p383
aVrotateZ
p384
aaF0
aF0
aF0
aF0
aF0
aF0
aa(lp385
S'pinky_finger_fk_ctrl_1_l'
p386
a(lp387
VtranslateX
p388
aVtranslateY
p389
aVtranslateZ
p390
aVrotateX
p391
aVrotateY
p392
aVrotateZ
p393
aVsticky
p394
aaF0
aF0
aF0
aF0
aF0
aF24.936646358625069
aF0
aa(lp395
S'pinky_finger_fk_ctrl_1_r'
p396
a(lp397
VtranslateX
p398
aVtranslateY
p399
aVtranslateZ
p400
aVrotateX
p401
aVrotateY
p402
aVrotateZ
p403
aVsticky
p404
aaF0
aF0
aF0
aF0
aF0
aF32.008009273267668
aF0
aa(lp405
S'pinky_finger_fk_ctrl_2_l'
p406
a(lp407
VtranslateX
p408
aVtranslateY
p409
aVtranslateZ
p410
aVrotateX
p411
aVrotateY
p412
aVrotateZ
p413
aaF0
aF0
aF0
aF0
aF0
aF24.936646358625069
aa(lp414
S'pinky_finger_fk_ctrl_2_r'
p415
a(lp416
VtranslateX
p417
aVtranslateY
p418
aVtranslateZ
p419
aVrotateX
p420
aVrotateY
p421
aVrotateZ
p422
aaF0
aF0
aF0
aF0
aF0
aF38.875086051894939
aa(lp423
S'pinky_finger_fk_ctrl_3_l'
p424
a(lp425
VtranslateX
p426
aVtranslateY
p427
aVtranslateZ
p428
aVrotateX
p429
aVrotateY
p430
aVrotateZ
p431
aaF0
aF0
aF0
aF0
aF0
aF24.936646358625069
aa(lp432
S'pinky_finger_fk_ctrl_3_r'
p433
a(lp434
VtranslateX
p435
aVtranslateY
p436
aVtranslateZ
p437
aVrotateX
p438
aVrotateY
p439
aVrotateZ
p440
aaF0
aF0
aF0
aF0
aF0
aF32.787095641692893
aa(lp441
S'ring_finger_fk_ctrl_1_l'
p442
a(lp443
VtranslateX
p444
aVtranslateY
p445
aVtranslateZ
p446
aVrotateX
p447
aVrotateY
p448
aVrotateZ
p449
aVsticky
p450
aaF0
aF0
aF0
aF0
aF0
aF24.936646358625069
aF0
aa(lp451
S'ring_finger_fk_ctrl_1_r'
p452
a(lp453
VtranslateX
p454
aVtranslateY
p455
aVtranslateZ
p456
aVrotateX
p457
aVrotateY
p458
aVrotateZ
p459
aVsticky
p460
aaF0
aF0
aF0
aF0
aF0
aF37.885088039531659
aF0
aa(lp461
S'ring_finger_fk_ctrl_2_l'
p462
a(lp463
VtranslateX
p464
aVtranslateY
p465
aVtranslateZ
p466
aVrotateX
p467
aVrotateY
p468
aVrotateZ
p469
aaF0
aF0
aF0
aF0
aF0
aF24.936646358625069
aa(lp470
S'ring_finger_fk_ctrl_2_r'
p471
a(lp472
VtranslateX
p473
aVtranslateY
p474
aVtranslateZ
p475
aVrotateX
p476
aVrotateY
p477
aVrotateZ
p478
aaF0
aF0
aF0
aF0
aF0
aF44.752164818158896
aa(lp479
S'ring_finger_fk_ctrl_3_l'
p480
a(lp481
VtranslateX
p482
aVtranslateY
p483
aVtranslateZ
p484
aVrotateX
p485
aVrotateY
p486
aVrotateZ
p487
aaF0
aF0
aF0
aF0
aF0
aF24.936646358625069
aa(lp488
S'ring_finger_fk_ctrl_3_r'
p489
a(lp490
VtranslateX
p491
aVtranslateY
p492
aVtranslateZ
p493
aVrotateX
p494
aVrotateY
p495
aVrotateZ
p496
aaF0
aF0
aF0
aF0
aF0
aF38.66417440795685
aa(lp497
S'middle_finger_fk_ctrl_1_l'
p498
a(lp499
VtranslateX
p500
aVtranslateY
p501
aVtranslateZ
p502
aVrotateX
p503
aVrotateY
p504
aVrotateZ
p505
aVsticky
p506
aaF0
aF0
aF0
aF0
aF0
aF24.936646358625069
aF0
aa(lp507
S'middle_finger_fk_ctrl_1_r'
p508
a(lp509
VtranslateX
p510
aVtranslateY
p511
aVtranslateZ
p512
aVrotateX
p513
aVrotateY
p514
aVrotateZ
p515
aVsticky
p516
aaF0
aF0
aF0
aF0
aF0
aF43.141210977618137
aF0
aa(lp517
S'middle_finger_fk_ctrl_2_l'
p518
a(lp519
VtranslateX
p520
aVtranslateY
p521
aVtranslateZ
p522
aVrotateX
p523
aVrotateY
p524
aVrotateZ
p525
aaF0
aF0
aF0
aF0
aF0
aF24.936646358625069
aa(lp526
S'middle_finger_fk_ctrl_2_r'
p527
a(lp528
VtranslateX
p529
aVtranslateY
p530
aVtranslateZ
p531
aVrotateX
p532
aVrotateY
p533
aVrotateZ
p534
aaF0
aF0
aF0
aF0
aF0
aF50.008287756244911
aa(lp535
S'middle_finger_fk_ctrl_3_l'
p536
a(lp537
VtranslateX
p538
aVtranslateY
p539
aVtranslateZ
p540
aVrotateX
p541
aVrotateY
p542
aVrotateZ
p543
aaF0
aF0
aF0
aF0
aF0
aF24.936646358625069
aa(lp544
S'middle_finger_fk_ctrl_3_r'
p545
a(lp546
VtranslateX
p547
aVtranslateY
p548
aVtranslateZ
p549
aVrotateX
p550
aVrotateY
p551
aVrotateZ
p552
aaF0
aF0
aF0
aF0
aF0
aF43.920297346042858
aa(lp553
S'index_finger_fk_ctrl_1_l'
p554
a(lp555
VtranslateX
p556
aVtranslateY
p557
aVtranslateZ
p558
aVrotateX
p559
aVrotateY
p560
aVrotateZ
p561
aVsticky
p562
aaF0
aF0
aF0
aF0
aF0
aF24.936646358625069
aF0
aa(lp563
S'index_finger_fk_ctrl_1_r'
p564
a(lp565
VtranslateX
p566
aVtranslateY
p567
aVtranslateZ
p568
aVrotateX
p569
aVrotateY
p570
aVrotateZ
p571
aVsticky
p572
aaF0
aF0
aF0
aF0
aF0
aF47.645462332595152
aF0
aa(lp573
S'index_finger_fk_ctrl_2_l'
p574
a(lp575
VtranslateX
p576
aVtranslateY
p577
aVtranslateZ
p578
aVrotateX
p579
aVrotateY
p580
aVrotateZ
p581
aaF0
aF0
aF0
aF0
aF0
aF24.936646358625069
aa(lp582
S'index_finger_fk_ctrl_2_r'
p583
a(lp584
VtranslateX
p585
aVtranslateY
p586
aVtranslateZ
p587
aVrotateX
p588
aVrotateY
p589
aVrotateZ
p590
aaF0
aF0
aF0
aF0
aF0
aF54.512539111222239
aa(lp591
S'index_finger_fk_ctrl_3_l'
p592
a(lp593
VtranslateX
p594
aVtranslateY
p595
aVtranslateZ
p596
aVrotateX
p597
aVrotateY
p598
aVrotateZ
p599
aaF0
aF0
aF0
aF0
aF0
aF24.936646358625069
aa(lp600
S'index_finger_fk_ctrl_3_r'
p601
a(lp602
VtranslateX
p603
aVtranslateY
p604
aVtranslateZ
p605
aVrotateX
p606
aVrotateY
p607
aVrotateZ
p608
aaF0
aF0
aF0
aF0
aF0
aF48.4245487010202
aa(lp609
S'thumb_finger_fk_ctrl_1_l'
p610
a(lp611
VtranslateX
p612
aVtranslateY
p613
aVtranslateZ
p614
aVrotateX
p615
aVrotateY
p616
aVrotateZ
p617
aVsticky
p618
aaF0
aF0
aF0
aF0
aF0
aF0
aF0
aa(lp619
S'thumb_finger_fk_ctrl_1_r'
p620
a(lp621
VtranslateX
p622
aVtranslateY
p623
aVtranslateZ
p624
aVrotateX
p625
aVrotateY
p626
aVrotateZ
p627
aVsticky
p628
aaF0
aF0
aF0
aF9.9667718434519306e-17
aF-4.2602028202290185
aF24.254194047755561
aF0
aa(lp629
S'thumb_finger_fk_ctrl_2_l'
p630
a(lp631
VtranslateX
p632
aVtranslateY
p633
aVtranslateZ
p634
aVrotateX
p635
aVrotateY
p636
aVrotateZ
p637
aaF0
aF0
aF0
aF0
aF0
aF0
aa(lp638
S'thumb_finger_fk_ctrl_2_r'
p639
a(lp640
VtranslateX
p641
aVtranslateY
p642
aVtranslateZ
p643
aVrotateX
p644
aVrotateY
p645
aVrotateZ
p646
aaF0
aF0
aF0
aF0
aF-28.183250000000001
aF0
aa(lp647
S'thumb_finger_fk_ctrl_3_l'
p648
a(lp649
VtranslateX
p650
aVtranslateY
p651
aVtranslateZ
p652
aVrotateX
p653
aVrotateY
p654
aVrotateZ
p655
aaF0
aF0
aF0
aF0
aF0
aF0
aa(lp656
S'thumb_finger_fk_ctrl_3_r'
p657
a(lp658
VtranslateX
p659
aVtranslateY
p660
aVtranslateZ
p661
aVrotateX
p662
aVrotateY
p663
aVrotateZ
p664
aaF0
aF0
aF0
aF0
aF0
aF36.995220512898989
aa(lp665
S'index_l_ik_anim'
p666
a(lp667
VtranslateX
p668
aVtranslateY
p669
aVtranslateZ
p670
aVrotateX
p671
aVrotateY
p672
aVrotateZ
p673
aVpoleVectorVis
p674
aaF0
aF0
aF0
aF0
aF0
aF0
aF0
aa(lp675
S'index_r_ik_anim'
p676
a(lp677
VtranslateX
p678
aVtranslateY
p679
aVtranslateZ
p680
aVrotateX
p681
aVrotateY
p682
aVrotateZ
p683
aVpoleVectorVis
p684
aaF0
aF0
aF0
aF0
aF0
aF0
aF0
aa(lp685
S'middle_l_ik_anim'
p686
a(lp687
VtranslateX
p688
aVtranslateY
p689
aVtranslateZ
p690
aVrotateX
p691
aVrotateY
p692
aVrotateZ
p693
aVpoleVectorVis
p694
aaF0
aF0
aF0
aF0
aF0
aF0
aF0
aa(lp695
S'middle_r_ik_anim'
p696
a(lp697
VtranslateX
p698
aVtranslateY
p699
aVtranslateZ
p700
aVrotateX
p701
aVrotateY
p702
aVrotateZ
p703
aVpoleVectorVis
p704
aaF0
aF0
aF0
aF0
aF0
aF0
aF0
aa(lp705
S'ring_l_ik_anim'
p706
a(lp707
VtranslateX
p708
aVtranslateY
p709
aVtranslateZ
p710
aVrotateX
p711
aVrotateY
p712
aVrotateZ
p713
aVpoleVectorVis
p714
aaF0
aF0
aF0
aF0
aF0
aF0
aF0
aa(lp715
S'ring_r_ik_anim'
p716
a(lp717
VtranslateX
p718
aVtranslateY
p719
aVtranslateZ
p720
aVrotateX
p721
aVrotateY
p722
aVrotateZ
p723
aVpoleVectorVis
p724
aaF0
aF0
aF0
aF0
aF0
aF0
aF0
aa(lp725
S'pinky_l_ik_anim'
p726
a(lp727
VtranslateX
p728
aVtranslateY
p729
aVtranslateZ
p730
aVrotateX
p731
aVrotateY
p732
aVrotateZ
p733
aVpoleVectorVis
p734
aaF0
aF0
aF0
aF0
aF0
aF0
aF0
aa(lp735
S'pinky_r_ik_anim'
p736
a(lp737
VtranslateX
p738
aVtranslateY
p739
aVtranslateZ
p740
aVrotateX
p741
aVrotateY
p742
aVrotateZ
p743
aVpoleVectorVis
p744
aaF0
aF0
aF0
aF0
aF0
aF0
aF0
aa(lp745
S'thumb_l_ik_anim'
p746
a(lp747
VtranslateX
p748
aVtranslateY
p749
aVtranslateZ
p750
aVrotateX
p751
aVrotateY
p752
aVrotateZ
p753
aVpoleVectorVis
p754
aaF0
aF0
aF0
aF0
aF0
aF0
aF0
aa(lp755
S'thumb_r_ik_anim'
p756
a(lp757
VtranslateX
p758
aVtranslateY
p759
aVtranslateZ
p760
aVrotateX
p761
aVrotateY
p762
aVrotateZ
p763
aVpoleVectorVis
p764
aaF0
aF0
aF0
aF0
aF0
aF0
aF0
aa(lp765
S'index_l_poleVector'
p766
a(lp767
VtranslateX
p768
aVtranslateY
p769
aVtranslateZ
p770
aVrotateX
p771
aVrotateY
p772
aVrotateZ
p773
aaF0
aF0
aF0
aF0
aF0
aF0
aa(lp774
S'index_r_poleVector'
p775
a(lp776
VtranslateX
p777
aVtranslateY
p778
aVtranslateZ
p779
aVrotateX
p780
aVrotateY
p781
aVrotateZ
p782
aaF0
aF0
aF0
aF0
aF0
aF0
aa(lp783
S'middle_l_poleVector'
p784
a(lp785
VtranslateX
p786
aVtranslateY
p787
aVtranslateZ
p788
aVrotateX
p789
aVrotateY
p790
aVrotateZ
p791
aaF0
aF0
aF0
aF0
aF0
aF0
aa(lp792
S'middle_r_poleVector'
p793
a(lp794
VtranslateX
p795
aVtranslateY
p796
aVtranslateZ
p797
aVrotateX
p798
aVrotateY
p799
aVrotateZ
p800
aaF0
aF0
aF0
aF0
aF0
aF0
aa(lp801
S'ring_l_poleVector'
p802
a(lp803
VtranslateX
p804
aVtranslateY
p805
aVtranslateZ
p806
aVrotateX
p807
aVrotateY
p808
aVrotateZ
p809
aaF0
aF0
aF0
aF0
aF0
aF0
aa(lp810
S'ring_r_poleVector'
p811
a(lp812
VtranslateX
p813
aVtranslateY
p814
aVtranslateZ
p815
aVrotateX
p816
aVrotateY
p817
aVrotateZ
p818
aaF0
aF0
aF0
aF0
aF0
aF0
aa(lp819
S'pinky_l_poleVector'
p820
a(lp821
VtranslateX
p822
aVtranslateY
p823
aVtranslateZ
p824
aVrotateX
p825
aVrotateY
p826
aVrotateZ
p827
aaF0
aF0
aF0
aF0
aF0
aF0
aa(lp828
S'pinky_r_poleVector'
p829
a(lp830
VtranslateX
p831
aVtranslateY
p832
aVtranslateZ
p833
aVrotateX
p834
aVrotateY
p835
aVrotateZ
p836
aaF0
aF0
aF0
aF0
aF0
aF0
aa(lp837
S'thumb_l_poleVector'
p838
a(lp839
VtranslateX
p840
aVtranslateY
p841
aVtranslateZ
p842
aVrotateX
p843
aVrotateY
p844
aVrotateZ
p845
aaF0
aF0
aF0
aF0
aF0
aF0
aa(lp846
S'thumb_r_poleVector'
p847
a(lp848
VtranslateX
p849
aVtranslateY
p850
aVtranslateZ
p851
aVrotateX
p852
aVrotateY
p853
aVrotateZ
p854
aaF0
aF0
aF0
aF0
aF0
aF0
aa(lp855
S'l_global_ik_anim'
p856
a(lp857
VtranslateX
p858
aVtranslateY
p859
aVtranslateZ
p860
aVrotateX
p861
aVrotateY
p862
aVrotateZ
p863
aaF0
aF0
aF0
aF0
aF0
aF0
aa(lp864
S'r_global_ik_anim'
p865
a(lp866
VtranslateX
p867
aVtranslateY
p868
aVtranslateZ
p869
aVrotateX
p870
aVrotateY
p871
aVrotateZ
p872
aaF0
aF0
aF0
aF0
aF0
aF0
aa(lp873
S'Rig_Settings'
p874
a(lp875
Vspine_ik
p876
aVspine_fk
p877
aVlLegMode
p878
aVlThighTwistAmount
p879
aVlCalfTwistAmount
p880
aVrLegMode
p881
aVrThighTwistAmount
p882
aVrCalfTwistAmount
p883
aVlFkArmOrient
p884
aVrFkArmOrient
p885
aVlArmMode
p886
aVlUpperarmTwistAmount
p887
aVlForearmTwistAmount
p888
aVrArmMode
p889
aVrUpperarmTwistAmount
p890
aVrForearmTwistAmount
p891
aaF1
aF0
aI1
aF0.90000000000000002
aF0.5
aI1
aF0.90000000000000002
aF0.5
aI0
aI0
aI1
aF0.90000000000000002
aF0.5
aI1
aF0.90000000000000002
aF0.5
aa.