(lp1
(lp2
S'head_fk_anim'
p3
a(lp4
VtranslateX
p5
aVtranslateY
p6
aVtranslateZ
p7
aVrotateX
p8
aVrotateY
p9
aVrotateZ
p10
aVscaleX
p11
aVscaleY
p12
aVscaleZ
p13
aVfkOrientation
p14
aVLidTop_l
p15
aVLidBot_l
p16
aVLidTop_r
p17
aVLidBot_r
p18
aaF0
aF0
aF0
aF-13.239062544937532
aF2.5904929573451922
aF-1.9245787119706692
aF1
aF1
aF1
aI0
aF0.52000000000000002
aF0
aF0.56999999999999995
aF0.63400000000000001
aa(lp19
S'neck_01_fk_anim'
p20
a(lp21
VtranslateX
p22
aVtranslateY
p23
aVtranslateZ
p24
aVrotateX
p25
aVrotateY
p26
aVrotateZ
p27
aVscaleX
p28
aVscaleY
p29
aVscaleZ
p30
aVfkOrientation
p31
aaF1.4916212229939911
aF0.12708976042338097
aF0.17198332438465425
aF-1.97421060635169
aF15.223617460723732
aF0.37495252787098926
aF1
aF1
aF0.99999999999999967
aI0
aa(lp32
S'spine_01_anim'
p33
a(lp34
Vlength
p35
aVtranslateY
p36
aVtranslateZ
p37
aVrotateX
p38
aVrotateY
p39
aVrotateZ
p40
aaF0
aF0
aF0
aF0
aF0
aF0
aa(lp41
S'spine_02_anim'
p42
a(lp43
Vlength
p44
aVtranslateY
p45
aVtranslateZ
p46
aVrotateX
p47
aVrotateY
p48
aVrotateZ
p49
aaF0
aF0
aF0
aF0
aF0
aF0
aa(lp50
S'spine_03_anim'
p51
a(lp52
Vlength
p53
aVtranslateY
p54
aVtranslateZ
p55
aVrotateX
p56
aVrotateY
p57
aVrotateZ
p58
aaF0
aF0
aF0
aF0
aF0
aF0
aa(lp59
S'mid_ik_anim'
p60
a(lp61
VtranslateX
p62
aVtranslateY
p63
aVtranslateZ
p64
aVrotateX
p65
aVrotateY
p66
aVrotateZ
p67
aaF-6.5505763349384081
aF-11.763094548309788
aF-2.16973309184523
aF-3.3577900132681471
aF17.569697366765016
aF-24.864645135380595
aa(lp68
S'chest_ik_anim'
p69
a(lp70
VtranslateX
p71
aVtranslateY
p72
aVtranslateZ
p73
aVrotateX
p74
aVrotateY
p75
aVrotateZ
p76
aVstretch
p77
aVsquash
p78
aVtwist_amount
p79
aVautoSpine
p80
aVrotationInfluence
p81
aaF-2.4338997743559077
aF-14.120669750739513
aF-6.1065918362974783
aF0.59094278055771343
aF22.69011924828558
aF-26.965626772015327
aF1
aF1
aF1
aF0
aF0
aa(lp82
S'body_anim'
p83
a(lp84
VtranslateX
p85
aVtranslateY
p86
aVtranslateZ
p87
aVrotateX
p88
aVrotateY
p89
aVrotateZ
p90
aaF-7.4906261609387448
aF7.4552616503406934
aF0.14963531922634732
aF0
aF1.8579098356326578
aF8.1386669949909827
aa(lp91
S'hip_anim'
p92
a(lp93
VtranslateX
p94
aVtranslateY
p95
aVtranslateZ
p96
aVrotateX
p97
aVrotateY
p98
aVrotateZ
p99
aVlTwistCtrlVis
p100
aVlCalfTwistCtrlVis
p101
aVrTwistCtrlVis
p102
aVrCalfTwistCtrlVis
p103
aVautoHips
p104
aaF-4.6478639088548031
aF0
aF0
aF0.60464312974086398
aF-3.6532975560468808
aF9.4042131323861469
aI00
aI00
aI00
aI00
aF0
aa(lp105
S'clavicle_l_anim'
p106
a(lp107
VtranslateX
p108
aVtranslateY
p109
aVtranslateZ
p110
aVautoShoulders
p111
aaF0
aF-4.1513895258590434
aF-0.17161767197966071
aF0
aa(lp112
S'clavicle_r_anim'
p113
a(lp114
VtranslateX
p115
aVtranslateY
p116
aVtranslateZ
p117
aVautoShoulders
p118
aaF0.52660732845645153
aF-5.3887870468038495
aF1.8290994585570046
aF0
aa(lp119
S'fk_arm_l_anim'
p120
a(lp121
VtranslateX
p122
aVtranslateY
p123
aVtranslateZ
p124
aVrotateX
p125
aVrotateY
p126
aVrotateZ
p127
aaF0
aF0
aF0
aF46.062891352278129
aF64.902380853595943
aF22.051528144397476
aa(lp128
S'fk_arm_r_anim'
p129
a(lp130
VtranslateX
p131
aVtranslateY
p132
aVtranslateZ
p133
aVrotateX
p134
aVrotateY
p135
aVrotateZ
p136
aaF0
aF0
aF0
aF219.09888180417246
aF-35.73518272073062
aF-41.058220612111533
aa(lp137
S'fk_elbow_l_anim'
p138
a(lp139
VtranslateX
p140
aVtranslateY
p141
aVtranslateZ
p142
aVrotateX
p143
aVrotateY
p144
aVrotateZ
p145
aaF0
aF0
aF0
aF3.0332133116381071e-21
aF3.8648557196272655e-05
aF-45.146449106715863
aa(lp146
S'fk_elbow_r_anim'
p147
a(lp148
VtranslateX
p149
aVtranslateY
p150
aVtranslateZ
p151
aVrotateX
p152
aVrotateY
p153
aVrotateZ
p154
aaF0
aF0
aF0
aF6.4717031885718428e-05
aF-9.0302200651171666e-05
aF-83.413755265541866
aa(lp155
S'fk_wrist_l_anim'
p156
a(lp157
VtranslateX
p158
aVtranslateY
p159
aVtranslateZ
p160
aVrotateX
p161
aVrotateY
p162
aVrotateZ
p163
aaF0
aF0
aF0
aF9.4980955044871358
aF-27.74941517574722
aF44.572367409794666
aa(lp164
S'fk_wrist_r_anim'
p165
a(lp166
VtranslateX
p167
aVtranslateY
p168
aVtranslateZ
p169
aVrotateX
p170
aVrotateY
p171
aVrotateZ
p172
aaF0
aF0
aF0
aF24.575236667474673
aF-19.184142279075061
aF46.028224438137784
aa(lp173
S'ik_elbow_l_anim'
p174
a(lp175
VtranslateX
p176
aVtranslateY
p177
aVtranslateZ
p178
aaF-7.5265786522664726
aF-14.392677312265132
aF-39.24419411426716
aa(lp179
S'ik_elbow_r_anim'
p180
a(lp181
VtranslateX
p182
aVtranslateY
p183
aVtranslateZ
p184
aaF15.95348427294855
aF-6.1052112872315778
aF-8.9518369913403149
aa(lp185
S'ik_wrist_l_anim'
p186
a(lp187
VtranslateX
p188
aVtranslateY
p189
aVtranslateZ
p190
aVrotateX
p191
aVrotateY
p192
aVrotateZ
p193
aVstretch
p194
aVsquash
p195
aVside
p196
aVmid_bend
p197
aVmid_swivel
p198
aVtip_pivot
p199
aVtip_swivel
p200
aaF-28.068729283544073
aF-14.349442652838642
aF-57.421113579492712
aF189.15497963360468
aF67.010425112707509
aF132.89403951431632
aF0
aF0
aF0
aF0
aF0
aF0
aF0
aa(lp201
S'ik_wrist_r_anim'
p202
a(lp203
VtranslateX
p204
aVtranslateY
p205
aVtranslateZ
p206
aVrotateX
p207
aVrotateY
p208
aVrotateZ
p209
aVstretch
p210
aVsquash
p211
aVside
p212
aVmid_bend
p213
aVmid_swivel
p214
aVtip_pivot
p215
aVtip_swivel
p216
aaF30.816740468575439
aF-11.234049029039671
aF-21.184052821575307
aF-59.192610122959529
aF-77.673349428516204
aF126.05255144683456
aF0
aF0
aF0
aF-4
aF0
aF0
aF0
aa(lp217
S'fk_thigh_l_anim'
p218
a(lp219
VrotateX
p220
aVrotateY
p221
aVrotateZ
p222
aaF1.2307566333299985e-16
aF-0
aF0
aa(lp223
S'fk_thigh_r_anim'
p224
a(lp225
VrotateX
p226
aVrotateY
p227
aVrotateZ
p228
aaF3.3428437264893663e-16
aF-4.9696166897867462e-17
aF0
aa(lp229
S'fk_calf_l_anim'
p230
a(lp231
VrotateX
p232
aVrotateY
p233
aVrotateZ
p234
aaF0
aF0
aF0
aa(lp235
S'fk_calf_r_anim'
p236
a(lp237
VrotateX
p238
aVrotateY
p239
aVrotateZ
p240
aaF0
aF0
aF0
aa(lp241
S'fk_foot_l_anim'
p242
a(lp243
VrotateX
p244
aVrotateY
p245
aVrotateZ
p246
aaF0
aF0
aF0
aa(lp247
S'fk_foot_r_anim'
p248
a(lp249
VrotateX
p250
aVrotateY
p251
aVrotateZ
p252
aaF-1.3559520147610087e-28
aF-0
aF0
aa(lp253
S'fk_ball_l_anim'
p254
a(lp255
VrotateX
p256
aVrotateY
p257
aVrotateZ
p258
aaF0
aF7.8105242774663503e-19
aF0
aa(lp259
S'fk_ball_r_anim'
p260
a(lp261
VrotateX
p262
aVrotateY
p263
aVrotateZ
p264
aaF0
aF-4.7773109658289326e-19
aF0
aa(lp265
S'ik_foot_anim_l'
p266
a(lp267
VtranslateX
p268
aVtranslateY
p269
aVtranslateZ
p270
aVrotateX
p271
aVrotateY
p272
aVrotateZ
p273
aVknee_twist
p274
aVstretch
p275
aVsquash
p276
aVtoeCtrlVis
p277
aVToeSplay_l
p278
aaF8.0188151321322465
aF-15.074957838107119
aF0
aF0
aF0
aF17.331592265250894
aF12.236870773924046
aF0
aF0
aI00
aF0.42999999999999999
aa(lp279
S'ik_foot_anim_r'
p280
a(lp281
VtranslateX
p282
aVtranslateY
p283
aVtranslateZ
p284
aVrotateX
p285
aVrotateY
p286
aVrotateZ
p287
aVknee_twist
p288
aVstretch
p289
aVsquash
p290
aVtoeCtrlVis
p291
aVToeSplay_r
p292
aaF-5.6717421897822335
aF9.0705479292374172
aF0
aF0
aF0
aF-27.115684212037873
aF23
aF0
aF0
aI00
aF0.63
aa(lp293
S'heel_ctrl_l'
p294
a(lp295
VrotateX
p296
aVrotateY
p297
aVrotateZ
p298
aVheelPivot
p299
aVballPivot
p300
aaF-2.3310608285530949e-15
aF6.4605016967227709e-15
aF0
aF0
aF0
aa(lp301
S'heel_ctrl_r'
p302
a(lp303
VrotateX
p304
aVrotateY
p305
aVrotateZ
p306
aVheelPivot
p307
aVballPivot
p308
aaF1.810182879254822e-14
aF7.6376977859778252
aF0
aF0
aF0
aa(lp309
S'toe_wiggle_ctrl_l'
p310
a(lp311
VrotateX
p312
aVrotateY
p313
aVrotateZ
p314
aaF-1.2724354108025459e-14
aF-2.4265706493099341e-20
aF-5.9635400277440939e-16
aa(lp315
S'toe_wiggle_ctrl_r'
p316
a(lp317
VrotateX
p318
aVrotateY
p319
aVrotateZ
p320
aaF-3.1794384589648344e-15
aF3.2667707366334987e-18
aF-3.5781240166464568e-15
aa(lp321
S'toe_tip_ctrl_l'
p322
a(lp323
VrotateX
p324
aVrotateY
p325
aVrotateZ
p326
aaF0
aF2.0064706056481519e-18
aF2.9817700138720468e-15
aa(lp327
S'toe_tip_ctrl_r'
p328
a(lp329
VrotateX
p330
aVrotateY
p331
aVrotateZ
p332
aaF0
aF1.5590716421816326e-18
aF-3.5781240166464568e-15
aa(lp333
S'master_anim'
p334
a(lp335
VtranslateX
p336
aVtranslateY
p337
aVtranslateZ
p338
aVrotateX
p339
aVrotateY
p340
aVrotateZ
p341
aaF0
aF0
aF0
aF0
aF0
aF0
aa(lp342
S'offset_anim'
p343
a(lp344
VtranslateX
p345
aVtranslateY
p346
aVtranslateZ
p347
aVrotateX
p348
aVrotateY
p349
aVrotateZ
p350
aaF0
aF0
aF0
aF0
aF0
aF0
aa(lp351
S'root_anim'
p352
a(lp353
VtranslateX
p354
aVtranslateY
p355
aVtranslateZ
p356
aVrotateX
p357
aVrotateY
p358
aVrotateZ
p359
aaF0
aF0
aF0
aF0
aF0
aF0
aa(lp360
S'upperarm_l_twist_anim'
p361
a(lp362
VtranslateX
p363
aVtranslateY
p364
aVtranslateZ
p365
aVrotateX
p366
aVrotateY
p367
aVrotateZ
p368
aVscaleX
p369
aVscaleY
p370
aVscaleZ
p371
aaF0
aF0
aF0
aF-20
aF0
aF0
aF1
aF1
aF1
aa(lp372
S'upperarm_r_twist_anim'
p373
a(lp374
VtranslateX
p375
aVtranslateY
p376
aVtranslateZ
p377
aVrotateX
p378
aVrotateY
p379
aVrotateZ
p380
aVscaleX
p381
aVscaleY
p382
aVscaleZ
p383
aaF-0.11819575082646576
aF-1.3942997398464121
aF0
aF-8.3587841607298135
aF-1.3622524949462838
aF-10.133678995266314
aF1
aF1
aF1
aa(lp384
S'thigh_l_twist_anim'
p385
a(lp386
VtranslateX
p387
aVtranslateY
p388
aVtranslateZ
p389
aVrotateX
p390
aVrotateY
p391
aVrotateZ
p392
aaF0
aF0
aF0
aF0
aF0
aF0
aa(lp393
S'thigh_r_twist_anim'
p394
a(lp395
VtranslateX
p396
aVtranslateY
p397
aVtranslateZ
p398
aVrotateX
p399
aVrotateY
p400
aVrotateZ
p401
aaF0
aF0
aF0
aF0
aF0
aF0
aa(lp402
S'pinky_finger_fk_ctrl_1_l'
p403
a(lp404
VtranslateX
p405
aVtranslateY
p406
aVtranslateZ
p407
aVrotateX
p408
aVrotateY
p409
aVrotateZ
p410
aVsticky
p411
aaF0
aF0
aF0
aF-11.955545239087026
aF-1.0102263805326732
aF-7.9161916232409855
aF0
aa(lp412
S'pinky_finger_fk_ctrl_1_r'
p413
a(lp414
VtranslateX
p415
aVtranslateY
p416
aVtranslateZ
p417
aVrotateX
p418
aVrotateY
p419
aVrotateZ
p420
aVsticky
p421
aaF0
aF0
aF0
aF-9.983666260961364
aF-8.9921223519664544
aF29.006491552272788
aF0
aa(lp422
S'pinky_finger_fk_ctrl_2_l'
p423
a(lp424
VtranslateX
p425
aVtranslateY
p426
aVtranslateZ
p427
aVrotateX
p428
aVrotateY
p429
aVrotateZ
p430
aaF0
aF0
aF0
aF0
aF0
aF73.195014834669891
aa(lp431
S'pinky_finger_fk_ctrl_2_r'
p432
a(lp433
VtranslateX
p434
aVtranslateY
p435
aVtranslateZ
p436
aVrotateX
p437
aVrotateY
p438
aVrotateZ
p439
aaF0
aF0
aF0
aF0
aF0
aF57.452168359925295
aa(lp440
S'pinky_finger_fk_ctrl_3_l'
p441
a(lp442
VtranslateX
p443
aVtranslateY
p444
aVtranslateZ
p445
aVrotateX
p446
aVrotateY
p447
aVrotateZ
p448
aaF0
aF0
aF0
aF0
aF0
aF40.512646362663808
aa(lp449
S'pinky_finger_fk_ctrl_3_r'
p450
a(lp451
VtranslateX
p452
aVtranslateY
p453
aVtranslateZ
p454
aVrotateX
p455
aVrotateY
p456
aVrotateZ
p457
aaF0
aF0
aF0
aF0
aF0
aF24.769799887919156
aa(lp458
S'ring_finger_fk_ctrl_1_l'
p459
a(lp460
VtranslateX
p461
aVtranslateY
p462
aVtranslateZ
p463
aVrotateX
p464
aVrotateY
p465
aVrotateZ
p466
aVsticky
p467
aaF0
aF0
aF0
aF-0.51692152834619221
aF8.3134615471626478
aF4.6205669702174337
aF0
aa(lp468
S'ring_finger_fk_ctrl_1_r'
p469
a(lp470
VtranslateX
p471
aVtranslateY
p472
aVtranslateZ
p473
aVrotateX
p474
aVrotateY
p475
aVrotateZ
p476
aVsticky
p477
aaF0
aF0
aF0
aF1.534474880423931
aF-5.3409249575035229
aF3.9259645205774198
aF0
aa(lp478
S'ring_finger_fk_ctrl_2_l'
p479
a(lp480
VtranslateX
p481
aVtranslateY
p482
aVtranslateZ
p483
aVrotateX
p484
aVrotateY
p485
aVrotateZ
p486
aaF0
aF0
aF0
aF0
aF0
aF59.473385073667529
aa(lp487
S'ring_finger_fk_ctrl_2_r'
p488
a(lp489
VtranslateX
p490
aVtranslateY
p491
aVtranslateZ
p492
aVrotateX
p493
aVrotateY
p494
aVrotateZ
p495
aaF0
aF0
aF0
aF0
aF0
aF52.460539253701121
aa(lp496
S'ring_finger_fk_ctrl_3_l'
p497
a(lp498
VtranslateX
p499
aVtranslateY
p500
aVtranslateZ
p501
aVrotateX
p502
aVrotateY
p503
aVrotateZ
p504
aaF0
aF0
aF0
aF0
aF0
aF32.416595867369971
aa(lp505
S'ring_finger_fk_ctrl_3_r'
p506
a(lp507
VtranslateX
p508
aVtranslateY
p509
aVtranslateZ
p510
aVrotateX
p511
aVrotateY
p512
aVrotateZ
p513
aaF0
aF0
aF0
aF0
aF0
aF22.547680267575675
aa(lp514
S'middle_finger_fk_ctrl_1_l'
p515
a(lp516
VtranslateX
p517
aVtranslateY
p518
aVtranslateZ
p519
aVrotateX
p520
aVrotateY
p521
aVrotateZ
p522
aVsticky
p523
aaF0
aF0
aF0
aF0
aF0
aF7.6139160841999391
aF0
aa(lp524
S'middle_finger_fk_ctrl_1_r'
p525
a(lp526
VtranslateX
p527
aVtranslateY
p528
aVtranslateZ
p529
aVrotateX
p530
aVrotateY
p531
aVrotateZ
p532
aVsticky
p533
aaF0
aF0
aF0
aF0
aF-6.4818292789088083
aF-10.504579863374033
aF0
aa(lp534
S'middle_finger_fk_ctrl_2_l'
p535
a(lp536
VtranslateX
p537
aVtranslateY
p538
aVtranslateZ
p539
aVrotateX
p540
aVrotateY
p541
aVrotateZ
p542
aaF0
aF0
aF0
aF0
aF0
aF44.983511255614332
aa(lp543
S'middle_finger_fk_ctrl_2_r'
p544
a(lp545
VtranslateX
p546
aVtranslateY
p547
aVtranslateZ
p548
aVrotateX
p549
aVrotateY
p550
aVrotateZ
p551
aaF0
aF0
aF0
aF0
aF0
aF57.452168359925295
aa(lp552
S'middle_finger_fk_ctrl_3_l'
p553
a(lp554
VtranslateX
p555
aVtranslateY
p556
aVtranslateZ
p557
aVrotateX
p558
aVrotateY
p559
aVrotateZ
p560
aaF0
aF0
aF0
aF0
aF0
aF40.512646362663808
aa(lp561
S'middle_finger_fk_ctrl_3_r'
p562
a(lp563
VtranslateX
p564
aVtranslateY
p565
aVtranslateZ
p566
aVrotateX
p567
aVrotateY
p568
aVrotateZ
p569
aaF0
aF0
aF0
aF0
aF0
aF24.769799887919156
aa(lp570
S'index_finger_fk_ctrl_1_l'
p571
a(lp572
VtranslateX
p573
aVtranslateY
p574
aVtranslateZ
p575
aVrotateX
p576
aVrotateY
p577
aVrotateZ
p578
aVsticky
p579
aaF0
aF0
aF0
aF1.4287461311961382
aF-3.9401540359078586
aF-2.3402334536490876
aF0
aa(lp580
S'index_finger_fk_ctrl_1_r'
p581
a(lp582
VtranslateX
p583
aVtranslateY
p584
aVtranslateZ
p585
aVrotateX
p586
aVrotateY
p587
aVrotateZ
p588
aVsticky
p589
aaF0
aF0
aF0
aF-0.79977424742857128
aF-12.532162517097817
aF-10.160126252377125
aF0
aa(lp590
S'index_finger_fk_ctrl_2_l'
p591
a(lp592
VtranslateX
p593
aVtranslateY
p594
aVtranslateZ
p595
aVrotateX
p596
aVrotateY
p597
aVrotateZ
p598
aaF0
aF0
aF0
aF0
aF0
aF49.32968832941436
aa(lp599
S'index_finger_fk_ctrl_2_r'
p600
a(lp601
VtranslateX
p602
aVtranslateY
p603
aVtranslateZ
p604
aVrotateX
p605
aVrotateY
p606
aVrotateZ
p607
aaF0
aF0
aF0
aF0
aF0
aF36.861891750403238
aa(lp608
S'index_finger_fk_ctrl_3_l'
p609
a(lp610
VtranslateX
p611
aVtranslateY
p612
aVtranslateZ
p613
aVrotateX
p614
aVrotateY
p615
aVrotateZ
p616
aaF0
aF0
aF0
aF0
aF0
aF30.558473698818549
aa(lp617
S'index_finger_fk_ctrl_3_r'
p618
a(lp619
VtranslateX
p620
aVtranslateY
p621
aVtranslateZ
p622
aVrotateX
p623
aVrotateY
p624
aVrotateZ
p625
aaF0
aF0
aF0
aF0
aF0
aF24.769799887919156
aa(lp626
S'thumb_finger_fk_ctrl_1_l'
p627
a(lp628
VtranslateX
p629
aVtranslateY
p630
aVtranslateZ
p631
aVrotateX
p632
aVrotateY
p633
aVrotateZ
p634
aVsticky
p635
aaF0
aF0
aF0
aF17.515354821293375
aF5.5578969259257773
aF-9.1597048533243832
aF0
aa(lp636
S'thumb_finger_fk_ctrl_1_r'
p637
a(lp638
VtranslateX
p639
aVtranslateY
p640
aVtranslateZ
p641
aVrotateX
p642
aVrotateY
p643
aVrotateZ
p644
aVsticky
p645
aaF0
aF0
aF0
aF0
aF0
aF12.755271545452516
aF0
aa(lp646
S'thumb_finger_fk_ctrl_2_l'
p647
a(lp648
VtranslateX
p649
aVtranslateY
p650
aVtranslateZ
p651
aVrotateX
p652
aVrotateY
p653
aVrotateZ
p654
aaF0
aF0
aF0
aF0
aF2.5200000409777088
aF16.347144386772872
aa(lp655
S'thumb_finger_fk_ctrl_2_r'
p656
a(lp657
VtranslateX
p658
aVtranslateY
p659
aVtranslateZ
p660
aVrotateX
p661
aVrotateY
p662
aVrotateZ
p663
aaF0
aF0
aF0
aF0
aF0
aF12.755271545452516
aa(lp664
S'thumb_finger_fk_ctrl_3_l'
p665
a(lp666
VtranslateX
p667
aVtranslateY
p668
aVtranslateZ
p669
aVrotateX
p670
aVrotateY
p671
aVrotateZ
p672
aaF0
aF0
aF0
aF0
aF2.5200000409777088
aF16.347144386772872
aa(lp673
S'thumb_finger_fk_ctrl_3_r'
p674
a(lp675
VtranslateX
p676
aVtranslateY
p677
aVtranslateZ
p678
aVrotateX
p679
aVrotateY
p680
aVrotateZ
p681
aaF0
aF0
aF0
aF0
aF0
aF12.755271545452516
aa(lp682
S'index_l_ik_anim'
p683
a(lp684
VtranslateX
p685
aVtranslateY
p686
aVtranslateZ
p687
aVrotateX
p688
aVrotateY
p689
aVrotateZ
p690
aVpoleVectorVis
p691
aaF0
aF0
aF0
aF0
aF0
aF0
aF0
aa(lp692
S'index_r_ik_anim'
p693
a(lp694
VtranslateX
p695
aVtranslateY
p696
aVtranslateZ
p697
aVrotateX
p698
aVrotateY
p699
aVrotateZ
p700
aVpoleVectorVis
p701
aaF0
aF0
aF0
aF0
aF0
aF0
aF0
aa(lp702
S'middle_l_ik_anim'
p703
a(lp704
VtranslateX
p705
aVtranslateY
p706
aVtranslateZ
p707
aVrotateX
p708
aVrotateY
p709
aVrotateZ
p710
aVpoleVectorVis
p711
aaF0
aF0
aF0
aF0
aF0
aF0
aF0
aa(lp712
S'middle_r_ik_anim'
p713
a(lp714
VtranslateX
p715
aVtranslateY
p716
aVtranslateZ
p717
aVrotateX
p718
aVrotateY
p719
aVrotateZ
p720
aVpoleVectorVis
p721
aaF0
aF0
aF0
aF0
aF0
aF0
aF0
aa(lp722
S'ring_l_ik_anim'
p723
a(lp724
VtranslateX
p725
aVtranslateY
p726
aVtranslateZ
p727
aVrotateX
p728
aVrotateY
p729
aVrotateZ
p730
aVpoleVectorVis
p731
aaF0
aF0
aF0
aF0
aF0
aF0
aF0
aa(lp732
S'ring_r_ik_anim'
p733
a(lp734
VtranslateX
p735
aVtranslateY
p736
aVtranslateZ
p737
aVrotateX
p738
aVrotateY
p739
aVrotateZ
p740
aVpoleVectorVis
p741
aaF0
aF0
aF0
aF0
aF0
aF0
aF0
aa(lp742
S'pinky_l_ik_anim'
p743
a(lp744
VtranslateX
p745
aVtranslateY
p746
aVtranslateZ
p747
aVrotateX
p748
aVrotateY
p749
aVrotateZ
p750
aVpoleVectorVis
p751
aaF0
aF0
aF0
aF0
aF0
aF0
aF0
aa(lp752
S'pinky_r_ik_anim'
p753
a(lp754
VtranslateX
p755
aVtranslateY
p756
aVtranslateZ
p757
aVrotateX
p758
aVrotateY
p759
aVrotateZ
p760
aVpoleVectorVis
p761
aaF0
aF0
aF0
aF0
aF0
aF0
aF0
aa(lp762
S'thumb_l_ik_anim'
p763
a(lp764
VtranslateX
p765
aVtranslateY
p766
aVtranslateZ
p767
aVrotateX
p768
aVrotateY
p769
aVrotateZ
p770
aVpoleVectorVis
p771
aaF0
aF0
aF0
aF0
aF0
aF0
aF0
aa(lp772
S'thumb_r_ik_anim'
p773
a(lp774
VtranslateX
p775
aVtranslateY
p776
aVtranslateZ
p777
aVrotateX
p778
aVrotateY
p779
aVrotateZ
p780
aVpoleVectorVis
p781
aaF0
aF0
aF0
aF0
aF0
aF0
aF0
aa(lp782
S'index_l_poleVector'
p783
a(lp784
VtranslateX
p785
aVtranslateY
p786
aVtranslateZ
p787
aVrotateX
p788
aVrotateY
p789
aVrotateZ
p790
aaF0
aF0
aF0
aF0
aF0
aF0
aa(lp791
S'index_r_poleVector'
p792
a(lp793
VtranslateX
p794
aVtranslateY
p795
aVtranslateZ
p796
aVrotateX
p797
aVrotateY
p798
aVrotateZ
p799
aaF0
aF0
aF0
aF0
aF0
aF0
aa(lp800
S'middle_l_poleVector'
p801
a(lp802
VtranslateX
p803
aVtranslateY
p804
aVtranslateZ
p805
aVrotateX
p806
aVrotateY
p807
aVrotateZ
p808
aaF0
aF0
aF0
aF0
aF0
aF0
aa(lp809
S'middle_r_poleVector'
p810
a(lp811
VtranslateX
p812
aVtranslateY
p813
aVtranslateZ
p814
aVrotateX
p815
aVrotateY
p816
aVrotateZ
p817
aaF0
aF0
aF0
aF0
aF0
aF0
aa(lp818
S'ring_l_poleVector'
p819
a(lp820
VtranslateX
p821
aVtranslateY
p822
aVtranslateZ
p823
aVrotateX
p824
aVrotateY
p825
aVrotateZ
p826
aaF0
aF0
aF0
aF0
aF0
aF0
aa(lp827
S'ring_r_poleVector'
p828
a(lp829
VtranslateX
p830
aVtranslateY
p831
aVtranslateZ
p832
aVrotateX
p833
aVrotateY
p834
aVrotateZ
p835
aaF0
aF0
aF0
aF0
aF0
aF0
aa(lp836
S'pinky_l_poleVector'
p837
a(lp838
VtranslateX
p839
aVtranslateY
p840
aVtranslateZ
p841
aVrotateX
p842
aVrotateY
p843
aVrotateZ
p844
aaF0
aF0
aF0
aF0
aF0
aF0
aa(lp845
S'pinky_r_poleVector'
p846
a(lp847
VtranslateX
p848
aVtranslateY
p849
aVtranslateZ
p850
aVrotateX
p851
aVrotateY
p852
aVrotateZ
p853
aaF0
aF0
aF0
aF0
aF0
aF0
aa(lp854
S'thumb_l_poleVector'
p855
a(lp856
VtranslateX
p857
aVtranslateY
p858
aVtranslateZ
p859
aVrotateX
p860
aVrotateY
p861
aVrotateZ
p862
aaF0
aF0
aF0
aF0
aF0
aF0
aa(lp863
S'thumb_r_poleVector'
p864
a(lp865
VtranslateX
p866
aVtranslateY
p867
aVtranslateZ
p868
aVrotateX
p869
aVrotateY
p870
aVrotateZ
p871
aaF0
aF0
aF0
aF0
aF0
aF0
aa(lp872
S'l_global_ik_anim'
p873
a(lp874
VtranslateX
p875
aVtranslateY
p876
aVtranslateZ
p877
aVrotateX
p878
aVrotateY
p879
aVrotateZ
p880
aaF0
aF0
aF0
aF0
aF0
aF0
aa(lp881
S'r_global_ik_anim'
p882
a(lp883
VtranslateX
p884
aVtranslateY
p885
aVtranslateZ
p886
aVrotateX
p887
aVrotateY
p888
aVrotateZ
p889
aaF0
aF0
aF0
aF0
aF0
aF0
aa(lp890
S'Rig_Settings'
p891
a(lp892
Vspine_ik
p893
aVspine_fk
p894
aVlLegMode
p895
aVlThighTwistAmount
p896
aVlCalfTwistAmount
p897
aVrLegMode
p898
aVrThighTwistAmount
p899
aVrCalfTwistAmount
p900
aVlFkArmOrient
p901
aVlArmMode
p902
aVlClavMode
p903
aVltwistCtrlVis
p904
aVlUpperarmTwistAmount
p905
aVltwistCtrlVisLower
p906
aVlForearmTwistAmount
p907
aVrFkArmOrient
p908
aVrArmMode
p909
aVrClavMode
p910
aVrtwistCtrlVis
p911
aVrUpperarmTwistAmount
p912
aVrtwistCtrlVisLower
p913
aVrForearmTwistAmount
p914
aVhood_fk
p915
aVhood_ik
p916
aVhood_dynamic
p917
aaF1
aF0
aI1
aF0.90000000000000002
aF0.5
aI1
aF0.90000000000000002
aF0.5
aI2
aI1
aI1
aI00
aF0.90000000000000002
aI00
aF0.5
aI2
aI1
aI1
aI00
aF0.90000000000000002
aI00
aF0.5
aF1
aF0
aF0
aa(lp918
Vjaw_anim
p919
a(lp920
VtranslateX
p921
aVtranslateY
p922
aVtranslateZ
p923
aVrotateX
p924
aVrotateY
p925
aVrotateZ
p926
aVscaleX
p927
aVscaleY
p928
aVscaleZ
p929
aaF1.83198535614211
aF0.43763801969249172
aF-0.59109843142030782
aF14.918222482274512
aF-3.4009011360966195
aF-11.867759941550586
aF0.99999999999999989
aF1
aF0.99999999999999989
aa(lp930
Vbelly_anim
p931
a(lp932
VtranslateX
p933
aVtranslateY
p934
aVtranslateZ
p935
aVrotateX
p936
aVrotateY
p937
aVrotateZ
p938
aVchainAttach
p939
aVchainStartEnvelope
p940
aVchainStartFrame
p941
aVchainStiffness
p942
aVchainDamping
p943
aVchainGravity
p944
aVchainIteration
p945
aVchainCollide
p946
aVchainWidthBase
p947
aVchainWidthExtremity
p948
aVchainCollideGround
p949
aVchainCollideGroundHeight
p950
aaF0
aF3.9138303421297991
aF-2.5174177465145346
aF0
aF0
aF0
aI1
aF0
aF0
aF0.10000000000000001
aF0.20000000000000001
aF1
aI1
aI00
aF1
aF1
aI00
aF0
aa(lp951
Vpectoral_l_anim
p952
a(lp953
VtranslateX
p954
aVtranslateY
p955
aVtranslateZ
p956
aVrotateX
p957
aVrotateY
p958
aVrotateZ
p959
aVchainAttach
p960
aVchainStartEnvelope
p961
aVchainStartFrame
p962
aVchainStiffness
p963
aVchainDamping
p964
aVchainGravity
p965
aVchainIteration
p966
aVchainCollide
p967
aVchainWidthBase
p968
aVchainWidthExtremity
p969
aVchainCollideGround
p970
aVchainCollideGroundHeight
p971
aaF-3.5527136788005009e-15
aF0
aF-1.4210854715202004e-14
aF0
aF-0
aF-1.8957583197733855e-22
aI1
aF0
aF0
aF0.10000000000000001
aF0.20000000000000001
aF1
aI1
aI00
aF1
aF1
aI00
aF0
aa(lp972
Vpectoral_r_anim
p973
a(lp974
VtranslateX
p975
aVtranslateY
p976
aVtranslateZ
p977
aVrotateX
p978
aVrotateY
p979
aVrotateZ
p980
aVchainAttach
p981
aVchainStartEnvelope
p982
aVchainStartFrame
p983
aVchainStiffness
p984
aVchainDamping
p985
aVchainGravity
p986
aVchainIteration
p987
aVchainCollide
p988
aVchainWidthBase
p989
aVchainWidthExtremity
p990
aVchainCollideGround
p991
aVchainCollideGroundHeight
p992
aaF0.99089555614276792
aF0
aF-3.7716210880755625
aF9.9392333795734899e-17
aF-1.4810078044785395e-24
aF1.8956325725395614e-22
aI1
aF0
aF0
aF0.10000000000000001
aF0.20000000000000001
aF1
aI1
aI00
aF1
aF1
aI00
aF0
aa(lp993
Vhood_dyn_anim
p994
a(lp995
VtranslateX
p996
aVtranslateY
p997
aVtranslateZ
p998
aVrotateX
p999
aVrotateY
p1000
aVrotateZ
p1001
aVchainAttach
p1002
aVchainStartEnvelope
p1003
aVchainStartFrame
p1004
aVchainStiffness
p1005
aVchainDamping
p1006
aVchainGravity
p1007
aVchainIteration
p1008
aVchainCollide
p1009
aVchainWidthBase
p1010
aVchainWidthExtremity
p1011
aVchainCollideGround
p1012
aVchainCollideGroundHeight
p1013
aaF0
aF0
aF0
aF0
aF0
aF0
aI1
aF1
aF1
aF0.10000000000000001
aF0.20000000000000001
aF1
aI1
aI00
aF1
aF1
aI00
aF0
aa(lp1014
Vhood_ik_2_anim
p1015
a(lp1016
VtranslateX
p1017
aVtranslateY
p1018
aVtranslateZ
p1019
aVrotateX
p1020
aVrotateY
p1021
aVrotateZ
p1022
aaF-3.3881317890172014e-21
aF1.4210854715202004e-14
aF0
aF3.1805546814635176e-15
aF-7.1698963818712035e-23
aF1.4081516806666651e-23
aa(lp1023
Vhood_ik_3_anim
p1024
a(lp1025
VtranslateX
p1026
aVtranslateY
p1027
aVtranslateZ
p1028
aVrotateX
p1029
aVrotateY
p1030
aVrotateZ
p1031
aVclusterControlVis
p1032
aaF0
aF2.8421709430404007e-14
aF1.4210854715202004e-14
aF3.1805546814635176e-15
aF-7.1698963818712035e-23
aF1.4081516806666651e-23
aI00
aa(lp1033
Vhood_ik_base_anim
p1034
a(lp1035
VtranslateX
p1036
aVtranslateY
p1037
aVtranslateZ
p1038
aVrotateX
p1039
aVrotateY
p1040
aVrotateZ
p1041
aVglobal_scale
p1042
aaF0
aF0
aF1.4210854715202004e-14
aF0
aF-0
aF-3.791516639546772e-22
aF1
aa(lp1043
Vfk_hood_01_anim
p1044
a(lp1045
VtranslateX
p1046
aVtranslateY
p1047
aVtranslateZ
p1048
aVrotateX
p1049
aVrotateY
p1050
aVrotateZ
p1051
aVglobal_scale
p1052
aVlagMode
p1053
aaF0
aF-1.4210854715202004e-14
aF2.8421709430404007e-14
aF0
aF1.8957583197733869e-22
aF-1.8957583197733869e-22
aF1
aF0
aa(lp1054
Vhood_cv_0_anim
p1055
a(lp1056
VtranslateX
p1057
aVtranslateY
p1058
aVtranslateZ
p1059
aaF0
aF0
aF0
aa(lp1060
Vfk_hood_02_anim
p1061
a(lp1062
VtranslateX
p1063
aVtranslateY
p1064
aVtranslateZ
p1065
aVrotateX
p1066
aVrotateY
p1067
aVrotateZ
p1068
aaF0
aF1.4210854715202004e-14
aF0
aF3.180554681463516e-15
aF-0
aF0
aa(lp1069
Vhood_cv_1_anim
p1070
a(lp1071
VtranslateX
p1072
aVtranslateY
p1073
aVtranslateZ
p1074
aaF0
aF0
aF0
aa(lp1075
Vfk_hood_03_anim
p1076
a(lp1077
VtranslateX
p1078
aVtranslateY
p1079
aVtranslateZ
p1080
aVrotateX
p1081
aVrotateY
p1082
aVrotateZ
p1083
aaF3.3881317890172014e-21
aF1.4210854715202004e-14
aF0
aF3.180554681463516e-15
aF-7.1698963818712059e-23
aF1.4081516806666586e-23
aa(lp1084
Vhood_cv_2_anim
p1085
a(lp1086
VtranslateX
p1087
aVtranslateY
p1088
aVtranslateZ
p1089
aaF0
aF0
aF0
aa(lp1090
Vweapon_r_anim
p1091
a(lp1092
VtranslateX
p1093
aVtranslateY
p1094
aVtranslateZ
p1095
aVrotateX
p1096
aVrotateY
p1097
aVrotateZ
p1098
aVscaleX
p1099
aVscaleY
p1100
aVscaleZ
p1101
aaF-1.4210854715202004e-14
aF-1.4210854715202004e-14
aF8.8817841970012523e-16
aF-9.9392333795734899e-17
aF3.6019408075694324e-21
aF2.4265706493099335e-20
aF1.0000000000000002
aF1
aF1
aa(lp1102
Vsleeve_r_anim
p1103
a(lp1104
VtranslateX
p1105
aVtranslateY
p1106
aVtranslateZ
p1107
aVrotateX
p1108
aVrotateY
p1109
aVrotateZ
p1110
aVscaleX
p1111
aVscaleY
p1112
aVscaleZ
p1113
aaF0
aF4.4408920985006262e-16
aF0
aF1.9878466759146975e-16
aF-0
aF-9.783932858017654e-17
aF1
aF1.0000000000000002
aF1
aa(lp1114
Vsleeve_l_anim
p1115
a(lp1116
VtranslateX
p1117
aVtranslateY
p1118
aVtranslateZ
p1119
aVrotateX
p1120
aVrotateY
p1121
aVrotateZ
p1122
aVscaleX
p1123
aVscaleY
p1124
aVscaleZ
p1125
aaF7.1054273576010019e-15
aF0
aF0
aF0
aF-0
aF1.91019641513678e-16
aF1
aF1
aF0.99999999999999989
aa(lp1126
Vshirt_front_anim
p1127
a(lp1128
VtranslateX
p1129
aVtranslateY
p1130
aVtranslateZ
p1131
aVrotateX
p1132
aVrotateY
p1133
aVrotateZ
p1134
aVscaleX
p1135
aVscaleY
p1136
aVscaleZ
p1137
aaF0
aF0.28391577275980051
aF0.15403091278169789
aF0
aF0
aF0
aF1
aF1
aF1
aa(lp1138
Vshirt_back_anim
p1139
a(lp1140
VtranslateX
p1141
aVtranslateY
p1142
aVtranslateZ
p1143
aVrotateX
p1144
aVrotateY
p1145
aVrotateZ
p1146
aVscaleX
p1147
aVscaleY
p1148
aVscaleZ
p1149
aaF0.0017914935692700685
aF1.7763568394002505e-15
aF-2.6672189825575376
aF0
aF-3.4872293343072673
aF0
aF1
aF1
aF1
aa(lp1150
Vshirt_l_anim
p1151
a(lp1152
VtranslateX
p1153
aVtranslateY
p1154
aVtranslateZ
p1155
aVrotateX
p1156
aVrotateY
p1157
aVrotateZ
p1158
aVscaleX
p1159
aVscaleY
p1160
aVscaleZ
p1161
aaF0
aF0.56630295913974837
aF3.6778293106383217
aF-11.908050895183777
aF0
aF0
aF1
aF1
aF1
aa(lp1162
Vshirt_r_anim
p1163
a(lp1164
VtranslateX
p1165
aVtranslateY
p1166
aVtranslateZ
p1167
aVrotateX
p1168
aVrotateY
p1169
aVrotateZ
p1170
aVscaleX
p1171
aVscaleY
p1172
aVscaleZ
p1173
aaF0.48914933592915438
aF0
aF0
aF-15.663878390356976
aF0
aF0
aF1
aF1
aF1
aa(lp1174
Vspine_adj_01_anim
p1175
a(lp1176
VtranslateX
p1177
aVtranslateY
p1178
aVtranslateZ
p1179
aVrotateX
p1180
aVrotateY
p1181
aVrotateZ
p1182
aVscaleX
p1183
aVscaleY
p1184
aVscaleZ
p1185
aaF0
aF-8.8817841970012523e-16
aF2.7755575615628914e-17
aF0
aF1.2132853246549667e-20
aF0
aF1.0000000000000002
aF1
aF1.0000000000000002
aa(lp1186
Vspine_adj_02_anim
p1187
a(lp1188
VtranslateX
p1189
aVtranslateY
p1190
aVtranslateZ
p1191
aVrotateX
p1192
aVrotateY
p1193
aVrotateZ
p1194
aVscaleX
p1195
aVscaleY
p1196
aVscaleZ
p1197
aaF1.4210854715202004e-14
aF4.5742326359151182
aF5.5511151231257827e-17
aF1.5166066558187088e-21
aF1.213285324654967e-20
aF0
aF1
aF1
aF1
aa(lp1198
Vspine_adj_03_anim
p1199
a(lp1200
VtranslateX
p1201
aVtranslateY
p1202
aVtranslateZ
p1203
aVrotateX
p1204
aVrotateY
p1205
aVrotateZ
p1206
aVscaleX
p1207
aVscaleY
p1208
aVscaleZ
p1209
aaF0
aF0
aF0
aF-1.7180309772946311e-22
aF-0
aF0
aF1
aF1
aF0.99999999999999989
aa(lp1210
Vshirt_mstr_anim
p1211
a(lp1212
VtranslateX
p1213
aVtranslateY
p1214
aVtranslateZ
p1215
aVrotateX
p1216
aVrotateY
p1217
aVrotateZ
p1218
aVscaleX
p1219
aVscaleY
p1220
aVscaleZ
p1221
aaF0
aF0
aF0
aF-7.5830332790935439e-22
aF1.213285324654967e-20
aF6.0741484787484632
aF1
aF1
aF1
aa(lp1222
Vcowl_front_anim
p1223
a(lp1224
VtranslateX
p1225
aVtranslateY
p1226
aVtranslateZ
p1227
aVrotateX
p1228
aVrotateY
p1229
aVrotateZ
p1230
aVscaleX
p1231
aVscaleY
p1232
aVscaleZ
p1233
aaF-2.8421709430404007e-14
aF0
aF0
aF-3.791516639546771e-22
aF-0
aF0
aF1
aF1.0000000000000002
aF1.0000000000000002
aa(lp1234
Vcowl_left_anim
p1235
a(lp1236
VtranslateX
p1237
aVtranslateY
p1238
aVtranslateZ
p1239
aVrotateX
p1240
aVrotateY
p1241
aVrotateZ
p1242
aVscaleX
p1243
aVscaleY
p1244
aVscaleZ
p1245
aaF0
aF0
aF-1.7763568394002505e-15
aF-3.791516639546771e-22
aF-0
aF0
aF1
aF1.0000000000000002
aF1.0000000000000002
aa(lp1246
Vcowl_right_anim
p1247
a(lp1248
VtranslateX
p1249
aVtranslateY
p1250
aVtranslateZ
p1251
aVrotateX
p1252
aVrotateY
p1253
aVrotateZ
p1254
aVscaleX
p1255
aVscaleY
p1256
aVscaleZ
p1257
aaF0
aF0
aF0
aF0
aF0
aF0
aF1
aF1.0000000000000002
aF1.0000000000000002
aa(lp1258
Vsleeve_back_r_anim
p1259
a(lp1260
VtranslateX
p1261
aVtranslateY
p1262
aVtranslateZ
p1263
aVrotateX
p1264
aVrotateY
p1265
aVrotateZ
p1266
aVscaleX
p1267
aVscaleY
p1268
aVscaleZ
p1269
aaF-2.8421709430404007e-14
aF-3.5527136788005009e-15
aF-1.0658141036401503e-14
aF-9.9392333795734924e-17
aF-0
aF0
aF1
aF0.99999999999999978
aF0.99999999999999978
aa(lp1270
Vsleeve_back_l_anim
p1271
a(lp1272
VtranslateX
p1273
aVtranslateY
p1274
aVtranslateZ
p1275
aVrotateX
p1276
aVrotateY
p1277
aVrotateZ
p1278
aVscaleX
p1279
aVscaleY
p1280
aVscaleZ
p1281
aaF-2.8421709430404007e-14
aF0
aF-7.1054273576010019e-15
aF9.9392333795734899e-17
aF-0
aF-1.987846675914699e-16
aF0.99999999999999967
aF1
aF0.99999999999999989
aa(lp1282
Vbody_anim_space_switcher
p1283
a(lp1284
Vvisibility
p1285
aVtranslateX
p1286
aVtranslateY
p1287
aVtranslateZ
p1288
aVrotateX
p1289
aVrotateY
p1290
aVrotateZ
p1291
aVscaleX
p1292
aVscaleY
p1293
aVscaleZ
p1294
aVspace_world
p1295
aaI01
aF0
aF0
aF0
aF0
aF0
aF0
aF1
aF1
aF1
aF0
aa(lp1296
Vchest_ik_anim_space_switcher
p1297
a(lp1298
Vvisibility
p1299
aVtranslateX
p1300
aVtranslateY
p1301
aVtranslateZ
p1302
aVrotateX
p1303
aVrotateY
p1304
aVrotateZ
p1305
aVscaleX
p1306
aVscaleY
p1307
aVscaleZ
p1308
aVspace_world
p1309
aVspace_chest_ik_world_aligned
p1310
aaI01
aF0
aF0
aF0
aF0
aF0
aF0
aF1
aF1.0000000000000002
aF1.0000000000000002
aF0
aF0
aa(lp1311
Vcowl_front_anim_space_switcher
p1312
a(lp1313
Vvisibility
p1314
aVtranslateX
p1315
aVtranslateY
p1316
aVtranslateZ
p1317
aVrotateX
p1318
aVrotateY
p1319
aVrotateZ
p1320
aVscaleX
p1321
aVscaleY
p1322
aVscaleZ
p1323
aVspace_world
p1324
aaI01
aF0
aF0
aF2.7755575615628914e-17
aF-3.791516639546771e-22
aF-0
aF0
aF1
aF1.0000000000000002
aF1.0000000000000002
aF0
aa(lp1325
Vcowl_left_anim_space_switcher
p1326
a(lp1327
Vvisibility
p1328
aVtranslateX
p1329
aVtranslateY
p1330
aVtranslateZ
p1331
aVrotateX
p1332
aVrotateY
p1333
aVrotateZ
p1334
aVscaleX
p1335
aVscaleY
p1336
aVscaleZ
p1337
aVspace_world
p1338
aaI01
aF0
aF0
aF0
aF-3.791516639546771e-22
aF-0
aF0
aF1
aF1.0000000000000002
aF1.0000000000000002
aF0
aa(lp1339
Vcowl_right_anim_space_switcher
p1340
a(lp1341
Vvisibility
p1342
aVtranslateX
p1343
aVtranslateY
p1344
aVtranslateZ
p1345
aVrotateX
p1346
aVrotateY
p1347
aVrotateZ
p1348
aVscaleX
p1349
aVscaleY
p1350
aVscaleZ
p1351
aVspace_world
p1352
aaI01
aF-2.8421709430404007e-14
aF-3.5527136788005009e-15
aF0
aF-3.791516639546771e-22
aF-0
aF0
aF1
aF1.0000000000000002
aF1.0000000000000002
aF0
aa(lp1353
Vik_elbow_l_anim_space_switcher
p1354
a(lp1355
Vvisibility
p1356
aVtranslateX
p1357
aVtranslateY
p1358
aVtranslateZ
p1359
aVrotateX
p1360
aVrotateY
p1361
aVrotateZ
p1362
aVscaleX
p1363
aVscaleY
p1364
aVscaleZ
p1365
aVspace_world
p1366
aVspace_body_anim
p1367
aVspace_chest_ik_anim
p1368
aaI01
aF0
aF0
aF0
aF0
aF0
aF0
aF1
aF1
aF1
aF0
aF0
aF0
aa(lp1369
Vik_elbow_r_anim_space_switcher
p1370
a(lp1371
Vvisibility
p1372
aVtranslateX
p1373
aVtranslateY
p1374
aVtranslateZ
p1375
aVrotateX
p1376
aVrotateY
p1377
aVrotateZ
p1378
aVscaleX
p1379
aVscaleY
p1380
aVscaleZ
p1381
aVspace_world
p1382
aVspace_body_anim
p1383
aVspace_chest_ik_anim
p1384
aaI01
aF0
aF0
aF0
aF0
aF0
aF0
aF1
aF1
aF1
aF0
aF0
aF0
aa(lp1385
Vik_foot_anim_l_space_switcher
p1386
a(lp1387
Vvisibility
p1388
aVtranslateX
p1389
aVtranslateY
p1390
aVtranslateZ
p1391
aVrotateX
p1392
aVrotateY
p1393
aVrotateZ
p1394
aVscaleX
p1395
aVscaleY
p1396
aVscaleZ
p1397
aVspace_world
p1398
aVspace_body_anim
p1399
aaI01
aF0
aF0
aF0
aF0
aF0
aF0
aF1
aF1
aF1
aF0
aF0
aa(lp1400
Vik_foot_anim_r_space_switcher
p1401
a(lp1402
Vvisibility
p1403
aVtranslateX
p1404
aVtranslateY
p1405
aVtranslateZ
p1406
aVrotateX
p1407
aVrotateY
p1408
aVrotateZ
p1409
aVscaleX
p1410
aVscaleY
p1411
aVscaleZ
p1412
aVspace_world
p1413
aVspace_body_anim
p1414
aaI01
aF0
aF0
aF0
aF0
aF0
aF0
aF1
aF1
aF1
aF0
aF0
aa(lp1415
Vik_wrist_l_anim_space_switcher
p1416
a(lp1417
Vvisibility
p1418
aVtranslateX
p1419
aVtranslateY
p1420
aVtranslateZ
p1421
aVrotateX
p1422
aVrotateY
p1423
aVrotateZ
p1424
aVscaleX
p1425
aVscaleY
p1426
aVscaleZ
p1427
aVspace_world
p1428
aVspace_body_anim
p1429
aVspace_head_fk_anim
p1430
aVspace_chest_ik_anim
p1431
aaI01
aF0
aF0
aF0
aF0
aF0
aF0
aF1
aF1
aF1
aF0
aF0
aF0
aF0
aa(lp1432
Vik_wrist_r_anim_space_switcher
p1433
a(lp1434
Vvisibility
p1435
aVtranslateX
p1436
aVtranslateY
p1437
aVtranslateZ
p1438
aVrotateX
p1439
aVrotateY
p1440
aVrotateZ
p1441
aVscaleX
p1442
aVscaleY
p1443
aVscaleZ
p1444
aVspace_world
p1445
aVspace_body_anim
p1446
aVspace_head_fk_anim
p1447
aVspace_chest_ik_anim
p1448
aaI01
aF0
aF0
aF0
aF0
aF0
aF0
aF1
aF1
aF1
aF0
aF0
aF0
aF0
aa(lp1449
Vjaw_anim_space_switcher
p1450
a(lp1451
Vvisibility
p1452
aVtranslateX
p1453
aVtranslateY
p1454
aVtranslateZ
p1455
aVrotateX
p1456
aVrotateY
p1457
aVrotateZ
p1458
aVscaleX
p1459
aVscaleY
p1460
aVscaleZ
p1461
aVspace_world
p1462
aaI01
aF0
aF0
aF0
aF0
aF0
aF0
aF1
aF1
aF1
aF0
aa(lp1463
Vl_global_ik_anim_space_switcher
p1464
a(lp1465
Vvisibility
p1466
aVtranslateX
p1467
aVtranslateY
p1468
aVtranslateZ
p1469
aVrotateX
p1470
aVrotateY
p1471
aVrotateZ
p1472
aVscaleX
p1473
aVscaleY
p1474
aVscaleZ
p1475
aVspace_world
p1476
aaI01
aF0
aF0
aF0
aF0
aF0
aF0
aF1
aF1
aF1
aF0
aa(lp1477
Vmaster_anim_space_switcher
p1478
a(lp1479
Vvisibility
p1480
aVtranslateX
p1481
aVtranslateY
p1482
aVtranslateZ
p1483
aVrotateX
p1484
aVrotateY
p1485
aVrotateZ
p1486
aVscaleX
p1487
aVscaleY
p1488
aVscaleZ
p1489
aVspace_world
p1490
aaI01
aF0
aF0
aF0
aF0
aF0
aF0
aF1
aF1
aF1
aF0
aa(lp1491
Vr_global_ik_anim_space_switcher
p1492
a(lp1493
Vvisibility
p1494
aVtranslateX
p1495
aVtranslateY
p1496
aVtranslateZ
p1497
aVrotateX
p1498
aVrotateY
p1499
aVrotateZ
p1500
aVscaleX
p1501
aVscaleY
p1502
aVscaleZ
p1503
aVspace_world
p1504
aaI01
aF0
aF0
aF0
aF0
aF0
aF0
aF1
aF1
aF1
aF0
aa(lp1505
Vshirt_back_anim_space_switcher
p1506
a(lp1507
Vvisibility
p1508
aVtranslateX
p1509
aVtranslateY
p1510
aVtranslateZ
p1511
aVrotateX
p1512
aVrotateY
p1513
aVrotateZ
p1514
aVscaleX
p1515
aVscaleY
p1516
aVscaleZ
p1517
aVspace_world
p1518
aaI01
aF0
aF-1.7763568394002505e-15
aF1.4210854715202004e-14
aF0
aF1.2132853246549667e-20
aF0
aF1.0000000000000002
aF1.0000000000000002
aF1.0000000000000002
aF0
aa(lp1519
Vshirt_front_anim_space_switcher
p1520
a(lp1521
Vvisibility
p1522
aVtranslateX
p1523
aVtranslateY
p1524
aVtranslateZ
p1525
aVrotateX
p1526
aVrotateY
p1527
aVrotateZ
p1528
aVscaleX
p1529
aVscaleY
p1530
aVscaleZ
p1531
aVspace_world
p1532
aaI01
aF0
aF0
aF1.4210854715202004e-14
aF0
aF1.2132853246549667e-20
aF0
aF1.0000000000000002
aF1.0000000000000002
aF1.0000000000000002
aF0
aa(lp1533
Vshirt_l_anim_space_switcher
p1534
a(lp1535
Vvisibility
p1536
aVtranslateX
p1537
aVtranslateY
p1538
aVtranslateZ
p1539
aVrotateX
p1540
aVrotateY
p1541
aVrotateZ
p1542
aVscaleX
p1543
aVscaleY
p1544
aVscaleZ
p1545
aVspace_world
p1546
aaI01
aF0
aF-8.8817841970012523e-16
aF1.4210854715202004e-14
aF0
aF1.2132853246549667e-20
aF0
aF1.0000000000000002
aF1.0000000000000002
aF1.0000000000000002
aF0
aa(lp1547
Vshirt_mstr_anim_space_switcher
p1548
a(lp1549
Vvisibility
p1550
aVtranslateX
p1551
aVtranslateY
p1552
aVtranslateZ
p1553
aVrotateX
p1554
aVrotateY
p1555
aVrotateZ
p1556
aVscaleX
p1557
aVscaleY
p1558
aVscaleZ
p1559
aVspace_world
p1560
aaI01
aF-1.4210854715202004e-14
aF0
aF2.7755575615628914e-17
aF-7.5830332790935439e-22
aF1.213285324654967e-20
aF0
aF1
aF1
aF1
aF0
aa(lp1561
Vshirt_r_anim_space_switcher
p1562
a(lp1563
Vvisibility
p1564
aVtranslateX
p1565
aVtranslateY
p1566
aVtranslateZ
p1567
aVrotateX
p1568
aVrotateY
p1569
aVrotateZ
p1570
aVscaleX
p1571
aVscaleY
p1572
aVscaleZ
p1573
aVspace_world
p1574
aaI01
aF0
aF8.8817841970012523e-16
aF-1.4210854715202004e-14
aF0
aF-1.2132853246549667e-20
aF0
aF1.0000000000000002
aF1.0000000000000002
aF1
aF0
aa(lp1575
Vsleeve_back_l_anim_space_switcher
p1576
a(lp1577
Vvisibility
p1578
aVtranslateX
p1579
aVtranslateY
p1580
aVtranslateZ
p1581
aVrotateX
p1582
aVrotateY
p1583
aVrotateZ
p1584
aVscaleX
p1585
aVscaleY
p1586
aVscaleZ
p1587
aVspace_world
p1588
aaI01
aF0
aF-3.5527136788005009e-15
aF3.5527136788005009e-15
aF9.9392333795734924e-17
aF-0
aF1.9878466759146985e-16
aF0.99999999999999989
aF0.99999999999999989
aF0.99999999999999989
aF0
aa(lp1589
Vsleeve_back_r_anim_space_switcher
p1590
a(lp1591
Vvisibility
p1592
aVtranslateX
p1593
aVtranslateY
p1594
aVtranslateZ
p1595
aVrotateX
p1596
aVrotateY
p1597
aVrotateZ
p1598
aVscaleX
p1599
aVscaleY
p1600
aVscaleZ
p1601
aVspace_world
p1602
aaI01
aF0
aF0
aF7.1054273576010019e-15
aF0
aF-0
aF1.987846675914698e-16
aF1
aF1
aF0.99999999999999989
aF0
aa(lp1603
Vsleeve_l_anim_space_switcher
p1604
a(lp1605
Vvisibility
p1606
aVtranslateX
p1607
aVtranslateY
p1608
aVtranslateZ
p1609
aVrotateX
p1610
aVrotateY
p1611
aVrotateZ
p1612
aVscaleX
p1613
aVscaleY
p1614
aVscaleZ
p1615
aVspace_world
p1616
aaI01
aF7.1054273576010019e-15
aF8.8817841970012523e-16
aF-1.4210854715202004e-14
aF0
aF-0
aF1.6772456328030264e-16
aF1
aF0.99999999999999978
aF0.99999999999999989
aF0
aa(lp1617
Vsleeve_r_anim_space_switcher
p1618
a(lp1619
Vvisibility
p1620
aVtranslateX
p1621
aVtranslateY
p1622
aVtranslateZ
p1623
aVrotateX
p1624
aVrotateY
p1625
aVrotateZ
p1626
aVscaleX
p1627
aVscaleY
p1628
aVscaleZ
p1629
aVspace_world
p1630
aaI01
aF-7.1054273576010019e-15
aF4.4408920985006262e-16
aF0
aF0
aF-4.9696166897867462e-17
aF3.1836606918946342e-17
aF0.99999999999999989
aF0.99999999999999989
aF0.99999999999999989
aF0
aa(lp1631
Vspine_01_space_switcher
p1632
a(lp1633
Vvisibility
p1634
aVtranslateX
p1635
aVtranslateY
p1636
aVtranslateZ
p1637
aVrotateX
p1638
aVrotateY
p1639
aVrotateZ
p1640
aVscaleX
p1641
aVscaleY
p1642
aVscaleZ
p1643
aVspace_world
p1644
aaI01
aF0
aF0
aF0
aF0
aF0
aF0
aF1
aF1
aF1
aF0
aa(lp1645
Vspine_adj_01_anim_space_switcher
p1646
a(lp1647
Vvisibility
p1648
aVtranslateX
p1649
aVtranslateY
p1650
aVtranslateZ
p1651
aVrotateX
p1652
aVrotateY
p1653
aVrotateZ
p1654
aVscaleX
p1655
aVscaleY
p1656
aVscaleZ
p1657
aVspace_world
p1658
aaI01
aF-1.4210854715202004e-14
aF0
aF2.7755575615628914e-17
aF7.5830332790935439e-22
aF-0
aF0
aF1
aF1
aF1
aF0
aa(lp1659
Vspine_adj_02_anim_space_switcher
p1660
a(lp1661
Vvisibility
p1662
aVtranslateX
p1663
aVtranslateY
p1664
aVtranslateZ
p1665
aVrotateX
p1666
aVrotateY
p1667
aVrotateZ
p1668
aVscaleX
p1669
aVscaleY
p1670
aVscaleZ
p1671
aVspace_world
p1672
aaI01
aF0
aF1.7763568394002505e-15
aF0
aF1.5166066558187084e-21
aF1.213285324654967e-20
aF7.9513867036587919e-16
aF1
aF1.0000000000000002
aF1.0000000000000002
aF0
aa(lp1673
Vspine_adj_03_anim_space_switcher
p1674
a(lp1675
Vvisibility
p1676
aVtranslateX
p1677
aVtranslateY
p1678
aVtranslateZ
p1679
aVrotateX
p1680
aVrotateY
p1681
aVrotateZ
p1682
aVscaleX
p1683
aVscaleY
p1684
aVscaleZ
p1685
aVspace_world
p1686
aaI01
aF0
aF0
aF-2.7755575615628914e-17
aF-2.9621223746459156e-23
aF-0
aF1.5902773407317584e-15
aF1
aF1
aF1
aF0
aa(lp1687
Vweapon_r_anim_space_switcher
p1688
a(lp1689
Vvisibility
p1690
aVtranslateX
p1691
aVtranslateY
p1692
aVtranslateZ
p1693
aVrotateX
p1694
aVrotateY
p1695
aVrotateZ
p1696
aVscaleX
p1697
aVscaleY
p1698
aVscaleZ
p1699
aVspace_world
p1700
aaI01
aF0
aF0
aF0
aF0
aF0
aF0
aF1
aF1
aF1
aF0
aa.