(lp1
(lp2
S'head_fk_anim'
p3
a(lp4
VtranslateX
p5
aVtranslateY
p6
aVtranslateZ
p7
aVrotateX
p8
aVrotateY
p9
aVrotateZ
p10
aVscaleX
p11
aVscaleY
p12
aVscaleZ
p13
aVfkOrientation
p14
aVLidTop_l
p15
aVLidBot_l
p16
aVLidTop_r
p17
aVLidBot_r
p18
aaF0
aF0
aF0
aF4.8476596356428923
aF27.878650698796246
aF-0.36754238001621892
aF1
aF1
aF1
aI0
aF0
aF0
aF0
aF0
aa(lp19
S'neck_01_fk_anim'
p20
a(lp21
VtranslateX
p22
aVtranslateY
p23
aVtranslateZ
p24
aVrotateX
p25
aVrotateY
p26
aVrotateZ
p27
aVscaleX
p28
aVscaleY
p29
aVscaleZ
p30
aVfkOrientation
p31
aaF0
aF0
aF0
aF10.199809930526774
aF4.5732005612185276
aF-9.1112964095532494
aF1
aF0.99999999999999978
aF0.99999999999999989
aI0
aa(lp32
S'spine_01_anim'
p33
a(lp34
Vlength
p35
aVtranslateY
p36
aVtranslateZ
p37
aVrotateX
p38
aVrotateY
p39
aVrotateZ
p40
aaF0
aF0
aF0
aF-1.0434061980220053
aF-3.8180588186011857
aF-28.301025949555708
aa(lp41
S'spine_02_anim'
p42
a(lp43
Vlength
p44
aVtranslateY
p45
aVtranslateZ
p46
aVrotateX
p47
aVrotateY
p48
aVrotateZ
p49
aaF0
aF0
aF0
aF-0.73974888510656989
aF22.894027300743002
aF4.4800905760070453
aa(lp50
S'spine_03_anim'
p51
a(lp52
Vlength
p53
aVtranslateY
p54
aVtranslateZ
p55
aVrotateX
p56
aVrotateY
p57
aVrotateZ
p58
aaF0
aF0
aF0
aF2.000608731946584
aF11.80191008206447
aF7.6230674303913197
aa(lp59
S'mid_ik_anim'
p60
a(lp61
VtranslateX
p62
aVtranslateY
p63
aVtranslateZ
p64
aVrotateX
p65
aVrotateY
p66
aVrotateZ
p67
aaF-1.739328684188294
aF-7.8860195966135436
aF0.98923328875540473
aF7.1720483064902805
aF17.58666374990181
aF-19.64100453492274
aa(lp68
S'chest_ik_anim'
p69
a(lp70
VtranslateX
p71
aVtranslateY
p72
aVtranslateZ
p73
aVrotateX
p74
aVrotateY
p75
aVrotateZ
p76
aVstretch
p77
aVsquash
p78
aVtwist_amount
p79
aVautoSpine
p80
aVrotationInfluence
p81
aaF-3.5918503272465756
aF-12.072146271845885
aF-3.3636880234451887
aF12.671672609971436
aF28.436843257543408
aF-8.8257882532600398
aF0
aF0
aF1
aF0
aF0.25
aa(lp82
S'body_anim'
p83
a(lp84
VtranslateX
p85
aVtranslateY
p86
aVtranslateZ
p87
aVrotateX
p88
aVrotateY
p89
aVrotateZ
p90
aaF-7.8577718347099506
aF2.7870535806344221
aF-4.0799352074580231
aF-17.179164138766126
aF0.66925476928525718
aF8.567407500829141
aa(lp91
S'hip_anim'
p92
a(lp93
VtranslateX
p94
aVtranslateY
p95
aVtranslateZ
p96
aVrotateX
p97
aVrotateY
p98
aVrotateZ
p99
aVlTwistCtrlVis
p100
aVlCalfTwistCtrlVis
p101
aVrTwistCtrlVis
p102
aVrCalfTwistCtrlVis
p103
aVautoHips
p104
aaF0
aF0
aF0
aF0
aF-1.2722218725854067e-14
aF0
aI00
aI00
aI00
aI00
aF0
aa(lp105
S'clavicle_l_anim'
p106
a(lp107
VtranslateX
p108
aVtranslateY
p109
aVtranslateZ
p110
aVautoShoulders
p111
aaF1.6417267655820744
aF-1.4676980716075927
aF4.7716930089393514
aF0
aa(lp112
S'clavicle_r_anim'
p113
a(lp114
VtranslateX
p115
aVtranslateY
p116
aVtranslateZ
p117
aVautoShoulders
p118
aaF0.60475160869583178
aF0.36833904317639554
aF-0.56298095870025122
aF0
aa(lp119
S'fk_arm_l_anim'
p120
a(lp121
VtranslateX
p122
aVtranslateY
p123
aVtranslateZ
p124
aVrotateX
p125
aVrotateY
p126
aVrotateZ
p127
aaF0
aF0
aF0
aF7.6812661737438432
aF37.462941750592513
aF1.440446467696932
aa(lp128
S'fk_arm_r_anim'
p129
a(lp130
VtranslateX
p131
aVtranslateY
p132
aVtranslateZ
p133
aVrotateX
p134
aVrotateY
p135
aVrotateZ
p136
aaF0
aF0
aF0
aF-18.159598294560261
aF80.202416216177127
aF-34.543958593476987
aa(lp137
S'fk_elbow_l_anim'
p138
a(lp139
VtranslateX
p140
aVtranslateY
p141
aVtranslateZ
p142
aVrotateX
p143
aVrotateY
p144
aVrotateZ
p145
aaF0
aF0
aF0
aF0
aF0
aF-91.058853149414062
aa(lp146
S'fk_elbow_r_anim'
p147
a(lp148
VtranslateX
p149
aVtranslateY
p150
aVtranslateZ
p151
aVrotateX
p152
aVrotateY
p153
aVrotateZ
p154
aaF0
aF0
aF0
aF-0.00012366029841359705
aF0.00011101692507509141
aF-61.548374176025405
aa(lp155
S'fk_wrist_l_anim'
p156
a(lp157
VtranslateX
p158
aVtranslateY
p159
aVtranslateZ
p160
aVrotateX
p161
aVrotateY
p162
aVrotateZ
p163
aaF0
aF0
aF0
aF-11.801218986511222
aF-6.241328239440918
aF20.12919998168945
aa(lp164
S'fk_wrist_r_anim'
p165
a(lp166
VtranslateX
p167
aVtranslateY
p168
aVtranslateZ
p169
aVrotateX
p170
aVrotateY
p171
aVrotateZ
p172
aaF0
aF0
aF0
aF3.9997384548187016
aF-21.852821350097646
aF39.621715545654304
aa(lp173
S'ik_elbow_l_anim'
p174
a(lp175
VtranslateX
p176
aVtranslateY
p177
aVtranslateZ
p178
aaF-7.4112869017184266
aF-22.226721817675262
aF-38.267706005902724
aa(lp179
S'ik_elbow_r_anim'
p180
a(lp181
VtranslateX
p182
aVtranslateY
p183
aVtranslateZ
p184
aaF17.335943570370777
aF-11.716394233867572
aF-12.078913527636587
aa(lp185
S'ik_wrist_l_anim'
p186
a(lp187
VtranslateX
p188
aVtranslateY
p189
aVtranslateZ
p190
aVrotateX
p191
aVrotateY
p192
aVrotateZ
p193
aVstretch
p194
aVsquash
p195
aVstretchBias
p196
aVside
p197
aVmid_bend
p198
aVmid_swivel
p199
aVtip_pivot
p200
aVtip_swivel
p201
aaF-34.296211040198543
aF-31.665826723913867
aF-39.180051856124678
aF-82.268985490509678
aF15.487788113681084
aF-122.14076049081619
aF0
aF0
aF0
aF0
aF0
aF0
aF0
aF0
aa(lp202
S'ik_wrist_r_anim'
p203
a(lp204
VtranslateX
p205
aVtranslateY
p206
aVtranslateZ
p207
aVrotateX
p208
aVrotateY
p209
aVrotateZ
p210
aVstretch
p211
aVsquash
p212
aVstretchBias
p213
aVside
p214
aVmid_bend
p215
aVmid_swivel
p216
aVtip_pivot
p217
aVtip_swivel
p218
aaF34.416348961948337
aF-19.135179003483003
aF-21.762772135273622
aF-55.299995471601044
aF-68.61209409154506
aF103.69704297035138
aF0
aF0
aF0
aF0
aF0
aF0
aF0
aF0
aa(lp219
S'fk_thigh_l_anim'
p220
a(lp221
VrotateX
p222
aVrotateY
p223
aVrotateZ
p224
aaF25.164276123048225
aF-6.6428766250613895
aF15.611367225646822
aa(lp225
S'fk_thigh_r_anim'
p226
a(lp227
VrotateX
p228
aVrotateY
p229
aVrotateZ
p230
aaF-9.0644760131828157
aF-14.643872261047722
aF25.139532089233235
aa(lp231
S'fk_calf_l_anim'
p232
a(lp233
VrotateX
p234
aVrotateY
p235
aVrotateZ
p236
aaF2.4351725578307377
aF-3.9016382694245233
aF-49.747711181640625
aa(lp237
S'fk_calf_r_anim'
p238
a(lp239
VrotateX
p240
aVrotateY
p241
aVrotateZ
p242
aaF6.4242548942566611
aF-3.0749156475071477
aF-88.227630615234418
aa(lp243
S'fk_foot_l_anim'
p244
a(lp245
VrotateX
p246
aVrotateY
p247
aVrotateZ
p248
aaF0.91627174615864826
aF-4.6700325012207182
aF25.304687500000028
aa(lp249
S'fk_foot_r_anim'
p250
a(lp251
VrotateX
p252
aVrotateY
p253
aVrotateZ
p254
aaF1.1885594129559898
aF5.7412147521972443
aF-7.7024455070495712
aa(lp255
S'fk_ball_l_anim'
p256
a(lp257
VrotateX
p258
aVrotateY
p259
aVrotateZ
p260
aaF1.4056935242427621e-06
aF-6.8413032813234077e-06
aF-0.00013435144502259351
aa(lp261
S'fk_ball_r_anim'
p262
a(lp263
VrotateX
p264
aVrotateY
p265
aVrotateZ
p266
aaF2.3306340517894412e-06
aF-5.8050135554168084e-06
aF-5.898790359497097
aa(lp267
S'ik_foot_anim_l'
p268
a(lp269
VtranslateX
p270
aVtranslateY
p271
aVtranslateZ
p272
aVrotateX
p273
aVrotateY
p274
aVrotateZ
p275
aVknee_twist
p276
aVstretch
p277
aVsquash
p278
aVtoeCtrlVis
p279
aVstretchBias
p280
aVToeSplay_l
p281
aaF-1.2007990027609772
aF-6.6820995865576069
aF-8.8548941850064011e-05
aF3.33178129550206
aF1.6585056925997368e-05
aF9.1213165388999808
aF0
aF0
aF0
aI00
aF0
aF0
aa(lp282
S'ik_foot_anim_r'
p283
a(lp284
VtranslateX
p285
aVtranslateY
p286
aVtranslateZ
p287
aVrotateX
p288
aVrotateY
p289
aVrotateZ
p290
aVknee_twist
p291
aVstretch
p292
aVsquash
p293
aVtoeCtrlVis
p294
aVstretchBias
p295
aVToeSplay_r
p296
aaF-4.9720396894100496
aF12.682027887677062
aF17.430449348300122
aF65.143435565214602
aF16.526137088275235
aF-25.44088688721725
aF18
aF0
aF0
aI00
aF0
aF0
aa(lp297
S'heel_ctrl_l'
p298
a(lp299
VrotateX
p300
aVrotateY
p301
aVrotateZ
p302
aVheelPivot
p303
aVballPivot
p304
aaF-4.2769763636477183e-15
aF-6.3611093629270335e-15
aF0
aF0
aF0
aa(lp305
S'heel_ctrl_r'
p306
a(lp307
VrotateX
p308
aVrotateY
p309
aVrotateZ
p310
aVheelPivot
p311
aVballPivot
p312
aaF-6.2120208622334312e-17
aF-0
aF0
aF0
aF0
aa(lp313
S'toe_wiggle_ctrl_l'
p314
a(lp315
VrotateX
p316
aVrotateY
p317
aVrotateZ
p318
aaF0
aF5.8237695583438417e-19
aF0
aa(lp319
S'toe_wiggle_ctrl_r'
p320
a(lp321
VrotateX
p322
aVrotateY
p323
aVrotateZ
p324
aaF-6.3610123001010609e-15
aF6.3602479303465288e-15
aF0
aa(lp325
S'toe_tip_ctrl_l'
p326
a(lp327
VrotateX
p328
aVrotateY
p329
aVrotateZ
p330
aaF0
aF5.8237695583438417e-19
aF0
aa(lp331
S'toe_tip_ctrl_r'
p332
a(lp333
VrotateX
p334
aVrotateY
p335
aVrotateZ
p336
aaF0
aF-8.6143258050502658e-19
aF0
aa(lp337
S'master_anim'
p338
a(lp339
VtranslateX
p340
aVtranslateY
p341
aVtranslateZ
p342
aVrotateX
p343
aVrotateY
p344
aVrotateZ
p345
aaF0
aF0
aF0
aF0
aF0
aF0
aa(lp346
S'offset_anim'
p347
a(lp348
VtranslateX
p349
aVtranslateY
p350
aVtranslateZ
p351
aVrotateX
p352
aVrotateY
p353
aVrotateZ
p354
aaF0
aF0
aF0
aF0
aF0
aF0
aa(lp355
S'root_anim'
p356
a(lp357
VtranslateX
p358
aVtranslateY
p359
aVtranslateZ
p360
aVrotateX
p361
aVrotateY
p362
aVrotateZ
p363
aaF0
aF0
aF0
aF0
aF0
aF0
aa(lp364
S'upperarm_l_twist_anim'
p365
a(lp366
VtranslateX
p367
aVtranslateY
p368
aVtranslateZ
p369
aVrotateX
p370
aVrotateY
p371
aVrotateZ
p372
aVscaleX
p373
aVscaleY
p374
aVscaleZ
p375
aaF0
aF0
aF0
aF0
aF0
aF0
aF1
aF1
aF1
aa(lp376
S'upperarm_r_twist_anim'
p377
a(lp378
VtranslateX
p379
aVtranslateY
p380
aVtranslateZ
p381
aVrotateX
p382
aVrotateY
p383
aVrotateZ
p384
aVscaleX
p385
aVscaleY
p386
aVscaleZ
p387
aaF0
aF0
aF0
aF0
aF0
aF0
aF1
aF1
aF1
aa(lp388
S'thigh_l_twist_anim'
p389
a(lp390
VtranslateX
p391
aVtranslateY
p392
aVtranslateZ
p393
aVrotateX
p394
aVrotateY
p395
aVrotateZ
p396
aaF0
aF0
aF0
aF0
aF0
aF0
aa(lp397
S'thigh_r_twist_anim'
p398
a(lp399
VtranslateX
p400
aVtranslateY
p401
aVtranslateZ
p402
aVrotateX
p403
aVrotateY
p404
aVrotateZ
p405
aaF0
aF0
aF0
aF0
aF0
aF0
aa(lp406
S'pinky_finger_fk_ctrl_1_l'
p407
a(lp408
VtranslateX
p409
aVtranslateY
p410
aVtranslateZ
p411
aVrotateX
p412
aVrotateY
p413
aVrotateZ
p414
aVsticky
p415
aaF0
aF0
aF0
aF-1.7732314326769236e-05
aF-7.6229345405953325e-07
aF61.768481287889877
aF0
aa(lp416
S'pinky_finger_fk_ctrl_1_r'
p417
a(lp418
VtranslateX
p419
aVtranslateY
p420
aVtranslateZ
p421
aVrotateX
p422
aVrotateY
p423
aVrotateZ
p424
aVsticky
p425
aaF0
aF0
aF0
aF3.360225106991706e-06
aF-1.3658957485780752e-06
aF59.583731647199357
aF0
aa(lp426
S'pinky_finger_fk_ctrl_2_l'
p427
a(lp428
VtranslateX
p429
aVtranslateY
p430
aVtranslateZ
p431
aVrotateX
p432
aVrotateY
p433
aVrotateZ
p434
aaF0
aF0
aF0
aF-7.4417210994123842e-07
aF-1.6450785684548104e-07
aF61.768505111808636
aa(lp435
S'pinky_finger_fk_ctrl_2_r'
p436
a(lp437
VtranslateX
p438
aVtranslateY
p439
aVtranslateZ
p440
aVrotateX
p441
aVrotateY
p442
aVrotateZ
p443
aaF0
aF0
aF0
aF0
aF0
aF59.583724975585916
aa(lp444
S'pinky_finger_fk_ctrl_3_l'
p445
a(lp446
VtranslateX
p447
aVtranslateY
p448
aVtranslateZ
p449
aVrotateX
p450
aVrotateY
p451
aVrotateZ
p452
aaF0
aF0
aF0
aF-3.0023371030026994e-07
aF7.0030056199190122e-07
aF61.768505113576452
aa(lp453
S'pinky_finger_fk_ctrl_3_r'
p454
a(lp455
VtranslateX
p456
aVtranslateY
p457
aVtranslateZ
p458
aVrotateX
p459
aVrotateY
p460
aVrotateZ
p461
aaF0
aF0
aF0
aF0
aF0
aF59.58372497558593
aa(lp462
S'ring_finger_fk_ctrl_1_l'
p463
a(lp464
VtranslateX
p465
aVtranslateY
p466
aVtranslateZ
p467
aVrotateX
p468
aVrotateY
p469
aVrotateZ
p470
aVsticky
p471
aaF0
aF0
aF0
aF-1.5753674193314616e-05
aF-7.4321576827855318e-06
aF43.288107662928581
aF0
aa(lp472
S'ring_finger_fk_ctrl_1_r'
p473
a(lp474
VtranslateX
p475
aVtranslateY
p476
aVtranslateZ
p477
aVrotateX
p478
aVrotateY
p479
aVrotateZ
p480
aVsticky
p481
aaF0
aF0
aF0
aF2.9659786100926893e-06
aF-3.377571749453479e-07
aF53.555178949109639
aF0
aa(lp482
S'ring_finger_fk_ctrl_2_l'
p483
a(lp484
VtranslateX
p485
aVtranslateY
p486
aVtranslateZ
p487
aVrotateX
p488
aVrotateY
p489
aVrotateZ
p490
aaF0
aF0
aF0
aF0
aF0
aF43.288131713867188
aa(lp491
S'ring_finger_fk_ctrl_2_r'
p492
a(lp493
VtranslateX
p494
aVtranslateY
p495
aVtranslateZ
p496
aVrotateX
p497
aVrotateY
p498
aVrotateZ
p499
aaF0
aF0
aF0
aF-2.9251305882573027e-07
aF-1.6886687163645747e-07
aF53.555171966615035
aa(lp500
S'ring_finger_fk_ctrl_3_l'
p501
a(lp502
VtranslateX
p503
aVtranslateY
p504
aVtranslateZ
p505
aVrotateX
p506
aVrotateY
p507
aVrotateZ
p508
aaF0
aF0
aF0
aF0
aF0
aF43.288131713867209
aa(lp509
S'ring_finger_fk_ctrl_3_r'
p510
a(lp511
VtranslateX
p512
aVtranslateY
p513
aVtranslateZ
p514
aVrotateX
p515
aVrotateY
p516
aVrotateZ
p517
aaF0
aF0
aF0
aF-2.8117334709858441e-07
aF1.871177885738385e-07
aF53.555171963656875
aa(lp518
S'middle_finger_fk_ctrl_1_l'
p519
a(lp520
VtranslateX
p521
aVtranslateY
p522
aVtranslateZ
p523
aVrotateX
p524
aVrotateY
p525
aVrotateZ
p526
aVsticky
p527
aaF0
aF0
aF0
aF-1.295018139291732e-05
aF-1.2020343390761601e-05
aF49.933440182595177
aF0
aa(lp528
S'middle_finger_fk_ctrl_1_r'
p529
a(lp530
VtranslateX
p531
aVtranslateY
p532
aVtranslateZ
p533
aVrotateX
p534
aVrotateY
p535
aVrotateZ
p536
aVsticky
p537
aaF0
aF0
aF0
aF1.8411984706979361e-06
aF1.8496857290873063e-06
aF48.030574300519007
aF0
aa(lp538
S'middle_finger_fk_ctrl_2_l'
p539
a(lp540
VtranslateX
p541
aVtranslateY
p542
aVtranslateZ
p543
aVrotateX
p544
aVrotateY
p545
aVrotateZ
p546
aaF0
aF0
aF0
aF0
aF0
aF49.933464050292969
aa(lp547
S'middle_finger_fk_ctrl_2_r'
p548
a(lp549
VtranslateX
p550
aVtranslateY
p551
aVtranslateZ
p552
aVrotateX
p553
aVrotateY
p554
aVrotateZ
p555
aaF0
aF0
aF0
aF0
aF0
aF48.030567169189474
aa(lp556
S'middle_finger_fk_ctrl_3_l'
p557
a(lp558
VtranslateX
p559
aVtranslateY
p560
aVtranslateZ
p561
aVrotateX
p562
aVrotateY
p563
aVrotateZ
p564
aaF0
aF0
aF0
aF0
aF0
aF49.933464050292955
aa(lp565
S'middle_finger_fk_ctrl_3_r'
p566
a(lp567
VtranslateX
p568
aVtranslateY
p569
aVtranslateZ
p570
aVrotateX
p571
aVrotateY
p572
aVrotateZ
p573
aaF0
aF0
aF0
aF0
aF0
aF48.030567169189432
aa(lp574
S'index_finger_fk_ctrl_1_l'
p575
a(lp576
VtranslateX
p577
aVtranslateY
p578
aVtranslateZ
p579
aVrotateX
p580
aVrotateY
p581
aVrotateZ
p582
aVsticky
p583
aaF0
aF0
aF0
aF-7.7439715858579085e-06
aF-1.964911824023268e-05
aF39.10932742115407
aF0
aa(lp584
S'index_finger_fk_ctrl_1_r'
p585
a(lp586
VtranslateX
p587
aVtranslateY
p588
aVtranslateZ
p589
aVrotateX
p590
aVrotateY
p591
aVrotateZ
p592
aVsticky
p593
aaF0
aF0
aF0
aF1.4083179439452088e-06
aF3.4432360040615442e-06
aF45.995177213531875
aF0
aa(lp594
S'index_finger_fk_ctrl_2_l'
p595
a(lp596
VtranslateX
p597
aVtranslateY
p598
aVtranslateZ
p599
aVrotateX
p600
aVrotateY
p601
aVrotateZ
p602
aaF0
aF0
aF0
aF0
aF0
aF39.109348297119155
aa(lp603
S'index_finger_fk_ctrl_2_r'
p604
a(lp605
VtranslateX
p606
aVtranslateY
p607
aVtranslateZ
p608
aVrotateX
p609
aVrotateY
p610
aVrotateZ
p611
aaF0
aF0
aF0
aF0
aF0
aF45.995170593261719
aa(lp612
S'index_finger_fk_ctrl_3_l'
p613
a(lp614
VtranslateX
p615
aVtranslateY
p616
aVtranslateZ
p617
aVrotateX
p618
aVrotateY
p619
aVrotateZ
p620
aaF0
aF0
aF0
aF0
aF0
aF39.109348297119126
aa(lp621
S'index_finger_fk_ctrl_3_r'
p622
a(lp623
VtranslateX
p624
aVtranslateY
p625
aVtranslateZ
p626
aVrotateX
p627
aVrotateY
p628
aVrotateZ
p629
aaF0
aF0
aF0
aF0
aF0
aF45.995170593261726
aa(lp630
S'thumb_finger_fk_ctrl_1_l'
p631
a(lp632
VtranslateX
p633
aVtranslateY
p634
aVtranslateZ
p635
aVrotateX
p636
aVrotateY
p637
aVrotateZ
p638
aVsticky
p639
aaF0
aF0
aF0
aF16.7284956977165
aF17.755799528096336
aF6.2701017459981339
aF0
aa(lp640
S'thumb_finger_fk_ctrl_1_r'
p641
a(lp642
VtranslateX
p643
aVtranslateY
p644
aVtranslateZ
p645
aVrotateX
p646
aVrotateY
p647
aVrotateZ
p648
aVsticky
p649
aaF0
aF0
aF0
aF5.8878623937235703
aF23.86368897097136
aF8.1170328763916313
aF0
aa(lp650
S'thumb_finger_fk_ctrl_2_l'
p651
a(lp652
VtranslateX
p653
aVtranslateY
p654
aVtranslateZ
p655
aVrotateX
p656
aVrotateY
p657
aVrotateZ
p658
aaF0
aF0
aF0
aF0
aF0
aF11.725725173950194
aa(lp659
S'thumb_finger_fk_ctrl_2_r'
p660
a(lp661
VtranslateX
p662
aVtranslateY
p663
aVtranslateZ
p664
aVrotateX
p665
aVrotateY
p666
aVrotateZ
p667
aaF0
aF0
aF0
aF0
aF0
aF13.746155738830565
aa(lp668
S'thumb_finger_fk_ctrl_3_l'
p669
a(lp670
VtranslateX
p671
aVtranslateY
p672
aVtranslateZ
p673
aVrotateX
p674
aVrotateY
p675
aVrotateZ
p676
aaF0
aF0
aF0
aF0
aF0
aF11.725725173950169
aa(lp677
S'thumb_finger_fk_ctrl_3_r'
p678
a(lp679
VtranslateX
p680
aVtranslateY
p681
aVtranslateZ
p682
aVrotateX
p683
aVrotateY
p684
aVrotateZ
p685
aaF0
aF0
aF0
aF0
aF0
aF13.746155738830572
aa(lp686
S'index_l_ik_anim'
p687
a(lp688
VtranslateX
p689
aVtranslateY
p690
aVtranslateZ
p691
aVrotateX
p692
aVrotateY
p693
aVrotateZ
p694
aVpoleVectorVis
p695
aaF0
aF0
aF0
aF0
aF0
aF0
aF0
aa(lp696
S'index_r_ik_anim'
p697
a(lp698
VtranslateX
p699
aVtranslateY
p700
aVtranslateZ
p701
aVrotateX
p702
aVrotateY
p703
aVrotateZ
p704
aVpoleVectorVis
p705
aaF0
aF0
aF0
aF0
aF0
aF0
aF0
aa(lp706
S'middle_l_ik_anim'
p707
a(lp708
VtranslateX
p709
aVtranslateY
p710
aVtranslateZ
p711
aVrotateX
p712
aVrotateY
p713
aVrotateZ
p714
aVpoleVectorVis
p715
aaF0
aF0
aF0
aF0
aF0
aF0
aF0
aa(lp716
S'middle_r_ik_anim'
p717
a(lp718
VtranslateX
p719
aVtranslateY
p720
aVtranslateZ
p721
aVrotateX
p722
aVrotateY
p723
aVrotateZ
p724
aVpoleVectorVis
p725
aaF0
aF0
aF0
aF0
aF0
aF0
aF0
aa(lp726
S'ring_l_ik_anim'
p727
a(lp728
VtranslateX
p729
aVtranslateY
p730
aVtranslateZ
p731
aVrotateX
p732
aVrotateY
p733
aVrotateZ
p734
aVpoleVectorVis
p735
aaF0
aF0
aF0
aF0
aF0
aF0
aF0
aa(lp736
S'ring_r_ik_anim'
p737
a(lp738
VtranslateX
p739
aVtranslateY
p740
aVtranslateZ
p741
aVrotateX
p742
aVrotateY
p743
aVrotateZ
p744
aVpoleVectorVis
p745
aaF0
aF0
aF0
aF0
aF0
aF0
aF0
aa(lp746
S'pinky_l_ik_anim'
p747
a(lp748
VtranslateX
p749
aVtranslateY
p750
aVtranslateZ
p751
aVrotateX
p752
aVrotateY
p753
aVrotateZ
p754
aVpoleVectorVis
p755
aaF0
aF0
aF0
aF0
aF0
aF0
aF0
aa(lp756
S'pinky_r_ik_anim'
p757
a(lp758
VtranslateX
p759
aVtranslateY
p760
aVtranslateZ
p761
aVrotateX
p762
aVrotateY
p763
aVrotateZ
p764
aVpoleVectorVis
p765
aaF0
aF0
aF0
aF0
aF0
aF0
aF0
aa(lp766
S'thumb_l_ik_anim'
p767
a(lp768
VtranslateX
p769
aVtranslateY
p770
aVtranslateZ
p771
aVrotateX
p772
aVrotateY
p773
aVrotateZ
p774
aVpoleVectorVis
p775
aaF0
aF0
aF0
aF0
aF0
aF0
aF0
aa(lp776
S'thumb_r_ik_anim'
p777
a(lp778
VtranslateX
p779
aVtranslateY
p780
aVtranslateZ
p781
aVrotateX
p782
aVrotateY
p783
aVrotateZ
p784
aVpoleVectorVis
p785
aaF0
aF0
aF0
aF0
aF0
aF0
aF0
aa(lp786
S'index_l_poleVector'
p787
a(lp788
VtranslateX
p789
aVtranslateY
p790
aVtranslateZ
p791
aVrotateX
p792
aVrotateY
p793
aVrotateZ
p794
aaF0
aF0
aF0
aF0
aF0
aF0
aa(lp795
S'index_r_poleVector'
p796
a(lp797
VtranslateX
p798
aVtranslateY
p799
aVtranslateZ
p800
aVrotateX
p801
aVrotateY
p802
aVrotateZ
p803
aaF0
aF0
aF0
aF0
aF0
aF0
aa(lp804
S'middle_l_poleVector'
p805
a(lp806
VtranslateX
p807
aVtranslateY
p808
aVtranslateZ
p809
aVrotateX
p810
aVrotateY
p811
aVrotateZ
p812
aaF0
aF0
aF0
aF0
aF0
aF0
aa(lp813
S'middle_r_poleVector'
p814
a(lp815
VtranslateX
p816
aVtranslateY
p817
aVtranslateZ
p818
aVrotateX
p819
aVrotateY
p820
aVrotateZ
p821
aaF0
aF0
aF0
aF0
aF0
aF0
aa(lp822
S'ring_l_poleVector'
p823
a(lp824
VtranslateX
p825
aVtranslateY
p826
aVtranslateZ
p827
aVrotateX
p828
aVrotateY
p829
aVrotateZ
p830
aaF0
aF0
aF0
aF0
aF0
aF0
aa(lp831
S'ring_r_poleVector'
p832
a(lp833
VtranslateX
p834
aVtranslateY
p835
aVtranslateZ
p836
aVrotateX
p837
aVrotateY
p838
aVrotateZ
p839
aaF0
aF0
aF0
aF0
aF0
aF0
aa(lp840
S'pinky_l_poleVector'
p841
a(lp842
VtranslateX
p843
aVtranslateY
p844
aVtranslateZ
p845
aVrotateX
p846
aVrotateY
p847
aVrotateZ
p848
aaF0
aF0
aF0
aF0
aF0
aF0
aa(lp849
S'pinky_r_poleVector'
p850
a(lp851
VtranslateX
p852
aVtranslateY
p853
aVtranslateZ
p854
aVrotateX
p855
aVrotateY
p856
aVrotateZ
p857
aaF0
aF0
aF0
aF0
aF0
aF0
aa(lp858
S'thumb_l_poleVector'
p859
a(lp860
VtranslateX
p861
aVtranslateY
p862
aVtranslateZ
p863
aVrotateX
p864
aVrotateY
p865
aVrotateZ
p866
aaF0
aF0
aF0
aF0
aF0
aF0
aa(lp867
S'thumb_r_poleVector'
p868
a(lp869
VtranslateX
p870
aVtranslateY
p871
aVtranslateZ
p872
aVrotateX
p873
aVrotateY
p874
aVrotateZ
p875
aaF0
aF0
aF0
aF0
aF0
aF0
aa(lp876
S'l_global_ik_anim'
p877
a(lp878
VtranslateX
p879
aVtranslateY
p880
aVtranslateZ
p881
aVrotateX
p882
aVrotateY
p883
aVrotateZ
p884
aaF0
aF0
aF0
aF0
aF0
aF0
aa(lp885
S'r_global_ik_anim'
p886
a(lp887
VtranslateX
p888
aVtranslateY
p889
aVtranslateZ
p890
aVrotateX
p891
aVrotateY
p892
aVrotateZ
p893
aaF0
aF0
aF0
aF0
aF0
aF0
aa(lp894
S'Rig_Settings'
p895
a(lp896
Vspine_ik
p897
aVspine_fk
p898
aVlLegMode
p899
aVlThighTwistAmount
p900
aVlCalfTwistAmount
p901
aVrLegMode
p902
aVrThighTwistAmount
p903
aVrCalfTwistAmount
p904
aVlFkArmOrient
p905
aVlArmMode
p906
aVlClavMode
p907
aVltwistCtrlVis
p908
aVlUpperarmTwistAmount
p909
aVltwistCtrlVisLower
p910
aVlForearmTwistAmount
p911
aVrFkArmOrient
p912
aVrArmMode
p913
aVrClavMode
p914
aVrtwistCtrlVis
p915
aVrUpperarmTwistAmount
p916
aVrtwistCtrlVisLower
p917
aVrForearmTwistAmount
p918
aVhood_fk
p919
aVhood_ik
p920
aVhood_dynamic
p921
aaF1
aF0
aI1
aF0.90000000000000002
aF0.5
aI1
aF0.90000000000000002
aF0.5
aI0
aI1
aI1
aI00
aF0.90000000000000002
aI00
aF0.5
aI0
aI1
aI1
aI00
aF0.90000000000000002
aI00
aF0.5
aF1
aF0
aF0
aa(lp922
Vjaw_anim
p923
a(lp924
VtranslateX
p925
aVtranslateY
p926
aVtranslateZ
p927
aVrotateX
p928
aVrotateY
p929
aVrotateZ
p930
aVscaleX
p931
aVscaleY
p932
aVscaleZ
p933
aaF2.4638965339855972
aF-0.6590842717983918
aF-0.58444050469853437
aF16.595264434750355
aF-15.106082916154707
aF1.0231956244225002
aF1
aF1
aF0.99999999999999989
aa(lp934
Vbelly_anim
p935
a(lp936
VtranslateX
p937
aVtranslateY
p938
aVtranslateZ
p939
aVrotateX
p940
aVrotateY
p941
aVrotateZ
p942
aVchainAttach
p943
aVchainStartEnvelope
p944
aVchainStartFrame
p945
aVchainStiffness
p946
aVchainDamping
p947
aVchainGravity
p948
aVchainIteration
p949
aVchainCollide
p950
aVchainWidthBase
p951
aVchainWidthExtremity
p952
aVchainCollideGround
p953
aVchainCollideGroundHeight
p954
aaF-0.3687938292862003
aF0.0353095972224029
aF-0.070480895644735142
aF0.2742471831461738
aF-3.1050452155254691
aF-3.000582426217524
aI1
aF1
aF1
aF0.10000000000000001
aF0.20000000000000001
aF1
aI1
aI00
aF1
aF1
aI00
aF0
aa(lp955
Vpectoral_l_anim
p956
a(lp957
VtranslateX
p958
aVtranslateY
p959
aVtranslateZ
p960
aVrotateX
p961
aVrotateY
p962
aVrotateZ
p963
aVchainAttach
p964
aVchainStartEnvelope
p965
aVchainStartFrame
p966
aVchainStiffness
p967
aVchainDamping
p968
aVchainGravity
p969
aVchainIteration
p970
aVchainCollide
p971
aVchainWidthBase
p972
aVchainWidthExtremity
p973
aVchainCollideGround
p974
aVchainCollideGroundHeight
p975
aaF0.035442862721133395
aF0.66676061238183237
aF-3.0824217298072227
aF9.9672900827416573
aF3.0990077570400084e-07
aF-5.1793595381856045e-08
aI1
aF1
aF1
aF0.10000000000000001
aF0.20000000000000001
aF1
aI1
aI00
aF1
aF1
aI00
aF0
aa(lp976
Vpectoral_r_anim
p977
a(lp978
VtranslateX
p979
aVtranslateY
p980
aVtranslateZ
p981
aVrotateX
p982
aVrotateY
p983
aVrotateZ
p984
aVchainAttach
p985
aVchainStartEnvelope
p986
aVchainStartFrame
p987
aVchainStiffness
p988
aVchainDamping
p989
aVchainGravity
p990
aVchainIteration
p991
aVchainCollide
p992
aVchainWidthBase
p993
aVchainWidthExtremity
p994
aVchainCollideGround
p995
aVchainCollideGroundHeight
p996
aaF0.035440987833652571
aF-0.66676013519181154
aF3.0824217722284573
aF9.9672900827416537
aF-3.0990077642424667e-07
aF5.1793603998997192e-08
aI1
aF1
aF1
aF0.10000000000000001
aF0.20000000000000001
aF1
aI1
aI00
aF1
aF1
aI00
aF0
aa(lp997
Vhood_dyn_anim
p998
a(lp999
VtranslateX
p1000
aVtranslateY
p1001
aVtranslateZ
p1002
aVrotateX
p1003
aVrotateY
p1004
aVrotateZ
p1005
aVchainAttach
p1006
aVchainStartEnvelope
p1007
aVchainStartFrame
p1008
aVchainStiffness
p1009
aVchainDamping
p1010
aVchainGravity
p1011
aVchainIteration
p1012
aVchainCollide
p1013
aVchainWidthBase
p1014
aVchainWidthExtremity
p1015
aVchainCollideGround
p1016
aVchainCollideGroundHeight
p1017
aaF0
aF0
aF0
aF0
aF0
aF0
aI1
aF1
aF1
aF0.10000000000000001
aF0.20000000000000001
aF1
aI1
aI00
aF1
aF1
aI00
aF0
aa(lp1018
Vhood_ik_2_anim
p1019
a(lp1020
VtranslateX
p1021
aVtranslateY
p1022
aVtranslateZ
p1023
aVrotateX
p1024
aVrotateY
p1025
aVrotateZ
p1026
aaF3.3881317890172014e-21
aF1.4210854715202004e-14
aF1.4210854715202004e-14
aF-3.1805546814635168e-15
aF-0
aF9.4787915988669299e-23
aa(lp1027
Vhood_ik_3_anim
p1028
a(lp1029
VtranslateX
p1030
aVtranslateY
p1031
aVtranslateZ
p1032
aVrotateX
p1033
aVrotateY
p1034
aVrotateZ
p1035
aVclusterControlVis
p1036
aaF3.3881317890172014e-21
aF0
aF1.4210854715202004e-14
aF-3.1805546814635168e-15
aF-0
aF9.4787915988669299e-23
aI00
aa(lp1037
Vhood_ik_base_anim
p1038
a(lp1039
VtranslateX
p1040
aVtranslateY
p1041
aVtranslateZ
p1042
aVrotateX
p1043
aVrotateY
p1044
aVrotateZ
p1045
aVglobal_scale
p1046
aaF0
aF2.8421709430404007e-14
aF-1.4210854715202004e-14
aF-3.1805546814635168e-15
aF-1.8957583197733855e-22
aF0
aF1
aa(lp1047
Vfk_hood_01_anim
p1048
a(lp1049
VtranslateX
p1050
aVtranslateY
p1051
aVtranslateZ
p1052
aVrotateX
p1053
aVrotateY
p1054
aVrotateZ
p1055
aVglobal_scale
p1056
aVlagMode
p1057
aaF0
aF0
aF1.4210854715202004e-14
aF0
aF3.7915166395467738e-22
aF-3.7915166395467738e-22
aF1
aF0
aa(lp1058
Vhood_cv_0_anim
p1059
a(lp1060
VtranslateX
p1061
aVtranslateY
p1062
aVtranslateZ
p1063
aaF0
aF0
aF0
aa(lp1064
Vfk_hood_02_anim
p1065
a(lp1066
VtranslateX
p1067
aVtranslateY
p1068
aVtranslateZ
p1069
aVrotateX
p1070
aVrotateY
p1071
aVrotateZ
p1072
aaF-3.3881317890172014e-21
aF1.4210854715202004e-14
aF1.4210854715202004e-14
aF-3.1805546814635168e-15
aF-0
aF0
aa(lp1073
Vhood_cv_1_anim
p1074
a(lp1075
VtranslateX
p1076
aVtranslateY
p1077
aVtranslateZ
p1078
aaF0
aF0
aF0
aa(lp1079
Vfk_hood_03_anim
p1080
a(lp1081
VtranslateX
p1082
aVtranslateY
p1083
aVtranslateZ
p1084
aVrotateX
p1085
aVrotateY
p1086
aVrotateZ
p1087
aaF0
aF1.4210854715202004e-14
aF0
aF-3.1805546814635168e-15
aF-0
aF9.4787915988669299e-23
aa(lp1088
Vhood_cv_2_anim
p1089
a(lp1090
VtranslateX
p1091
aVtranslateY
p1092
aVtranslateZ
p1093
aaF0
aF0
aF0
aa(lp1094
Vweapon_r_anim
p1095
a(lp1096
VtranslateX
p1097
aVtranslateY
p1098
aVtranslateZ
p1099
aVrotateX
p1100
aVrotateY
p1101
aVrotateZ
p1102
aVscaleX
p1103
aVscaleY
p1104
aVscaleZ
p1105
aaF-3.0287800711903401e-07
aF7.095278391489046e-07
aF-2.932218237106099e-07
aF0
aF3.4475327409666029e-06
aF6.7683243376674871e-06
aF1
aF1
aF1
aa(lp1106
Vsleeve_r_anim
p1107
a(lp1108
VtranslateX
p1109
aVtranslateY
p1110
aVtranslateZ
p1111
aVrotateX
p1112
aVrotateY
p1113
aVrotateZ
p1114
aVscaleX
p1115
aVscaleY
p1116
aVscaleZ
p1117
aaF1.5577711565128993e-08
aF-5.5943438326266914e-08
aF-4.0762273556538275e-08
aF0
aF0
aF0
aF1
aF0.99999999999999989
aF0.99999999999999989
aa(lp1118
Vsleeve_l_anim
p1119
a(lp1120
VtranslateX
p1121
aVtranslateY
p1122
aVtranslateZ
p1123
aVrotateX
p1124
aVrotateY
p1125
aVrotateZ
p1126
aVscaleX
p1127
aVscaleY
p1128
aVscaleZ
p1129
aaF-4.695408506449894e-09
aF1.1833095747704192e-07
aF4.7299749894591514e-08
aF0
aF0
aF0
aF1
aF1
aF1
aa(lp1130
Vshirt_front_anim
p1131
a(lp1132
VtranslateX
p1133
aVtranslateY
p1134
aVtranslateZ
p1135
aVrotateX
p1136
aVrotateY
p1137
aVrotateZ
p1138
aVscaleX
p1139
aVscaleY
p1140
aVscaleZ
p1141
aaF0
aF5.7698514666082446e-07
aF1.4313471297100477e-08
aF0
aF0
aF0
aF1
aF1
aF1
aa(lp1142
Vshirt_back_anim
p1143
a(lp1144
VtranslateX
p1145
aVtranslateY
p1146
aVtranslateZ
p1147
aVrotateX
p1148
aVrotateY
p1149
aVrotateZ
p1150
aVscaleX
p1151
aVscaleY
p1152
aVscaleZ
p1153
aaF0
aF5.9780992245350717e-07
aF4.8183267153945053e-08
aF0
aF0
aF0
aF1
aF1
aF1
aa(lp1154
Vshirt_l_anim
p1155
a(lp1156
VtranslateX
p1157
aVtranslateY
p1158
aVtranslateZ
p1159
aVrotateX
p1160
aVrotateY
p1161
aVrotateZ
p1162
aVscaleX
p1163
aVscaleY
p1164
aVscaleZ
p1165
aaF9.8685617899718636e-08
aF-1.5085117155422267e-08
aF2.1765487190350541e-08
aF0
aF0
aF0
aF1
aF1
aF1
aa(lp1166
Vshirt_r_anim
p1167
a(lp1168
VtranslateX
p1169
aVtranslateY
p1170
aVtranslateZ
p1171
aVrotateX
p1172
aVrotateY
p1173
aVrotateZ
p1174
aVscaleX
p1175
aVscaleY
p1176
aVscaleZ
p1177
aaF-1.2182963615714471e-07
aF1.657698334156521e-08
aF4.763255390116683e-08
aF0
aF0
aF0
aF1
aF1
aF1
aa(lp1178
Vspine_adj_01_anim
p1179
a(lp1180
VtranslateX
p1181
aVtranslateY
p1182
aVtranslateZ
p1183
aVrotateX
p1184
aVrotateY
p1185
aVrotateZ
p1186
aVscaleX
p1187
aVscaleY
p1188
aVscaleZ
p1189
aaF1.3014336275318783e-07
aF7.5175854874487413e-08
aF-5.8904712219032263e-09
aF-2.7079023093648251
aF-3.3476686366136308
aF-0.067435655811426951
aF1
aF0.99999999999999989
aF1
aa(lp1190
Vspine_adj_02_anim
p1191
a(lp1192
VtranslateX
p1193
aVtranslateY
p1194
aVtranslateZ
p1195
aVrotateX
p1196
aVrotateY
p1197
aVrotateZ
p1198
aVscaleX
p1199
aVscaleY
p1200
aVscaleZ
p1201
aaF-0.20842179496757751
aF-0.042561478656445217
aF0.81859308589124069
aF-1.2341953298970068
aF3.3946509211448403
aF-0.064593787391884191
aF0.99999999999999967
aF0.99999999999999967
aF1
aa(lp1202
Vspine_adj_03_anim
p1203
a(lp1204
VtranslateX
p1205
aVtranslateY
p1206
aVtranslateZ
p1207
aVrotateX
p1208
aVrotateY
p1209
aVrotateZ
p1210
aVscaleX
p1211
aVscaleY
p1212
aVscaleZ
p1213
aaF-0.33272314234017131
aF0.054167175765524433
aF-0.035441943120474662
aF-3.6155766368671556e-07
aF3.0967705946294552e-07
aF-9.9672900827416555
aF1
aF1
aF0.99999999999999989
aa(lp1214
Vshirt_mstr_anim
p1215
a(lp1216
VtranslateX
p1217
aVtranslateY
p1218
aVtranslateZ
p1219
aVrotateX
p1220
aVrotateY
p1221
aVrotateZ
p1222
aVscaleX
p1223
aVscaleY
p1224
aVscaleZ
p1225
aaF0
aF0
aF0
aF0
aF0
aF0
aF1
aF1
aF1
aa(lp1226
Vcowl_front_anim
p1227
a(lp1228
VtranslateX
p1229
aVtranslateY
p1230
aVtranslateZ
p1231
aVrotateX
p1232
aVrotateY
p1233
aVrotateZ
p1234
aVscaleX
p1235
aVscaleY
p1236
aVscaleZ
p1237
aaF8.7791946157267375e-08
aF7.782620059515466e-08
aF7.0719586631184939e-08
aF-3.6155757435813644e-07
aF3.0967701316226851e-07
aF0
aF1
aF1
aF1
aa(lp1238
Vcowl_left_anim
p1239
a(lp1240
VtranslateX
p1241
aVtranslateY
p1242
aVtranslateZ
p1243
aVrotateX
p1244
aVrotateY
p1245
aVrotateZ
p1246
aVscaleX
p1247
aVscaleY
p1248
aVscaleZ
p1249
aaF-2.1371246816670464e-07
aF1.1090342866282299e-08
aF4.1968084474319767e-07
aF-3.6155757435813644e-07
aF3.0967701316226851e-07
aF0
aF1
aF1
aF1
aa(lp1250
Vcowl_right_anim
p1251
a(lp1252
VtranslateX
p1253
aVtranslateY
p1254
aVtranslateZ
p1255
aVrotateX
p1256
aVrotateY
p1257
aVrotateZ
p1258
aVscaleX
p1259
aVscaleY
p1260
aVscaleZ
p1261
aaF2.4905858708734741e-08
aF1.4742883536200679e-07
aF3.101336432109747e-07
aF-3.6155757435813644e-07
aF3.0967701316226851e-07
aF0
aF1
aF1
aF1
aa(lp1262
Vsleeve_back_r_anim
p1263
a(lp1264
VtranslateX
p1265
aVtranslateY
p1266
aVtranslateZ
p1267
aVrotateX
p1268
aVrotateY
p1269
aVrotateZ
p1270
aVscaleX
p1271
aVscaleY
p1272
aVscaleZ
p1273
aaF-3.4892124745056208e-08
aF-8.3126536765121273e-09
aF-4.5273367277332e-09
aF0
aF0
aF0
aF0.99999999999999989
aF1
aF1
aa(lp1274
Vsleeve_back_l_anim
p1275
a(lp1276
VtranslateX
p1277
aVtranslateY
p1278
aVtranslateZ
p1279
aVrotateX
p1280
aVrotateY
p1281
aVrotateZ
p1282
aVscaleX
p1283
aVscaleY
p1284
aVscaleZ
p1285
aaF8.3235264014547283e-08
aF3.2427940688251056e-07
aF7.4990765597249265e-08
aF0
aF0
aF0
aF1
aF1
aF1
aa(lp1286
Vsleeve_r_mstr_anim
p1287
a(lp1288
VtranslateX
p1289
aVtranslateY
p1290
aVtranslateZ
p1291
aVrotateX
p1292
aVrotateY
p1293
aVrotateZ
p1294
aVscaleX
p1295
aVscaleY
p1296
aVscaleZ
p1297
aaF-0.4276349775390571
aF-0.56784477397849997
aF1.1214462901728552
aF0.16488374786694529
aF-6.520759694474271
aF18.106004096158689
aF1.0000000000000004
aF1.0000000000000002
aF1.0000000000000004
aa(lp1298
Vsleeve_l_mstr_anim
p1299
a(lp1300
VtranslateX
p1301
aVtranslateY
p1302
aVtranslateZ
p1303
aVrotateX
p1304
aVrotateY
p1305
aVrotateZ
p1306
aVscaleX
p1307
aVscaleY
p1308
aVscaleZ
p1309
aaF1.0937004887967987
aF-0.57067344487236316
aF0.60461708124484659
aF2.1021021131904032
aF12.810537572067783
aF8.4390861236829569
aF0.99999999999999978
aF0.99999999999999989
aF0.99999999999999989
aa(lp1310
Vsleeve_r_out_anim
p1311
a(lp1312
VtranslateX
p1313
aVtranslateY
p1314
aVtranslateZ
p1315
aVrotateX
p1316
aVrotateY
p1317
aVrotateZ
p1318
aVscaleX
p1319
aVscaleY
p1320
aVscaleZ
p1321
aaF-3.6438095207813603e-08
aF2.4696582556771318e-08
aF3.1944443890097318e-07
aF0
aF0
aF0
aF0.99999999999999967
aF0.99999999999999989
aF0.99999999999999978
aa(lp1322
Vsleeve_r_in_anim
p1323
a(lp1324
VtranslateX
p1325
aVtranslateY
p1326
aVtranslateZ
p1327
aVrotateX
p1328
aVrotateY
p1329
aVrotateZ
p1330
aVscaleX
p1331
aVscaleY
p1332
aVscaleZ
p1333
aaF-2.2040268277123687e-08
aF-3.9086629044504662e-08
aF1.7089602977193863e-07
aF0
aF0
aF0
aF0.99999999999999989
aF1
aF1
aa(lp1334
Vsleeve_l_out_anim
p1335
a(lp1336
VtranslateX
p1337
aVtranslateY
p1338
aVtranslateZ
p1339
aVrotateX
p1340
aVrotateY
p1341
aVrotateZ
p1342
aVscaleX
p1343
aVscaleY
p1344
aVscaleZ
p1345
aaF-3.5071479942416772e-08
aF-4.5317834818092706e-08
aF4.0749851848431717e-07
aF0
aF0
aF0
aF1
aF1
aF1
aa(lp1346
Vsleeve_l_in_anim
p1347
a(lp1348
VtranslateX
p1349
aVtranslateY
p1350
aVtranslateZ
p1351
aVrotateX
p1352
aVrotateY
p1353
aVrotateZ
p1354
aVscaleX
p1355
aVscaleY
p1356
aVscaleZ
p1357
aaF-3.1766546726430533e-08
aF-6.1301169473892969e-08
aF2.8717141731249285e-07
aF0
aF0
aF0
aF1
aF1
aF1
aa(lp1358
Vbody_anim_space_switcher
p1359
a(lp1360
Vvisibility
p1361
aVtranslateX
p1362
aVtranslateY
p1363
aVtranslateZ
p1364
aVrotateX
p1365
aVrotateY
p1366
aVrotateZ
p1367
aVscaleX
p1368
aVscaleY
p1369
aVscaleZ
p1370
aVspace_world
p1371
aaI01
aF0
aF0
aF0
aF0
aF0
aF0
aF1
aF1
aF1
aF0
aa(lp1372
Vchest_ik_anim_space_switcher
p1373
a(lp1374
Vvisibility
p1375
aVtranslateX
p1376
aVtranslateY
p1377
aVtranslateZ
p1378
aVrotateX
p1379
aVrotateY
p1380
aVrotateZ
p1381
aVscaleX
p1382
aVscaleY
p1383
aVscaleZ
p1384
aVspace_world
p1385
aVspace_chest_ik_world_aligned
p1386
aaI01
aF1.4210854715202004e-14
aF-3.5527136788005009e-15
aF0
aF0
aF0
aF0
aF1
aF1
aF1
aF0
aF0
aa(lp1387
Vcowl_front_anim_space_switcher
p1388
a(lp1389
Vvisibility
p1390
aVtranslateX
p1391
aVtranslateY
p1392
aVtranslateZ
p1393
aVrotateX
p1394
aVrotateY
p1395
aVrotateZ
p1396
aVscaleX
p1397
aVscaleY
p1398
aVscaleZ
p1399
aVspace_world
p1400
aaI01
aF-2.8421709430404007e-14
aF7.1054273576010019e-15
aF0
aF-1.5403036348158762e-22
aF-4.739395799433465e-23
aF0
aF1
aF1
aF1
aF0
aa(lp1401
Vcowl_left_anim_space_switcher
p1402
a(lp1403
Vvisibility
p1404
aVtranslateX
p1405
aVtranslateY
p1406
aVtranslateZ
p1407
aVrotateX
p1408
aVrotateY
p1409
aVrotateZ
p1410
aVscaleX
p1411
aVscaleY
p1412
aVscaleZ
p1413
aVspace_world
p1414
aaI01
aF-2.8421709430404007e-14
aF0
aF1.7763568394002505e-15
aF-1.5403036348158762e-22
aF-4.739395799433465e-23
aF0
aF1
aF1
aF1
aF0
aa(lp1415
Vcowl_right_anim_space_switcher
p1416
a(lp1417
Vvisibility
p1418
aVtranslateX
p1419
aVtranslateY
p1420
aVtranslateZ
p1421
aVrotateX
p1422
aVrotateY
p1423
aVrotateZ
p1424
aVscaleX
p1425
aVscaleY
p1426
aVscaleZ
p1427
aVspace_world
p1428
aaI01
aF0
aF0
aF0
aF-1.5403036348158762e-22
aF-4.739395799433465e-23
aF0
aF1
aF1
aF1
aF0
aa(lp1429
Vik_elbow_l_anim_space_switcher
p1430
a(lp1431
Vvisibility
p1432
aVtranslateX
p1433
aVtranslateY
p1434
aVtranslateZ
p1435
aVrotateX
p1436
aVrotateY
p1437
aVrotateZ
p1438
aVscaleX
p1439
aVscaleY
p1440
aVscaleZ
p1441
aVspace_world
p1442
aVspace_body_anim
p1443
aVspace_chest_ik_anim
p1444
aaI01
aF0
aF0
aF0
aF0
aF0
aF0
aF1
aF1
aF1
aF0
aF0
aF0
aa(lp1445
Vik_elbow_r_anim_space_switcher
p1446
a(lp1447
Vvisibility
p1448
aVtranslateX
p1449
aVtranslateY
p1450
aVtranslateZ
p1451
aVrotateX
p1452
aVrotateY
p1453
aVrotateZ
p1454
aVscaleX
p1455
aVscaleY
p1456
aVscaleZ
p1457
aVspace_world
p1458
aVspace_body_anim
p1459
aVspace_chest_ik_anim
p1460
aaI01
aF0
aF0
aF0
aF0
aF0
aF0
aF1
aF1
aF1
aF0
aF0
aF0
aa(lp1461
Vik_foot_anim_l_space_switcher
p1462
a(lp1463
Vvisibility
p1464
aVtranslateX
p1465
aVtranslateY
p1466
aVtranslateZ
p1467
aVrotateX
p1468
aVrotateY
p1469
aVrotateZ
p1470
aVscaleX
p1471
aVscaleY
p1472
aVscaleZ
p1473
aVspace_world
p1474
aVspace_body_anim
p1475
aaI01
aF0
aF0
aF0
aF0
aF0
aF0
aF1
aF1
aF1
aF0
aF0
aa(lp1476
Vik_foot_anim_r_space_switcher
p1477
a(lp1478
Vvisibility
p1479
aVtranslateX
p1480
aVtranslateY
p1481
aVtranslateZ
p1482
aVrotateX
p1483
aVrotateY
p1484
aVrotateZ
p1485
aVscaleX
p1486
aVscaleY
p1487
aVscaleZ
p1488
aVspace_world
p1489
aVspace_body_anim
p1490
aaI01
aF0
aF0
aF0
aF0
aF0
aF0
aF1
aF1
aF1
aF0
aF0
aa(lp1491
Vik_wrist_l_anim_space_switcher
p1492
a(lp1493
Vvisibility
p1494
aVtranslateX
p1495
aVtranslateY
p1496
aVtranslateZ
p1497
aVrotateX
p1498
aVrotateY
p1499
aVrotateZ
p1500
aVscaleX
p1501
aVscaleY
p1502
aVscaleZ
p1503
aVspace_world
p1504
aVspace_body_anim
p1505
aVspace_head_fk_anim
p1506
aVspace_chest_ik_anim
p1507
aaI01
aF0
aF0
aF0
aF0
aF0
aF0
aF1
aF1
aF1
aF0
aF0
aF0
aF0
aa(lp1508
Vik_wrist_r_anim_space_switcher
p1509
a(lp1510
Vvisibility
p1511
aVtranslateX
p1512
aVtranslateY
p1513
aVtranslateZ
p1514
aVrotateX
p1515
aVrotateY
p1516
aVrotateZ
p1517
aVscaleX
p1518
aVscaleY
p1519
aVscaleZ
p1520
aVspace_world
p1521
aVspace_body_anim
p1522
aVspace_head_fk_anim
p1523
aVspace_chest_ik_anim
p1524
aaI01
aF0
aF0
aF0
aF0
aF0
aF0
aF1
aF1
aF1
aF0
aF0
aF0
aF0
aa(lp1525
Vjaw_anim_space_switcher
p1526
a(lp1527
Vvisibility
p1528
aVtranslateX
p1529
aVtranslateY
p1530
aVtranslateZ
p1531
aVrotateX
p1532
aVrotateY
p1533
aVrotateZ
p1534
aVscaleX
p1535
aVscaleY
p1536
aVscaleZ
p1537
aVspace_world
p1538
aaI01
aF3.5527136788005009e-15
aF-2.8421709430404007e-14
aF2.2204460492503131e-16
aF-9.9392333795734899e-17
aF-0
aF0
aF1
aF1
aF0.99999999999999989
aF0
aa(lp1539
Vl_global_ik_anim_space_switcher
p1540
a(lp1541
Vvisibility
p1542
aVtranslateX
p1543
aVtranslateY
p1544
aVtranslateZ
p1545
aVrotateX
p1546
aVrotateY
p1547
aVrotateZ
p1548
aVscaleX
p1549
aVscaleY
p1550
aVscaleZ
p1551
aVspace_world
p1552
aaI01
aF0
aF0
aF0
aF0
aF0
aF0
aF1
aF1
aF1
aF0
aa(lp1553
Vmaster_anim_space_switcher
p1554
a(lp1555
Vvisibility
p1556
aVtranslateX
p1557
aVtranslateY
p1558
aVtranslateZ
p1559
aVrotateX
p1560
aVrotateY
p1561
aVrotateZ
p1562
aVscaleX
p1563
aVscaleY
p1564
aVscaleZ
p1565
aVspace_world
p1566
aaI01
aF0
aF0
aF0
aF0
aF0
aF0
aF1
aF1
aF1
aF0
aa(lp1567
Vr_global_ik_anim_space_switcher
p1568
a(lp1569
Vvisibility
p1570
aVtranslateX
p1571
aVtranslateY
p1572
aVtranslateZ
p1573
aVrotateX
p1574
aVrotateY
p1575
aVrotateZ
p1576
aVscaleX
p1577
aVscaleY
p1578
aVscaleZ
p1579
aVspace_world
p1580
aaI01
aF0
aF0
aF0
aF0
aF0
aF0
aF1
aF1
aF1
aF0
aa(lp1581
Vshirt_back_anim_space_switcher
p1582
a(lp1583
Vvisibility
p1584
aVtranslateX
p1585
aVtranslateY
p1586
aVtranslateZ
p1587
aVrotateX
p1588
aVrotateY
p1589
aVrotateZ
p1590
aVscaleX
p1591
aVscaleY
p1592
aVscaleZ
p1593
aVspace_world
p1594
aaI01
aF2.7755575615628914e-17
aF0
aF0
aF3.975693351829396e-16
aF-0
aF7.5830332790935439e-22
aF1
aF1
aF1
aF0
aa(lp1595
Vshirt_front_anim_space_switcher
p1596
a(lp1597
Vvisibility
p1598
aVtranslateX
p1599
aVtranslateY
p1600
aVtranslateZ
p1601
aVrotateX
p1602
aVrotateY
p1603
aVrotateZ
p1604
aVscaleX
p1605
aVscaleY
p1606
aVscaleZ
p1607
aVspace_world
p1608
aaI01
aF-2.7755575615628914e-17
aF7.1054273576010019e-15
aF0
aF3.975693351829396e-16
aF-0
aF7.5830332790935439e-22
aF1
aF1
aF1
aF0
aa(lp1609
Vshirt_l_anim_space_switcher
p1610
a(lp1611
Vvisibility
p1612
aVtranslateX
p1613
aVtranslateY
p1614
aVtranslateZ
p1615
aVrotateX
p1616
aVrotateY
p1617
aVrotateZ
p1618
aVscaleX
p1619
aVscaleY
p1620
aVscaleZ
p1621
aVspace_world
p1622
aaI01
aF0
aF8.8817841970012523e-16
aF-1.4210854715202004e-14
aF3.975693351829396e-16
aF-0
aF7.5830332790935439e-22
aF1
aF1
aF1
aF0
aa(lp1623
Vshirt_mstr_anim_space_switcher
p1624
a(lp1625
Vvisibility
p1626
aVtranslateX
p1627
aVtranslateY
p1628
aVtranslateZ
p1629
aVrotateX
p1630
aVrotateY
p1631
aVrotateZ
p1632
aVscaleX
p1633
aVscaleY
p1634
aVscaleZ
p1635
aVspace_world
p1636
aaI01
aF0
aF-8.8817841970012523e-16
aF-2.7755575615628914e-17
aF1.5166066558187088e-21
aF-0
aF0
aF1
aF1
aF1
aF0
aa(lp1637
Vshirt_r_anim_space_switcher
p1638
a(lp1639
Vvisibility
p1640
aVtranslateX
p1641
aVtranslateY
p1642
aVtranslateZ
p1643
aVrotateX
p1644
aVrotateY
p1645
aVrotateZ
p1646
aVscaleX
p1647
aVscaleY
p1648
aVscaleZ
p1649
aVspace_world
p1650
aaI01
aF0
aF8.8817841970012523e-16
aF-1.4210854715202004e-14
aF-7.9513867036587919e-16
aF-0
aF7.5830332790935439e-22
aF1
aF1
aF1
aF0
aa(lp1651
Vsleeve_back_l_anim_space_switcher
p1652
a(lp1653
Vvisibility
p1654
aVtranslateX
p1655
aVtranslateY
p1656
aVtranslateZ
p1657
aVrotateX
p1658
aVrotateY
p1659
aVrotateZ
p1660
aVscaleX
p1661
aVscaleY
p1662
aVscaleZ
p1663
aVspace_world
p1664
aaI01
aF0
aF-3.5527136788005009e-15
aF1.4210854715202004e-14
aF-1.987846675914698e-16
aF4.9696166897867449e-17
aF9.783932858017654e-17
aF1
aF1
aF1
aF0
aa(lp1665
Vsleeve_back_r_anim_space_switcher
p1666
a(lp1667
Vvisibility
p1668
aVtranslateX
p1669
aVtranslateY
p1670
aVtranslateZ
p1671
aVrotateX
p1672
aVrotateY
p1673
aVrotateZ
p1674
aVscaleX
p1675
aVscaleY
p1676
aVscaleZ
p1677
aVspace_world
p1678
aaI01
aF0
aF0
aF1.4210854715202004e-14
aF0
aF4.9696166897867462e-17
aF8.6968292071268061e-17
aF0.99999999999999989
aF1
aF1
aF0
aa(lp1679
Vsleeve_l_anim_space_switcher
p1680
a(lp1681
Vvisibility
p1682
aVtranslateX
p1683
aVtranslateY
p1684
aVtranslateZ
p1685
aVrotateX
p1686
aVrotateY
p1687
aVrotateZ
p1688
aVscaleX
p1689
aVscaleY
p1690
aVscaleZ
p1691
aVspace_world
p1692
aaI01
aF0
aF4.4408920985006262e-16
aF0
aF0
aF4.9696166897867449e-17
aF-1.1181637552020177e-16
aF1
aF1
aF1
aF0
aa(lp1693
Vsleeve_l_in_anim_space_switcher
p1694
a(lp1695
Vvisibility
p1696
aVtranslateX
p1697
aVtranslateY
p1698
aVtranslateZ
p1699
aVrotateX
p1700
aVrotateY
p1701
aVrotateZ
p1702
aVscaleX
p1703
aVscaleY
p1704
aVscaleZ
p1705
aVspace_world
p1706
aaI01
aF-7.1054273576010019e-15
aF1.7763568394002505e-15
aF1.4210854715202004e-14
aF-1.987846675914698e-16
aF4.9696166897867449e-17
aF6.8332229484567737e-17
aF1
aF1
aF1
aF0
aa(lp1707
Vsleeve_l_mstr_anim_space_switcher
p1708
a(lp1709
Vvisibility
p1710
aVtranslateX
p1711
aVtranslateY
p1712
aVtranslateZ
p1713
aVrotateX
p1714
aVrotateY
p1715
aVrotateZ
p1716
aVscaleX
p1717
aVscaleY
p1718
aVscaleZ
p1719
aVspace_world
p1720
aaI01
aF0
aF0
aF1.4210854715202004e-14
aF3.975693351829396e-16
aF3.9756933518293969e-16
aF1.5902773407317588e-15
aF0.99999999999999989
aF1
aF0.99999999999999978
aF0
aa(lp1721
Vsleeve_l_out_anim_space_switcher
p1722
a(lp1723
Vvisibility
p1724
aVtranslateX
p1725
aVtranslateY
p1726
aVtranslateZ
p1727
aVrotateX
p1728
aVrotateY
p1729
aVrotateZ
p1730
aVscaleX
p1731
aVscaleY
p1732
aVscaleZ
p1733
aVspace_world
p1734
aaI01
aF0
aF8.8817841970012523e-16
aF0
aF-1.987846675914698e-16
aF4.9696166897867449e-17
aF6.8332229484567737e-17
aF1
aF1
aF1
aF0
aa(lp1735
Vsleeve_r_anim_space_switcher
p1736
a(lp1737
Vvisibility
p1738
aVtranslateX
p1739
aVtranslateY
p1740
aVtranslateZ
p1741
aVrotateX
p1742
aVrotateY
p1743
aVrotateZ
p1744
aVscaleX
p1745
aVscaleY
p1746
aVscaleZ
p1747
aVspace_world
p1748
aaI01
aF-7.1054273576010019e-15
aF8.8817841970012523e-16
aF-1.4210854715202004e-14
aF0
aF4.9696166897867449e-17
aF3.4166114742283868e-17
aF1
aF0.99999999999999989
aF0.99999999999999989
aF0
aa(lp1749
Vsleeve_r_in_anim_space_switcher
p1750
a(lp1751
Vvisibility
p1752
aVtranslateX
p1753
aVtranslateY
p1754
aVtranslateZ
p1755
aVrotateX
p1756
aVrotateY
p1757
aVrotateZ
p1758
aVscaleX
p1759
aVscaleY
p1760
aVscaleZ
p1761
aVspace_world
p1762
aaI01
aF-7.1054273576010019e-15
aF0
aF1.4210854715202004e-14
aF0
aF4.9696166897867462e-17
aF8.6968292071268061e-17
aF0.99999999999999989
aF1
aF1
aF0
aa(lp1763
Vsleeve_r_mstr_anim_space_switcher
p1764
a(lp1765
Vvisibility
p1766
aVtranslateX
p1767
aVtranslateY
p1768
aVtranslateZ
p1769
aVrotateX
p1770
aVrotateY
p1771
aVrotateZ
p1772
aVscaleX
p1773
aVscaleY
p1774
aVscaleZ
p1775
aVspace_world
p1776
aaI01
aF0
aF-7.1054273576010019e-15
aF7.1054273576010019e-15
aF2.0872390097104326e-15
aF1.1927080055488188e-15
aF-1.5902773407317584e-15
aF1
aF1.0000000000000002
aF1.0000000000000002
aF0
aa(lp1777
Vsleeve_r_out_anim_space_switcher
p1778
a(lp1779
Vvisibility
p1780
aVtranslateX
p1781
aVtranslateY
p1782
aVtranslateZ
p1783
aVrotateX
p1784
aVrotateY
p1785
aVrotateZ
p1786
aVscaleX
p1787
aVscaleY
p1788
aVscaleZ
p1789
aVspace_world
p1790
aaI01
aF0
aF0
aF0
aF0
aF-4.9696166897867462e-17
aF-1.5064150590916076e-16
aF0.99999999999999989
aF0.99999999999999989
aF1
aF0
aa(lp1791
Vspine_01_space_switcher
p1792
a(lp1793
Vvisibility
p1794
aVtranslateX
p1795
aVtranslateY
p1796
aVtranslateZ
p1797
aVrotateX
p1798
aVrotateY
p1799
aVrotateZ
p1800
aVscaleX
p1801
aVscaleY
p1802
aVscaleZ
p1803
aVspace_world
p1804
aaI01
aF0
aF8.8817841970012523e-16
aF-2.7755575615628914e-17
aF7.5830332790935439e-22
aF-1.213285324654967e-20
aF-7.9513867036587919e-16
aF1
aF1
aF1
aF0
aa(lp1805
Vspine_adj_01_anim_space_switcher
p1806
a(lp1807
Vvisibility
p1808
aVtranslateX
p1809
aVtranslateY
p1810
aVtranslateZ
p1811
aVrotateX
p1812
aVrotateY
p1813
aVrotateZ
p1814
aVscaleX
p1815
aVscaleY
p1816
aVscaleZ
p1817
aVspace_world
p1818
aaI01
aF0
aF8.8817841970012523e-16
aF-2.7755575615628914e-17
aF0
aF0
aF0
aF1
aF0.99999999999999989
aF1
aF0
aa(lp1819
Vspine_adj_02_anim_space_switcher
p1820
a(lp1821
Vvisibility
p1822
aVtranslateX
p1823
aVtranslateY
p1824
aVtranslateZ
p1825
aVrotateX
p1826
aVrotateY
p1827
aVrotateZ
p1828
aVscaleX
p1829
aVscaleY
p1830
aVscaleZ
p1831
aVspace_world
p1832
aaI01
aF1.4210854715202004e-14
aF1.7763568394002505e-15
aF-5.5511151231257827e-17
aF0
aF0
aF0
aF0.99999999999999989
aF0.99999999999999989
aF1
aF0
aa(lp1833
Vspine_adj_03_anim_space_switcher
p1834
a(lp1835
Vvisibility
p1836
aVtranslateX
p1837
aVtranslateY
p1838
aVtranslateZ
p1839
aVrotateX
p1840
aVrotateY
p1841
aVrotateZ
p1842
aVscaleX
p1843
aVscaleY
p1844
aVscaleZ
p1845
aVspace_world
p1846
aaI01
aF-1.4210854715202004e-14
aF0
aF0
aF7.1090936991501951e-23
aF4.739395799433465e-23
aF0
aF1
aF1.0000000000000002
aF1.0000000000000002
aF0
aa(lp1847
Vweapon_r_anim_space_switcher
p1848
a(lp1849
Vvisibility
p1850
aVtranslateX
p1851
aVtranslateY
p1852
aVtranslateZ
p1853
aVrotateX
p1854
aVrotateY
p1855
aVrotateZ
p1856
aVscaleX
p1857
aVscaleY
p1858
aVscaleZ
p1859
aVspace_world
p1860
aaI01
aF-1.4210854715202004e-14
aF1.4210854715202004e-14
aF0
aF0
aF5.6872749593201579e-22
aF0
aF1
aF1.0000000000000002
aF1.0000000000000002
aF0
aa.