(lp1
(lp2
S'fk_clavicle_r_anim'
p3
a(lp4
VtranslateX
p5
aVtranslateY
p6
aVtranslateZ
p7
aVrotateX
p8
aVrotateY
p9
aVrotateZ
p10
aaF0
aF0
aF0
aF-5.8169394451356116
aF-29.870592738260633
aF6.7022462990084861
aa(lp11
S'fk_clavicle_l_anim'
p12
a(lp13
VtranslateX
p14
aVtranslateY
p15
aVtranslateZ
p16
aVrotateX
p17
aVrotateY
p18
aVrotateZ
p19
aaF0
aF0
aF0
aF11.1298457255199
aF-11.657025179574907
aF-11.542682319589185
aa(lp20
S'head_fk_anim'
p21
a(lp22
VtranslateX
p23
aVtranslateY
p24
aVtranslateZ
p25
aVrotateX
p26
aVrotateY
p27
aVrotateZ
p28
aVscaleX
p29
aVscaleY
p30
aVscaleZ
p31
aVfkOrientation
p32
aaF-0.011267632
aF-0.048031625000000001
aF0.14517842
aF38.970132078812618
aF1.0444680762063201
aF-8.3847900042007879
aF1
aF1
aF1
aI0
aa(lp33
S'neck_01_fk_anim'
p34
a(lp35
VtranslateX
p36
aVtranslateY
p37
aVtranslateZ
p38
aVrotateX
p39
aVrotateY
p40
aVrotateZ
p41
aVscaleX
p42
aVscaleY
p43
aVscaleZ
p44
aVfkOrientation
p45
aaF0
aF0
aF0
aF12.226766573534029
aF6.7275361200552579
aF4.0175099959340317
aF1
aF1
aF1
aI0
aa(lp46
S'neck_02_fk_anim'
p47
a(lp48
VtranslateX
p49
aVtranslateY
p50
aVtranslateZ
p51
aVrotateX
p52
aVrotateY
p53
aVrotateZ
p54
aVscaleX
p55
aVscaleY
p56
aVscaleZ
p57
aaF0
aF0
aF0
aF-7.6579167999999314
aF0
aF0
aF1
aF1
aF1
aa(lp58
S'spine_01_anim'
p59
a(lp60
Vlength
p61
aVtranslateY
p62
aVtranslateZ
p63
aVrotateX
p64
aVrotateY
p65
aVrotateZ
p66
aaF0
aF0
aF0
aF-1.1600334438788846
aF-6.5602978727085501
aF-4.4706180346054341
aa(lp67
S'spine_02_anim'
p68
a(lp69
Vlength
p70
aVtranslateY
p71
aVtranslateZ
p72
aVrotateX
p73
aVrotateY
p74
aVrotateZ
p75
aaF0
aF0
aF0
aF-4.0897713161876617
aF-2.0998253152177346
aF1.7513880335747074
aa(lp76
S'spine_03_anim'
p77
a(lp78
Vlength
p79
aVtranslateY
p80
aVtranslateZ
p81
aVrotateX
p82
aVrotateY
p83
aVrotateZ
p84
aaF0
aF0
aF0
aF-4.0815876394026551
aF-2.1358364321894001
aF1.7619707234733497
aa(lp85
S'mid_ik_anim'
p86
a(lp87
VtranslateX
p88
aVtranslateY
p89
aVtranslateZ
p90
aVrotateX
p91
aVrotateY
p92
aVrotateZ
p93
aaF0.074083389734113325
aF-0.38922595140790139
aF1.3075230488607907
aF1.2947285108602502
aF-5.2081218329069419
aF5.7884880058105894
aa(lp94
S'chest_ik_anim'
p95
a(lp96
VtranslateX
p97
aVtranslateY
p98
aVtranslateZ
p99
aVrotateX
p100
aVrotateY
p101
aVrotateZ
p102
aVstretch
p103
aVsquash
p104
aVtwist_amount
p105
aVautoSpine
p106
aVrotationInfluence
p107
aaF-0.13266143453736845
aF0.61717844478447526
aF2.2715195571161786
aF2.190477877728517
aF-13.354649259629262
aF2.3710961375240869
aF0
aF0
aF1
aF0
aF0.25
aa(lp108
S'body_anim'
p109
a(lp110
VtranslateX
p111
aVtranslateY
p112
aVtranslateZ
p113
aVrotateX
p114
aVrotateY
p115
aVrotateZ
p116
aaF-0.7616944982669176
aF-5.902177
aF-7.2128186033895068
aF-74.510002653101083
aF-2.9597451290571044
aF-11.672781331963163
aa(lp117
S'hip_anim'
p118
a(lp119
VtranslateX
p120
aVtranslateY
p121
aVtranslateZ
p122
aVrotateX
p123
aVrotateY
p124
aVrotateZ
p125
aVlCalfTwistCtrlVis
p126
aVrCalfTwistCtrlVis
p127
aVautoHips
p128
aaF0.53418420325413263
aF-3.0340731349948014
aF0.85972726377822672
aF7.8286424454891659
aF-1.3409277212639241
aF9.9079528045709342
aI00
aI00
aF0
aa(lp129
S'clavicle_l_anim'
p130
a(lp131
VtranslateX
p132
aVtranslateY
p133
aVtranslateZ
p134
aVautoShoulders
p135
aaF0.9391093458636135
aF-1.4738365912326925
aF1.8179289360596727
aF0
aa(lp136
S'clavicle_r_anim'
p137
a(lp138
VtranslateX
p139
aVtranslateY
p140
aVtranslateZ
p141
aVautoShoulders
p142
aaF0.47997887348813051
aF13.544027239452523
aF6.9563049242792863
aF0
aa(lp143
S'fk_arm_l_anim'
p144
a(lp145
VtranslateX
p146
aVtranslateY
p147
aVtranslateZ
p148
aVrotateX
p149
aVrotateY
p150
aVrotateZ
p151
aaF0
aF0
aF0
aF-36.972106825220727
aF-0.90233409999203251
aF-27.184130811822754
aa(lp152
S'fk_arm_r_anim'
p153
a(lp154
VtranslateX
p155
aVtranslateY
p156
aVtranslateZ
p157
aVrotateX
p158
aVrotateY
p159
aVrotateZ
p160
aaF0
aF0
aF0
aF14.473538938608176
aF-52.491386792360792
aF-60.02862897725128
aa(lp161
S'fk_elbow_l_anim'
p162
a(lp163
VtranslateX
p164
aVtranslateY
p165
aVtranslateZ
p166
aVrotateX
p167
aVrotateY
p168
aVrotateZ
p169
aaF0
aF0
aF0
aF-0.35968797895892507
aF0.088840236587470089
aF-3.4109984576374797
aa(lp170
S'fk_elbow_r_anim'
p171
a(lp172
VtranslateX
p173
aVtranslateY
p174
aVtranslateZ
p175
aVrotateX
p176
aVrotateY
p177
aVrotateZ
p178
aaF0
aF0
aF0
aF27.922706604003906
aF-6.7447695732116708
aF-104.16358947753906
aa(lp179
S'fk_wrist_l_anim'
p180
a(lp181
VtranslateX
p182
aVtranslateY
p183
aVtranslateZ
p184
aVrotateX
p185
aVrotateY
p186
aVrotateZ
p187
aaF0
aF0
aF0
aF-58.858195630208961
aF-16.377720780365671
aF-19.282788497487076
aa(lp188
S'fk_wrist_r_anim'
p189
a(lp190
VtranslateX
p191
aVtranslateY
p192
aVtranslateZ
p193
aVrotateX
p194
aVrotateY
p195
aVrotateZ
p196
aaF0
aF0
aF0
aF-93.572341918945284
aF26.954505920410156
aF-27.398551940917958
aa(lp197
S'ik_elbow_l_anim'
p198
a(lp199
VtranslateX
p200
aVtranslateY
p201
aVtranslateZ
p202
aaF-31.126594587475726
aF-62.208438791943848
aF-1.8452077908388844
aa(lp203
S'ik_elbow_r_anim'
p204
a(lp205
VtranslateX
p206
aVtranslateY
p207
aVtranslateZ
p208
aaF2.329511208272848
aF35.926538416721755
aF6.514500665477442
aa(lp209
S'ik_wrist_l_anim'
p210
a(lp211
VtranslateX
p212
aVtranslateY
p213
aVtranslateZ
p214
aVrotateX
p215
aVrotateY
p216
aVrotateZ
p217
aVstretch
p218
aVsquash
p219
aVstretchBias
p220
aVside
p221
aVmid_bend
p222
aVmid_swivel
p223
aVtip_pivot
p224
aVtip_swivel
p225
aaF-71.800595773970599
aF-69.552754604894105
aF3.4503206644714908
aF-88.76274590608331
aF-9.0078217609928242
aF-81.115952914112356
aF1
aF0
aF0
aF0
aF0
aF0
aF0
aF0
aa(lp226
S'ik_wrist_r_anim'
p227
a(lp228
VtranslateX
p229
aVtranslateY
p230
aVtranslateZ
p231
aVrotateX
p232
aVrotateY
p233
aVrotateZ
p234
aVstretch
p235
aVsquash
p236
aVstretchBias
p237
aVside
p238
aVmid_bend
p239
aVmid_swivel
p240
aVtip_pivot
p241
aVtip_swivel
p242
aaF52.449414317824264
aF3.381586999999997
aF8.691334065455294
aF-95.792650999999978
aF1.1889112000000057
aF103.04055
aF0
aF0
aF0
aF0
aF-13.700000000000001
aF3.6000000000000001
aF0
aF0
aa(lp243
S'fk_thigh_l_anim'
p244
a(lp245
VrotateX
p246
aVrotateY
p247
aVrotateZ
p248
aaF8.4267373132878003
aF-13.984353505378916
aF10.703862554091835
aa(lp249
S'fk_thigh_r_anim'
p250
a(lp251
VrotateX
p252
aVrotateY
p253
aVrotateZ
p254
aaF-7.3129262030712141
aF-11.24515346945164
aF7.4419545475796918
aa(lp255
S'fk_calf_l_anim'
p256
a(lp257
VrotateX
p258
aVrotateY
p259
aVrotateZ
p260
aaF0.37459212541585868
aF1.3072688579559566
aF-8.9925203323363885
aa(lp261
S'fk_calf_r_anim'
p262
a(lp263
VrotateX
p264
aVrotateY
p265
aVrotateZ
p266
aaF-0.17073275148894537
aF0.40058267116538293
aF-3.4775910377502681
aa(lp267
S'fk_foot_l_anim'
p268
a(lp269
VrotateX
p270
aVrotateY
p271
aVrotateZ
p272
aaF16.788440704345724
aF12.133452415466301
aF-1.3393346071243275
aa(lp273
S'fk_foot_r_anim'
p274
a(lp275
VrotateX
p276
aVrotateY
p277
aVrotateZ
p278
aaF11.003055572509613
aF11.327843666076673
aF1.2866671085357499
aa(lp279
S'fk_ball_l_anim'
p280
a(lp281
VrotateX
p282
aVrotateY
p283
aVrotateZ
p284
aaF-7.2496295616896242e-05
aF-0.00017529717297233167
aF-0.22085592150687949
aa(lp285
S'fk_ball_r_anim'
p286
a(lp287
VrotateX
p288
aVrotateY
p289
aVrotateZ
p290
aaF-0.01395306270569753
aF-0.0032664691097813395
aF-0.15505167841911335
aa(lp291
S'ik_foot_anim_l'
p292
a(lp293
VtranslateX
p294
aVtranslateY
p295
aVtranslateZ
p296
aVrotateX
p297
aVrotateY
p298
aVrotateZ
p299
aVknee_twist
p300
aVstretch
p301
aVsquash
p302
aVtoeCtrlVis
p303
aVstretchBias
p304
aaF0.60284357154075341
aF-23.800293305326662
aF-3.0981439635979768e-10
aF0
aF0
aF-33.038834999999978
aF-41.800000000000011
aF0
aF0
aI00
aF0
aa(lp305
S'ik_foot_anim_r'
p306
a(lp307
VtranslateX
p308
aVtranslateY
p309
aVtranslateZ
p310
aVrotateX
p311
aVrotateY
p312
aVrotateZ
p313
aVknee_twist
p314
aVstretch
p315
aVsquash
p316
aVtoeCtrlVis
p317
aVstretchBias
p318
aaF-1.8827457931272997
aF28.858526962784939
aF6.115623804173703
aF26.190567692168401
aF9.7479861433861572
aF-84.281440636657109
aF90
aF0
aF0
aI00
aF0
aa(lp319
S'heel_ctrl_l'
p320
a(lp321
VrotateX
p322
aVrotateY
p323
aVrotateZ
p324
aVheelPivot
p325
aVballPivot
p326
aaF0
aF-0
aF0
aF0
aF0
aa(lp327
S'heel_ctrl_r'
p328
a(lp329
VrotateX
p330
aVrotateY
p331
aVrotateZ
p332
aVheelPivot
p333
aVballPivot
p334
aaF0
aF-0
aF0
aF0
aF0
aa(lp335
S'toe_wiggle_ctrl_l'
p336
a(lp337
VrotateX
p338
aVrotateY
p339
aVrotateZ
p340
aaF0
aF-0
aF0
aa(lp341
S'toe_wiggle_ctrl_r'
p342
a(lp343
VrotateX
p344
aVrotateY
p345
aVrotateZ
p346
aaF0
aF-0
aF0
aa(lp347
S'toe_tip_ctrl_l'
p348
a(lp349
VrotateX
p350
aVrotateY
p351
aVrotateZ
p352
aaF0
aF-0
aF0
aa(lp353
S'toe_tip_ctrl_r'
p354
a(lp355
VrotateX
p356
aVrotateY
p357
aVrotateZ
p358
aaF0
aF-0
aF0
aa(lp359
S'master_anim'
p360
a(lp361
VtranslateX
p362
aVtranslateY
p363
aVtranslateZ
p364
aVrotateX
p365
aVrotateY
p366
aVrotateZ
p367
aaF0
aF0
aF0
aF0
aF-0
aF0
aa(lp368
S'offset_anim'
p369
a(lp370
VtranslateX
p371
aVtranslateY
p372
aVtranslateZ
p373
aVrotateX
p374
aVrotateY
p375
aVrotateZ
p376
aaF0
aF0
aF0
aF0
aF-0
aF0
aa(lp377
S'root_anim'
p378
a(lp379
VtranslateX
p380
aVtranslateY
p381
aVtranslateZ
p382
aVrotateX
p383
aVrotateY
p384
aVrotateZ
p385
aaF0
aF0
aF0
aF0
aF-0
aF0
aa(lp386
S'upperarm_l_twist_anim'
p387
a(lp388
VtranslateX
p389
aVtranslateY
p390
aVtranslateZ
p391
aVrotateX
p392
aVrotateY
p393
aVrotateZ
p394
aVscaleX
p395
aVscaleY
p396
aVscaleZ
p397
aaF0
aF0
aF2.8421709430404007e-14
aF17.279999856412701
aF-6.2120208622334296e-18
aF-2.7573122288108783e-16
aF1.0000000000000002
aF1.0000000000000002
aF1.0000000000000004
aa(lp398
S'upperarm_l_twist_2_anim'
p399
a(lp400
VtranslateX
p401
aVtranslateY
p402
aVtranslateZ
p403
aVrotateX
p404
aVrotateY
p405
aVrotateZ
p406
aVscaleX
p407
aVscaleY
p408
aVscaleZ
p409
aaF0
aF-8.8817841970012523e-16
aF0
aF0
aF-6.2120208622334296e-18
aF-2.7573122288108783e-16
aF1.0000000000000002
aF1.0000000000000002
aF1.0000000000000004
aa(lp410
S'upperarm_r_twist_anim'
p411
a(lp412
VtranslateX
p413
aVtranslateY
p414
aVtranslateZ
p415
aVrotateX
p416
aVrotateY
p417
aVrotateZ
p418
aVscaleX
p419
aVscaleY
p420
aVscaleZ
p421
aaF0
aF0
aF0
aF-50.397751262487311
aF0
aF0
aF1
aF1
aF1
aa(lp422
S'upperarm_r_twist_2_anim'
p423
a(lp424
VtranslateX
p425
aVtranslateY
p426
aVtranslateZ
p427
aVrotateX
p428
aVrotateY
p429
aVrotateZ
p430
aVscaleX
p431
aVscaleY
p432
aVscaleZ
p433
aaF0
aF-8.8817841970012523e-16
aF2.8421709430404007e-14
aF0
aF-6.2120208622334312e-18
aF-3.9310444518820934e-17
aF1
aF1.0000000000000002
aF1
aa(lp434
S'lowerarm_l_twist_anim'
p435
a(lp436
VtranslateX
p437
aVtranslateY
p438
aVtranslateZ
p439
aVrotateX
p440
aVrotateY
p441
aVrotateZ
p442
aaF0
aF0
aF0
aF0
aF0
aF0
aa(lp443
S'lowerarm_r_twist_anim'
p444
a(lp445
VtranslateX
p446
aVtranslateY
p447
aVtranslateZ
p448
aVrotateX
p449
aVrotateY
p450
aVrotateZ
p451
aaF0
aF0
aF0
aF11.913770423546685
aF0
aF0
aa(lp452
S'l_thigh_twist_01_anim'
p453
a(lp454
VtranslateX
p455
aVtranslateY
p456
aVtranslateZ
p457
aVrotateX
p458
aVrotateY
p459
aVrotateZ
p460
aVscaleX
p461
aVscaleY
p462
aVscaleZ
p463
aaF0
aF-8.8817841970012523e-16
aF1.7763568394002505e-15
aF4.6465916049506072e-15
aF5.9635400277440939e-16
aF1.3119788061037007e-14
aF1
aF0.99999999999999989
aF1
aa(lp464
S'r_thigh_twist_01_anim'
p465
a(lp466
VtranslateX
p467
aVtranslateY
p468
aVtranslateZ
p469
aVrotateX
p470
aVrotateY
p471
aVrotateZ
p472
aVscaleX
p473
aVscaleY
p474
aVscaleZ
p475
aaF0
aF0
aF0
aF1.2548282141711526e-14
aF-1.3119788061037007e-14
aF-4.3732626870123352e-15
aF1
aF1.0000000000000004
aF0.99999999999999989
aa(lp476
S'pinky_finger_fk_ctrl_1_l'
p477
a(lp478
VtranslateX
p479
aVtranslateY
p480
aVtranslateZ
p481
aVrotateX
p482
aVrotateY
p483
aVrotateZ
p484
aVsticky
p485
aaF0
aF0
aF0
aF6.6196376100958094
aF-1.970625369068608
aF40.14656527447513
aF0
aa(lp486
S'pinky_finger_fk_ctrl_1_r'
p487
a(lp488
VtranslateX
p489
aVtranslateY
p490
aVtranslateZ
p491
aVrotateX
p492
aVrotateY
p493
aVrotateZ
p494
aVsticky
p495
aaF0
aF0
aF0
aF19.77319684824198
aF-6.9365742295407467
aF55.819925292454052
aF0
aa(lp496
S'pinky_finger_fk_ctrl_2_l'
p497
a(lp498
VtranslateX
p499
aVtranslateY
p500
aVtranslateZ
p501
aVrotateX
p502
aVrotateY
p503
aVrotateZ
p504
aaF0
aF0
aF0
aF0
aF-0
aF63.388573959552552
aa(lp505
S'pinky_finger_fk_ctrl_2_r'
p506
a(lp507
VtranslateX
p508
aVtranslateY
p509
aVtranslateZ
p510
aVrotateX
p511
aVrotateY
p512
aVrotateZ
p513
aaF0
aF0
aF0
aF0
aF-0
aF90.729360969562052
aa(lp514
S'pinky_finger_fk_ctrl_3_l'
p515
a(lp516
VtranslateX
p517
aVtranslateY
p518
aVtranslateZ
p519
aVrotateX
p520
aVrotateY
p521
aVrotateZ
p522
aaF0
aF0
aF0
aF0
aF-0
aF38.995473708029699
aa(lp523
S'pinky_finger_fk_ctrl_3_r'
p524
a(lp525
VtranslateX
p526
aVtranslateY
p527
aVtranslateZ
p528
aVrotateX
p529
aVrotateY
p530
aVrotateZ
p531
aaF0
aF0
aF0
aF0
aF-0
aF78.120001356373749
aa(lp532
S'ring_finger_fk_ctrl_1_l'
p533
a(lp534
VtranslateX
p535
aVtranslateY
p536
aVtranslateZ
p537
aVrotateX
p538
aVrotateY
p539
aVrotateZ
p540
aVsticky
p541
aaF0
aF0
aF0
aF12.058788802508412
aF-9.4612889059031406
aF37.875884184215884
aF0
aa(lp542
S'ring_finger_fk_ctrl_1_r'
p543
a(lp544
VtranslateX
p545
aVtranslateY
p546
aVtranslateZ
p547
aVrotateX
p548
aVrotateY
p549
aVrotateZ
p550
aVsticky
p551
aaF0
aF0
aF0
aF10.401774324695193
aF-2.5699612581660971
aF29.160667543047179
aF0
aa(lp552
S'ring_finger_fk_ctrl_2_l'
p553
a(lp554
VtranslateX
p555
aVtranslateY
p556
aVtranslateZ
p557
aVrotateX
p558
aVrotateY
p559
aVrotateZ
p560
aaF0
aF0
aF0
aF0
aF-0
aF85.279146253214691
aa(lp561
S'ring_finger_fk_ctrl_2_r'
p562
a(lp563
VtranslateX
p564
aVtranslateY
p565
aVtranslateZ
p566
aVrotateX
p567
aVrotateY
p568
aVrotateZ
p569
aaF0
aF0
aF0
aF0
aF-0
aF111.73064384471036
aa(lp570
S'ring_finger_fk_ctrl_3_l'
p571
a(lp572
VtranslateX
p573
aVtranslateY
p574
aVtranslateZ
p575
aVrotateX
p576
aVrotateY
p577
aVrotateZ
p578
aaF0
aF0
aF0
aF0
aF-0
aF33.185063589223695
aa(lp579
S'ring_finger_fk_ctrl_3_r'
p580
a(lp581
VtranslateX
p582
aVtranslateY
p583
aVtranslateZ
p584
aVrotateX
p585
aVrotateY
p586
aVrotateZ
p587
aaF0
aF0
aF0
aF0
aF-0
aF67.532328955713623
aa(lp588
S'middle_finger_fk_ctrl_1_l'
p589
a(lp590
VtranslateX
p591
aVtranslateY
p592
aVtranslateZ
p593
aVrotateX
p594
aVrotateY
p595
aVrotateZ
p596
aVsticky
p597
aaF0
aF0
aF0
aF1.2957230471111219
aF-10.822239605320618
aF37.095527906048638
aF0
aa(lp598
S'middle_finger_fk_ctrl_1_r'
p599
a(lp600
VtranslateX
p601
aVtranslateY
p602
aVtranslateZ
p603
aVrotateX
p604
aVrotateY
p605
aVrotateZ
p606
aVsticky
p607
aaF0
aF0
aF0
aF9.417194545869636
aF4.6405952543754641
aF1.6227914473624776
aF0
aa(lp608
S'middle_finger_fk_ctrl_2_l'
p609
a(lp610
VtranslateX
p611
aVtranslateY
p612
aVtranslateZ
p613
aVrotateX
p614
aVrotateY
p615
aVrotateZ
p616
aaF0
aF0
aF0
aF0
aF-0
aF85.279146253214734
aa(lp617
S'middle_finger_fk_ctrl_2_r'
p618
a(lp619
VtranslateX
p620
aVtranslateY
p621
aVtranslateZ
p622
aVrotateX
p623
aVrotateY
p624
aVrotateZ
p625
aaF0
aF0
aF0
aF0
aF-0
aF69.852753900637808
aa(lp626
S'middle_finger_fk_ctrl_3_l'
p627
a(lp628
VtranslateX
p629
aVtranslateY
p630
aVtranslateZ
p631
aVrotateX
p632
aVrotateY
p633
aVrotateZ
p634
aaF0
aF0
aF0
aF0
aF-0
aF33.185063589223631
aa(lp635
S'middle_finger_fk_ctrl_3_r'
p636
a(lp637
VtranslateX
p638
aVtranslateY
p639
aVtranslateZ
p640
aVrotateX
p641
aVrotateY
p642
aVrotateZ
p643
aaF0
aF0
aF0
aF0
aF-0
aF100.80000075841191
aa(lp644
S'index_finger_fk_ctrl_1_l'
p645
a(lp646
VtranslateX
p647
aVtranslateY
p648
aVtranslateZ
p649
aVrotateX
p650
aVrotateY
p651
aVrotateZ
p652
aVsticky
p653
aaF0
aF0
aF0
aF-4.0019861113175885e-16
aF-6.5713709959973094
aF38.136881116746451
aF0
aa(lp654
S'index_finger_fk_ctrl_1_r'
p655
a(lp656
VtranslateX
p657
aVtranslateY
p658
aVtranslateZ
p659
aVrotateX
p660
aVrotateY
p661
aVrotateZ
p662
aVsticky
p663
aaF0
aF0
aF0
aF3.8524686305639038
aF2.3421762451515864
aF0.15452220850110795
aF0
aa(lp664
S'index_finger_fk_ctrl_2_l'
p665
a(lp666
VtranslateX
p667
aVtranslateY
p668
aVtranslateZ
p669
aVrotateX
p670
aVrotateY
p671
aVrotateZ
p672
aaF0
aF0
aF0
aF0
aF-0
aF85.279146253214748
aa(lp673
S'index_finger_fk_ctrl_2_r'
p674
a(lp675
VtranslateX
p676
aVtranslateY
p677
aVtranslateZ
p678
aVrotateX
p679
aVrotateY
p680
aVrotateZ
p681
aaF0
aF0
aF0
aF0
aF-0
aF96.294250317077228
aa(lp682
S'index_finger_fk_ctrl_3_l'
p683
a(lp684
VtranslateX
p685
aVtranslateY
p686
aVtranslateZ
p687
aVrotateX
p688
aVrotateY
p689
aVrotateZ
p690
aaF0
aF0
aF0
aF0
aF-0
aF33.185063589223695
aa(lp691
S'index_finger_fk_ctrl_3_r'
p692
a(lp693
VtranslateX
p694
aVtranslateY
p695
aVtranslateZ
p696
aVrotateX
p697
aVrotateY
p698
aVrotateZ
p699
aaF0
aF0
aF0
aF0
aF-0
aF78.480000838050273
aa(lp700
S'thumb_finger_fk_ctrl_1_l'
p701
a(lp702
VtranslateX
p703
aVtranslateY
p704
aVtranslateZ
p705
aVrotateX
p706
aVrotateY
p707
aVrotateZ
p708
aVsticky
p709
aaF0
aF0
aF0
aF8.2437575031514108
aF13.614008018126368
aF6.158232741692145
aF0
aa(lp710
S'thumb_finger_fk_ctrl_1_r'
p711
a(lp712
VtranslateX
p713
aVtranslateY
p714
aVtranslateZ
p715
aVrotateX
p716
aVrotateY
p717
aVrotateZ
p718
aVsticky
p719
aaF0
aF0
aF0
aF20.306422529546705
aF-0
aF0
aF0
aa(lp720
S'thumb_finger_fk_ctrl_2_l'
p721
a(lp722
VtranslateX
p723
aVtranslateY
p724
aVtranslateZ
p725
aVrotateX
p726
aVrotateY
p727
aVrotateZ
p728
aaF0
aF0
aF0
aF26.246528484953672
aF11.718136856275759
aF14.814646270733121
aa(lp729
S'thumb_finger_fk_ctrl_2_r'
p730
a(lp731
VtranslateX
p732
aVtranslateY
p733
aVtranslateZ
p734
aVrotateX
p735
aVrotateY
p736
aVrotateZ
p737
aaF0
aF0
aF0
aF4.3905444071747546
aF-3.3834369032636222
aF29.392086969779786
aa(lp738
S'thumb_finger_fk_ctrl_3_l'
p739
a(lp740
VtranslateX
p741
aVtranslateY
p742
aVtranslateZ
p743
aVrotateX
p744
aVrotateY
p745
aVrotateZ
p746
aaF0
aF0
aF0
aF0
aF-0
aF61.713970779493309
aa(lp747
S'thumb_finger_fk_ctrl_3_r'
p748
a(lp749
VtranslateX
p750
aVtranslateY
p751
aVtranslateZ
p752
aVrotateX
p753
aVrotateY
p754
aVrotateZ
p755
aaF0
aF0
aF0
aF0
aF-0
aF38.059067515015187
aa(lp756
S'index_l_ik_anim'
p757
a(lp758
VtranslateX
p759
aVtranslateY
p760
aVtranslateZ
p761
aVrotateX
p762
aVrotateY
p763
aVrotateZ
p764
aVpoleVectorVis
p765
aaF0
aF0
aF0
aF0
aF0
aF0
aF0
aa(lp766
S'index_r_ik_anim'
p767
a(lp768
VtranslateX
p769
aVtranslateY
p770
aVtranslateZ
p771
aVrotateX
p772
aVrotateY
p773
aVrotateZ
p774
aVpoleVectorVis
p775
aaF0
aF0
aF0
aF0
aF0
aF0
aF0
aa(lp776
S'middle_l_ik_anim'
p777
a(lp778
VtranslateX
p779
aVtranslateY
p780
aVtranslateZ
p781
aVrotateX
p782
aVrotateY
p783
aVrotateZ
p784
aVpoleVectorVis
p785
aaF0
aF0
aF0
aF0
aF0
aF0
aF0
aa(lp786
S'middle_r_ik_anim'
p787
a(lp788
VtranslateX
p789
aVtranslateY
p790
aVtranslateZ
p791
aVrotateX
p792
aVrotateY
p793
aVrotateZ
p794
aVpoleVectorVis
p795
aaF0
aF0
aF0
aF0
aF0
aF0
aF0
aa(lp796
S'ring_l_ik_anim'
p797
a(lp798
VtranslateX
p799
aVtranslateY
p800
aVtranslateZ
p801
aVrotateX
p802
aVrotateY
p803
aVrotateZ
p804
aVpoleVectorVis
p805
aaF0
aF0
aF0
aF0
aF0
aF0
aF0
aa(lp806
S'ring_r_ik_anim'
p807
a(lp808
VtranslateX
p809
aVtranslateY
p810
aVtranslateZ
p811
aVrotateX
p812
aVrotateY
p813
aVrotateZ
p814
aVpoleVectorVis
p815
aaF0
aF0
aF0
aF0
aF0
aF0
aF0
aa(lp816
S'pinky_l_ik_anim'
p817
a(lp818
VtranslateX
p819
aVtranslateY
p820
aVtranslateZ
p821
aVrotateX
p822
aVrotateY
p823
aVrotateZ
p824
aVpoleVectorVis
p825
aaF0
aF0
aF0
aF0
aF0
aF0
aF0
aa(lp826
S'pinky_r_ik_anim'
p827
a(lp828
VtranslateX
p829
aVtranslateY
p830
aVtranslateZ
p831
aVrotateX
p832
aVrotateY
p833
aVrotateZ
p834
aVpoleVectorVis
p835
aaF0
aF0
aF0
aF0
aF0
aF0
aF0
aa(lp836
S'thumb_l_ik_anim'
p837
a(lp838
VtranslateX
p839
aVtranslateY
p840
aVtranslateZ
p841
aVrotateX
p842
aVrotateY
p843
aVrotateZ
p844
aVpoleVectorVis
p845
aaF0
aF0
aF0
aF0
aF0
aF0
aF0
aa(lp846
S'thumb_r_ik_anim'
p847
a(lp848
VtranslateX
p849
aVtranslateY
p850
aVtranslateZ
p851
aVrotateX
p852
aVrotateY
p853
aVrotateZ
p854
aVpoleVectorVis
p855
aaF0
aF0
aF0
aF0
aF0
aF0
aF0
aa(lp856
S'index_l_poleVector'
p857
a(lp858
VtranslateX
p859
aVtranslateY
p860
aVtranslateZ
p861
aVrotateX
p862
aVrotateY
p863
aVrotateZ
p864
aaF0
aF0
aF0
aF0
aF0
aF0
aa(lp865
S'index_r_poleVector'
p866
a(lp867
VtranslateX
p868
aVtranslateY
p869
aVtranslateZ
p870
aVrotateX
p871
aVrotateY
p872
aVrotateZ
p873
aaF0
aF0
aF0
aF0
aF0
aF0
aa(lp874
S'middle_l_poleVector'
p875
a(lp876
VtranslateX
p877
aVtranslateY
p878
aVtranslateZ
p879
aVrotateX
p880
aVrotateY
p881
aVrotateZ
p882
aaF0
aF0
aF0
aF0
aF0
aF0
aa(lp883
S'middle_r_poleVector'
p884
a(lp885
VtranslateX
p886
aVtranslateY
p887
aVtranslateZ
p888
aVrotateX
p889
aVrotateY
p890
aVrotateZ
p891
aaF0
aF0
aF0
aF0
aF0
aF0
aa(lp892
S'ring_l_poleVector'
p893
a(lp894
VtranslateX
p895
aVtranslateY
p896
aVtranslateZ
p897
aVrotateX
p898
aVrotateY
p899
aVrotateZ
p900
aaF0
aF0
aF0
aF0
aF0
aF0
aa(lp901
S'ring_r_poleVector'
p902
a(lp903
VtranslateX
p904
aVtranslateY
p905
aVtranslateZ
p906
aVrotateX
p907
aVrotateY
p908
aVrotateZ
p909
aaF0
aF0
aF0
aF0
aF0
aF0
aa(lp910
S'pinky_l_poleVector'
p911
a(lp912
VtranslateX
p913
aVtranslateY
p914
aVtranslateZ
p915
aVrotateX
p916
aVrotateY
p917
aVrotateZ
p918
aaF0
aF0
aF0
aF0
aF0
aF0
aa(lp919
S'pinky_r_poleVector'
p920
a(lp921
VtranslateX
p922
aVtranslateY
p923
aVtranslateZ
p924
aVrotateX
p925
aVrotateY
p926
aVrotateZ
p927
aaF0
aF0
aF0
aF0
aF0
aF0
aa(lp928
S'thumb_l_poleVector'
p929
a(lp930
VtranslateX
p931
aVtranslateY
p932
aVtranslateZ
p933
aVrotateX
p934
aVrotateY
p935
aVrotateZ
p936
aaF0
aF0
aF0
aF0
aF0
aF0
aa(lp937
S'thumb_r_poleVector'
p938
a(lp939
VtranslateX
p940
aVtranslateY
p941
aVtranslateZ
p942
aVrotateX
p943
aVrotateY
p944
aVrotateZ
p945
aaF0
aF0
aF0
aF0
aF0
aF0
aa(lp946
S'l_global_ik_anim'
p947
a(lp948
VtranslateX
p949
aVtranslateY
p950
aVtranslateZ
p951
aVrotateX
p952
aVrotateY
p953
aVrotateZ
p954
aaF0
aF0
aF0
aF0
aF-0
aF0
aa(lp955
S'r_global_ik_anim'
p956
a(lp957
VtranslateX
p958
aVtranslateY
p959
aVtranslateZ
p960
aVrotateX
p961
aVrotateY
p962
aVrotateZ
p963
aaF0
aF0
aF0
aF0
aF-0
aF0
aa(lp964
S'Rig_Settings'
p965
a(lp966
Vspine_ik
p967
aVspine_fk
p968
aVlLegMode
p969
aVlThighTwistAmount
p970
aVlThighTwist2Amount
p971
aVllegTwistCtrlVis
p972
aVlCalfTwistAmount
p973
aVllegTwistCtrlVisCalf
p974
aVrLegMode
p975
aVrThighTwistAmount
p976
aVrThighTwist2Amount
p977
aVrlegTwistCtrlVis
p978
aVrCalfTwistAmount
p979
aVrlegTwistCtrlVisCalf
p980
aVlFkArmOrient
p981
aVlArmMode
p982
aVlClavMode
p983
aVlUpperarmTwistAmount
p984
aVlUpperarmTwist2Amount
p985
aVltwistCtrlVis
p986
aVltwistCtrlVisLower
p987
aVlForearmTwistAmount
p988
aVlForearmTwist2Amount
p989
aVrFkArmOrient
p990
aVrArmMode
p991
aVrClavMode
p992
aVrUpperarmTwistAmount
p993
aVrUpperarmTwist2Amount
p994
aVrtwistCtrlVis
p995
aVrtwistCtrlVisLower
p996
aVrForearmTwistAmount
p997
aVrForearmTwist2Amount
p998
aVback_tail_cloth_fk
p999
aVback_tail_cloth_ik
p1000
aVback_tail_cloth_dynamic
p1001
aVchest_cloth_l_fk
p1002
aVchest_cloth_l_ik
p1003
aVchest_cloth_l_dynamic
p1004
aVchest_cloth_r_fk
p1005
aVchest_cloth_r_ik
p1006
aVchest_cloth_r_dynamic
p1007
aVfront_strap_fk
p1008
aVfront_strap_ik
p1009
aVfront_strap_dynamic
p1010
aVponytail_fk
p1011
aVponytail_ik
p1012
aVponytail_dynamic
p1013
aVskirt_back_cloth_fk
p1014
aVskirt_back_cloth_ik
p1015
aVskirt_back_cloth_dynamic
p1016
aVskirt_cloth_l_fk
p1017
aVskirt_cloth_l_ik
p1018
aVskirt_cloth_l_dynamic
p1019
aVskirt_front_cloth_fk
p1020
aVskirt_front_cloth_ik
p1021
aVskirt_front_cloth_dynamic
p1022
aaF1
aF0
aI1
aF1
aF0.29999999999999999
aI00
aF0.69999999999999996
aI00
aI1
aF1
aF0.29999999999999999
aI00
aF0.69999999999999996
aI00
aI1
aI1
aI1
aF0.90000000000000002
aF0.29999999999999999
aI00
aI00
aF0.75
aF0.29999999999999999
aI0
aI1
aI1
aF0.90000000000000002
aF0.29999999999999999
aI00
aI00
aF0.75
aF0.29999999999999999
aF1
aF0
aF0
aF1
aF0
aF0
aF1
aF0
aF0
aF1
aF0
aF0
aF1
aF0
aF0
aF1
aF0
aF0
aF1
aF0
aF0
aF1
aF0
aF0
aa(lp1023
S'calf_l_twist_anim'
p1024
a(lp1025
VtranslateX
p1026
aVtranslateY
p1027
aVtranslateZ
p1028
aVrotateX
p1029
aVrotateY
p1030
aVrotateZ
p1031
aaF0
aF0
aF0
aF0
aF0
aF0
aa(lp1032
S'calf_r_twist_anim'
p1033
a(lp1034
VtranslateX
p1035
aVtranslateY
p1036
aVtranslateZ
p1037
aVrotateX
p1038
aVrotateY
p1039
aVrotateZ
p1040
aaF0
aF0
aF0
aF0
aF0
aF0
aa(lp1041
S'lowerarm_l_twist2_anim'
p1042
a(lp1043
VtranslateX
p1044
aVtranslateY
p1045
aVtranslateZ
p1046
aVrotateX
p1047
aVrotateY
p1048
aVrotateZ
p1049
aaF0
aF0
aF0
aF0
aF0
aF0
aa(lp1050
S'lowerarm_r_twist2_anim'
p1051
a(lp1052
VtranslateX
p1053
aVtranslateY
p1054
aVtranslateZ
p1055
aVrotateX
p1056
aVrotateY
p1057
aVrotateZ
p1058
aaF0
aF0
aF0
aF11.913770423546685
aF0
aF0
aa(lp1059
Varrow_nock_anim
p1060
a(lp1061
VtranslateX
p1062
aVtranslateY
p1063
aVtranslateZ
p1064
aVrotateX
p1065
aVrotateY
p1066
aVrotateZ
p1067
aVscaleX
p1068
aVscaleY
p1069
aVscaleZ
p1070
aaF2.7755575615628914e-17
aF1.1102230246251565e-16
aF0
aF0
aF-0
aF0
aF1
aF1.0000000000000002
aF1.0000000000000002
aa(lp1071
Vback_tail_cloth_dyn_anim
p1072
a(lp1073
VtranslateX
p1074
aVtranslateY
p1075
aVtranslateZ
p1076
aVrotateX
p1077
aVrotateY
p1078
aVrotateZ
p1079
aVchainAttach
p1080
aVchainStartFrame
p1081
aVchainStiffness
p1082
aVchainDamping
p1083
aVchainGravity
p1084
aVchainIteration
p1085
aVchainCollide
p1086
aVchainWidthBase
p1087
aVchainWidthExtremity
p1088
aVchainCollideGround
p1089
aVchainCollideGroundHeight
p1090
aaF0
aF0
aF0
aF0
aF0
aF0
aI1
aF1
aF0.10000000000000001
aF0.20000000000000001
aF1
aI1
aI00
aF1
aF1
aI00
aF0
aa(lp1091
Vback_tail_cloth_ik_2_anim
p1092
a(lp1093
VtranslateX
p1094
aVtranslateY
p1095
aVtranslateZ
p1096
aVrotateX
p1097
aVrotateY
p1098
aVrotateZ
p1099
aaF5.0487097934144756e-29
aF0
aF0
aF0
aF0
aF0
aa(lp1100
Vback_tail_cloth_ik_3_anim
p1101
a(lp1102
VtranslateX
p1103
aVtranslateY
p1104
aVtranslateZ
p1105
aVrotateX
p1106
aVrotateY
p1107
aVrotateZ
p1108
aVclusterControlVis
p1109
aaF0
aF0
aF0
aF0
aF0
aF0
aI00
aa(lp1110
Vback_tail_cloth_ik_base_anim
p1111
a(lp1112
VtranslateX
p1113
aVtranslateY
p1114
aVtranslateZ
p1115
aVrotateX
p1116
aVrotateY
p1117
aVrotateZ
p1118
aVglobal_scale
p1119
aaF0
aF0
aF0
aF0
aF0
aF0
aF1
aa(lp1120
Vfk_back_tail_cloth_01_anim
p1121
a(lp1122
VtranslateX
p1123
aVtranslateY
p1124
aVtranslateZ
p1125
aVrotateX
p1126
aVrotateY
p1127
aVrotateZ
p1128
aVglobal_scale
p1129
aVlagMode
p1130
aaF-0.44706750224483777
aF-0.43502348181171124
aF-1.7057529292015563
aF-8.895016442599438
aF3.9443792342569863
aF8.0044216911198856
aF1
aF0
aa(lp1131
Vback_tail_cloth_cv_0_anim
p1132
a(lp1133
VtranslateX
p1134
aVtranslateY
p1135
aVtranslateZ
p1136
aaF0
aF0
aF0
aa(lp1137
Vfk_back_tail_cloth_02_anim
p1138
a(lp1139
VtranslateX
p1140
aVtranslateY
p1141
aVtranslateZ
p1142
aVrotateX
p1143
aVrotateY
p1144
aVrotateZ
p1145
aaF0.090490156644217515
aF0.02248830908893204
aF0.41685047648459761
aF6.3289203563071617
aF0.018094068660424945
aF4.7157172837778019
aa(lp1146
Vback_tail_cloth_cv_1_anim
p1147
a(lp1148
VtranslateX
p1149
aVtranslateY
p1150
aVtranslateZ
p1151
aaF0
aF0
aF0
aa(lp1152
Vbow_base_anim
p1153
a(lp1154
VtranslateX
p1155
aVtranslateY
p1156
aVtranslateZ
p1157
aVrotateX
p1158
aVrotateY
p1159
aVrotateZ
p1160
aVscaleX
p1161
aVscaleY
p1162
aVscaleZ
p1163
aaF73.969701859661683
aF4.7157252782806953
aF144.7480204989555
aF83.098710215379
aF-81.613184359190782
aF16.236468526851109
aF1
aF1
aF1
aa(lp1164
Vbow_shaft_bott_01_anim
p1165
a(lp1166
VtranslateX
p1167
aVtranslateY
p1168
aVtranslateZ
p1169
aVrotateX
p1170
aVrotateY
p1171
aVrotateZ
p1172
aVscaleX
p1173
aVscaleY
p1174
aVscaleZ
p1175
aaF0
aF0
aF0
aF-7
aF0
aF0
aF1
aF1
aF1
aa(lp1176
Vbow_shaft_bott_02_anim
p1177
a(lp1178
VtranslateX
p1179
aVtranslateY
p1180
aVtranslateZ
p1181
aVrotateX
p1182
aVrotateY
p1183
aVrotateZ
p1184
aVscaleX
p1185
aVscaleY
p1186
aVscaleZ
p1187
aaF2.7755575615628914e-17
aF0
aF0
aF-7.4167511078434467
aF-0.4159841148483221
aF0.42650343612299191
aF1
aF1
aF1
aa(lp1188
Vbow_shaft_bott_03_anim
p1189
a(lp1190
VtranslateX
p1191
aVtranslateY
p1192
aVtranslateZ
p1193
aVrotateX
p1194
aVrotateY
p1195
aVrotateZ
p1196
aVscaleX
p1197
aVscaleY
p1198
aVscaleZ
p1199
aaF-2.7755575615628914e-17
aF0
aF0
aF-2.7934686255159504
aF-0.18444637437679831
aF0.12808913835733901
aF1
aF1
aF1
aa(lp1200
Vbow_shaft_top_01_anim
p1201
a(lp1202
VtranslateX
p1203
aVtranslateY
p1204
aVtranslateZ
p1205
aVrotateX
p1206
aVrotateY
p1207
aVrotateZ
p1208
aVscaleX
p1209
aVscaleY
p1210
aVscaleZ
p1211
aaF0
aF0
aF0
aF-7
aF0
aF0
aF1
aF1
aF1
aa(lp1212
Vbow_shaft_top_02_anim
p1213
a(lp1214
VtranslateX
p1215
aVtranslateY
p1216
aVtranslateZ
p1217
aVrotateX
p1218
aVrotateY
p1219
aVrotateZ
p1220
aVscaleX
p1221
aVscaleY
p1222
aVscaleZ
p1223
aaF-2.7755575615628914e-17
aF0
aF0
aF-6.7484226490714487
aF0.27138807662818082
aF0.4695736174757929
aF1
aF1
aF1
aa(lp1224
Vbow_shaft_top_03_anim
p1225
a(lp1226
VtranslateX
p1227
aVtranslateY
p1228
aVtranslateZ
p1229
aVrotateX
p1230
aVrotateY
p1231
aVrotateZ
p1232
aVscaleX
p1233
aVscaleY
p1234
aVscaleZ
p1235
aaF-2.7755575615628914e-17
aF0
aF0
aF-3.8285437487648268
aF0.10496533121466747
aF0.28933275628634947
aF1
aF1
aF1
aa(lp1236
Vbow_string_bott_anim
p1237
a(lp1238
VtranslateX
p1239
aVtranslateY
p1240
aVtranslateZ
p1241
aVrotateX
p1242
aVrotateY
p1243
aVrotateZ
p1244
aVscaleX
p1245
aVscaleY
p1246
aVscaleZ
p1247
aaF0
aF0
aF0
aF0
aF-0
aF0
aF1
aF1
aF1
aa(lp1248
Vbow_string_mid_anim
p1249
a(lp1250
VtranslateX
p1251
aVtranslateY
p1252
aVtranslateZ
p1253
aVrotateX
p1254
aVrotateY
p1255
aVrotateZ
p1256
aVscaleX
p1257
aVscaleY
p1258
aVscaleZ
p1259
aaF-1.3502689065493299
aF53.354329858605503
aF6.0962040582045542
aF0
aF-0
aF0
aF1
aF1
aF1
aa(lp1260
Vbow_string_top_anim
p1261
a(lp1262
VtranslateX
p1263
aVtranslateY
p1264
aVtranslateZ
p1265
aVrotateX
p1266
aVrotateY
p1267
aVrotateZ
p1268
aVscaleX
p1269
aVscaleY
p1270
aVscaleZ
p1271
aaF0
aF0
aF0
aF0
aF-0
aF0
aF1
aF1
aF1
aa(lp1272
Vbreast_chain_anim
p1273
a(lp1274
VtranslateX
p1275
aVtranslateY
p1276
aVtranslateZ
p1277
aVrotateX
p1278
aVrotateY
p1279
aVrotateZ
p1280
aVscaleX
p1281
aVscaleY
p1282
aVscaleZ
p1283
aaF0
aF0
aF0
aF0
aF-0
aF0
aF1
aF1
aF1
aa(lp1284
Vbrooch_back_l_anim
p1285
a(lp1286
VtranslateX
p1287
aVtranslateY
p1288
aVtranslateZ
p1289
aVrotateX
p1290
aVrotateY
p1291
aVrotateZ
p1292
aVscaleX
p1293
aVscaleY
p1294
aVscaleZ
p1295
aaF-2.7755575615628914e-17
aF0
aF2.8421709430404007e-14
aF0
aF-0
aF0
aF1
aF1.0000000000000002
aF1.0000000000000002
aa(lp1296
Vbrooch_back_r_anim
p1297
a(lp1298
VtranslateX
p1299
aVtranslateY
p1300
aVtranslateZ
p1301
aVrotateX
p1302
aVrotateY
p1303
aVrotateZ
p1304
aVscaleX
p1305
aVscaleY
p1306
aVscaleZ
p1307
aaF-2.7755575615628914e-17
aF-7.1054273576010019e-15
aF5.6843418860808015e-14
aF0
aF-0
aF0
aF1
aF0.99999999999999967
aF0.99999999999999967
aa(lp1308
Vbrooch_front_l_anim
p1309
a(lp1310
VtranslateX
p1311
aVtranslateY
p1312
aVtranslateZ
p1313
aVrotateX
p1314
aVrotateY
p1315
aVrotateZ
p1316
aVscaleX
p1317
aVscaleY
p1318
aVscaleZ
p1319
aaF5.5511151231257827e-17
aF0
aF0
aF0
aF-0
aF0
aF1
aF1
aF1
aa(lp1320
Vbrooch_front_r_anim
p1321
a(lp1322
VtranslateX
p1323
aVtranslateY
p1324
aVtranslateZ
p1325
aVrotateX
p1326
aVrotateY
p1327
aVrotateZ
p1328
aVscaleX
p1329
aVscaleY
p1330
aVscaleZ
p1331
aaF0
aF0
aF0
aF0
aF-0
aF0
aF1
aF1
aF1
aa(lp1332
Vchest_cloth_l_dyn_anim
p1333
a(lp1334
VtranslateX
p1335
aVtranslateY
p1336
aVtranslateZ
p1337
aVrotateX
p1338
aVrotateY
p1339
aVrotateZ
p1340
aVchainAttach
p1341
aVchainStartFrame
p1342
aVchainStiffness
p1343
aVchainDamping
p1344
aVchainGravity
p1345
aVchainIteration
p1346
aVchainCollide
p1347
aVchainWidthBase
p1348
aVchainWidthExtremity
p1349
aVchainCollideGround
p1350
aVchainCollideGroundHeight
p1351
aaF0
aF0
aF0
aF0
aF0
aF0
aI1
aF1
aF0.10000000000000001
aF0.20000000000000001
aF1
aI1
aI00
aF1
aF1
aI00
aF0
aa(lp1352
Vchest_cloth_l_ik_2_anim
p1353
a(lp1354
VtranslateX
p1355
aVtranslateY
p1356
aVtranslateZ
p1357
aVrotateX
p1358
aVrotateY
p1359
aVrotateZ
p1360
aaF6.6613381477509392e-16
aF0
aF-3.5527136788005009e-15
aF4.9696166897867462e-17
aF1.0123652748921047e-15
aF2.4848083448933731e-17
aa(lp1361
Vchest_cloth_l_ik_3_anim
p1362
a(lp1363
VtranslateX
p1364
aVtranslateY
p1365
aVtranslateZ
p1366
aVrotateX
p1367
aVrotateY
p1368
aVrotateZ
p1369
aVclusterControlVis
p1370
aaF4.4408920985006262e-16
aF0
aF-1.7763568394002505e-15
aF4.9696166897867462e-17
aF1.0123652748921047e-15
aF2.4848083448933731e-17
aI00
aa(lp1371
Vchest_cloth_l_ik_base_anim
p1372
a(lp1373
VtranslateX
p1374
aVtranslateY
p1375
aVtranslateZ
p1376
aVrotateX
p1377
aVrotateY
p1378
aVrotateZ
p1379
aVglobal_scale
p1380
aaF6.6613381477509392e-16
aF0
aF0
aF4.9696166897867462e-17
aF1.0123652748921047e-15
aF2.4848083448933731e-17
aF0.99999999999999989
aa(lp1381
Vfk_chest_cloth_l_01_anim
p1382
a(lp1383
VtranslateX
p1384
aVtranslateY
p1385
aVtranslateZ
p1386
aVrotateX
p1387
aVrotateY
p1388
aVrotateZ
p1389
aVglobal_scale
p1390
aVlagMode
p1391
aaF0
aF-2.8421709430404007e-14
aF0
aF0
aF-0
aF0
aF1
aF0
aa(lp1392
Vchest_cloth_l_cv_0_anim
p1393
a(lp1394
VtranslateX
p1395
aVtranslateY
p1396
aVtranslateZ
p1397
aaF0
aF0
aF0
aa(lp1398
Vfk_chest_cloth_l_02_anim
p1399
a(lp1400
VtranslateX
p1401
aVtranslateY
p1402
aVtranslateZ
p1403
aVrotateX
p1404
aVrotateY
p1405
aVrotateZ
p1406
aaF8.8817841970012523e-16
aF-2.8421709430404007e-14
aF1.7763568394002505e-15
aF0
aF-0
aF0
aa(lp1407
Vchest_cloth_l_cv_1_anim
p1408
a(lp1409
VtranslateX
p1410
aVtranslateY
p1411
aVtranslateZ
p1412
aaF0
aF0
aF0
aa(lp1413
Vchest_cloth_r_dyn_anim
p1414
a(lp1415
VtranslateX
p1416
aVtranslateY
p1417
aVtranslateZ
p1418
aVrotateX
p1419
aVrotateY
p1420
aVrotateZ
p1421
aVchainAttach
p1422
aVchainStartFrame
p1423
aVchainStiffness
p1424
aVchainDamping
p1425
aVchainGravity
p1426
aVchainIteration
p1427
aVchainCollide
p1428
aVchainWidthBase
p1429
aVchainWidthExtremity
p1430
aVchainCollideGround
p1431
aVchainCollideGroundHeight
p1432
aaF0
aF0
aF0
aF0
aF0
aF0
aI1
aF1
aF0.10000000000000001
aF0.20000000000000001
aF1
aI1
aI00
aF1
aF1
aI00
aF0
aa(lp1433
Vchest_cloth_r_ik_2_anim
p1434
a(lp1435
VtranslateX
p1436
aVtranslateY
p1437
aVtranslateZ
p1438
aVrotateX
p1439
aVrotateY
p1440
aVrotateZ
p1441
aaF2.2204460492503131e-16
aF0
aF-1.7763568394002505e-15
aF4.9696166897867437e-17
aF9.3226903089968198e-15
aF2.4848083448933719e-17
aa(lp1442
Vchest_cloth_r_ik_3_anim
p1443
a(lp1444
VtranslateX
p1445
aVtranslateY
p1446
aVtranslateZ
p1447
aVrotateX
p1448
aVrotateY
p1449
aVrotateZ
p1450
aVclusterControlVis
p1451
aaF6.6613381477509392e-16
aF0
aF0
aF4.9696166897867437e-17
aF9.3226903089968198e-15
aF2.4848083448933719e-17
aI00
aa(lp1452
Vchest_cloth_r_ik_base_anim
p1453
a(lp1454
VtranslateX
p1455
aVtranslateY
p1456
aVtranslateZ
p1457
aVrotateX
p1458
aVrotateY
p1459
aVrotateZ
p1460
aVglobal_scale
p1461
aaF6.6613381477509392e-16
aF0
aF0
aF4.9696166897867437e-17
aF9.3226903089968198e-15
aF2.4848083448933719e-17
aF1
aa(lp1462
Vfk_chest_cloth_r_01_anim
p1463
a(lp1464
VtranslateX
p1465
aVtranslateY
p1466
aVtranslateZ
p1467
aVrotateX
p1468
aVrotateY
p1469
aVrotateZ
p1470
aVglobal_scale
p1471
aVlagMode
p1472
aaF-8.8817841970012523e-16
aF-2.8421709430404007e-14
aF1.7763568394002505e-15
aF0
aF-0
aF0
aF0.99999999999999978
aF0
aa(lp1473
Vchest_cloth_r_cv_0_anim
p1474
a(lp1475
VtranslateX
p1476
aVtranslateY
p1477
aVtranslateZ
p1478
aaF0
aF0
aF0
aa(lp1479
Vfk_chest_cloth_r_02_anim
p1480
a(lp1481
VtranslateX
p1482
aVtranslateY
p1483
aVtranslateZ
p1484
aVrotateX
p1485
aVrotateY
p1486
aVrotateZ
p1487
aaF-1.1102230246251565e-15
aF2.8421709430404007e-14
aF1.7763568394002505e-15
aF0
aF-0
aF0
aa(lp1488
Vchest_cloth_r_cv_1_anim
p1489
a(lp1490
VtranslateX
p1491
aVtranslateY
p1492
aVtranslateZ
p1493
aaF0
aF0
aF0
aa(lp1494
Veyeball_l_anim
p1495
a(lp1496
VtranslateX
p1497
aVtranslateY
p1498
aVtranslateZ
p1499
aVrotateX
p1500
aVrotateY
p1501
aVrotateZ
p1502
aVscaleX
p1503
aVscaleY
p1504
aVscaleZ
p1505
aaF-1.3322676295501878e-15
aF4.4408920985006262e-16
aF-2.8421709430404007e-14
aF0
aF-0
aF0
aF1
aF1.0000000000000002
aF1.0000000000000002
aa(lp1506
Veyeball_r_anim
p1507
a(lp1508
VtranslateX
p1509
aVtranslateY
p1510
aVtranslateZ
p1511
aVrotateX
p1512
aVrotateY
p1513
aVrotateZ
p1514
aVscaleX
p1515
aVscaleY
p1516
aVscaleZ
p1517
aaF0
aF0
aF0
aF0
aF-0
aF0
aF1
aF1
aF1
aa(lp1518
Veyebrow_in_l_anim
p1519
a(lp1520
VtranslateX
p1521
aVtranslateY
p1522
aVtranslateZ
p1523
aVrotateX
p1524
aVrotateY
p1525
aVrotateZ
p1526
aVscaleX
p1527
aVscaleY
p1528
aVscaleZ
p1529
aaF1.1102230246251565e-15
aF3.5527136788005009e-15
aF0
aF0
aF-0
aF0
aF1
aF1
aF1
aa(lp1530
Veyebrow_in_r_anim
p1531
a(lp1532
VtranslateX
p1533
aVtranslateY
p1534
aVtranslateZ
p1535
aVrotateX
p1536
aVrotateY
p1537
aVrotateZ
p1538
aVscaleX
p1539
aVscaleY
p1540
aVscaleZ
p1541
aaF-1.1102230246251565e-15
aF-3.5527136788005009e-15
aF0
aF0
aF-0
aF0
aF1
aF1
aF1
aa(lp1542
Veyebrow_mid_anim
p1543
a(lp1544
VtranslateX
p1545
aVtranslateY
p1546
aVtranslateZ
p1547
aVrotateX
p1548
aVrotateY
p1549
aVrotateZ
p1550
aVscaleX
p1551
aVscaleY
p1552
aVscaleZ
p1553
aaF0
aF0
aF0
aF0
aF-0
aF0
aF1
aF1
aF1
aa(lp1554
Veyebrow_out_l_anim
p1555
a(lp1556
VtranslateX
p1557
aVtranslateY
p1558
aVtranslateZ
p1559
aVrotateX
p1560
aVrotateY
p1561
aVrotateZ
p1562
aVscaleX
p1563
aVscaleY
p1564
aVscaleZ
p1565
aaF0
aF1.4210854715202004e-14
aF5.6843418860808015e-14
aF0
aF-0
aF0
aF1
aF0.99999999999999989
aF1.0000000000000002
aa(lp1566
Veyebrow_out_r_anim
p1567
a(lp1568
VtranslateX
p1569
aVtranslateY
p1570
aVtranslateZ
p1571
aVrotateX
p1572
aVrotateY
p1573
aVrotateZ
p1574
aVscaleX
p1575
aVscaleY
p1576
aVscaleZ
p1577
aaF0
aF1.4210854715202004e-14
aF2.8421709430404007e-14
aF0
aF-0
aF0
aF1
aF1
aF1
aa(lp1578
Veyelid_bott_l_anim
p1579
a(lp1580
VtranslateX
p1581
aVtranslateY
p1582
aVtranslateZ
p1583
aVrotateX
p1584
aVrotateY
p1585
aVrotateZ
p1586
aVscaleX
p1587
aVscaleY
p1588
aVscaleZ
p1589
aaF-1.3322676295501878e-15
aF4.4408920985006262e-16
aF0
aF0
aF-0
aF0
aF1
aF1.0000000000000002
aF1.0000000000000002
aa(lp1590
Veyelid_bott_r_anim
p1591
a(lp1592
VtranslateX
p1593
aVtranslateY
p1594
aVtranslateZ
p1595
aVrotateX
p1596
aVrotateY
p1597
aVrotateZ
p1598
aVscaleX
p1599
aVscaleY
p1600
aVscaleZ
p1601
aaF0
aF0
aF0
aF0
aF-0
aF0
aF1
aF1
aF1
aa(lp1602
Veyelid_top_l_anim
p1603
a(lp1604
VtranslateX
p1605
aVtranslateY
p1606
aVtranslateZ
p1607
aVrotateX
p1608
aVrotateY
p1609
aVrotateZ
p1610
aVscaleX
p1611
aVscaleY
p1612
aVscaleZ
p1613
aaF-1.3322676295501878e-15
aF1.3322676295501878e-15
aF2.8421709430404007e-14
aF0
aF-0
aF0
aF1
aF1.0000000000000002
aF1.0000000000000002
aa(lp1614
Veyelid_top_r_anim
p1615
a(lp1616
VtranslateX
p1617
aVtranslateY
p1618
aVtranslateZ
p1619
aVrotateX
p1620
aVrotateY
p1621
aVrotateZ
p1622
aVscaleX
p1623
aVscaleY
p1624
aVscaleZ
p1625
aaF0
aF0
aF0
aF0
aF-0
aF0
aF1
aF1
aF1
aa(lp1626
Vfeathers_anim
p1627
a(lp1628
VtranslateX
p1629
aVtranslateY
p1630
aVtranslateZ
p1631
aVrotateX
p1632
aVrotateY
p1633
aVrotateZ
p1634
aVscaleX
p1635
aVscaleY
p1636
aVscaleZ
p1637
aaF-1.7763568394002505e-15
aF-1.7763568394002505e-15
aF-2.8421709430404007e-14
aF0
aF-0
aF0
aF1
aF1
aF1
aa(lp1638
Vfront_strap_dyn_anim
p1639
a(lp1640
VtranslateX
p1641
aVtranslateY
p1642
aVtranslateZ
p1643
aVrotateX
p1644
aVrotateY
p1645
aVrotateZ
p1646
aVchainAttach
p1647
aVchainStartFrame
p1648
aVchainStiffness
p1649
aVchainDamping
p1650
aVchainGravity
p1651
aVchainIteration
p1652
aVchainCollide
p1653
aVchainWidthBase
p1654
aVchainWidthExtremity
p1655
aVchainCollideGround
p1656
aVchainCollideGroundHeight
p1657
aaF0
aF0
aF0
aF0
aF0
aF0
aI1
aF1
aF0.10000000000000001
aF0.20000000000000001
aF1
aI1
aI00
aF1
aF1
aI00
aF0
aa(lp1658
Vfront_strap_ik_2_anim
p1659
a(lp1660
VtranslateX
p1661
aVtranslateY
p1662
aVtranslateZ
p1663
aVrotateX
p1664
aVrotateY
p1665
aVrotateZ
p1666
aaF0
aF1.4210854715202004e-14
aF0
aF-7.9513867036587919e-16
aF-8.9453100416161419e-16
aF0
aa(lp1667
Vfront_strap_ik_3_anim
p1668
a(lp1669
VtranslateX
p1670
aVtranslateY
p1671
aVtranslateZ
p1672
aVrotateX
p1673
aVrotateY
p1674
aVrotateZ
p1675
aVclusterControlVis
p1676
aaF0
aF-1.4210854715202004e-14
aF3.5527136788005009e-15
aF-7.9513867036587919e-16
aF-8.9453100416161419e-16
aF0
aI00
aa(lp1677
Vfront_strap_ik_base_anim
p1678
a(lp1679
VtranslateX
p1680
aVtranslateY
p1681
aVtranslateZ
p1682
aVrotateX
p1683
aVrotateY
p1684
aVrotateZ
p1685
aVglobal_scale
p1686
aaF-3.5527136788005009e-15
aF1.4210854715202004e-14
aF0
aF0
aF1.9878466759146976e-15
aF-7.9513867036587899e-16
aF1.0000000000000002
aa(lp1687
Vfk_front_strap_01_anim
p1688
a(lp1689
VtranslateX
p1690
aVtranslateY
p1691
aVtranslateZ
p1692
aVrotateX
p1693
aVrotateY
p1694
aVrotateZ
p1695
aVglobal_scale
p1696
aVlagMode
p1697
aaF3.5527136788005009e-15
aF0
aF0
aF0
aF-0
aF0
aF1
aF0
aa(lp1698
Vfront_strap_cv_0_anim
p1699
a(lp1700
VtranslateX
p1701
aVtranslateY
p1702
aVtranslateZ
p1703
aaF0
aF0
aF0
aa(lp1704
Vfk_front_strap_02_anim
p1705
a(lp1706
VtranslateX
p1707
aVtranslateY
p1708
aVtranslateZ
p1709
aVrotateX
p1710
aVrotateY
p1711
aVrotateZ
p1712
aaF3.5527136788005009e-15
aF0
aF7.1054273576010019e-15
aF0
aF-0
aF0
aa(lp1713
Vfront_strap_cv_1_anim
p1714
a(lp1715
VtranslateX
p1716
aVtranslateY
p1717
aVtranslateZ
p1718
aaF0
aF0
aF0
aa(lp1719
Vfront_strap_small_anim
p1720
a(lp1721
VtranslateX
p1722
aVtranslateY
p1723
aVtranslateZ
p1724
aVrotateX
p1725
aVrotateY
p1726
aVrotateZ
p1727
aVscaleX
p1728
aVscaleY
p1729
aVscaleZ
p1730
aaF0
aF-1.4210854715202004e-14
aF-1.7763568394002505e-15
aF0
aF-0
aF0
aF1
aF1
aF1
aa(lp1731
Vhair_top_anim
p1732
a(lp1733
VtranslateX
p1734
aVtranslateY
p1735
aVtranslateZ
p1736
aVrotateX
p1737
aVrotateY
p1738
aVrotateZ
p1739
aVscaleX
p1740
aVscaleY
p1741
aVscaleZ
p1742
aaF-2.2204460492503131e-16
aF-1.7763568394002505e-15
aF2.8421709430404007e-14
aF0
aF-0
aF0
aF1
aF1
aF1
aa(lp1743
Vjaw_anim
p1744
a(lp1745
VtranslateX
p1746
aVtranslateY
p1747
aVtranslateZ
p1748
aVrotateX
p1749
aVrotateY
p1750
aVrotateZ
p1751
aVscaleX
p1752
aVscaleY
p1753
aVscaleZ
p1754
aaF0
aF1.7763568394002505e-15
aF0
aF0
aF-0
aF0
aF1
aF1
aF1
aa(lp1755
Vponytail_dyn_anim
p1756
a(lp1757
VtranslateX
p1758
aVtranslateY
p1759
aVtranslateZ
p1760
aVrotateX
p1761
aVrotateY
p1762
aVrotateZ
p1763
aVchainAttach
p1764
aVchainStartFrame
p1765
aVchainStiffness
p1766
aVchainDamping
p1767
aVchainGravity
p1768
aVchainIteration
p1769
aVchainCollide
p1770
aVchainWidthBase
p1771
aVchainWidthExtremity
p1772
aVchainCollideGround
p1773
aVchainCollideGroundHeight
p1774
aaF0
aF0
aF0
aF0
aF0
aF0
aI1
aF1
aF0.10000000000000001
aF0.20000000000000001
aF1
aI1
aI00
aF1
aF1
aI00
aF0
aa(lp1775
Vponytail_ik_2_anim
p1776
a(lp1777
VtranslateX
p1778
aVtranslateY
p1779
aVtranslateZ
p1780
aVrotateX
p1781
aVrotateY
p1782
aVrotateZ
p1783
aaF0
aF1.4210854715202004e-14
aF-1.4210854715202004e-14
aF3.1805546814635168e-15
aF-1.5902773407317584e-15
aF3.1805546814635168e-15
aa(lp1784
Vponytail_ik_3_anim
p1785
a(lp1786
VtranslateX
p1787
aVtranslateY
p1788
aVtranslateZ
p1789
aVrotateX
p1790
aVrotateY
p1791
aVrotateZ
p1792
aVclusterControlVis
p1793
aaF-1.4210854715202004e-14
aF2.8421709430404007e-14
aF-3.5527136788005009e-15
aF3.1805546814635168e-15
aF-1.5902773407317584e-15
aF3.1805546814635168e-15
aI00
aa(lp1794
Vponytail_ik_base_anim
p1795
a(lp1796
VtranslateX
p1797
aVtranslateY
p1798
aVtranslateZ
p1799
aVrotateX
p1800
aVrotateY
p1801
aVrotateZ
p1802
aVglobal_scale
p1803
aaF0
aF-2.8421709430404007e-14
aF-7.1054273576010019e-15
aF1.5902773407317584e-15
aF-2.3854160110976376e-15
aF0
aF1
aa(lp1804
Vfk_ponytail_01_anim
p1805
a(lp1806
VtranslateX
p1807
aVtranslateY
p1808
aVtranslateZ
p1809
aVrotateX
p1810
aVrotateY
p1811
aVrotateZ
p1812
aVglobal_scale
p1813
aVlagMode
p1814
aaF-7.1054273576010019e-15
aF0
aF-1.4210854715202004e-14
aF0
aF-0
aF0
aF1
aF0
aa(lp1815
Vponytail_cv_0_anim
p1816
a(lp1817
VtranslateX
p1818
aVtranslateY
p1819
aVtranslateZ
p1820
aaF0
aF0
aF0
aa(lp1821
Vfk_ponytail_02_anim
p1822
a(lp1823
VtranslateX
p1824
aVtranslateY
p1825
aVtranslateZ
p1826
aVrotateX
p1827
aVrotateY
p1828
aVrotateZ
p1829
aaF-1.4210854715202004e-14
aF1.4210854715202004e-14
aF7.1054273576010019e-15
aF0
aF-0
aF0
aa(lp1830
Vponytail_cv_1_anim
p1831
a(lp1832
VtranslateX
p1833
aVtranslateY
p1834
aVtranslateZ
p1835
aaF0
aF0
aF0
aa(lp1836
Vfk_ponytail_03_anim
p1837
a(lp1838
VtranslateX
p1839
aVtranslateY
p1840
aVtranslateZ
p1841
aVrotateX
p1842
aVrotateY
p1843
aVrotateZ
p1844
aaF1.4210854715202004e-14
aF-2.8421709430404007e-14
aF0
aF0
aF-0
aF0
aa(lp1845
Vponytail_cv_2_anim
p1846
a(lp1847
VtranslateX
p1848
aVtranslateY
p1849
aVtranslateZ
p1850
aaF0
aF0
aF0
aa(lp1851
Vfk_ponytail_04_anim
p1852
a(lp1853
VtranslateX
p1854
aVtranslateY
p1855
aVtranslateZ
p1856
aVrotateX
p1857
aVrotateY
p1858
aVrotateZ
p1859
aaF1.4210854715202004e-14
aF-1.4210854715202004e-14
aF3.5527136788005009e-15
aF0
aF-0
aF0
aa(lp1860
Vponytail_cv_3_anim
p1861
a(lp1862
VtranslateX
p1863
aVtranslateY
p1864
aVtranslateZ
p1865
aaF0
aF0
aF0
aa(lp1866
Vquiver_anim
p1867
a(lp1868
VtranslateX
p1869
aVtranslateY
p1870
aVtranslateZ
p1871
aVrotateX
p1872
aVrotateY
p1873
aVrotateZ
p1874
aVscaleX
p1875
aVscaleY
p1876
aVscaleZ
p1877
aaF-3.5527136788005009e-15
aF8.8817841970012523e-16
aF0
aF0
aF-0
aF0
aF1
aF1
aF1
aa(lp1878
Vskirt_back_cloth_dyn_anim
p1879
a(lp1880
VtranslateX
p1881
aVtranslateY
p1882
aVtranslateZ
p1883
aVrotateX
p1884
aVrotateY
p1885
aVrotateZ
p1886
aVchainAttach
p1887
aVchainStartFrame
p1888
aVchainStiffness
p1889
aVchainDamping
p1890
aVchainGravity
p1891
aVchainIteration
p1892
aVchainCollide
p1893
aVchainWidthBase
p1894
aVchainWidthExtremity
p1895
aVchainCollideGround
p1896
aVchainCollideGroundHeight
p1897
aaF0
aF0
aF0
aF0
aF0
aF0
aI1
aF1
aF0.10000000000000001
aF0.20000000000000001
aF1
aI1
aI00
aF1
aF1
aI00
aF0
aa(lp1898
Vskirt_back_cloth_ik_2_anim
p1899
a(lp1900
VtranslateX
p1901
aVtranslateY
p1902
aVtranslateZ
p1903
aVrotateX
p1904
aVrotateY
p1905
aVrotateZ
p1906
aaF0
aF0
aF1.5777218104420236e-30
aF0
aF0
aF0
aa(lp1907
Vskirt_back_cloth_ik_3_anim
p1908
a(lp1909
VtranslateX
p1910
aVtranslateY
p1911
aVtranslateZ
p1912
aVrotateX
p1913
aVrotateY
p1914
aVrotateZ
p1915
aVclusterControlVis
p1916
aaF0
aF0
aF1.5777218104420236e-30
aF0
aF0
aF0
aI00
aa(lp1917
Vskirt_back_cloth_ik_base_anim
p1918
a(lp1919
VtranslateX
p1920
aVtranslateY
p1921
aVtranslateZ
p1922
aVrotateX
p1923
aVrotateY
p1924
aVrotateZ
p1925
aVglobal_scale
p1926
aaF0
aF0
aF1.5777218104420236e-30
aF0
aF0
aF0
aF1
aa(lp1927
Vfk_skirt_back_cloth_01_anim
p1928
a(lp1929
VtranslateX
p1930
aVtranslateY
p1931
aVtranslateZ
p1932
aVrotateX
p1933
aVrotateY
p1934
aVrotateZ
p1935
aVglobal_scale
p1936
aVlagMode
p1937
aaF0
aF0
aF0
aF0
aF-0
aF0
aF1
aF0
aa(lp1938
Vskirt_back_cloth_cv_0_anim
p1939
a(lp1940
VtranslateX
p1941
aVtranslateY
p1942
aVtranslateZ
p1943
aaF0
aF0
aF0
aa(lp1944
Vfk_skirt_back_cloth_02_anim
p1945
a(lp1946
VtranslateX
p1947
aVtranslateY
p1948
aVtranslateZ
p1949
aVrotateX
p1950
aVrotateY
p1951
aVrotateZ
p1952
aaF0
aF0
aF0
aF0
aF-0
aF0
aa(lp1953
Vskirt_back_cloth_cv_1_anim
p1954
a(lp1955
VtranslateX
p1956
aVtranslateY
p1957
aVtranslateZ
p1958
aaF0
aF0
aF0
aa(lp1959
Vskirt_cloth_l_dyn_anim
p1960
a(lp1961
VtranslateX
p1962
aVtranslateY
p1963
aVtranslateZ
p1964
aVrotateX
p1965
aVrotateY
p1966
aVrotateZ
p1967
aVchainAttach
p1968
aVchainStartFrame
p1969
aVchainStiffness
p1970
aVchainDamping
p1971
aVchainGravity
p1972
aVchainIteration
p1973
aVchainCollide
p1974
aVchainWidthBase
p1975
aVchainWidthExtremity
p1976
aVchainCollideGround
p1977
aVchainCollideGroundHeight
p1978
aaF0
aF0
aF0
aF0
aF0
aF0
aI1
aF1
aF0.10000000000000001
aF0.20000000000000001
aF1
aI1
aI00
aF1
aF1
aI00
aF0
aa(lp1979
Vskirt_cloth_l_ik_2_anim
p1980
a(lp1981
VtranslateX
p1982
aVtranslateY
p1983
aVtranslateZ
p1984
aVrotateX
p1985
aVrotateY
p1986
aVrotateZ
p1987
aaF0
aF0
aF0
aF0
aF0
aF0
aa(lp1988
Vskirt_cloth_l_ik_3_anim
p1989
a(lp1990
VtranslateX
p1991
aVtranslateY
p1992
aVtranslateZ
p1993
aVrotateX
p1994
aVrotateY
p1995
aVrotateZ
p1996
aVclusterControlVis
p1997
aaF-1.4210854715202004e-14
aF0
aF0
aF0
aF0
aF0
aI00
aa(lp1998
Vskirt_cloth_l_ik_base_anim
p1999
a(lp2000
VtranslateX
p2001
aVtranslateY
p2002
aVtranslateZ
p2003
aVrotateX
p2004
aVrotateY
p2005
aVrotateZ
p2006
aVglobal_scale
p2007
aaF0
aF0
aF0
aF0
aF0
aF0
aF1
aa(lp2008
Vfk_skirt_cloth_l_01_anim
p2009
a(lp2010
VtranslateX
p2011
aVtranslateY
p2012
aVtranslateZ
p2013
aVrotateX
p2014
aVrotateY
p2015
aVrotateZ
p2016
aVglobal_scale
p2017
aVlagMode
p2018
aaF0
aF0
aF0
aF0
aF-0
aF0
aF1
aF0
aa(lp2019
Vskirt_cloth_l_cv_0_anim
p2020
a(lp2021
VtranslateX
p2022
aVtranslateY
p2023
aVtranslateZ
p2024
aaF0
aF0
aF0
aa(lp2025
Vfk_skirt_cloth_l_02_anim
p2026
a(lp2027
VtranslateX
p2028
aVtranslateY
p2029
aVtranslateZ
p2030
aVrotateX
p2031
aVrotateY
p2032
aVrotateZ
p2033
aaF1.4210854715202004e-14
aF0
aF0
aF0
aF-0
aF0
aa(lp2034
Vskirt_cloth_l_cv_1_anim
p2035
a(lp2036
VtranslateX
p2037
aVtranslateY
p2038
aVtranslateZ
p2039
aaF0
aF0
aF0
aa(lp2040
Vskirt_front_cloth_dyn_anim
p2041
a(lp2042
VtranslateX
p2043
aVtranslateY
p2044
aVtranslateZ
p2045
aVrotateX
p2046
aVrotateY
p2047
aVrotateZ
p2048
aVchainAttach
p2049
aVchainStartFrame
p2050
aVchainStiffness
p2051
aVchainDamping
p2052
aVchainGravity
p2053
aVchainIteration
p2054
aVchainCollide
p2055
aVchainWidthBase
p2056
aVchainWidthExtremity
p2057
aVchainCollideGround
p2058
aVchainCollideGroundHeight
p2059
aaF0
aF0
aF0
aF0
aF0
aF0
aI1
aF1
aF0.10000000000000001
aF0.20000000000000001
aF1
aI1
aI00
aF1
aF1
aI00
aF0
aa(lp2060
Vskirt_front_cloth_ik_2_anim
p2061
a(lp2062
VtranslateX
p2063
aVtranslateY
p2064
aVtranslateZ
p2065
aVrotateX
p2066
aVrotateY
p2067
aVrotateZ
p2068
aaF-1.4210854715202004e-14
aF-1.7763568394002505e-15
aF0
aF0
aF0
aF0
aa(lp2069
Vskirt_front_cloth_ik_3_anim
p2070
a(lp2071
VtranslateX
p2072
aVtranslateY
p2073
aVtranslateZ
p2074
aVrotateX
p2075
aVrotateY
p2076
aVrotateZ
p2077
aVclusterControlVis
p2078
aaF-1.4210854715202004e-14
aF-1.7763568394002505e-15
aF1.5777218104420236e-30
aF0
aF0
aF0
aI00
aa(lp2079
Vskirt_front_cloth_ik_base_anim
p2080
a(lp2081
VtranslateX
p2082
aVtranslateY
p2083
aVtranslateZ
p2084
aVrotateX
p2085
aVrotateY
p2086
aVrotateZ
p2087
aVglobal_scale
p2088
aaF-1.4210854715202004e-14
aF-1.7763568394002505e-15
aF1.5777218104420236e-30
aF0
aF0
aF0
aF1
aa(lp2089
Vfk_skirt_front_cloth_01_anim
p2090
a(lp2091
VtranslateX
p2092
aVtranslateY
p2093
aVtranslateZ
p2094
aVrotateX
p2095
aVrotateY
p2096
aVrotateZ
p2097
aVglobal_scale
p2098
aVlagMode
p2099
aaF0
aF0
aF0
aF0
aF-0
aF0
aF1
aF0
aa(lp2100
Vskirt_front_cloth_cv_0_anim
p2101
a(lp2102
VtranslateX
p2103
aVtranslateY
p2104
aVtranslateZ
p2105
aaF0
aF0
aF0
aa(lp2106
Vfk_skirt_front_cloth_02_anim
p2107
a(lp2108
VtranslateX
p2109
aVtranslateY
p2110
aVtranslateZ
p2111
aVrotateX
p2112
aVrotateY
p2113
aVrotateZ
p2114
aaF0
aF0
aF0
aF0
aF-0
aF0
aa(lp2115
Vskirt_front_cloth_cv_1_anim
p2116
a(lp2117
VtranslateX
p2118
aVtranslateY
p2119
aVtranslateZ
p2120
aaF0
aF0
aF0
aa(lp2121
Vhair_curls_A_l_01_anim
p2122
a(lp2123
VtranslateX
p2124
aVtranslateY
p2125
aVtranslateZ
p2126
aVrotateX
p2127
aVrotateY
p2128
aVrotateZ
p2129
aVscaleX
p2130
aVscaleY
p2131
aVscaleZ
p2132
aaF8.8817841970012523e-16
aF2.8421709430404007e-14
aF-2.2204460492503131e-15
aF0
aF-0
aF0
aF1
aF1
aF1
aa(lp2133
Vhair_curls_A_r_01_anim
p2134
a(lp2135
VtranslateX
p2136
aVtranslateY
p2137
aVtranslateZ
p2138
aVrotateX
p2139
aVrotateY
p2140
aVrotateZ
p2141
aVscaleX
p2142
aVscaleY
p2143
aVscaleZ
p2144
aaF8.8817841970012523e-16
aF-2.8421709430404007e-14
aF2.2204460492503131e-15
aF0
aF-0
aF0
aF0.99999999999999956
aF0.99999999999999978
aF0.99999999999999989
aa(lp2145
Vhair_curls_B_l_01_anim
p2146
a(lp2147
VtranslateX
p2148
aVtranslateY
p2149
aVtranslateZ
p2150
aVrotateX
p2151
aVrotateY
p2152
aVrotateZ
p2153
aVscaleX
p2154
aVscaleY
p2155
aVscaleZ
p2156
aaF0
aF2.8421709430404007e-14
aF0
aF0
aF-0
aF0
aF1
aF1
aF1
aa(lp2157
Vhair_curls_B_r_01_anim
p2158
a(lp2159
VtranslateX
p2160
aVtranslateY
p2161
aVtranslateZ
p2162
aVrotateX
p2163
aVrotateY
p2164
aVrotateZ
p2165
aVscaleX
p2166
aVscaleY
p2167
aVscaleZ
p2168
aaF0
aF-2.8421709430404007e-14
aF0
aF0
aF-0
aF0
aF1
aF1
aF1
aa(lp2169
Varrow_nock_anim_space_switcher
p2170
a(lp2171
Vvisibility
p2172
aVtranslateX
p2173
aVtranslateY
p2174
aVtranslateZ
p2175
aVrotateX
p2176
aVrotateY
p2177
aVrotateZ
p2178
aVscaleX
p2179
aVscaleY
p2180
aVscaleZ
p2181
aVspace_world
p2182
aVspace_bow_string_mid_anim
p2183
aaI01
aF0
aF0
aF7.1054273576010019e-15
aF-1.2424041724466865e-17
aF-1.2424041724466862e-17
aF-1.0286232982424811e-16
aF1
aF0.99999999999999989
aF1
aF0
aF1
aa(lp2184
Vbody_anim_space_switcher
p2185
a(lp2186
Vvisibility
p2187
aVtranslateX
p2188
aVtranslateY
p2189
aVtranslateZ
p2190
aVrotateX
p2191
aVrotateY
p2192
aVrotateZ
p2193
aVscaleX
p2194
aVscaleY
p2195
aVscaleZ
p2196
aVspace_world
p2197
aaI01
aF0
aF0
aF0
aF0
aF0
aF0
aF1
aF1
aF1
aF0
aa(lp2198
Vbow_base_anim_space_switcher
p2199
a(lp2200
Vvisibility
p2201
aVtranslateX
p2202
aVtranslateY
p2203
aVtranslateZ
p2204
aVrotateX
p2205
aVrotateY
p2206
aVrotateZ
p2207
aVscaleX
p2208
aVscaleY
p2209
aVscaleZ
p2210
aVspace_world
p2211
aaI01
aF0
aF1.1102230246251565e-16
aF0
aF-1.2424041724466862e-17
aF-0
aF5.4209588305583928e-17
aF1
aF1
aF1
aF0
aa(lp2212
Vbow_shaft_bott_01_anim_space_switcher
p2213
a(lp2214
Vvisibility
p2215
aVtranslateX
p2216
aVtranslateY
p2217
aVtranslateZ
p2218
aVrotateX
p2219
aVrotateY
p2220
aVrotateZ
p2221
aVscaleX
p2222
aVscaleY
p2223
aVscaleZ
p2224
aVspace_world
p2225
aaI01
aF-2.7755575615628914e-17
aF0
aF0
aF0
aF6.2120208622334312e-18
aF-1.1639046119415098e-16
aF1
aF0.99999999999999989
aF0.99999999999999989
aF0
aa(lp2226
Vbow_shaft_bott_02_anim_space_switcher
p2227
a(lp2228
Vvisibility
p2229
aVtranslateX
p2230
aVtranslateY
p2231
aVtranslateZ
p2232
aVrotateX
p2233
aVrotateY
p2234
aVrotateZ
p2235
aVscaleX
p2236
aVscaleY
p2237
aVscaleZ
p2238
aVspace_world
p2239
aaI01
aF-2.7755575615628914e-17
aF0
aF0
aF0
aF6.2120208622334312e-18
aF-1.1639046119415098e-16
aF1
aF0.99999999999999989
aF0.99999999999999989
aF0
aa(lp2240
Vbow_shaft_bott_03_anim_space_switcher
p2241
a(lp2242
Vvisibility
p2243
aVtranslateX
p2244
aVtranslateY
p2245
aVtranslateZ
p2246
aVrotateX
p2247
aVrotateY
p2248
aVrotateZ
p2249
aVscaleX
p2250
aVscaleY
p2251
aVscaleZ
p2252
aVspace_world
p2253
aaI01
aF0
aF8.8817841970012523e-16
aF0
aF0
aF6.2120208622334312e-18
aF-1.1639046119415098e-16
aF1
aF0.99999999999999989
aF0.99999999999999989
aF0
aa(lp2254
Vbow_shaft_top_01_anim_space_switcher
p2255
a(lp2256
Vvisibility
p2257
aVtranslateX
p2258
aVtranslateY
p2259
aVtranslateZ
p2260
aVrotateX
p2261
aVrotateY
p2262
aVrotateZ
p2263
aVscaleX
p2264
aVscaleY
p2265
aVscaleZ
p2266
aVspace_world
p2267
aaI01
aF-2.7755575615628914e-17
aF0
aF0
aF-1.2424041724466862e-17
aF6.2120208622334312e-18
aF5.5253013684787196e-17
aF1
aF1
aF1
aF0
aa(lp2268
Vbow_shaft_top_02_anim_space_switcher
p2269
a(lp2270
Vvisibility
p2271
aVtranslateX
p2272
aVtranslateY
p2273
aVtranslateZ
p2274
aVrotateX
p2275
aVrotateY
p2276
aVrotateZ
p2277
aVscaleX
p2278
aVscaleY
p2279
aVscaleZ
p2280
aVspace_world
p2281
aaI01
aF-2.7755575615628914e-17
aF-1.7763568394002505e-15
aF-3.5527136788005009e-15
aF-1.2424041724466862e-17
aF6.2120208622334312e-18
aF5.5253013684787196e-17
aF1
aF1
aF1
aF0
aa(lp2282
Vbow_shaft_top_03_anim_space_switcher
p2283
a(lp2284
Vvisibility
p2285
aVtranslateX
p2286
aVtranslateY
p2287
aVtranslateZ
p2288
aVrotateX
p2289
aVrotateY
p2290
aVrotateZ
p2291
aVscaleX
p2292
aVscaleY
p2293
aVscaleZ
p2294
aVspace_world
p2295
aaI01
aF2.7755575615628914e-17
aF0
aF7.1054273576010019e-15
aF-1.2424041724466862e-17
aF6.2120208622334312e-18
aF5.5253013684787196e-17
aF1
aF1
aF1
aF0
aa(lp2296
Vbow_string_bott_anim_space_switcher
p2297
a(lp2298
Vvisibility
p2299
aVtranslateX
p2300
aVtranslateY
p2301
aVtranslateZ
p2302
aVrotateX
p2303
aVrotateY
p2304
aVrotateZ
p2305
aVscaleX
p2306
aVscaleY
p2307
aVscaleZ
p2308
aVspace_world
p2309
aaI01
aF0
aF1.7763568394002505e-15
aF0
aF0
aF6.2120208622334312e-18
aF-1.1639046119415098e-16
aF1
aF0.99999999999999989
aF0.99999999999999989
aF0
aa(lp2310
Vbow_string_mid_anim_space_switcher
p2311
a(lp2312
Vvisibility
p2313
aVtranslateX
p2314
aVtranslateY
p2315
aVtranslateZ
p2316
aVrotateX
p2317
aVrotateY
p2318
aVrotateZ
p2319
aVscaleX
p2320
aVscaleY
p2321
aVscaleZ
p2322
aVspace_world
p2323
aVspace_driver_hand_r
p2324
aaI01
aF2.7755575615628914e-17
aF-3.5527136788005009e-15
aF2.7755575615628914e-17
aF-1.2424041724466862e-17
aF6.2120208622334312e-18
aF5.5253013684787196e-17
aF1
aF1
aF1
aF0
aF0
aa(lp2325
Vbow_string_top_anim_space_switcher
p2326
a(lp2327
Vvisibility
p2328
aVtranslateX
p2329
aVtranslateY
p2330
aVtranslateZ
p2331
aVrotateX
p2332
aVrotateY
p2333
aVrotateZ
p2334
aVscaleX
p2335
aVscaleY
p2336
aVscaleZ
p2337
aVspace_world
p2338
aaI01
aF-2.7755575615628914e-17
aF0
aF0
aF-1.2424041724466862e-17
aF6.2120208622334312e-18
aF5.5253013684787196e-17
aF1
aF1
aF1
aF0
aa(lp2339
Vbreast_chain_anim_space_switcher
p2340
a(lp2341
Vvisibility
p2342
aVtranslateX
p2343
aVtranslateY
p2344
aVtranslateZ
p2345
aVrotateX
p2346
aVrotateY
p2347
aVrotateZ
p2348
aVscaleX
p2349
aVscaleY
p2350
aVscaleZ
p2351
aVspace_world
p2352
aaI01
aF0
aF0
aF0
aF0
aF0
aF0
aF1
aF1
aF1
aF0
aa(lp2353
Vbrooch_back_l_anim_space_switcher
p2354
a(lp2355
Vvisibility
p2356
aVtranslateX
p2357
aVtranslateY
p2358
aVtranslateZ
p2359
aVrotateX
p2360
aVrotateY
p2361
aVrotateZ
p2362
aVscaleX
p2363
aVscaleY
p2364
aVscaleZ
p2365
aVspace_world
p2366
aaI01
aF-2.7755575615628914e-17
aF3.5527136788005009e-15
aF0
aF-3.975693351829395e-16
aF-0
aF0
aF1
aF1.0000000000000002
aF1.0000000000000002
aF0
aa(lp2367
Vbrooch_back_r_anim_space_switcher
p2368
a(lp2369
Vvisibility
p2370
aVtranslateX
p2371
aVtranslateY
p2372
aVtranslateZ
p2373
aVrotateX
p2374
aVrotateY
p2375
aVrotateZ
p2376
aVscaleX
p2377
aVscaleY
p2378
aVscaleZ
p2379
aVspace_world
p2380
aaI01
aF0
aF0
aF2.8421709430404007e-14
aF0
aF0
aF0
aF1
aF0.99999999999999989
aF0.99999999999999989
aF0
aa(lp2381
Vbrooch_front_l_anim_space_switcher
p2382
a(lp2383
Vvisibility
p2384
aVtranslateX
p2385
aVtranslateY
p2386
aVtranslateZ
p2387
aVrotateX
p2388
aVrotateY
p2389
aVrotateZ
p2390
aVscaleX
p2391
aVscaleY
p2392
aVscaleZ
p2393
aVspace_world
p2394
aaI01
aF5.5511151231257827e-17
aF0
aF0
aF0
aF0
aF0
aF1
aF1
aF1
aF0
aa(lp2395
Vbrooch_front_r_anim_space_switcher
p2396
a(lp2397
Vvisibility
p2398
aVtranslateX
p2399
aVtranslateY
p2400
aVtranslateZ
p2401
aVrotateX
p2402
aVrotateY
p2403
aVrotateZ
p2404
aVscaleX
p2405
aVscaleY
p2406
aVscaleZ
p2407
aVspace_world
p2408
aaI01
aF0
aF1.4210854715202004e-14
aF1.4210854715202004e-14
aF0
aF0
aF0
aF1
aF1
aF1
aF0
aa(lp2409
Vchest_ik_anim_space_switcher
p2410
a(lp2411
Vvisibility
p2412
aVtranslateX
p2413
aVtranslateY
p2414
aVtranslateZ
p2415
aVrotateX
p2416
aVrotateY
p2417
aVrotateZ
p2418
aVscaleX
p2419
aVscaleY
p2420
aVscaleZ
p2421
aVspace_world
p2422
aVspace_chest_ik_world_aligned
p2423
aaI01
aF0
aF0
aF-1.0097419586828951e-28
aF-2.1186750230640768e-30
aF5.6498000615042044e-30
aF-1.5902773407317588e-15
aF0.99999999999999989
aF0.99999999999999989
aF1
aF0
aF0
aa(lp2424
Veyeball_l_anim_space_switcher
p2425
a(lp2426
Vvisibility
p2427
aVtranslateX
p2428
aVtranslateY
p2429
aVtranslateZ
p2430
aVrotateX
p2431
aVrotateY
p2432
aVrotateZ
p2433
aVscaleX
p2434
aVscaleY
p2435
aVscaleZ
p2436
aVspace_world
p2437
aaI01
aF0
aF6.6613381477509392e-16
aF2.8421709430404007e-14
aF3.975693351829395e-16
aF-0
aF0
aF1
aF1.0000000000000002
aF1.0000000000000002
aF0
aa(lp2438
Veyeball_r_anim_space_switcher
p2439
a(lp2440
Vvisibility
p2441
aVtranslateX
p2442
aVtranslateY
p2443
aVtranslateZ
p2444
aVrotateX
p2445
aVrotateY
p2446
aVrotateZ
p2447
aVscaleX
p2448
aVscaleY
p2449
aVscaleZ
p2450
aVspace_world
p2451
aaI01
aF0
aF0
aF0
aF0
aF0
aF0
aF1
aF1
aF1
aF0
aa(lp2452
Veyebrow_in_l_anim_space_switcher
p2453
a(lp2454
Vvisibility
p2455
aVtranslateX
p2456
aVtranslateY
p2457
aVtranslateZ
p2458
aVrotateX
p2459
aVrotateY
p2460
aVrotateZ
p2461
aVscaleX
p2462
aVscaleY
p2463
aVscaleZ
p2464
aVspace_world
p2465
aaI01
aF-2.2204460492503131e-16
aF0
aF2.8421709430404007e-14
aF7.9513867036587899e-16
aF-9.9392333795734874e-17
aF-2.0996630514348995e-15
aF1.0000000000000002
aF1.0000000000000002
aF1.0000000000000002
aF0
aa(lp2466
Veyebrow_in_r_anim_space_switcher
p2467
a(lp2468
Vvisibility
p2469
aVtranslateX
p2470
aVtranslateY
p2471
aVtranslateZ
p2472
aVrotateX
p2473
aVrotateY
p2474
aVrotateZ
p2475
aVscaleX
p2476
aVscaleY
p2477
aVscaleZ
p2478
aVspace_world
p2479
aaI01
aF6.6613381477509392e-16
aF7.1054273576010019e-15
aF0
aF0
aF9.9392333795734899e-17
aF-6.5412579679318028e-15
aF1
aF1
aF1
aF0
aa(lp2480
Veyebrow_mid_anim_space_switcher
p2481
a(lp2482
Vvisibility
p2483
aVtranslateX
p2484
aVtranslateY
p2485
aVtranslateZ
p2486
aVrotateX
p2487
aVrotateY
p2488
aVrotateZ
p2489
aVscaleX
p2490
aVscaleY
p2491
aVscaleZ
p2492
aVspace_world
p2493
aaI01
aF0
aF0
aF0
aF0
aF0
aF0
aF1
aF1
aF1
aF0
aa(lp2494
Veyebrow_out_l_anim_space_switcher
p2495
a(lp2496
Vvisibility
p2497
aVtranslateX
p2498
aVtranslateY
p2499
aVtranslateZ
p2500
aVrotateX
p2501
aVrotateY
p2502
aVrotateZ
p2503
aVscaleX
p2504
aVscaleY
p2505
aVscaleZ
p2506
aVspace_world
p2507
aaI01
aF-7.1054273576010019e-15
aF-7.1054273576010019e-15
aF2.8421709430404007e-14
aF3.180554681463516e-15
aF1.5902773407317584e-15
aF-3.1805546814635168e-15
aF1
aF1.0000000000000002
aF1
aF0
aa(lp2508
Veyebrow_out_r_anim_space_switcher
p2509
a(lp2510
Vvisibility
p2511
aVtranslateX
p2512
aVtranslateY
p2513
aVtranslateZ
p2514
aVrotateX
p2515
aVrotateY
p2516
aVrotateZ
p2517
aVscaleX
p2518
aVscaleY
p2519
aVscaleZ
p2520
aVspace_world
p2521
aaI01
aF-7.1054273576010019e-15
aF-7.1054273576010019e-15
aF0
aF0
aF-0
aF-5.5659706925611543e-15
aF1
aF1
aF0.99999999999999989
aF0
aa(lp2522
Veyelid_bott_l_anim_space_switcher
p2523
a(lp2524
Vvisibility
p2525
aVtranslateX
p2526
aVtranslateY
p2527
aVtranslateZ
p2528
aVrotateX
p2529
aVrotateY
p2530
aVrotateZ
p2531
aVscaleX
p2532
aVscaleY
p2533
aVscaleZ
p2534
aVspace_world
p2535
aaI01
aF0
aF6.6613381477509392e-16
aF0
aF3.975693351829395e-16
aF-0
aF0
aF1
aF1.0000000000000002
aF1.0000000000000002
aF0
aa(lp2536
Veyelid_bott_r_anim_space_switcher
p2537
a(lp2538
Vvisibility
p2539
aVtranslateX
p2540
aVtranslateY
p2541
aVtranslateZ
p2542
aVrotateX
p2543
aVrotateY
p2544
aVrotateZ
p2545
aVscaleX
p2546
aVscaleY
p2547
aVscaleZ
p2548
aVspace_world
p2549
aaI01
aF0
aF0
aF0
aF0
aF0
aF0
aF1
aF1
aF1
aF0
aa(lp2550
Veyelid_top_l_anim_space_switcher
p2551
a(lp2552
Vvisibility
p2553
aVtranslateX
p2554
aVtranslateY
p2555
aVtranslateZ
p2556
aVrotateX
p2557
aVrotateY
p2558
aVrotateZ
p2559
aVscaleX
p2560
aVscaleY
p2561
aVscaleZ
p2562
aVspace_world
p2563
aaI01
aF0
aF-1.1102230246251565e-15
aF0
aF3.975693351829395e-16
aF-0
aF0
aF1
aF1.0000000000000002
aF1.0000000000000002
aF0
aa(lp2564
Veyelid_top_r_anim_space_switcher
p2565
a(lp2566
Vvisibility
p2567
aVtranslateX
p2568
aVtranslateY
p2569
aVtranslateZ
p2570
aVrotateX
p2571
aVrotateY
p2572
aVrotateZ
p2573
aVscaleX
p2574
aVscaleY
p2575
aVscaleZ
p2576
aVspace_world
p2577
aaI01
aF0
aF0
aF0
aF0
aF0
aF0
aF1
aF1
aF1
aF0
aa(lp2578
Vfeathers_anim_space_switcher
p2579
a(lp2580
Vvisibility
p2581
aVtranslateX
p2582
aVtranslateY
p2583
aVtranslateZ
p2584
aVrotateX
p2585
aVrotateY
p2586
aVrotateZ
p2587
aVscaleX
p2588
aVscaleY
p2589
aVscaleZ
p2590
aVspace_world
p2591
aaI01
aF-8.8817841970012523e-16
aF-1.7763568394002505e-15
aF0
aF3.975693351829395e-16
aF-0
aF0
aF1
aF1.0000000000000002
aF1.0000000000000002
aF0
aa(lp2592
Vfront_strap_small_anim_space_switcher
p2593
a(lp2594
Vvisibility
p2595
aVtranslateX
p2596
aVtranslateY
p2597
aVtranslateZ
p2598
aVrotateX
p2599
aVrotateY
p2600
aVrotateZ
p2601
aVscaleX
p2602
aVscaleY
p2603
aVscaleZ
p2604
aVspace_world
p2605
aaI01
aF0
aF1.4210854715202004e-14
aF1.7763568394002505e-15
aF0
aF0
aF0
aF1
aF1
aF1
aF0
aa(lp2606
Vhair_curls_A_l_01_anim_space_switcher
p2607
a(lp2608
Vvisibility
p2609
aVtranslateX
p2610
aVtranslateY
p2611
aVtranslateZ
p2612
aVrotateX
p2613
aVrotateY
p2614
aVrotateZ
p2615
aVscaleX
p2616
aVscaleY
p2617
aVscaleZ
p2618
aVspace_world
p2619
aaI01
aF0
aF2.8421709430404007e-14
aF4.4408920985006262e-16
aF0
aF-2.8016214088672775e-15
aF-1.987846675914698e-16
aF1
aF1.0000000000000002
aF1.0000000000000002
aF0
aa(lp2620
Vhair_curls_A_r_01_anim_space_switcher
p2621
a(lp2622
Vvisibility
p2623
aVtranslateX
p2624
aVtranslateY
p2625
aVtranslateZ
p2626
aVrotateX
p2627
aVrotateY
p2628
aVrotateZ
p2629
aVscaleX
p2630
aVscaleY
p2631
aVscaleZ
p2632
aVspace_world
p2633
aaI01
aF1.7763568394002505e-15
aF2.8421709430404007e-14
aF0
aF0
aF4.9261325437511099e-15
aF1.9878466759146975e-16
aF1.0000000000000002
aF1.0000000000000002
aF1.0000000000000002
aF0
aa(lp2634
Vhair_curls_B_l_01_anim_space_switcher
p2635
a(lp2636
Vvisibility
p2637
aVtranslateX
p2638
aVtranslateY
p2639
aVtranslateZ
p2640
aVrotateX
p2641
aVrotateY
p2642
aVrotateZ
p2643
aVscaleX
p2644
aVscaleY
p2645
aVscaleZ
p2646
aVspace_world
p2647
aaI01
aF0
aF0
aF-8.8817841970012523e-16
aF-9.9392333795734899e-17
aF-3.9166791536381789e-15
aF0
aF0.99999999999999989
aF1
aF0.99999999999999989
aF0
aa(lp2648
Vhair_curls_B_r_01_anim_space_switcher
p2649
a(lp2650
Vvisibility
p2651
aVtranslateX
p2652
aVtranslateY
p2653
aVtranslateZ
p2654
aVrotateX
p2655
aVrotateY
p2656
aVrotateZ
p2657
aVscaleX
p2658
aVscaleY
p2659
aVscaleZ
p2660
aVspace_world
p2661
aaI01
aF0
aF-2.8421709430404007e-14
aF8.8817841970012523e-16
aF0
aF9.9392333795734899e-16
aF0
aF1
aF1
aF1
aF0
aa(lp2662
Vhair_top_anim_space_switcher
p2663
a(lp2664
Vvisibility
p2665
aVtranslateX
p2666
aVtranslateY
p2667
aVtranslateZ
p2668
aVrotateX
p2669
aVrotateY
p2670
aVrotateZ
p2671
aVscaleX
p2672
aVscaleY
p2673
aVscaleZ
p2674
aVspace_world
p2675
aaI01
aF0
aF0
aF0
aF3.975693351829395e-16
aF-0
aF0
aF1
aF1.0000000000000002
aF1.0000000000000002
aF0
aa(lp2676
Vik_elbow_l_anim_space_switcher
p2677
a(lp2678
Vvisibility
p2679
aVtranslateX
p2680
aVtranslateY
p2681
aVtranslateZ
p2682
aVrotateX
p2683
aVrotateY
p2684
aVrotateZ
p2685
aVscaleX
p2686
aVscaleY
p2687
aVscaleZ
p2688
aVspace_world
p2689
aVspace_body_anim
p2690
aVspace_chest_ik_anim
p2691
aaI01
aF0
aF0
aF0
aF0
aF0
aF0
aF1
aF1
aF1
aF0
aF0
aF0
aa(lp2692
Vik_elbow_r_anim_space_switcher
p2693
a(lp2694
Vvisibility
p2695
aVtranslateX
p2696
aVtranslateY
p2697
aVtranslateZ
p2698
aVrotateX
p2699
aVrotateY
p2700
aVrotateZ
p2701
aVscaleX
p2702
aVscaleY
p2703
aVscaleZ
p2704
aVspace_world
p2705
aVspace_body_anim
p2706
aVspace_chest_ik_anim
p2707
aaI01
aF0
aF0
aF0
aF0
aF0
aF0
aF1
aF1
aF1
aF0
aF0
aF0
aa(lp2708
Vik_foot_anim_l_space_switcher
p2709
a(lp2710
Vvisibility
p2711
aVtranslateX
p2712
aVtranslateY
p2713
aVtranslateZ
p2714
aVrotateX
p2715
aVrotateY
p2716
aVrotateZ
p2717
aVscaleX
p2718
aVscaleY
p2719
aVscaleZ
p2720
aVspace_world
p2721
aVspace_body_anim
p2722
aaI01
aF0
aF0
aF0
aF0
aF0
aF0
aF1
aF1
aF1
aF0
aF0
aa(lp2723
Vik_foot_anim_r_space_switcher
p2724
a(lp2725
Vvisibility
p2726
aVtranslateX
p2727
aVtranslateY
p2728
aVtranslateZ
p2729
aVrotateX
p2730
aVrotateY
p2731
aVrotateZ
p2732
aVscaleX
p2733
aVscaleY
p2734
aVscaleZ
p2735
aVspace_world
p2736
aVspace_body_anim
p2737
aaI01
aF0
aF0
aF0
aF0
aF0
aF0
aF1
aF1
aF1
aF0
aF0
aa(lp2738
Vik_wrist_l_anim_space_switcher
p2739
a(lp2740
Vvisibility
p2741
aVtranslateX
p2742
aVtranslateY
p2743
aVtranslateZ
p2744
aVrotateX
p2745
aVrotateY
p2746
aVrotateZ
p2747
aVscaleX
p2748
aVscaleY
p2749
aVscaleZ
p2750
aVspace_world
p2751
aVspace_body_anim
p2752
aVspace_head_fk_anim
p2753
aVspace_chest_ik_anim
p2754
aaI01
aF0
aF0
aF0
aF0
aF0
aF0
aF1
aF1
aF1
aF0
aF0
aF0
aF0
aa(lp2755
Vik_wrist_r_anim_space_switcher
p2756
a(lp2757
Vvisibility
p2758
aVtranslateX
p2759
aVtranslateY
p2760
aVtranslateZ
p2761
aVrotateX
p2762
aVrotateY
p2763
aVrotateZ
p2764
aVscaleX
p2765
aVscaleY
p2766
aVscaleZ
p2767
aVspace_world
p2768
aVspace_body_anim
p2769
aVspace_head_fk_anim
p2770
aVspace_chest_ik_anim
p2771
aaI01
aF0
aF0
aF0
aF0
aF0
aF0
aF1
aF1
aF1
aF0
aF0
aF0
aF0
aa(lp2772
Vjaw_anim_space_switcher
p2773
a(lp2774
Vvisibility
p2775
aVtranslateX
p2776
aVtranslateY
p2777
aVtranslateZ
p2778
aVrotateX
p2779
aVrotateY
p2780
aVrotateZ
p2781
aVscaleX
p2782
aVscaleY
p2783
aVscaleZ
p2784
aVspace_world
p2785
aaI01
aF-1.2621774483536189e-29
aF8.8817841970012523e-16
aF0
aF3.975693351829395e-16
aF-0
aF0
aF1
aF1.0000000000000002
aF1.0000000000000002
aF0
aa(lp2786
Vl_global_ik_anim_space_switcher
p2787
a(lp2788
Vvisibility
p2789
aVtranslateX
p2790
aVtranslateY
p2791
aVtranslateZ
p2792
aVrotateX
p2793
aVrotateY
p2794
aVrotateZ
p2795
aVscaleX
p2796
aVscaleY
p2797
aVscaleZ
p2798
aVspace_world
p2799
aaI01
aF0
aF0
aF0
aF0
aF0
aF0
aF1
aF1
aF1
aF0
aa(lp2800
Vmaster_anim_space_switcher
p2801
a(lp2802
Vvisibility
p2803
aVtranslateX
p2804
aVtranslateY
p2805
aVtranslateZ
p2806
aVrotateX
p2807
aVrotateY
p2808
aVrotateZ
p2809
aVscaleX
p2810
aVscaleY
p2811
aVscaleZ
p2812
aVspace_world
p2813
aaI01
aF0
aF0
aF0
aF0
aF0
aF0
aF1
aF1
aF1
aF0
aa(lp2814
Vquiver_anim_space_switcher
p2815
a(lp2816
Vvisibility
p2817
aVtranslateX
p2818
aVtranslateY
p2819
aVtranslateZ
p2820
aVrotateX
p2821
aVrotateY
p2822
aVrotateZ
p2823
aVscaleX
p2824
aVscaleY
p2825
aVscaleZ
p2826
aVspace_world
p2827
aaI01
aF0
aF8.8817841970012523e-16
aF-2.8421709430404007e-14
aF0
aF-0
aF-1.2424041724466859e-17
aF1.0000000000000002
aF1.0000000000000002
aF1.0000000000000002
aF0
aa(lp2828
Vr_global_ik_anim_space_switcher
p2829
a(lp2830
Vvisibility
p2831
aVtranslateX
p2832
aVtranslateY
p2833
aVtranslateZ
p2834
aVrotateX
p2835
aVrotateY
p2836
aVrotateZ
p2837
aVscaleX
p2838
aVscaleY
p2839
aVscaleZ
p2840
aVspace_world
p2841
aaI01
aF0
aF0
aF0
aF0
aF0
aF0
aF1
aF1
aF1
aF0
aa(lp2842
Vspine_01_space_switcher
p2843
a(lp2844
Vvisibility
p2845
aVtranslateX
p2846
aVtranslateY
p2847
aVtranslateZ
p2848
aVrotateX
p2849
aVrotateY
p2850
aVrotateZ
p2851
aVscaleX
p2852
aVscaleY
p2853
aVscaleZ
p2854
aVspace_world
p2855
aaI01
aF0
aF0
aF6.3108872417680944e-30
aF-1.7655625192200634e-31
aF-2.8249000307521015e-30
aF0
aF1
aF1
aF1
aF0
aa.