(lp1
(lp2
S'fk_clavicle_r_anim'
p3
a(lp4
VtranslateX
p5
aVtranslateY
p6
aVtranslateZ
p7
aVrotateX
p8
aVrotateY
p9
aVrotateZ
p10
aaF0
aF0
aF0
aF-35.953571563286822
aF-31.508258509621225
aF8.3636513271508406
aa(lp11
S'fk_clavicle_l_anim'
p12
a(lp13
VtranslateX
p14
aVtranslateY
p15
aVtranslateZ
p16
aVrotateX
p17
aVrotateY
p18
aVrotateZ
p19
aaF0
aF0
aF0
aF8.1873312358071288
aF-11.832737319795788
aF-15.920126445903609
aa(lp20
S'head_fk_anim'
p21
a(lp22
VtranslateX
p23
aVtranslateY
p24
aVtranslateZ
p25
aVrotateX
p26
aVrotateY
p27
aVrotateZ
p28
aVscaleX
p29
aVscaleY
p30
aVscaleZ
p31
aVfkOrientation
p32
aaF-0.011267632
aF-0.048031625000000001
aF0.14517842
aF38.970132078812625
aF1.0444680762063161
aF-8.3847900042007844
aF1
aF1
aF1
aI0
aa(lp33
S'neck_01_fk_anim'
p34
a(lp35
VtranslateX
p36
aVtranslateY
p37
aVtranslateZ
p38
aVrotateX
p39
aVrotateY
p40
aVrotateZ
p41
aVscaleX
p42
aVscaleY
p43
aVscaleZ
p44
aVfkOrientation
p45
aaF0
aF1.4210854715202004e-14
aF7.4384942649885362e-15
aF12.226766573534029
aF6.727536120055265
aF4.017509995934029
aF1
aF1
aF1
aI0
aa(lp46
S'neck_02_fk_anim'
p47
a(lp48
VtranslateX
p49
aVtranslateY
p50
aVtranslateZ
p51
aVrotateX
p52
aVrotateY
p53
aVrotateZ
p54
aVscaleX
p55
aVscaleY
p56
aVscaleZ
p57
aaF0
aF0
aF0
aF-1.2445195875076006e-05
aF1.9865971489516576e-06
aF-1.1158731945717731e-05
aF1
aF1
aF1
aa(lp58
S'spine_01_anim'
p59
a(lp60
Vlength
p61
aVtranslateY
p62
aVtranslateZ
p63
aVrotateX
p64
aVrotateY
p65
aVrotateZ
p66
aaF0
aF0
aF0
aF-3.0544143676278148
aF1.1839440615866097
aF-7.0612264341124362
aa(lp67
S'spine_02_anim'
p68
a(lp69
Vlength
p70
aVtranslateY
p71
aVtranslateZ
p72
aVrotateX
p73
aVrotateY
p74
aVrotateZ
p75
aaF0
aF0
aF0
aF-12.224109831284167
aF-1.4470130390932914
aF-1.7069721304440713
aa(lp76
S'spine_03_anim'
p77
a(lp78
Vlength
p79
aVtranslateY
p80
aVtranslateZ
p81
aVrotateX
p82
aVrotateY
p83
aVrotateZ
p84
aaF0
aF0
aF0
aF-12.16194202141638
aF-1.8027412814001542
aF-1.8738906563303599
aa(lp85
S'mid_ik_anim'
p86
a(lp87
VtranslateX
p88
aVtranslateY
p89
aVtranslateZ
p90
aVrotateX
p91
aVrotateY
p92
aVrotateZ
p93
aaF0
aF0
aF0
aF0
aF0
aF0
aa(lp94
S'chest_ik_anim'
p95
a(lp96
VtranslateX
p97
aVtranslateY
p98
aVtranslateZ
p99
aVrotateX
p100
aVrotateY
p101
aVrotateZ
p102
aVstretch
p103
aVsquash
p104
aVtwist_amount
p105
aVautoSpine
p106
aVrotationInfluence
p107
aVspace_chest_ik_world_aligned
p108
aVspace_world
p109
aaF0
aF0
aF0
aF0
aF0
aF0
aF0
aF0
aF1
aF0
aF0.25
aF0
aF0
aa(lp110
S'body_anim'
p111
a(lp112
VtranslateX
p113
aVtranslateY
p114
aVtranslateZ
p115
aVrotateX
p116
aVrotateY
p117
aVrotateZ
p118
aVspace_world
p119
aaF-11.176029429599637
aF0.0002750961069923411
aF4.2547655105590927
aF-34.020439316322147
aF2.983126067946464
aF0.23790216757343483
aF0
aa(lp120
S'hip_anim'
p121
a(lp122
VtranslateX
p123
aVtranslateY
p124
aVtranslateZ
p125
aVrotateX
p126
aVrotateY
p127
aVrotateZ
p128
aVlCalfTwistCtrlVis
p129
aVrCalfTwistCtrlVis
p130
aVautoHips
p131
aaF0
aF0
aF6.3108872417680944e-30
aF3.7272125173400562e-17
aF-2.5444437451708134e-14
aF4.9696166897867437e-17
aI00
aI00
aF0
aa(lp132
S'clavicle_l_anim'
p133
a(lp134
VtranslateX
p135
aVtranslateY
p136
aVtranslateZ
p137
aVautoShoulders
p138
aaF-0.1864525393891725
aF-3.1621568604603176
aF2.1858978947965397
aF0
aa(lp139
S'clavicle_r_anim'
p140
a(lp141
VtranslateX
p142
aVtranslateY
p143
aVtranslateZ
p144
aVautoShoulders
p145
aaF0.47997887348813051
aF13.544027239452523
aF7.5592130116505709
aF0
aa(lp146
S'fk_arm_l_anim'
p147
a(lp148
VtranslateX
p149
aVtranslateY
p150
aVtranslateZ
p151
aVrotateX
p152
aVrotateY
p153
aVrotateZ
p154
aaF0
aF0
aF0
aF-35.993514814703616
aF-2.5774885871823363
aF-39.724052607758168
aa(lp155
S'fk_arm_r_anim'
p156
a(lp157
VtranslateX
p158
aVtranslateY
p159
aVtranslateZ
p160
aVrotateX
p161
aVrotateY
p162
aVrotateZ
p163
aaF0
aF0
aF0
aF-13.70640235513229
aF-18.995389058785932
aF-33.510613734828333
aa(lp164
S'fk_elbow_l_anim'
p165
a(lp166
VtranslateX
p167
aVtranslateY
p168
aVtranslateZ
p169
aVrotateX
p170
aVrotateY
p171
aVrotateZ
p172
aaF0
aF0
aF0
aF-0.35968797895892507
aF0.088840236587470103
aF-3.4109984576374797
aa(lp173
S'fk_elbow_r_anim'
p174
a(lp175
VtranslateX
p176
aVtranslateY
p177
aVtranslateZ
p178
aVrotateX
p179
aVrotateY
p180
aVrotateZ
p181
aaF0
aF0
aF0
aF0.17014765702672693
aF0.17622370359329259
aF-130.89085651518857
aa(lp182
S'fk_wrist_l_anim'
p183
a(lp184
VtranslateX
p185
aVtranslateY
p186
aVtranslateZ
p187
aVrotateX
p188
aVrotateY
p189
aVrotateZ
p190
aaF0
aF0
aF0
aF-58.858195630208961
aF-16.377720780365671
aF-19.282788497487076
aa(lp191
S'fk_wrist_r_anim'
p192
a(lp193
VtranslateX
p194
aVtranslateY
p195
aVtranslateZ
p196
aVrotateX
p197
aVrotateY
p198
aVrotateZ
p199
aaF0
aF0
aF0
aF-97.960013062123835
aF-5.8560033616610232
aF-7.6777183883884526
aa(lp200
S'ik_elbow_l_anim'
p201
a(lp202
VtranslateX
p203
aVtranslateY
p204
aVtranslateZ
p205
aVspace_chest_ik_anim
p206
aVspace_body_anim
p207
aVspace_world
p208
aaF-40.724585341290584
aF-64.023220986345308
aF-17.175798455531009
aF0
aF0
aF0
aa(lp209
S'ik_elbow_r_anim'
p210
a(lp211
VtranslateX
p212
aVtranslateY
p213
aVtranslateZ
p214
aVspace_chest_ik_anim
p215
aVspace_body_anim
p216
aVspace_world
p217
aaF17.797626428312647
aF13.807050231500067
aF-4.5098320217674637
aF0
aF0
aF0
aa(lp218
S'ik_wrist_l_anim'
p219
a(lp220
VtranslateX
p221
aVtranslateY
p222
aVtranslateZ
p223
aVrotateX
p224
aVrotateY
p225
aVrotateZ
p226
aVstretch
p227
aVsquash
p228
aVstretchBias
p229
aVside
p230
aVmid_bend
p231
aVmid_swivel
p232
aVtip_pivot
p233
aVtip_swivel
p234
aVspace_chest_ik_anim
p235
aVspace_head_fk_anim
p236
aVspace_body_anim
p237
aVspace_world
p238
aaF-39.189300549008692
aF-63.153711470661307
aF8.8874146503995632
aF-90.38600843240296
aF-13.368437522553812
aF-65.490788522726859
aF0
aF0
aF0
aF0
aF0
aF0
aF0
aF0
aF0
aF0
aF0
aF0
aa(lp239
S'ik_wrist_r_anim'
p240
a(lp241
VtranslateX
p242
aVtranslateY
p243
aVtranslateZ
p244
aVrotateX
p245
aVrotateY
p246
aVrotateZ
p247
aVstretch
p248
aVsquash
p249
aVstretchBias
p250
aVside
p251
aVmid_bend
p252
aVmid_swivel
p253
aVtip_pivot
p254
aVtip_swivel
p255
aVspace_chest_ik_anim
p256
aVspace_head_fk_anim
p257
aVspace_body_anim
p258
aVspace_world
p259
aVblendParent1
p260
aaF46.468909566354647
aF-6.4849790008524835
aF-0.24382461709794256
aF96.508695009867978
aF-184.44951571198391
aF-70.858738627865989
aF0
aF0
aF0
aF0
aF0
aF0
aF0
aF0
aF0
aF0
aF0
aF0
aF1
aa(lp261
S'fk_thigh_l_anim'
p262
a(lp263
VrotateX
p264
aVrotateY
p265
aVrotateZ
p266
aaF-329.42101785778857
aF-8.3135818932541632
aF24.925114049928762
aa(lp267
S'fk_thigh_r_anim'
p268
a(lp269
VrotateX
p270
aVrotateY
p271
aVrotateZ
p272
aaF-20.936203676687736
aF3.0619560101791303
aF34.740506994609213
aa(lp273
S'fk_calf_l_anim'
p274
a(lp275
VrotateX
p276
aVrotateY
p277
aVrotateZ
p278
aaF2.2327358887350885
aF-2.2856333586530519
aF-54.560222371295254
aa(lp279
S'fk_calf_r_anim'
p280
a(lp281
VrotateX
p282
aVrotateY
p283
aVrotateZ
p284
aaF4.1385454549592442
aF-2.36091770709394
aF269.98821989981951
aa(lp285
S'fk_foot_l_anim'
p286
a(lp287
VrotateX
p288
aVrotateY
p289
aVrotateZ
p290
aaF-26.890705549583448
aF-4.2427945678383043
aF20.699858209573446
aa(lp291
S'fk_foot_r_anim'
p292
a(lp293
VrotateX
p294
aVrotateY
p295
aVrotateZ
p296
aaF-11.592006658036789
aF13.521764748520154
aF-10.593309380177438
aa(lp297
S'fk_ball_l_anim'
p298
a(lp299
VrotateX
p300
aVrotateY
p301
aVrotateZ
p302
aaF5.5900105716013739e-05
aF-1.3974484677202842e-05
aF3.976651112648236
aa(lp303
S'fk_ball_r_anim'
p304
a(lp305
VrotateX
p306
aVrotateY
p307
aVrotateZ
p308
aaF5.8595947215258076e-05
aF-1.258925278022013e-05
aF1.8864003252289478
aa(lp309
S'ik_foot_anim_l'
p310
a(lp311
VtranslateX
p312
aVtranslateY
p313
aVtranslateZ
p314
aVrotateX
p315
aVrotateY
p316
aVrotateZ
p317
aVknee_twist
p318
aVstretch
p319
aVsquash
p320
aVtoeCtrlVis
p321
aVstretchBias
p322
aVspace_body_anim
p323
aVspace_world
p324
aaF-6.2838738471197839
aF-3.2386594805000959
aF0
aF0
aF-0.60571490254908078
aF-29.076012397413187
aF-13.683319359810445
aF0
aF0
aI00
aF0
aF0
aF0
aa(lp325
S'ik_foot_anim_r'
p326
a(lp327
VtranslateX
p328
aVtranslateY
p329
aVtranslateZ
p330
aVrotateX
p331
aVrotateY
p332
aVrotateZ
p333
aVknee_twist
p334
aVstretch
p335
aVsquash
p336
aVtoeCtrlVis
p337
aVstretchBias
p338
aVspace_body_anim
p339
aVspace_world
p340
aaF-3.8867553245195676
aF19.350579683375621
aF23.189475400854569
aF68.351672707485747
aF-7.765337002725321
aF-23.385936671480611
aF11.204598922896917
aF0
aF0
aI00
aF0
aF0
aF0
aa(lp341
S'heel_ctrl_l'
p342
a(lp343
VrotateX
p344
aVrotateY
p345
aVrotateZ
p346
aVheelPivot
p347
aVballPivot
p348
aaF0
aF0
aF0
aF0
aF0
aa(lp349
S'heel_ctrl_r'
p350
a(lp351
VrotateX
p352
aVrotateY
p353
aVrotateZ
p354
aVheelPivot
p355
aVballPivot
p356
aaF0
aF0
aF0
aF0
aF0
aa(lp357
S'toe_wiggle_ctrl_l'
p358
a(lp359
VrotateX
p360
aVrotateY
p361
aVrotateZ
p362
aaF0
aF0
aF3.9766511126482085
aa(lp363
S'toe_wiggle_ctrl_r'
p364
a(lp365
VrotateX
p366
aVrotateY
p367
aVrotateZ
p368
aaF0
aF0
aF1.8864003252289478
aa(lp369
S'toe_tip_ctrl_l'
p370
a(lp371
VrotateX
p372
aVrotateY
p373
aVrotateZ
p374
aaF0
aF0
aF0
aa(lp375
S'toe_tip_ctrl_r'
p376
a(lp377
VrotateX
p378
aVrotateY
p379
aVrotateZ
p380
aaF0
aF0
aF0
aa(lp381
S'master_anim'
p382
a(lp383
VtranslateX
p384
aVtranslateY
p385
aVtranslateZ
p386
aVrotateX
p387
aVrotateY
p388
aVrotateZ
p389
aVspace_world
p390
aaF0
aF0
aF0
aF0
aF0
aF0
aF0
aa(lp391
S'offset_anim'
p392
a(lp393
VtranslateX
p394
aVtranslateY
p395
aVtranslateZ
p396
aVrotateX
p397
aVrotateY
p398
aVrotateZ
p399
aaF0
aF0
aF0
aF0
aF0
aF0
aa(lp400
S'root_anim'
p401
a(lp402
VtranslateX
p403
aVtranslateY
p404
aVtranslateZ
p405
aVrotateX
p406
aVrotateY
p407
aVrotateZ
p408
aaF0
aF0
aF0
aF0
aF0
aF0
aa(lp409
S'upperarm_l_twist_anim'
p410
a(lp411
VtranslateX
p412
aVtranslateY
p413
aVtranslateZ
p414
aVrotateX
p415
aVrotateY
p416
aVrotateZ
p417
aVscaleX
p418
aVscaleY
p419
aVscaleZ
p420
aaF0
aF-8.8817841970012523e-16
aF2.8421709430404007e-14
aF0
aF1.2424041724466862e-17
aF-2.2550121044037218e-16
aF1
aF0.99999999999999989
aF1
aa(lp421
S'upperarm_l_twist_2_anim'
p422
a(lp423
VtranslateX
p424
aVtranslateY
p425
aVtranslateZ
p426
aVrotateX
p427
aVrotateY
p428
aVrotateZ
p429
aVscaleX
p430
aVscaleY
p431
aVscaleZ
p432
aaF0
aF0
aF0
aF0
aF1.2424041724466862e-17
aF-2.2550121044037218e-16
aF1
aF0.99999999999999989
aF1
aa(lp433
S'upperarm_r_twist_anim'
p434
a(lp435
VtranslateX
p436
aVtranslateY
p437
aVtranslateZ
p438
aVrotateX
p439
aVrotateY
p440
aVrotateZ
p441
aVscaleX
p442
aVscaleY
p443
aVscaleZ
p444
aaF1.7763568394002505e-15
aF1.7763568394002505e-15
aF-2.8421709430404007e-14
aF-4.9696166897867449e-17
aF-6.2120208622334312e-18
aF-1.253809054498443e-16
aF1
aF1
aF1
aa(lp445
S'upperarm_r_twist_2_anim'
p446
a(lp447
VtranslateX
p448
aVtranslateY
p449
aVtranslateZ
p450
aVrotateX
p451
aVrotateY
p452
aVrotateZ
p453
aVscaleX
p454
aVscaleY
p455
aVscaleZ
p456
aaF-3.5527136788005009e-15
aF0
aF5.6843418860808015e-14
aF-4.9696166897867449e-17
aF-6.2120208622334312e-18
aF-1.253809054498443e-16
aF1
aF1
aF1
aa(lp457
S'lowerarm_l_twist_anim'
p458
a(lp459
VtranslateX
p460
aVtranslateY
p461
aVtranslateZ
p462
aVrotateX
p463
aVrotateY
p464
aVrotateZ
p465
aaF0
aF0
aF0
aF0
aF0
aF0
aa(lp466
S'lowerarm_r_twist_anim'
p467
a(lp468
VtranslateX
p469
aVtranslateY
p470
aVtranslateZ
p471
aVrotateX
p472
aVrotateY
p473
aVrotateZ
p474
aaF0
aF0
aF0
aF0
aF0
aF0
aa(lp475
S'l_thigh_twist_01_anim'
p476
a(lp477
VtranslateX
p478
aVtranslateY
p479
aVtranslateZ
p480
aVrotateX
p481
aVrotateY
p482
aVrotateZ
p483
aVscaleX
p484
aVscaleY
p485
aVscaleZ
p486
aaF0
aF-8.8817841970012523e-16
aF1.7763568394002505e-15
aF4.6465916049506072e-15
aF5.9635400277440939e-16
aF1.3119788061037007e-14
aF1
aF0.99999999999999989
aF1
aa(lp487
S'r_thigh_twist_01_anim'
p488
a(lp489
VtranslateX
p490
aVtranslateY
p491
aVtranslateZ
p492
aVrotateX
p493
aVrotateY
p494
aVrotateZ
p495
aVscaleX
p496
aVscaleY
p497
aVscaleZ
p498
aaF0
aF0
aF-1.7763568394002505e-15
aF5.7970578686362392e-14
aF-1.2921003393445537e-14
aF-3.5781240166464568e-15
aF1
aF0.99999999999999989
aF0.99999999999999989
aa(lp499
S'pinky_finger_fk_ctrl_1_l'
p500
a(lp501
VtranslateX
p502
aVtranslateY
p503
aVtranslateZ
p504
aVrotateX
p505
aVrotateY
p506
aVrotateZ
p507
aVsticky
p508
aaF0
aF0
aF0
aF6.6196380000000001
aF-1.9706250000000003
aF40.146565000000002
aF0
aa(lp509
S'pinky_finger_fk_ctrl_1_r'
p510
a(lp511
VtranslateX
p512
aVtranslateY
p513
aVtranslateZ
p514
aVrotateX
p515
aVrotateY
p516
aVrotateZ
p517
aVsticky
p518
aaF0
aF0
aF0
aF19.773197
aF-6.9365740000000002
aF55.819924999999998
aF0
aa(lp519
S'pinky_finger_fk_ctrl_2_l'
p520
a(lp521
VtranslateX
p522
aVtranslateY
p523
aVtranslateZ
p524
aVrotateX
p525
aVrotateY
p526
aVrotateZ
p527
aaF0
aF0
aF0
aF0
aF0
aF63.388573999999998
aa(lp528
S'pinky_finger_fk_ctrl_2_r'
p529
a(lp530
VtranslateX
p531
aVtranslateY
p532
aVtranslateZ
p533
aVrotateX
p534
aVrotateY
p535
aVrotateZ
p536
aaF0
aF0
aF0
aF0
aF0
aF90.729360999999997
aa(lp537
S'pinky_finger_fk_ctrl_3_l'
p538
a(lp539
VtranslateX
p540
aVtranslateY
p541
aVtranslateZ
p542
aVrotateX
p543
aVrotateY
p544
aVrotateZ
p545
aaF0
aF0
aF0
aF0
aF0
aF38.995474000000002
aa(lp546
S'pinky_finger_fk_ctrl_3_r'
p547
a(lp548
VtranslateX
p549
aVtranslateY
p550
aVtranslateZ
p551
aVrotateX
p552
aVrotateY
p553
aVrotateZ
p554
aaF0
aF0
aF0
aF0
aF0
aF78.120001000000002
aa(lp555
S'ring_finger_fk_ctrl_1_l'
p556
a(lp557
VtranslateX
p558
aVtranslateY
p559
aVtranslateZ
p560
aVrotateX
p561
aVrotateY
p562
aVrotateZ
p563
aVsticky
p564
aaF0
aF0
aF0
aF12.058789000000001
aF-9.4612890000000007
aF37.875883999999999
aF0
aa(lp565
S'ring_finger_fk_ctrl_1_r'
p566
a(lp567
VtranslateX
p568
aVtranslateY
p569
aVtranslateZ
p570
aVrotateX
p571
aVrotateY
p572
aVrotateZ
p573
aVsticky
p574
aaF0
aF0
aF0
aF10.401774
aF-2.5699610000000002
aF29.160668000000001
aF0
aa(lp575
S'ring_finger_fk_ctrl_2_l'
p576
a(lp577
VtranslateX
p578
aVtranslateY
p579
aVtranslateZ
p580
aVrotateX
p581
aVrotateY
p582
aVrotateZ
p583
aaF0
aF0
aF0
aF0
aF0
aF85.279145999999997
aa(lp584
S'ring_finger_fk_ctrl_2_r'
p585
a(lp586
VtranslateX
p587
aVtranslateY
p588
aVtranslateZ
p589
aVrotateX
p590
aVrotateY
p591
aVrotateZ
p592
aaF0
aF0
aF0
aF0
aF0
aF111.730644
aa(lp593
S'ring_finger_fk_ctrl_3_l'
p594
a(lp595
VtranslateX
p596
aVtranslateY
p597
aVtranslateZ
p598
aVrotateX
p599
aVrotateY
p600
aVrotateZ
p601
aaF0
aF0
aF0
aF0
aF0
aF33.185063999999997
aa(lp602
S'ring_finger_fk_ctrl_3_r'
p603
a(lp604
VtranslateX
p605
aVtranslateY
p606
aVtranslateZ
p607
aVrotateX
p608
aVrotateY
p609
aVrotateZ
p610
aaF0
aF0
aF0
aF0
aF0
aF67.532329000000004
aa(lp611
S'middle_finger_fk_ctrl_1_l'
p612
a(lp613
VtranslateX
p614
aVtranslateY
p615
aVtranslateZ
p616
aVrotateX
p617
aVrotateY
p618
aVrotateZ
p619
aVsticky
p620
aaF0
aF0
aF0
aF1.295723
aF-10.822240000000001
aF37.095528000000002
aF0
aa(lp621
S'middle_finger_fk_ctrl_1_r'
p622
a(lp623
VtranslateX
p624
aVtranslateY
p625
aVtranslateZ
p626
aVrotateX
p627
aVrotateY
p628
aVrotateZ
p629
aVsticky
p630
aaF0
aF0
aF0
aF9.4171950000000013
aF4.6405950000000002
aF1.6227910000000001
aF0
aa(lp631
S'middle_finger_fk_ctrl_2_l'
p632
a(lp633
VtranslateX
p634
aVtranslateY
p635
aVtranslateZ
p636
aVrotateX
p637
aVrotateY
p638
aVrotateZ
p639
aaF0
aF0
aF0
aF0
aF0
aF85.279145999999997
aa(lp640
S'middle_finger_fk_ctrl_2_r'
p641
a(lp642
VtranslateX
p643
aVtranslateY
p644
aVtranslateZ
p645
aVrotateX
p646
aVrotateY
p647
aVrotateZ
p648
aaF0
aF0
aF0
aF0
aF0
aF69.852754000000004
aa(lp649
S'middle_finger_fk_ctrl_3_l'
p650
a(lp651
VtranslateX
p652
aVtranslateY
p653
aVtranslateZ
p654
aVrotateX
p655
aVrotateY
p656
aVrotateZ
p657
aaF0
aF0
aF0
aF0
aF0
aF33.185063999999997
aa(lp658
S'middle_finger_fk_ctrl_3_r'
p659
a(lp660
VtranslateX
p661
aVtranslateY
p662
aVtranslateZ
p663
aVrotateX
p664
aVrotateY
p665
aVrotateZ
p666
aaF0
aF0
aF0
aF0
aF0
aF100.80000099999999
aa(lp667
S'index_finger_fk_ctrl_1_l'
p668
a(lp669
VtranslateX
p670
aVtranslateY
p671
aVtranslateZ
p672
aVrotateX
p673
aVrotateY
p674
aVrotateZ
p675
aVsticky
p676
aaF0
aF0
aF0
aF0
aF-6.5713710000000001
aF38.136881000000002
aF0
aa(lp677
S'index_finger_fk_ctrl_1_r'
p678
a(lp679
VtranslateX
p680
aVtranslateY
p681
aVtranslateZ
p682
aVrotateX
p683
aVrotateY
p684
aVrotateZ
p685
aVsticky
p686
aaF0
aF0
aF0
aF3.8524690000000006
aF2.3421759999999998
aF0.15452199999999999
aF0
aa(lp687
S'index_finger_fk_ctrl_2_l'
p688
a(lp689
VtranslateX
p690
aVtranslateY
p691
aVtranslateZ
p692
aVrotateX
p693
aVrotateY
p694
aVrotateZ
p695
aaF0
aF0
aF0
aF0
aF0
aF85.279145999999997
aa(lp696
S'index_finger_fk_ctrl_2_r'
p697
a(lp698
VtranslateX
p699
aVtranslateY
p700
aVtranslateZ
p701
aVrotateX
p702
aVrotateY
p703
aVrotateZ
p704
aaF0
aF0
aF0
aF0
aF0
aF96.294250000000005
aa(lp705
S'index_finger_fk_ctrl_3_l'
p706
a(lp707
VtranslateX
p708
aVtranslateY
p709
aVtranslateZ
p710
aVrotateX
p711
aVrotateY
p712
aVrotateZ
p713
aaF0
aF0
aF0
aF0
aF0
aF33.185063999999997
aa(lp714
S'index_finger_fk_ctrl_3_r'
p715
a(lp716
VtranslateX
p717
aVtranslateY
p718
aVtranslateZ
p719
aVrotateX
p720
aVrotateY
p721
aVrotateZ
p722
aaF0
aF0
aF0
aF0
aF0
aF78.480001000000001
aa(lp723
S'thumb_finger_fk_ctrl_1_l'
p724
a(lp725
VtranslateX
p726
aVtranslateY
p727
aVtranslateZ
p728
aVrotateX
p729
aVrotateY
p730
aVrotateZ
p731
aVsticky
p732
aaF0
aF0
aF0
aF8.2437579999999997
aF13.614008
aF6.1582330000000001
aF0
aa(lp733
S'thumb_finger_fk_ctrl_1_r'
p734
a(lp735
VtranslateX
p736
aVtranslateY
p737
aVtranslateZ
p738
aVrotateX
p739
aVrotateY
p740
aVrotateZ
p741
aVsticky
p742
aaF0
aF0
aF0
aF20.306422999999999
aF0
aF0
aF0
aa(lp743
S'thumb_finger_fk_ctrl_2_l'
p744
a(lp745
VtranslateX
p746
aVtranslateY
p747
aVtranslateZ
p748
aVrotateX
p749
aVrotateY
p750
aVrotateZ
p751
aaF0
aF0
aF0
aF26.246528000000001
aF11.718137
aF14.814646
aa(lp752
S'thumb_finger_fk_ctrl_2_r'
p753
a(lp754
VtranslateX
p755
aVtranslateY
p756
aVtranslateZ
p757
aVrotateX
p758
aVrotateY
p759
aVrotateZ
p760
aaF0
aF0
aF0
aF4.3905440000000002
aF-3.3834369999999998
aF29.392087
aa(lp761
S'thumb_finger_fk_ctrl_3_l'
p762
a(lp763
VtranslateX
p764
aVtranslateY
p765
aVtranslateZ
p766
aVrotateX
p767
aVrotateY
p768
aVrotateZ
p769
aaF0
aF0
aF0
aF0
aF0
aF61.713971000000008
aa(lp770
S'thumb_finger_fk_ctrl_3_r'
p771
a(lp772
VtranslateX
p773
aVtranslateY
p774
aVtranslateZ
p775
aVrotateX
p776
aVrotateY
p777
aVrotateZ
p778
aaF0
aF0
aF0
aF0
aF0
aF38.059068000000003
aa(lp779
S'index_l_ik_anim'
p780
a(lp781
VtranslateX
p782
aVtranslateY
p783
aVtranslateZ
p784
aVrotateX
p785
aVrotateY
p786
aVrotateZ
p787
aVpoleVectorVis
p788
aaF0
aF0
aF0
aF0
aF0
aF0
aF0
aa(lp789
S'index_r_ik_anim'
p790
a(lp791
VtranslateX
p792
aVtranslateY
p793
aVtranslateZ
p794
aVrotateX
p795
aVrotateY
p796
aVrotateZ
p797
aVpoleVectorVis
p798
aaF0
aF0
aF0
aF0
aF0
aF0
aF0
aa(lp799
S'middle_l_ik_anim'
p800
a(lp801
VtranslateX
p802
aVtranslateY
p803
aVtranslateZ
p804
aVrotateX
p805
aVrotateY
p806
aVrotateZ
p807
aVpoleVectorVis
p808
aaF0
aF0
aF0
aF0
aF0
aF0
aF0
aa(lp809
S'middle_r_ik_anim'
p810
a(lp811
VtranslateX
p812
aVtranslateY
p813
aVtranslateZ
p814
aVrotateX
p815
aVrotateY
p816
aVrotateZ
p817
aVpoleVectorVis
p818
aaF0
aF0
aF0
aF0
aF0
aF0
aF0
aa(lp819
S'ring_l_ik_anim'
p820
a(lp821
VtranslateX
p822
aVtranslateY
p823
aVtranslateZ
p824
aVrotateX
p825
aVrotateY
p826
aVrotateZ
p827
aVpoleVectorVis
p828
aaF0
aF0
aF0
aF0
aF0
aF0
aF0
aa(lp829
S'ring_r_ik_anim'
p830
a(lp831
VtranslateX
p832
aVtranslateY
p833
aVtranslateZ
p834
aVrotateX
p835
aVrotateY
p836
aVrotateZ
p837
aVpoleVectorVis
p838
aaF0
aF0
aF0
aF0
aF0
aF0
aF0
aa(lp839
S'pinky_l_ik_anim'
p840
a(lp841
VtranslateX
p842
aVtranslateY
p843
aVtranslateZ
p844
aVrotateX
p845
aVrotateY
p846
aVrotateZ
p847
aVpoleVectorVis
p848
aaF0
aF0
aF0
aF0
aF0
aF0
aF0
aa(lp849
S'pinky_r_ik_anim'
p850
a(lp851
VtranslateX
p852
aVtranslateY
p853
aVtranslateZ
p854
aVrotateX
p855
aVrotateY
p856
aVrotateZ
p857
aVpoleVectorVis
p858
aaF0
aF0
aF0
aF0
aF0
aF0
aF0
aa(lp859
S'thumb_l_ik_anim'
p860
a(lp861
VtranslateX
p862
aVtranslateY
p863
aVtranslateZ
p864
aVrotateX
p865
aVrotateY
p866
aVrotateZ
p867
aVpoleVectorVis
p868
aaF0
aF0
aF0
aF0
aF0
aF0
aF0
aa(lp869
S'thumb_r_ik_anim'
p870
a(lp871
VtranslateX
p872
aVtranslateY
p873
aVtranslateZ
p874
aVrotateX
p875
aVrotateY
p876
aVrotateZ
p877
aVpoleVectorVis
p878
aaF0
aF0
aF0
aF0
aF0
aF0
aF0
aa(lp879
S'index_l_poleVector'
p880
a(lp881
VtranslateX
p882
aVtranslateY
p883
aVtranslateZ
p884
aVrotateX
p885
aVrotateY
p886
aVrotateZ
p887
aaF0
aF0
aF0
aF0
aF0
aF0
aa(lp888
S'index_r_poleVector'
p889
a(lp890
VtranslateX
p891
aVtranslateY
p892
aVtranslateZ
p893
aVrotateX
p894
aVrotateY
p895
aVrotateZ
p896
aaF0
aF0
aF0
aF0
aF0
aF0
aa(lp897
S'middle_l_poleVector'
p898
a(lp899
VtranslateX
p900
aVtranslateY
p901
aVtranslateZ
p902
aVrotateX
p903
aVrotateY
p904
aVrotateZ
p905
aaF0
aF0
aF0
aF0
aF0
aF0
aa(lp906
S'middle_r_poleVector'
p907
a(lp908
VtranslateX
p909
aVtranslateY
p910
aVtranslateZ
p911
aVrotateX
p912
aVrotateY
p913
aVrotateZ
p914
aaF0
aF0
aF0
aF0
aF0
aF0
aa(lp915
S'ring_l_poleVector'
p916
a(lp917
VtranslateX
p918
aVtranslateY
p919
aVtranslateZ
p920
aVrotateX
p921
aVrotateY
p922
aVrotateZ
p923
aaF0
aF0
aF0
aF0
aF0
aF0
aa(lp924
S'ring_r_poleVector'
p925
a(lp926
VtranslateX
p927
aVtranslateY
p928
aVtranslateZ
p929
aVrotateX
p930
aVrotateY
p931
aVrotateZ
p932
aaF0
aF0
aF0
aF0
aF0
aF0
aa(lp933
S'pinky_l_poleVector'
p934
a(lp935
VtranslateX
p936
aVtranslateY
p937
aVtranslateZ
p938
aVrotateX
p939
aVrotateY
p940
aVrotateZ
p941
aaF0
aF0
aF0
aF0
aF0
aF0
aa(lp942
S'pinky_r_poleVector'
p943
a(lp944
VtranslateX
p945
aVtranslateY
p946
aVtranslateZ
p947
aVrotateX
p948
aVrotateY
p949
aVrotateZ
p950
aaF0
aF0
aF0
aF0
aF0
aF0
aa(lp951
S'thumb_l_poleVector'
p952
a(lp953
VtranslateX
p954
aVtranslateY
p955
aVtranslateZ
p956
aVrotateX
p957
aVrotateY
p958
aVrotateZ
p959
aaF0
aF0
aF0
aF0
aF0
aF0
aa(lp960
S'thumb_r_poleVector'
p961
a(lp962
VtranslateX
p963
aVtranslateY
p964
aVtranslateZ
p965
aVrotateX
p966
aVrotateY
p967
aVrotateZ
p968
aaF0
aF0
aF0
aF0
aF0
aF0
aa(lp969
S'l_global_ik_anim'
p970
a(lp971
VtranslateX
p972
aVtranslateY
p973
aVtranslateZ
p974
aVrotateX
p975
aVrotateY
p976
aVrotateZ
p977
aVspace_world
p978
aaF0
aF0
aF0
aF0
aF0
aF0
aF0
aa(lp979
S'r_global_ik_anim'
p980
a(lp981
VtranslateX
p982
aVtranslateY
p983
aVtranslateZ
p984
aVrotateX
p985
aVrotateY
p986
aVrotateZ
p987
aVspace_world
p988
aaF0
aF0
aF0
aF0
aF0
aF0
aF0
aa(lp989
S'Rig_Settings'
p990
a(lp991
Vspine_ik
p992
aVspine_fk
p993
aVlLegMode
p994
aVlThighTwistAmount
p995
aVlThighTwist2Amount
p996
aVllegTwistCtrlVis
p997
aVlCalfTwistAmount
p998
aVllegTwistCtrlVisCalf
p999
aVrLegMode
p1000
aVrThighTwistAmount
p1001
aVrThighTwist2Amount
p1002
aVrlegTwistCtrlVis
p1003
aVrCalfTwistAmount
p1004
aVrlegTwistCtrlVisCalf
p1005
aVlFkArmOrient
p1006
aVlArmMode
p1007
aVlClavMode
p1008
aVlUpperarmTwistAmount
p1009
aVlUpperarmTwist2Amount
p1010
aVltwistCtrlVis
p1011
aVltwistCtrlVisLower
p1012
aVlForearmTwistAmount
p1013
aVlForearmTwist2Amount
p1014
aVrFkArmOrient
p1015
aVrArmMode
p1016
aVrClavMode
p1017
aVrUpperarmTwistAmount
p1018
aVrUpperarmTwist2Amount
p1019
aVrtwistCtrlVis
p1020
aVrtwistCtrlVisLower
p1021
aVrForearmTwistAmount
p1022
aVrForearmTwist2Amount
p1023
aVback_tail_cloth_fk
p1024
aVback_tail_cloth_ik
p1025
aVback_tail_cloth_dynamic
p1026
aVchest_cloth_l_fk
p1027
aVchest_cloth_l_ik
p1028
aVchest_cloth_l_dynamic
p1029
aVchest_cloth_r_fk
p1030
aVchest_cloth_r_ik
p1031
aVchest_cloth_r_dynamic
p1032
aVfront_strap_fk
p1033
aVfront_strap_ik
p1034
aVfront_strap_dynamic
p1035
aVponytail_fk
p1036
aVponytail_ik
p1037
aVponytail_dynamic
p1038
aVskirt_back_cloth_fk
p1039
aVskirt_back_cloth_ik
p1040
aVskirt_back_cloth_dynamic
p1041
aVskirt_cloth_l_fk
p1042
aVskirt_cloth_l_ik
p1043
aVskirt_cloth_l_dynamic
p1044
aVskirt_front_cloth_fk
p1045
aVskirt_front_cloth_ik
p1046
aVskirt_front_cloth_dynamic
p1047
aaF0
aF1
aI1
aF1
aF0.29999999999999999
aI00
aF0.69999999999999996
aI00
aI1
aF1
aF0.29999999999999999
aI00
aF0.69999999999999996
aI00
aI2
aI0
aI1
aF0.90000000000000002
aF0.29999999999999999
aI00
aI00
aF0.75
aF0.29999999999999999
aI2
aI1
aI1
aF0.90000000000000002
aF0.29999999999999999
aI00
aI00
aF0.75
aF0.29999999999999999
aF1
aF0
aF0
aF1
aF0
aF0
aF1
aF0
aF0
aF1
aF0
aF0
aF0
aF1
aF0
aF1
aF0
aF0
aF1
aF0
aF0
aF1
aF0
aF0
aa(lp1048
S'calf_l_twist_anim'
p1049
a(lp1050
VtranslateX
p1051
aVtranslateY
p1052
aVtranslateZ
p1053
aVrotateX
p1054
aVrotateY
p1055
aVrotateZ
p1056
aaF0
aF0
aF0
aF0
aF0
aF0
aa(lp1057
S'calf_r_twist_anim'
p1058
a(lp1059
VtranslateX
p1060
aVtranslateY
p1061
aVtranslateZ
p1062
aVrotateX
p1063
aVrotateY
p1064
aVrotateZ
p1065
aaF0
aF0
aF0
aF0
aF0
aF0
aa(lp1066
S'lowerarm_l_twist2_anim'
p1067
a(lp1068
VtranslateX
p1069
aVtranslateY
p1070
aVtranslateZ
p1071
aVrotateX
p1072
aVrotateY
p1073
aVrotateZ
p1074
aaF0
aF0
aF0
aF0
aF0
aF0
aa(lp1075
S'lowerarm_r_twist2_anim'
p1076
a(lp1077
VtranslateX
p1078
aVtranslateY
p1079
aVtranslateZ
p1080
aVrotateX
p1081
aVrotateY
p1082
aVrotateZ
p1083
aaF0
aF0
aF0
aF0
aF0
aF0
aa(lp1084
Varrow_nock_anim
p1085
a(lp1086
VtranslateX
p1087
aVtranslateY
p1088
aVtranslateZ
p1089
aVrotateX
p1090
aVrotateY
p1091
aVrotateZ
p1092
aVscaleX
p1093
aVscaleY
p1094
aVscaleZ
p1095
aVspace_bow_string_mid_anim
p1096
aVspace_world
p1097
aaF-33.274001747794898
aF-8.5801670318537049
aF-162.41798371489008
aF10.094211838584936
aF-32.131853393713037
aF-4.9039154295575385
aF1
aF1
aF1
aF0
aF0
aa(lp1098
Vback_tail_cloth_dyn_anim
p1099
a(lp1100
VtranslateX
p1101
aVtranslateY
p1102
aVtranslateZ
p1103
aVrotateX
p1104
aVrotateY
p1105
aVrotateZ
p1106
aVchainAttach
p1107
aVchainStartFrame
p1108
aVchainStiffness
p1109
aVchainDamping
p1110
aVchainGravity
p1111
aVchainIteration
p1112
aVchainCollide
p1113
aVchainWidthBase
p1114
aVchainWidthExtremity
p1115
aVchainCollideGround
p1116
aVchainCollideGroundHeight
p1117
aaF0
aF0
aF0
aF0
aF0
aF0
aI0
aF0
aF0
aF0
aF0
aI0
aI00
aF0
aF0
aI00
aF0
aa(lp1118
Vback_tail_cloth_ik_2_anim
p1119
a(lp1120
VtranslateX
p1121
aVtranslateY
p1122
aVtranslateZ
p1123
aVrotateX
p1124
aVrotateY
p1125
aVrotateZ
p1126
aaF0
aF0
aF0
aF0
aF0
aF0
aa(lp1127
Vback_tail_cloth_ik_3_anim
p1128
a(lp1129
VtranslateX
p1130
aVtranslateY
p1131
aVtranslateZ
p1132
aVrotateX
p1133
aVrotateY
p1134
aVrotateZ
p1135
aVclusterControlVis
p1136
aaF0
aF0
aF0
aF0
aF0
aF0
aI00
aa(lp1137
Vback_tail_cloth_ik_base_anim
p1138
a(lp1139
VtranslateX
p1140
aVtranslateY
p1141
aVtranslateZ
p1142
aVrotateX
p1143
aVrotateY
p1144
aVrotateZ
p1145
aVglobal_scale
p1146
aaF0
aF0
aF0
aF0
aF0
aF0
aF1
aa(lp1147
Vfk_back_tail_cloth_01_anim
p1148
a(lp1149
VtranslateX
p1150
aVtranslateY
p1151
aVtranslateZ
p1152
aVrotateX
p1153
aVrotateY
p1154
aVrotateZ
p1155
aVglobal_scale
p1156
aVlagMode
p1157
aaF-0.65138600000000002
aF-0.18824199999999999
aF-1.177254
aF-10.606363
aF-2.4603809999999999
aF1.0437959999999999
aF1
aF0
aa(lp1158
Vback_tail_cloth_cv_0_anim
p1159
a(lp1160
VtranslateX
p1161
aVtranslateY
p1162
aVtranslateZ
p1163
aaF0
aF0
aF0
aa(lp1164
Vfk_back_tail_cloth_02_anim
p1165
a(lp1166
VtranslateX
p1167
aVtranslateY
p1168
aVtranslateZ
p1169
aVrotateX
p1170
aVrotateY
p1171
aVrotateZ
p1172
aaF0.41630899999999998
aF-0.022439600000000001
aF0.68587500000000001
aF11.094825999999999
aF0
aF0
aa(lp1173
Vback_tail_cloth_cv_1_anim
p1174
a(lp1175
VtranslateX
p1176
aVtranslateY
p1177
aVtranslateZ
p1178
aaF0
aF0
aF0
aa(lp1179
Vbow_base_anim
p1180
a(lp1181
VtranslateX
p1182
aVtranslateY
p1183
aVtranslateZ
p1184
aVrotateX
p1185
aVrotateY
p1186
aVrotateZ
p1187
aVscaleX
p1188
aVscaleY
p1189
aVscaleZ
p1190
aVspace_world
p1191
aaF73.969701859661683
aF4.7157252782806953
aF144.7480204989555
aF83.098710215379
aF-81.613184359190782
aF16.236468526851109
aF1
aF1
aF1
aF0
aa(lp1192
Vbow_shaft_bott_01_anim
p1193
a(lp1194
VtranslateX
p1195
aVtranslateY
p1196
aVtranslateZ
p1197
aVrotateX
p1198
aVrotateY
p1199
aVrotateZ
p1200
aVscaleX
p1201
aVscaleY
p1202
aVscaleZ
p1203
aVspace_world
p1204
aaF0
aF0
aF0
aF-7
aF0
aF0
aF1
aF1
aF1
aF0
aa(lp1205
Vbow_shaft_bott_02_anim
p1206
a(lp1207
VtranslateX
p1208
aVtranslateY
p1209
aVtranslateZ
p1210
aVrotateX
p1211
aVrotateY
p1212
aVrotateZ
p1213
aVscaleX
p1214
aVscaleY
p1215
aVscaleZ
p1216
aVspace_world
p1217
aaF2.7755575615628914e-17
aF0
aF0
aF-7.4167511078434467
aF-0.4159841148483221
aF0.42650343612299191
aF1
aF1
aF1
aF0
aa(lp1218
Vbow_shaft_bott_03_anim
p1219
a(lp1220
VtranslateX
p1221
aVtranslateY
p1222
aVtranslateZ
p1223
aVrotateX
p1224
aVrotateY
p1225
aVrotateZ
p1226
aVscaleX
p1227
aVscaleY
p1228
aVscaleZ
p1229
aVspace_world
p1230
aaF-2.7755575615628914e-17
aF0
aF0
aF-2.7934686255159504
aF-0.18444637437679831
aF0.12808913835733901
aF1
aF1
aF1
aF0
aa(lp1231
Vbow_shaft_top_01_anim
p1232
a(lp1233
VtranslateX
p1234
aVtranslateY
p1235
aVtranslateZ
p1236
aVrotateX
p1237
aVrotateY
p1238
aVrotateZ
p1239
aVscaleX
p1240
aVscaleY
p1241
aVscaleZ
p1242
aVspace_world
p1243
aaF0
aF0
aF0
aF-7
aF0
aF0
aF1
aF1
aF1
aF0
aa(lp1244
Vbow_shaft_top_02_anim
p1245
a(lp1246
VtranslateX
p1247
aVtranslateY
p1248
aVtranslateZ
p1249
aVrotateX
p1250
aVrotateY
p1251
aVrotateZ
p1252
aVscaleX
p1253
aVscaleY
p1254
aVscaleZ
p1255
aVspace_world
p1256
aaF-2.7755575615628914e-17
aF0
aF0
aF-6.7484226490714487
aF0.27138807662818087
aF0.4695736174757929
aF1
aF1
aF1
aF0
aa(lp1257
Vbow_shaft_top_03_anim
p1258
a(lp1259
VtranslateX
p1260
aVtranslateY
p1261
aVtranslateZ
p1262
aVrotateX
p1263
aVrotateY
p1264
aVrotateZ
p1265
aVscaleX
p1266
aVscaleY
p1267
aVscaleZ
p1268
aVspace_world
p1269
aaF-2.7755575615628914e-17
aF0
aF0
aF-3.8285437487648268
aF0.10496533121466747
aF0.28933275628634947
aF1
aF1
aF1
aF0
aa(lp1270
Vbow_string_bott_anim
p1271
a(lp1272
VtranslateX
p1273
aVtranslateY
p1274
aVtranslateZ
p1275
aVrotateX
p1276
aVrotateY
p1277
aVrotateZ
p1278
aVscaleX
p1279
aVscaleY
p1280
aVscaleZ
p1281
aVspace_world
p1282
aaF0
aF0
aF0
aF0
aF-0
aF0
aF1
aF1
aF1
aF0
aa(lp1283
Vbow_string_mid_anim
p1284
a(lp1285
VtranslateX
p1286
aVtranslateY
p1287
aVtranslateZ
p1288
aVrotateX
p1289
aVrotateY
p1290
aVrotateZ
p1291
aVscaleX
p1292
aVscaleY
p1293
aVscaleZ
p1294
aVspace_driver_hand_r
p1295
aVspace_world
p1296
aaF-1.6028741933991775
aF46.389706839317299
aF8.014172426235092
aF3.6446102868618224
aF6.5435566515500554
aF107.59192956446779
aF1
aF1
aF1
aF0
aF0
aa(lp1297
Vbow_string_top_anim
p1298
a(lp1299
VtranslateX
p1300
aVtranslateY
p1301
aVtranslateZ
p1302
aVrotateX
p1303
aVrotateY
p1304
aVrotateZ
p1305
aVscaleX
p1306
aVscaleY
p1307
aVscaleZ
p1308
aVspace_world
p1309
aaF0
aF0
aF0
aF0
aF-0
aF0
aF1
aF1
aF1
aF0
aa(lp1310
Vbreast_chain_anim
p1311
a(lp1312
VtranslateX
p1313
aVtranslateY
p1314
aVtranslateZ
p1315
aVrotateX
p1316
aVrotateY
p1317
aVrotateZ
p1318
aVscaleX
p1319
aVscaleY
p1320
aVscaleZ
p1321
aVspace_world
p1322
aaF0
aF0
aF0
aF0
aF0
aF0
aF1
aF1
aF1
aF0
aa(lp1323
Vbrooch_back_l_anim
p1324
a(lp1325
VtranslateX
p1326
aVtranslateY
p1327
aVtranslateZ
p1328
aVrotateX
p1329
aVrotateY
p1330
aVrotateZ
p1331
aVscaleX
p1332
aVscaleY
p1333
aVscaleZ
p1334
aVspace_world
p1335
aaF-2.7755575615628914e-17
aF0
aF0
aF-3.975693351829395e-16
aF-0
aF0
aF1
aF1.0000000000000002
aF1.0000000000000002
aF0
aa(lp1336
Vbrooch_back_r_anim
p1337
a(lp1338
VtranslateX
p1339
aVtranslateY
p1340
aVtranslateZ
p1341
aVrotateX
p1342
aVrotateY
p1343
aVrotateZ
p1344
aVscaleX
p1345
aVscaleY
p1346
aVscaleZ
p1347
aVspace_world
p1348
aaF0
aF3.5527136788005009e-15
aF0
aF0
aF0
aF0
aF1
aF1
aF1
aF0
aa(lp1349
Vbrooch_front_l_anim
p1350
a(lp1351
VtranslateX
p1352
aVtranslateY
p1353
aVtranslateZ
p1354
aVrotateX
p1355
aVrotateY
p1356
aVrotateZ
p1357
aVscaleX
p1358
aVscaleY
p1359
aVscaleZ
p1360
aVspace_world
p1361
aaF-5.5511151231257827e-17
aF0
aF0
aF-3.1805546814635168e-15
aF-0
aF0
aF1
aF1
aF1
aF0
aa(lp1362
Vbrooch_front_r_anim
p1363
a(lp1364
VtranslateX
p1365
aVtranslateY
p1366
aVtranslateZ
p1367
aVrotateX
p1368
aVrotateY
p1369
aVrotateZ
p1370
aVscaleX
p1371
aVscaleY
p1372
aVscaleZ
p1373
aVspace_world
p1374
aaF-5.5511151231257827e-17
aF1.4210854715202004e-14
aF0
aF3.1805546814635168e-15
aF-0
aF0
aF1
aF1
aF1
aF0
aa(lp1375
Vchest_cloth_l_dyn_anim
p1376
a(lp1377
VtranslateX
p1378
aVtranslateY
p1379
aVtranslateZ
p1380
aVrotateX
p1381
aVrotateY
p1382
aVrotateZ
p1383
aVchainAttach
p1384
aVchainStartFrame
p1385
aVchainStiffness
p1386
aVchainDamping
p1387
aVchainGravity
p1388
aVchainIteration
p1389
aVchainCollide
p1390
aVchainWidthBase
p1391
aVchainWidthExtremity
p1392
aVchainCollideGround
p1393
aVchainCollideGroundHeight
p1394
aaF0
aF0
aF0
aF0
aF0
aF0
aI0
aF0
aF0
aF0
aF0
aI0
aI00
aF0
aF0
aI00
aF0
aa(lp1395
Vchest_cloth_l_ik_2_anim
p1396
a(lp1397
VtranslateX
p1398
aVtranslateY
p1399
aVtranslateZ
p1400
aVrotateX
p1401
aVrotateY
p1402
aVrotateZ
p1403
aaF0
aF0
aF0
aF0
aF0
aF0
aa(lp1404
Vchest_cloth_l_ik_3_anim
p1405
a(lp1406
VtranslateX
p1407
aVtranslateY
p1408
aVtranslateZ
p1409
aVrotateX
p1410
aVrotateY
p1411
aVrotateZ
p1412
aVclusterControlVis
p1413
aaF0
aF0
aF0
aF0
aF0
aF0
aI00
aa(lp1414
Vchest_cloth_l_ik_base_anim
p1415
a(lp1416
VtranslateX
p1417
aVtranslateY
p1418
aVtranslateZ
p1419
aVrotateX
p1420
aVrotateY
p1421
aVrotateZ
p1422
aVglobal_scale
p1423
aaF0
aF0
aF0
aF0
aF0
aF0
aF1
aa(lp1424
Vfk_chest_cloth_l_01_anim
p1425
a(lp1426
VtranslateX
p1427
aVtranslateY
p1428
aVtranslateZ
p1429
aVrotateX
p1430
aVrotateY
p1431
aVrotateZ
p1432
aVglobal_scale
p1433
aVlagMode
p1434
aaF0
aF0
aF0
aF0
aF0
aF0
aF1
aF0
aa(lp1435
Vchest_cloth_l_cv_0_anim
p1436
a(lp1437
VtranslateX
p1438
aVtranslateY
p1439
aVtranslateZ
p1440
aaF0
aF0
aF0
aa(lp1441
Vfk_chest_cloth_l_02_anim
p1442
a(lp1443
VtranslateX
p1444
aVtranslateY
p1445
aVtranslateZ
p1446
aVrotateX
p1447
aVrotateY
p1448
aVrotateZ
p1449
aaF0
aF0
aF0
aF0
aF0
aF0
aa(lp1450
Vchest_cloth_l_cv_1_anim
p1451
a(lp1452
VtranslateX
p1453
aVtranslateY
p1454
aVtranslateZ
p1455
aaF0
aF0
aF0
aa(lp1456
Vchest_cloth_r_dyn_anim
p1457
a(lp1458
VtranslateX
p1459
aVtranslateY
p1460
aVtranslateZ
p1461
aVrotateX
p1462
aVrotateY
p1463
aVrotateZ
p1464
aVchainAttach
p1465
aVchainStartFrame
p1466
aVchainStiffness
p1467
aVchainDamping
p1468
aVchainGravity
p1469
aVchainIteration
p1470
aVchainCollide
p1471
aVchainWidthBase
p1472
aVchainWidthExtremity
p1473
aVchainCollideGround
p1474
aVchainCollideGroundHeight
p1475
aaF0
aF0
aF0
aF0
aF0
aF0
aI0
aF0
aF0
aF0
aF0
aI0
aI00
aF0
aF0
aI00
aF0
aa(lp1476
Vchest_cloth_r_ik_2_anim
p1477
a(lp1478
VtranslateX
p1479
aVtranslateY
p1480
aVtranslateZ
p1481
aVrotateX
p1482
aVrotateY
p1483
aVrotateZ
p1484
aaF0
aF0
aF0
aF0
aF0
aF0
aa(lp1485
Vchest_cloth_r_ik_3_anim
p1486
a(lp1487
VtranslateX
p1488
aVtranslateY
p1489
aVtranslateZ
p1490
aVrotateX
p1491
aVrotateY
p1492
aVrotateZ
p1493
aVclusterControlVis
p1494
aaF0
aF0
aF0
aF0
aF0
aF0
aI00
aa(lp1495
Vchest_cloth_r_ik_base_anim
p1496
a(lp1497
VtranslateX
p1498
aVtranslateY
p1499
aVtranslateZ
p1500
aVrotateX
p1501
aVrotateY
p1502
aVrotateZ
p1503
aVglobal_scale
p1504
aaF0
aF0
aF0
aF0
aF0
aF0
aF1
aa(lp1505
Vfk_chest_cloth_r_01_anim
p1506
a(lp1507
VtranslateX
p1508
aVtranslateY
p1509
aVtranslateZ
p1510
aVrotateX
p1511
aVrotateY
p1512
aVrotateZ
p1513
aVglobal_scale
p1514
aVlagMode
p1515
aaF0
aF0
aF0
aF0
aF0
aF0
aF1
aF0
aa(lp1516
Vchest_cloth_r_cv_0_anim
p1517
a(lp1518
VtranslateX
p1519
aVtranslateY
p1520
aVtranslateZ
p1521
aaF0
aF0
aF0
aa(lp1522
Vfk_chest_cloth_r_02_anim
p1523
a(lp1524
VtranslateX
p1525
aVtranslateY
p1526
aVtranslateZ
p1527
aVrotateX
p1528
aVrotateY
p1529
aVrotateZ
p1530
aaF0
aF0
aF0
aF0
aF0
aF0
aa(lp1531
Vchest_cloth_r_cv_1_anim
p1532
a(lp1533
VtranslateX
p1534
aVtranslateY
p1535
aVtranslateZ
p1536
aaF0
aF0
aF0
aa(lp1537
Veyeball_l_anim
p1538
a(lp1539
VtranslateX
p1540
aVtranslateY
p1541
aVtranslateZ
p1542
aVrotateX
p1543
aVrotateY
p1544
aVrotateZ
p1545
aVscaleX
p1546
aVscaleY
p1547
aVscaleZ
p1548
aVspace_world
p1549
aaF0
aF0
aF0
aF0
aF0
aF0
aF1
aF1
aF1
aF0
aa(lp1550
Veyeball_r_anim
p1551
a(lp1552
VtranslateX
p1553
aVtranslateY
p1554
aVtranslateZ
p1555
aVrotateX
p1556
aVrotateY
p1557
aVrotateZ
p1558
aVscaleX
p1559
aVscaleY
p1560
aVscaleZ
p1561
aVspace_world
p1562
aaF0
aF-4.4408920985006262e-16
aF0
aF0
aF0
aF0
aF1
aF1
aF1
aF0
aa(lp1563
Veyebrow_in_l_anim
p1564
a(lp1565
VtranslateX
p1566
aVtranslateY
p1567
aVtranslateZ
p1568
aVrotateX
p1569
aVrotateY
p1570
aVrotateZ
p1571
aVscaleX
p1572
aVscaleY
p1573
aVscaleZ
p1574
aVspace_world
p1575
aaF-2.2204460492503131e-15
aF0
aF0
aF-7.9513867036587899e-16
aF-9.9392333795734899e-17
aF-3.5408518914730557e-15
aF1
aF1.0000000000000002
aF1.0000000000000002
aF0
aa(lp1576
Veyebrow_in_r_anim
p1577
a(lp1578
VtranslateX
p1579
aVtranslateY
p1580
aVtranslateZ
p1581
aVrotateX
p1582
aVrotateY
p1583
aVrotateZ
p1584
aVscaleX
p1585
aVscaleY
p1586
aVscaleZ
p1587
aVspace_world
p1588
aaF-1.7763568394002505e-15
aF0
aF-2.8421709430404007e-14
aF-7.9513867036587939e-16
aF-0
aF-1.8076980709099291e-15
aF0.99999999999999967
aF0.99999999999999978
aF0.99999999999999967
aF0
aa(lp1589
Veyebrow_mid_anim
p1590
a(lp1591
VtranslateX
p1592
aVtranslateY
p1593
aVtranslateZ
p1594
aVrotateX
p1595
aVrotateY
p1596
aVrotateZ
p1597
aVscaleX
p1598
aVscaleY
p1599
aVscaleZ
p1600
aVspace_world
p1601
aaF0
aF0
aF0
aF0
aF0
aF0
aF1
aF1
aF1
aF0
aa(lp1602
Veyebrow_out_l_anim
p1603
a(lp1604
VtranslateX
p1605
aVtranslateY
p1606
aVtranslateZ
p1607
aVrotateX
p1608
aVrotateY
p1609
aVrotateZ
p1610
aVscaleX
p1611
aVscaleY
p1612
aVscaleZ
p1613
aVspace_world
p1614
aaF7.1054273576010019e-15
aF1.4210854715202004e-14
aF0
aF0
aF-0
aF2.7829853462805772e-15
aF1
aF1
aF1
aF0
aa(lp1615
Veyebrow_out_r_anim
p1616
a(lp1617
VtranslateX
p1618
aVtranslateY
p1619
aVtranslateZ
p1620
aVrotateX
p1621
aVrotateY
p1622
aVrotateZ
p1623
aVscaleX
p1624
aVscaleY
p1625
aVscaleZ
p1626
aVspace_world
p1627
aaF0
aF0
aF-2.8421709430404007e-14
aF-3.1805546814635168e-15
aF1.590277340731758e-15
aF-7.1562480332929119e-15
aF1.0000000000000002
aF1
aF1.0000000000000004
aF0
aa(lp1628
Veyelid_bott_l_anim
p1629
a(lp1630
VtranslateX
p1631
aVtranslateY
p1632
aVtranslateZ
p1633
aVrotateX
p1634
aVrotateY
p1635
aVrotateZ
p1636
aVscaleX
p1637
aVscaleY
p1638
aVscaleZ
p1639
aVspace_world
p1640
aaF0
aF0
aF0
aF0
aF0
aF0
aF1
aF1
aF1
aF0
aa(lp1641
Veyelid_bott_r_anim
p1642
a(lp1643
VtranslateX
p1644
aVtranslateY
p1645
aVtranslateZ
p1646
aVrotateX
p1647
aVrotateY
p1648
aVrotateZ
p1649
aVscaleX
p1650
aVscaleY
p1651
aVscaleZ
p1652
aVspace_world
p1653
aaF0
aF0
aF0
aF0
aF0
aF0
aF1
aF1
aF1
aF0
aa(lp1654
Veyelid_top_l_anim
p1655
a(lp1656
VtranslateX
p1657
aVtranslateY
p1658
aVtranslateZ
p1659
aVrotateX
p1660
aVrotateY
p1661
aVrotateZ
p1662
aVscaleX
p1663
aVscaleY
p1664
aVscaleZ
p1665
aVspace_world
p1666
aaF0
aF0
aF0
aF0
aF0
aF0
aF1
aF1
aF1
aF0
aa(lp1667
Veyelid_top_r_anim
p1668
a(lp1669
VtranslateX
p1670
aVtranslateY
p1671
aVtranslateZ
p1672
aVrotateX
p1673
aVrotateY
p1674
aVrotateZ
p1675
aVscaleX
p1676
aVscaleY
p1677
aVscaleZ
p1678
aVspace_world
p1679
aaF0
aF-4.4408920985006262e-16
aF0
aF0
aF0
aF0
aF1
aF1
aF1
aF0
aa(lp1680
Vfeathers_anim
p1681
a(lp1682
VtranslateX
p1683
aVtranslateY
p1684
aVtranslateZ
p1685
aVrotateX
p1686
aVrotateY
p1687
aVrotateZ
p1688
aVscaleX
p1689
aVscaleY
p1690
aVscaleZ
p1691
aVspace_world
p1692
aaF0
aF0
aF0
aF0
aF0
aF0
aF1
aF1
aF1
aF0
aa(lp1693
Vfront_strap_dyn_anim
p1694
a(lp1695
VtranslateX
p1696
aVtranslateY
p1697
aVtranslateZ
p1698
aVrotateX
p1699
aVrotateY
p1700
aVrotateZ
p1701
aVchainAttach
p1702
aVchainStartFrame
p1703
aVchainStiffness
p1704
aVchainDamping
p1705
aVchainGravity
p1706
aVchainIteration
p1707
aVchainCollide
p1708
aVchainWidthBase
p1709
aVchainWidthExtremity
p1710
aVchainCollideGround
p1711
aVchainCollideGroundHeight
p1712
aaF0
aF0
aF0
aF0
aF0
aF0
aI0
aF0
aF0
aF0
aF0
aI0
aI00
aF0
aF0
aI00
aF0
aa(lp1713
Vfront_strap_ik_2_anim
p1714
a(lp1715
VtranslateX
p1716
aVtranslateY
p1717
aVtranslateZ
p1718
aVrotateX
p1719
aVrotateY
p1720
aVrotateZ
p1721
aaF0
aF0
aF0
aF0
aF0
aF0
aa(lp1722
Vfront_strap_ik_3_anim
p1723
a(lp1724
VtranslateX
p1725
aVtranslateY
p1726
aVtranslateZ
p1727
aVrotateX
p1728
aVrotateY
p1729
aVrotateZ
p1730
aVclusterControlVis
p1731
aaF0
aF0
aF0
aF0
aF0
aF0
aI00
aa(lp1732
Vfront_strap_ik_base_anim
p1733
a(lp1734
VtranslateX
p1735
aVtranslateY
p1736
aVtranslateZ
p1737
aVrotateX
p1738
aVrotateY
p1739
aVrotateZ
p1740
aVglobal_scale
p1741
aaF0
aF0
aF0
aF0
aF0
aF0
aF1
aa(lp1742
Vfk_front_strap_01_anim
p1743
a(lp1744
VtranslateX
p1745
aVtranslateY
p1746
aVtranslateZ
p1747
aVrotateX
p1748
aVrotateY
p1749
aVrotateZ
p1750
aVglobal_scale
p1751
aVlagMode
p1752
aaF0
aF0
aF0
aF19.235594518100815
aF14.924633804138002
aF2.4840399820042043
aF1
aF0
aa(lp1753
Vfront_strap_cv_0_anim
p1754
a(lp1755
VtranslateX
p1756
aVtranslateY
p1757
aVtranslateZ
p1758
aaF0
aF0
aF0
aa(lp1759
Vfk_front_strap_02_anim
p1760
a(lp1761
VtranslateX
p1762
aVtranslateY
p1763
aVtranslateZ
p1764
aVrotateX
p1765
aVrotateY
p1766
aVrotateZ
p1767
aaF0
aF0
aF0
aF16.054909545888275
aF0
aF0
aa(lp1768
Vfront_strap_cv_1_anim
p1769
a(lp1770
VtranslateX
p1771
aVtranslateY
p1772
aVtranslateZ
p1773
aaF0
aF0
aF0
aa(lp1774
Vfront_strap_small_anim
p1775
a(lp1776
VtranslateX
p1777
aVtranslateY
p1778
aVtranslateZ
p1779
aVrotateX
p1780
aVrotateY
p1781
aVrotateZ
p1782
aVscaleX
p1783
aVscaleY
p1784
aVscaleZ
p1785
aVspace_world
p1786
aaF0
aF-1.4210854715202004e-14
aF-1.7763568394002505e-15
aF0
aF0
aF0
aF1
aF1
aF1
aF0
aa(lp1787
Vhair_top_anim
p1788
a(lp1789
VtranslateX
p1790
aVtranslateY
p1791
aVtranslateZ
p1792
aVrotateX
p1793
aVrotateY
p1794
aVrotateZ
p1795
aVscaleX
p1796
aVscaleY
p1797
aVscaleZ
p1798
aVspace_world
p1799
aaF0
aF0
aF0
aF0
aF0
aF0
aF1
aF1
aF1
aF0
aa(lp1800
Vjaw_anim
p1801
a(lp1802
VtranslateX
p1803
aVtranslateY
p1804
aVtranslateZ
p1805
aVrotateX
p1806
aVrotateY
p1807
aVrotateZ
p1808
aVscaleX
p1809
aVscaleY
p1810
aVscaleZ
p1811
aVspace_world
p1812
aaF0
aF0
aF0
aF0
aF0
aF0
aF1
aF1
aF1
aF0
aa(lp1813
Vponytail_dyn_anim
p1814
a(lp1815
VtranslateX
p1816
aVtranslateY
p1817
aVtranslateZ
p1818
aVrotateX
p1819
aVrotateY
p1820
aVrotateZ
p1821
aVchainAttach
p1822
aVchainStartFrame
p1823
aVchainStiffness
p1824
aVchainDamping
p1825
aVchainGravity
p1826
aVchainIteration
p1827
aVchainCollide
p1828
aVchainWidthBase
p1829
aVchainWidthExtremity
p1830
aVchainCollideGround
p1831
aVchainCollideGroundHeight
p1832
aaF0
aF0
aF0
aF0
aF0
aF0
aI0
aF0
aF0
aF0
aF0
aI0
aI00
aF0
aF0
aI00
aF0
aa(lp1833
Vponytail_ik_2_anim
p1834
a(lp1835
VtranslateX
p1836
aVtranslateY
p1837
aVtranslateZ
p1838
aVrotateX
p1839
aVrotateY
p1840
aVrotateZ
p1841
aaF-2.3943289999999999
aF0.33431699999999998
aF-15.194801
aF0
aF0
aF0
aa(lp1842
Vponytail_ik_3_anim
p1843
a(lp1844
VtranslateX
p1845
aVtranslateY
p1846
aVtranslateZ
p1847
aVrotateX
p1848
aVrotateY
p1849
aVrotateZ
p1850
aVclusterControlVis
p1851
aaF5.274832
aF3.4124940000000001
aF-2.6392280000000001
aF0
aF0
aF0
aI00
aa(lp1852
Vponytail_ik_base_anim
p1853
a(lp1854
VtranslateX
p1855
aVtranslateY
p1856
aVtranslateZ
p1857
aVrotateX
p1858
aVrotateY
p1859
aVrotateZ
p1860
aVglobal_scale
p1861
aaF0
aF0
aF0
aF0
aF0
aF0
aF1
aa(lp1862
Vfk_ponytail_01_anim
p1863
a(lp1864
VtranslateX
p1865
aVtranslateY
p1866
aVtranslateZ
p1867
aVrotateX
p1868
aVrotateY
p1869
aVrotateZ
p1870
aVglobal_scale
p1871
aVlagMode
p1872
aaF0
aF0
aF0
aF0
aF0
aF0
aF1
aF0
aa(lp1873
Vponytail_cv_0_anim
p1874
a(lp1875
VtranslateX
p1876
aVtranslateY
p1877
aVtranslateZ
p1878
aaF0
aF0
aF0
aa(lp1879
Vfk_ponytail_02_anim
p1880
a(lp1881
VtranslateX
p1882
aVtranslateY
p1883
aVtranslateZ
p1884
aVrotateX
p1885
aVrotateY
p1886
aVrotateZ
p1887
aaF0
aF0
aF0
aF0
aF0
aF0
aa(lp1888
Vponytail_cv_1_anim
p1889
a(lp1890
VtranslateX
p1891
aVtranslateY
p1892
aVtranslateZ
p1893
aaF0
aF0
aF0
aa(lp1894
Vfk_ponytail_03_anim
p1895
a(lp1896
VtranslateX
p1897
aVtranslateY
p1898
aVtranslateZ
p1899
aVrotateX
p1900
aVrotateY
p1901
aVrotateZ
p1902
aaF0
aF0
aF0
aF0
aF0
aF0
aa(lp1903
Vponytail_cv_2_anim
p1904
a(lp1905
VtranslateX
p1906
aVtranslateY
p1907
aVtranslateZ
p1908
aaF0
aF0
aF0
aa(lp1909
Vfk_ponytail_04_anim
p1910
a(lp1911
VtranslateX
p1912
aVtranslateY
p1913
aVtranslateZ
p1914
aVrotateX
p1915
aVrotateY
p1916
aVrotateZ
p1917
aaF0
aF0
aF0
aF0
aF0
aF0
aa(lp1918
Vponytail_cv_3_anim
p1919
a(lp1920
VtranslateX
p1921
aVtranslateY
p1922
aVtranslateZ
p1923
aaF0
aF0
aF0
aa(lp1924
Vquiver_anim
p1925
a(lp1926
VtranslateX
p1927
aVtranslateY
p1928
aVtranslateZ
p1929
aVrotateX
p1930
aVrotateY
p1931
aVrotateZ
p1932
aVscaleX
p1933
aVscaleY
p1934
aVscaleZ
p1935
aVspace_world
p1936
aaF0
aF8.8817841970012523e-16
aF0
aF-3.975693351829395e-16
aF-0
aF0
aF1.0000000000000002
aF1.0000000000000002
aF1.0000000000000002
aF0
aa(lp1937
Vskirt_back_cloth_dyn_anim
p1938
a(lp1939
VtranslateX
p1940
aVtranslateY
p1941
aVtranslateZ
p1942
aVrotateX
p1943
aVrotateY
p1944
aVrotateZ
p1945
aVchainAttach
p1946
aVchainStartFrame
p1947
aVchainStiffness
p1948
aVchainDamping
p1949
aVchainGravity
p1950
aVchainIteration
p1951
aVchainCollide
p1952
aVchainWidthBase
p1953
aVchainWidthExtremity
p1954
aVchainCollideGround
p1955
aVchainCollideGroundHeight
p1956
aaF0
aF0
aF0
aF0
aF0
aF0
aI0
aF0
aF0
aF0
aF0
aI0
aI00
aF0
aF0
aI00
aF0
aa(lp1957
Vskirt_back_cloth_ik_2_anim
p1958
a(lp1959
VtranslateX
p1960
aVtranslateY
p1961
aVtranslateZ
p1962
aVrotateX
p1963
aVrotateY
p1964
aVrotateZ
p1965
aaF0
aF0
aF0
aF0
aF0
aF0
aa(lp1966
Vskirt_back_cloth_ik_3_anim
p1967
a(lp1968
VtranslateX
p1969
aVtranslateY
p1970
aVtranslateZ
p1971
aVrotateX
p1972
aVrotateY
p1973
aVrotateZ
p1974
aVclusterControlVis
p1975
aaF0
aF0
aF0
aF0
aF0
aF0
aI00
aa(lp1976
Vskirt_back_cloth_ik_base_anim
p1977
a(lp1978
VtranslateX
p1979
aVtranslateY
p1980
aVtranslateZ
p1981
aVrotateX
p1982
aVrotateY
p1983
aVrotateZ
p1984
aVglobal_scale
p1985
aaF0
aF0
aF0
aF0
aF0
aF0
aF1
aa(lp1986
Vfk_skirt_back_cloth_01_anim
p1987
a(lp1988
VtranslateX
p1989
aVtranslateY
p1990
aVtranslateZ
p1991
aVrotateX
p1992
aVrotateY
p1993
aVrotateZ
p1994
aVglobal_scale
p1995
aVlagMode
p1996
aaF0
aF0
aF0
aF0
aF0
aF0
aF1
aF0
aa(lp1997
Vskirt_back_cloth_cv_0_anim
p1998
a(lp1999
VtranslateX
p2000
aVtranslateY
p2001
aVtranslateZ
p2002
aaF0
aF0
aF0
aa(lp2003
Vfk_skirt_back_cloth_02_anim
p2004
a(lp2005
VtranslateX
p2006
aVtranslateY
p2007
aVtranslateZ
p2008
aVrotateX
p2009
aVrotateY
p2010
aVrotateZ
p2011
aaF0
aF0
aF0
aF0
aF0
aF0
aa(lp2012
Vskirt_back_cloth_cv_1_anim
p2013
a(lp2014
VtranslateX
p2015
aVtranslateY
p2016
aVtranslateZ
p2017
aaF0
aF0
aF0
aa(lp2018
Vskirt_cloth_l_dyn_anim
p2019
a(lp2020
VtranslateX
p2021
aVtranslateY
p2022
aVtranslateZ
p2023
aVrotateX
p2024
aVrotateY
p2025
aVrotateZ
p2026
aVchainAttach
p2027
aVchainStartFrame
p2028
aVchainStiffness
p2029
aVchainDamping
p2030
aVchainGravity
p2031
aVchainIteration
p2032
aVchainCollide
p2033
aVchainWidthBase
p2034
aVchainWidthExtremity
p2035
aVchainCollideGround
p2036
aVchainCollideGroundHeight
p2037
aaF0
aF0
aF0
aF0
aF0
aF0
aI0
aF0
aF0
aF0
aF0
aI0
aI00
aF0
aF0
aI00
aF0
aa(lp2038
Vskirt_cloth_l_ik_2_anim
p2039
a(lp2040
VtranslateX
p2041
aVtranslateY
p2042
aVtranslateZ
p2043
aVrotateX
p2044
aVrotateY
p2045
aVrotateZ
p2046
aaF0
aF0
aF0
aF0
aF0
aF0
aa(lp2047
Vskirt_cloth_l_ik_3_anim
p2048
a(lp2049
VtranslateX
p2050
aVtranslateY
p2051
aVtranslateZ
p2052
aVrotateX
p2053
aVrotateY
p2054
aVrotateZ
p2055
aVclusterControlVis
p2056
aaF0
aF0
aF0
aF0
aF0
aF0
aI00
aa(lp2057
Vskirt_cloth_l_ik_base_anim
p2058
a(lp2059
VtranslateX
p2060
aVtranslateY
p2061
aVtranslateZ
p2062
aVrotateX
p2063
aVrotateY
p2064
aVrotateZ
p2065
aVglobal_scale
p2066
aaF0
aF0
aF0
aF0
aF0
aF0
aF1
aa(lp2067
Vfk_skirt_cloth_l_01_anim
p2068
a(lp2069
VtranslateX
p2070
aVtranslateY
p2071
aVtranslateZ
p2072
aVrotateX
p2073
aVrotateY
p2074
aVrotateZ
p2075
aVglobal_scale
p2076
aVlagMode
p2077
aaF0
aF0
aF0
aF0
aF-6.9447372563502023
aF17.696000377182916
aF1
aF0
aa(lp2078
Vskirt_cloth_l_cv_0_anim
p2079
a(lp2080
VtranslateX
p2081
aVtranslateY
p2082
aVtranslateZ
p2083
aaF0
aF0
aF0
aa(lp2084
Vfk_skirt_cloth_l_02_anim
p2085
a(lp2086
VtranslateX
p2087
aVtranslateY
p2088
aVtranslateZ
p2089
aVrotateX
p2090
aVrotateY
p2091
aVrotateZ
p2092
aaF0
aF0
aF0
aF0
aF0
aF0
aa(lp2093
Vskirt_cloth_l_cv_1_anim
p2094
a(lp2095
VtranslateX
p2096
aVtranslateY
p2097
aVtranslateZ
p2098
aaF0
aF0
aF0
aa(lp2099
Vskirt_front_cloth_dyn_anim
p2100
a(lp2101
VtranslateX
p2102
aVtranslateY
p2103
aVtranslateZ
p2104
aVrotateX
p2105
aVrotateY
p2106
aVrotateZ
p2107
aVchainAttach
p2108
aVchainStartFrame
p2109
aVchainStiffness
p2110
aVchainDamping
p2111
aVchainGravity
p2112
aVchainIteration
p2113
aVchainCollide
p2114
aVchainWidthBase
p2115
aVchainWidthExtremity
p2116
aVchainCollideGround
p2117
aVchainCollideGroundHeight
p2118
aaF0
aF0
aF0
aF0
aF0
aF0
aI0
aF0
aF0
aF0
aF0
aI0
aI00
aF0
aF0
aI00
aF0
aa(lp2119
Vskirt_front_cloth_ik_2_anim
p2120
a(lp2121
VtranslateX
p2122
aVtranslateY
p2123
aVtranslateZ
p2124
aVrotateX
p2125
aVrotateY
p2126
aVrotateZ
p2127
aaF0
aF0
aF0
aF0
aF0
aF0
aa(lp2128
Vskirt_front_cloth_ik_3_anim
p2129
a(lp2130
VtranslateX
p2131
aVtranslateY
p2132
aVtranslateZ
p2133
aVrotateX
p2134
aVrotateY
p2135
aVrotateZ
p2136
aVclusterControlVis
p2137
aaF0
aF0
aF0
aF0
aF0
aF0
aI00
aa(lp2138
Vskirt_front_cloth_ik_base_anim
p2139
a(lp2140
VtranslateX
p2141
aVtranslateY
p2142
aVtranslateZ
p2143
aVrotateX
p2144
aVrotateY
p2145
aVrotateZ
p2146
aVglobal_scale
p2147
aaF0
aF0
aF0
aF0
aF0
aF0
aF1
aa(lp2148
Vfk_skirt_front_cloth_01_anim
p2149
a(lp2150
VtranslateX
p2151
aVtranslateY
p2152
aVtranslateZ
p2153
aVrotateX
p2154
aVrotateY
p2155
aVrotateZ
p2156
aVglobal_scale
p2157
aVlagMode
p2158
aaF0
aF0
aF0
aF-9.0260513539181141e-14
aF3.980854897746767e-14
aF18.182243448102959
aF1
aF0
aa(lp2159
Vskirt_front_cloth_cv_0_anim
p2160
a(lp2161
VtranslateX
p2162
aVtranslateY
p2163
aVtranslateZ
p2164
aaF0
aF0
aF0
aa(lp2165
Vfk_skirt_front_cloth_02_anim
p2166
a(lp2167
VtranslateX
p2168
aVtranslateY
p2169
aVtranslateZ
p2170
aVrotateX
p2171
aVrotateY
p2172
aVrotateZ
p2173
aaF0
aF0
aF0
aF0
aF0
aF0
aa(lp2174
Vskirt_front_cloth_cv_1_anim
p2175
a(lp2176
VtranslateX
p2177
aVtranslateY
p2178
aVtranslateZ
p2179
aaF0
aF0
aF0
aa(lp2180
Vhair_curls_A_l_01_anim
p2181
a(lp2182
VtranslateX
p2183
aVtranslateY
p2184
aVtranslateZ
p2185
aVrotateX
p2186
aVrotateY
p2187
aVrotateZ
p2188
aVscaleX
p2189
aVscaleY
p2190
aVscaleZ
p2191
aVspace_world
p2192
aaF8.8817841970012523e-16
aF0
aF8.8817841970012523e-16
aF-1.987846675914698e-16
aF1.6958816953897266e-15
aF1.987846675914698e-16
aF1
aF1
aF0.99999999999999967
aF0
aa(lp2193
Vhair_curls_A_r_01_anim
p2194
a(lp2195
VtranslateX
p2196
aVtranslateY
p2197
aVtranslateZ
p2198
aVrotateX
p2199
aVrotateY
p2200
aVrotateZ
p2201
aVscaleX
p2202
aVscaleY
p2203
aVscaleZ
p2204
aVspace_world
p2205
aaF0
aF0
aF1.3322676295501878e-15
aF0
aF5.9324799234329268e-15
aF1.987846675914698e-16
aF1
aF1
aF1
aF0
aa(lp2206
Vhair_curls_B_l_01_anim
p2207
a(lp2208
VtranslateX
p2209
aVtranslateY
p2210
aVtranslateZ
p2211
aVrotateX
p2212
aVrotateY
p2213
aVrotateZ
p2214
aVscaleX
p2215
aVscaleY
p2216
aVscaleZ
p2217
aVspace_world
p2218
aaF0
aF5.6843418860808015e-14
aF0
aF-9.9392333795734899e-17
aF1.2268741202911023e-15
aF3.975693351829395e-16
aF1.0000000000000002
aF1
aF1.0000000000000002
aF0
aa(lp2219
Vhair_curls_B_r_01_anim
p2220
a(lp2221
VtranslateX
p2222
aVtranslateY
p2223
aVtranslateZ
p2224
aVrotateX
p2225
aVrotateY
p2226
aVrotateZ
p2227
aVscaleX
p2228
aVscaleY
p2229
aVscaleZ
p2230
aVspace_world
p2231
aaF0
aF0
aF0
aF-9.9392333795734924e-17
aF3.2985830778459521e-15
aF0
aF1
aF0.99999999999999989
aF1
aF0
aa(lp2232
Varrow_nock_anim_space_switcher
p2233
a(lp2234
Vvisibility
p2235
aVtranslateX
p2236
aVtranslateY
p2237
aVtranslateZ
p2238
aVrotateX
p2239
aVrotateY
p2240
aVrotateZ
p2241
aVscaleX
p2242
aVscaleY
p2243
aVscaleZ
p2244
aaI01
aF0
aF-1.1102230246251565e-16
aF0
aF-1.2424041724466862e-17
aF-6.2120208622334312e-18
aF-1.932884850707828e-16
aF1
aF1
aF1
aa(lp2245
Vbody_anim_space_switcher
p2246
a(lp2247
Vvisibility
p2248
aVtranslateX
p2249
aVtranslateY
p2250
aVtranslateZ
p2251
aVrotateX
p2252
aVrotateY
p2253
aVrotateZ
p2254
aVscaleX
p2255
aVscaleY
p2256
aVscaleZ
p2257
aaI01
aF0
aF0
aF0
aF0
aF0
aF0
aF1
aF1
aF1
aa(lp2258
Vbow_base_anim_space_switcher
p2259
a(lp2260
Vvisibility
p2261
aVtranslateX
p2262
aVtranslateY
p2263
aVtranslateZ
p2264
aVrotateX
p2265
aVrotateY
p2266
aVrotateZ
p2267
aVscaleX
p2268
aVscaleY
p2269
aVscaleZ
p2270
aaI01
aF0
aF0
aF0
aF1.2424041724466859e-17
aF-6.2120208622334312e-18
aF-1.086739665293454e-16
aF1
aF1.0000000000000002
aF1
aa(lp2271
Vbow_shaft_bott_01_anim_space_switcher
p2272
a(lp2273
Vvisibility
p2274
aVtranslateX
p2275
aVtranslateY
p2276
aVtranslateZ
p2277
aVrotateX
p2278
aVrotateY
p2279
aVrotateZ
p2280
aVscaleX
p2281
aVscaleY
p2282
aVscaleZ
p2283
aaI01
aF2.7755575615628914e-17
aF0
aF-8.8817841970012523e-16
aF0
aF6.2120208622334312e-18
aF-1.5907383891551272e-16
aF1
aF1
aF1
aa(lp2284
Vbow_shaft_bott_02_anim_space_switcher
p2285
a(lp2286
Vvisibility
p2287
aVtranslateX
p2288
aVtranslateY
p2289
aVtranslateZ
p2290
aVrotateX
p2291
aVrotateY
p2292
aVrotateZ
p2293
aVscaleX
p2294
aVscaleY
p2295
aVscaleZ
p2296
aaI01
aF0
aF8.8817841970012523e-16
aF3.5527136788005009e-15
aF0
aF6.2120208622334312e-18
aF-1.5907383891551272e-16
aF1
aF1
aF1
aa(lp2297
Vbow_shaft_bott_03_anim_space_switcher
p2298
a(lp2299
Vvisibility
p2300
aVtranslateX
p2301
aVtranslateY
p2302
aVtranslateZ
p2303
aVrotateX
p2304
aVrotateY
p2305
aVrotateZ
p2306
aVscaleX
p2307
aVscaleY
p2308
aVscaleZ
p2309
aaI01
aF-5.5511151231257827e-17
aF0
aF7.1054273576010019e-15
aF0
aF6.2120208622334312e-18
aF-1.5907383891551272e-16
aF1
aF1
aF1
aa(lp2310
Vbow_shaft_top_01_anim_space_switcher
p2311
a(lp2312
Vvisibility
p2313
aVtranslateX
p2314
aVtranslateY
p2315
aVtranslateZ
p2316
aVrotateX
p2317
aVrotateY
p2318
aVrotateZ
p2319
aVscaleX
p2320
aVscaleY
p2321
aVscaleZ
p2322
aaI01
aF0
aF0
aF0
aF1.2424041724466859e-17
aF-0
aF-1.0951113340335732e-16
aF1
aF1.0000000000000002
aF1
aa(lp2323
Vbow_shaft_top_02_anim_space_switcher
p2324
a(lp2325
Vvisibility
p2326
aVtranslateX
p2327
aVtranslateY
p2328
aVtranslateZ
p2329
aVrotateX
p2330
aVrotateY
p2331
aVrotateZ
p2332
aVscaleX
p2333
aVscaleY
p2334
aVscaleZ
p2335
aaI01
aF0
aF8.8817841970012523e-16
aF0
aF1.2424041724466859e-17
aF-0
aF-1.0951113340335732e-16
aF1
aF1.0000000000000002
aF1
aa(lp2336
Vbow_shaft_top_03_anim_space_switcher
p2337
a(lp2338
Vvisibility
p2339
aVtranslateX
p2340
aVtranslateY
p2341
aVtranslateZ
p2342
aVrotateX
p2343
aVrotateY
p2344
aVrotateZ
p2345
aVscaleX
p2346
aVscaleY
p2347
aVscaleZ
p2348
aaI01
aF0
aF-8.8817841970012523e-16
aF7.1054273576010019e-15
aF1.2424041724466859e-17
aF-0
aF-1.0951113340335732e-16
aF1
aF1.0000000000000002
aF1
aa(lp2349
Vbow_string_bott_anim_space_switcher
p2350
a(lp2351
Vvisibility
p2352
aVtranslateX
p2353
aVtranslateY
p2354
aVtranslateZ
p2355
aVrotateX
p2356
aVrotateY
p2357
aVrotateZ
p2358
aVscaleX
p2359
aVscaleY
p2360
aVscaleZ
p2361
aaI01
aF-8.3266726846886741e-17
aF-1.7763568394002505e-15
aF-7.1054273576010019e-15
aF0
aF6.2120208622334312e-18
aF-1.5907383891551272e-16
aF1
aF1
aF1
aa(lp2362
Vbow_string_mid_anim_space_switcher
p2363
a(lp2364
Vvisibility
p2365
aVtranslateX
p2366
aVtranslateY
p2367
aVtranslateZ
p2368
aVrotateX
p2369
aVrotateY
p2370
aVrotateZ
p2371
aVscaleX
p2372
aVscaleY
p2373
aVscaleZ
p2374
aaI01
aF-5.5511151231257827e-17
aF3.5527136788005009e-15
aF-1.3877787807814457e-17
aF1.2424041724466859e-17
aF-0
aF-1.0951113340335732e-16
aF1
aF1.0000000000000002
aF1
aa(lp2375
Vbow_string_top_anim_space_switcher
p2376
a(lp2377
Vvisibility
p2378
aVtranslateX
p2379
aVtranslateY
p2380
aVtranslateZ
p2381
aVrotateX
p2382
aVrotateY
p2383
aVrotateZ
p2384
aVscaleX
p2385
aVscaleY
p2386
aVscaleZ
p2387
aaI01
aF-2.7755575615628914e-17
aF1.7763568394002505e-15
aF-7.1054273576010019e-15
aF1.2424041724466859e-17
aF-0
aF-1.0951113340335732e-16
aF1
aF1.0000000000000002
aF1
aa(lp2388
Vbreast_chain_anim_space_switcher
p2389
a(lp2390
Vvisibility
p2391
aVtranslateX
p2392
aVtranslateY
p2393
aVtranslateZ
p2394
aVrotateX
p2395
aVrotateY
p2396
aVrotateZ
p2397
aVscaleX
p2398
aVscaleY
p2399
aVscaleZ
p2400
aaI01
aF0
aF0
aF0
aF0
aF0
aF0
aF1
aF1
aF1
aa(lp2401
Vbrooch_back_l_anim_space_switcher
p2402
a(lp2403
Vvisibility
p2404
aVtranslateX
p2405
aVtranslateY
p2406
aVtranslateZ
p2407
aVrotateX
p2408
aVrotateY
p2409
aVrotateZ
p2410
aVscaleX
p2411
aVscaleY
p2412
aVscaleZ
p2413
aaI01
aF-2.7755575615628914e-17
aF3.5527136788005009e-15
aF0
aF0
aF0
aF0
aF1
aF1.0000000000000002
aF1.0000000000000002
aa(lp2414
Vbrooch_back_r_anim_space_switcher
p2415
a(lp2416
Vvisibility
p2417
aVtranslateX
p2418
aVtranslateY
p2419
aVtranslateZ
p2420
aVrotateX
p2421
aVrotateY
p2422
aVrotateZ
p2423
aVscaleX
p2424
aVscaleY
p2425
aVscaleZ
p2426
aaI01
aF0
aF-3.5527136788005009e-15
aF0
aF0
aF0
aF0
aF1
aF1
aF1
aa(lp2427
Vbrooch_front_l_anim_space_switcher
p2428
a(lp2429
Vvisibility
p2430
aVtranslateX
p2431
aVtranslateY
p2432
aVtranslateZ
p2433
aVrotateX
p2434
aVrotateY
p2435
aVrotateZ
p2436
aVscaleX
p2437
aVscaleY
p2438
aVscaleZ
p2439
aaI01
aF-5.5511151231257827e-17
aF0
aF1.4210854715202004e-14
aF-3.180554681463516e-15
aF-0
aF0
aF1
aF1.0000000000000002
aF1.0000000000000002
aa(lp2440
Vbrooch_front_r_anim_space_switcher
p2441
a(lp2442
Vvisibility
p2443
aVtranslateX
p2444
aVtranslateY
p2445
aVtranslateZ
p2446
aVrotateX
p2447
aVrotateY
p2448
aVrotateZ
p2449
aVscaleX
p2450
aVscaleY
p2451
aVscaleZ
p2452
aaI01
aF-5.5511151231257827e-17
aF1.4210854715202004e-14
aF-1.4210854715202004e-14
aF3.1805546814635168e-15
aF-0
aF0
aF1
aF1
aF1
aa(lp2453
Vchest_ik_anim_space_switcher
p2454
a(lp2455
Vvisibility
p2456
aVtranslateX
p2457
aVtranslateY
p2458
aVtranslateZ
p2459
aVrotateX
p2460
aVrotateY
p2461
aVrotateZ
p2462
aVscaleX
p2463
aVscaleY
p2464
aVscaleZ
p2465
aaI01
aF0
aF0
aF0
aF7.0622500768802538e-31
aF-0
aF0
aF1
aF1
aF1
aa(lp2466
Veyeball_l_anim_space_switcher
p2467
a(lp2468
Vvisibility
p2469
aVtranslateX
p2470
aVtranslateY
p2471
aVtranslateZ
p2472
aVrotateX
p2473
aVrotateY
p2474
aVrotateZ
p2475
aVscaleX
p2476
aVscaleY
p2477
aVscaleZ
p2478
aaI01
aF0
aF0
aF0
aF0
aF0
aF0
aF1
aF1
aF1
aa(lp2479
Veyeball_r_anim_space_switcher
p2480
a(lp2481
Vvisibility
p2482
aVtranslateX
p2483
aVtranslateY
p2484
aVtranslateZ
p2485
aVrotateX
p2486
aVrotateY
p2487
aVrotateZ
p2488
aVscaleX
p2489
aVscaleY
p2490
aVscaleZ
p2491
aaI01
aF0
aF-4.4408920985006262e-16
aF0
aF0
aF0
aF0
aF1
aF1
aF1
aa(lp2492
Veyebrow_in_l_anim_space_switcher
p2493
a(lp2494
Vvisibility
p2495
aVtranslateX
p2496
aVtranslateY
p2497
aVtranslateZ
p2498
aVrotateX
p2499
aVrotateY
p2500
aVrotateZ
p2501
aVscaleX
p2502
aVscaleY
p2503
aVscaleZ
p2504
aaI01
aF-2.2204460492503131e-16
aF3.5527136788005009e-15
aF0
aF0
aF1.987846675914698e-16
aF-3.5408518914730558e-16
aF1
aF0.99999999999999989
aF1
aa(lp2505
Veyebrow_in_r_anim_space_switcher
p2506
a(lp2507
Vvisibility
p2508
aVtranslateX
p2509
aVtranslateY
p2510
aVtranslateZ
p2511
aVrotateX
p2512
aVrotateY
p2513
aVrotateZ
p2514
aVscaleX
p2515
aVscaleY
p2516
aVscaleZ
p2517
aaI01
aF1.5543122344752192e-15
aF0
aF2.8421709430404007e-14
aF-7.9513867036587939e-16
aF2.981770013872048e-16
aF-5.0006767940979135e-15
aF0.99999999999999978
aF0.99999999999999989
aF0.99999999999999978
aa(lp2518
Veyebrow_mid_anim_space_switcher
p2519
a(lp2520
Vvisibility
p2521
aVtranslateX
p2522
aVtranslateY
p2523
aVtranslateZ
p2524
aVrotateX
p2525
aVrotateY
p2526
aVrotateZ
p2527
aVscaleX
p2528
aVscaleY
p2529
aVscaleZ
p2530
aaI01
aF0
aF0
aF0
aF0
aF0
aF0
aF1
aF1
aF1
aa(lp2531
Veyebrow_out_l_anim_space_switcher
p2532
a(lp2533
Vvisibility
p2534
aVtranslateX
p2535
aVtranslateY
p2536
aVtranslateZ
p2537
aVrotateX
p2538
aVrotateY
p2539
aVrotateZ
p2540
aVscaleX
p2541
aVscaleY
p2542
aVscaleZ
p2543
aaI01
aF7.1054273576010019e-15
aF-7.1054273576010019e-15
aF0
aF0
aF3.1805546814635168e-15
aF0
aF1
aF1
aF1.0000000000000002
aa(lp2544
Veyebrow_out_r_anim_space_switcher
p2545
a(lp2546
Vvisibility
p2547
aVtranslateX
p2548
aVtranslateY
p2549
aVtranslateZ
p2550
aVrotateX
p2551
aVrotateY
p2552
aVrotateZ
p2553
aVscaleX
p2554
aVscaleY
p2555
aVscaleZ
p2556
aaI01
aF7.1054273576010019e-15
aF0
aF0
aF-3.180554681463516e-15
aF1.5902773407317584e-15
aF-7.9513867036587919e-16
aF1
aF1.0000000000000002
aF1
aa(lp2557
Veyelid_bott_l_anim_space_switcher
p2558
a(lp2559
Vvisibility
p2560
aVtranslateX
p2561
aVtranslateY
p2562
aVtranslateZ
p2563
aVrotateX
p2564
aVrotateY
p2565
aVrotateZ
p2566
aVscaleX
p2567
aVscaleY
p2568
aVscaleZ
p2569
aaI01
aF0
aF0
aF0
aF0
aF0
aF0
aF1
aF1
aF1
aa(lp2570
Veyelid_bott_r_anim_space_switcher
p2571
a(lp2572
Vvisibility
p2573
aVtranslateX
p2574
aVtranslateY
p2575
aVtranslateZ
p2576
aVrotateX
p2577
aVrotateY
p2578
aVrotateZ
p2579
aVscaleX
p2580
aVscaleY
p2581
aVscaleZ
p2582
aaI01
aF0
aF-8.8817841970012523e-16
aF0
aF0
aF0
aF0
aF1
aF1
aF1
aa(lp2583
Veyelid_top_l_anim_space_switcher
p2584
a(lp2585
Vvisibility
p2586
aVtranslateX
p2587
aVtranslateY
p2588
aVtranslateZ
p2589
aVrotateX
p2590
aVrotateY
p2591
aVrotateZ
p2592
aVscaleX
p2593
aVscaleY
p2594
aVscaleZ
p2595
aaI01
aF0
aF0
aF0
aF0
aF0
aF0
aF1
aF1
aF1
aa(lp2596
Veyelid_top_r_anim_space_switcher
p2597
a(lp2598
Vvisibility
p2599
aVtranslateX
p2600
aVtranslateY
p2601
aVtranslateZ
p2602
aVrotateX
p2603
aVrotateY
p2604
aVrotateZ
p2605
aVscaleX
p2606
aVscaleY
p2607
aVscaleZ
p2608
aaI01
aF0
aF8.8817841970012523e-16
aF2.8421709430404007e-14
aF0
aF0
aF0
aF1
aF1
aF1
aa(lp2609
Vfeathers_anim_space_switcher
p2610
a(lp2611
Vvisibility
p2612
aVtranslateX
p2613
aVtranslateY
p2614
aVtranslateZ
p2615
aVrotateX
p2616
aVrotateY
p2617
aVrotateZ
p2618
aVscaleX
p2619
aVscaleY
p2620
aVscaleZ
p2621
aaI01
aF0
aF0
aF0
aF0
aF0
aF0
aF1
aF1
aF1
aa(lp2622
Vfront_strap_small_anim_space_switcher
p2623
a(lp2624
Vvisibility
p2625
aVtranslateX
p2626
aVtranslateY
p2627
aVtranslateZ
p2628
aVrotateX
p2629
aVrotateY
p2630
aVrotateZ
p2631
aVscaleX
p2632
aVscaleY
p2633
aVscaleZ
p2634
aaI01
aF0
aF1.4210854715202004e-14
aF1.7763568394002505e-15
aF0
aF0
aF0
aF1
aF1
aF1
aa(lp2635
Vhair_curls_A_l_01_anim_space_switcher
p2636
a(lp2637
Vvisibility
p2638
aVtranslateX
p2639
aVtranslateY
p2640
aVtranslateZ
p2641
aVrotateX
p2642
aVrotateY
p2643
aVrotateZ
p2644
aVscaleX
p2645
aVscaleY
p2646
aVscaleZ
p2647
aaI01
aF1.7763568394002505e-15
aF0
aF-4.4408920985006262e-16
aF1.9878466759146985e-16
aF1.6772456328030265e-15
aF0
aF1
aF0.99999999999999989
aF0.99999999999999978
aa(lp2648
Vhair_curls_A_r_01_anim_space_switcher
p2649
a(lp2650
Vvisibility
p2651
aVtranslateX
p2652
aVtranslateY
p2653
aVtranslateZ
p2654
aVrotateX
p2655
aVrotateY
p2656
aVrotateZ
p2657
aVscaleX
p2658
aVscaleY
p2659
aVscaleZ
p2660
aaI01
aF8.8817841970012523e-16
aF0
aF-2.2204460492503131e-15
aF0
aF5.9324799234329268e-15
aF1.987846675914698e-16
aF1
aF1
aF1
aa(lp2661
Vhair_curls_B_l_01_anim_space_switcher
p2662
a(lp2663
Vvisibility
p2664
aVtranslateX
p2665
aVtranslateY
p2666
aVtranslateZ
p2667
aVrotateX
p2668
aVrotateY
p2669
aVrotateZ
p2670
aVscaleX
p2671
aVscaleY
p2672
aVscaleZ
p2673
aaI01
aF0
aF0
aF-8.8817841970012523e-16
aF-9.9392333795734874e-17
aF-1.9536805611724139e-15
aF0
aF1.0000000000000002
aF1.0000000000000002
aF1
aa(lp2674
Vhair_curls_B_r_01_anim_space_switcher
p2675
a(lp2676
Vvisibility
p2677
aVtranslateX
p2678
aVtranslateY
p2679
aVtranslateZ
p2680
aVrotateX
p2681
aVrotateY
p2682
aVrotateZ
p2683
aVscaleX
p2684
aVscaleY
p2685
aVscaleZ
p2686
aaI01
aF0
aF0
aF1.7763568394002505e-15
aF0
aF1.1181637552020177e-16
aF0
aF1
aF1.0000000000000002
aF1
aa(lp2687
Vhair_top_anim_space_switcher
p2688
a(lp2689
Vvisibility
p2690
aVtranslateX
p2691
aVtranslateY
p2692
aVtranslateZ
p2693
aVrotateX
p2694
aVrotateY
p2695
aVrotateZ
p2696
aVscaleX
p2697
aVscaleY
p2698
aVscaleZ
p2699
aaI01
aF1.1102230246251565e-16
aF0
aF0
aF0
aF0
aF0
aF1
aF1
aF1
aa(lp2700
Vik_elbow_l_anim_space_switcher
p2701
a(lp2702
Vvisibility
p2703
aVtranslateX
p2704
aVtranslateY
p2705
aVtranslateZ
p2706
aVrotateX
p2707
aVrotateY
p2708
aVrotateZ
p2709
aVscaleX
p2710
aVscaleY
p2711
aVscaleZ
p2712
aaI00
aF0
aF0
aF0
aF0
aF0
aF0
aF1
aF1
aF1
aa(lp2713
Vik_elbow_r_anim_space_switcher
p2714
a(lp2715
Vvisibility
p2716
aVtranslateX
p2717
aVtranslateY
p2718
aVtranslateZ
p2719
aVrotateX
p2720
aVrotateY
p2721
aVrotateZ
p2722
aVscaleX
p2723
aVscaleY
p2724
aVscaleZ
p2725
aaI01
aF0
aF0
aF0
aF0
aF0
aF0
aF1
aF1
aF1
aa(lp2726
Vik_foot_anim_l_space_switcher
p2727
a(lp2728
Vvisibility
p2729
aVtranslateX
p2730
aVtranslateY
p2731
aVtranslateZ
p2732
aVrotateX
p2733
aVrotateY
p2734
aVrotateZ
p2735
aVscaleX
p2736
aVscaleY
p2737
aVscaleZ
p2738
aaI01
aF0
aF0
aF0
aF0
aF0
aF0
aF1
aF1
aF1
aa(lp2739
Vik_foot_anim_r_space_switcher
p2740
a(lp2741
Vvisibility
p2742
aVtranslateX
p2743
aVtranslateY
p2744
aVtranslateZ
p2745
aVrotateX
p2746
aVrotateY
p2747
aVrotateZ
p2748
aVscaleX
p2749
aVscaleY
p2750
aVscaleZ
p2751
aaI01
aF0
aF0
aF0
aF0
aF0
aF0
aF1
aF1
aF1
aa(lp2752
Vik_wrist_l_anim_space_switcher
p2753
a(lp2754
Vvisibility
p2755
aVtranslateX
p2756
aVtranslateY
p2757
aVtranslateZ
p2758
aVrotateX
p2759
aVrotateY
p2760
aVrotateZ
p2761
aVscaleX
p2762
aVscaleY
p2763
aVscaleZ
p2764
aaI00
aF0
aF0
aF0
aF0
aF0
aF0
aF1
aF1
aF1
aa(lp2765
Vik_wrist_r_anim_space_switcher
p2766
a(lp2767
Vvisibility
p2768
aVtranslateX
p2769
aVtranslateY
p2770
aVtranslateZ
p2771
aVrotateX
p2772
aVrotateY
p2773
aVrotateZ
p2774
aVscaleX
p2775
aVscaleY
p2776
aVscaleZ
p2777
aaI01
aF0
aF0
aF0
aF0
aF0
aF0
aF1
aF1
aF1
aa(lp2778
Vjaw_anim_space_switcher
p2779
a(lp2780
Vvisibility
p2781
aVtranslateX
p2782
aVtranslateY
p2783
aVtranslateZ
p2784
aVrotateX
p2785
aVrotateY
p2786
aVrotateZ
p2787
aVscaleX
p2788
aVscaleY
p2789
aVscaleZ
p2790
aaI01
aF1.2621774483536189e-29
aF0
aF0
aF0
aF0
aF0
aF1
aF1
aF1
aa(lp2791
Vl_global_ik_anim_space_switcher
p2792
a(lp2793
Vvisibility
p2794
aVtranslateX
p2795
aVtranslateY
p2796
aVtranslateZ
p2797
aVrotateX
p2798
aVrotateY
p2799
aVrotateZ
p2800
aVscaleX
p2801
aVscaleY
p2802
aVscaleZ
p2803
aaI01
aF0
aF0
aF0
aF0
aF0
aF0
aF1
aF1
aF1
aa(lp2804
Vmaster_anim_space_switcher
p2805
a(lp2806
Vvisibility
p2807
aVtranslateX
p2808
aVtranslateY
p2809
aVtranslateZ
p2810
aVrotateX
p2811
aVrotateY
p2812
aVrotateZ
p2813
aVscaleX
p2814
aVscaleY
p2815
aVscaleZ
p2816
aaI01
aF0
aF0
aF0
aF0
aF0
aF0
aF1
aF1
aF1
aa(lp2817
Vquiver_anim_space_switcher
p2818
a(lp2819
Vvisibility
p2820
aVtranslateX
p2821
aVtranslateY
p2822
aVtranslateZ
p2823
aVrotateX
p2824
aVrotateY
p2825
aVrotateZ
p2826
aVscaleX
p2827
aVscaleY
p2828
aVscaleZ
p2829
aaI01
aF0
aF8.8817841970012523e-16
aF-2.8421709430404007e-14
aF0
aF-0
aF-1.2424041724466859e-17
aF1.0000000000000002
aF1.0000000000000002
aF1.0000000000000002
aa(lp2830
Vr_global_ik_anim_space_switcher
p2831
a(lp2832
Vvisibility
p2833
aVtranslateX
p2834
aVtranslateY
p2835
aVtranslateZ
p2836
aVrotateX
p2837
aVrotateY
p2838
aVrotateZ
p2839
aVscaleX
p2840
aVscaleY
p2841
aVscaleZ
p2842
aaI01
aF0
aF0
aF0
aF0
aF0
aF0
aF1
aF1
aF1
aa(lp2843
Vspine_01_space_switcher
p2844
a(lp2845
Vvisibility
p2846
aVtranslateX
p2847
aVtranslateY
p2848
aVtranslateZ
p2849
aVrotateX
p2850
aVrotateY
p2851
aVrotateZ
p2852
aVscaleX
p2853
aVscaleY
p2854
aVscaleZ
p2855
aaI01
aF0
aF0
aF6.3108872417680944e-30
aF-1.7655625192200634e-31
aF-2.8249000307521015e-30
aF0
aF1
aF1
aF1
aa.