(dp1
S'rightLegOptions_numHeelTwistBones'
p2
(lp3
I0
a(lp4
F0.26666666666666666
aF0.26666666666666666
aF0.26666666666666666
aasS'leftArmOptions_numUpArmTwistBones'
p5
(lp6
I2
a(lp7
F1
aF0.68000305180437937
aF0
aasVextraJoint/head/leaf/eyelid_bott_r (TR)
p8
Vhead/leaf/eyelid_bott_r (TR)
p9
sVextraJoint/pelvis/jiggle/leg_shieldPad_A_r
p10
Vpelvis/jiggle/leg_shieldPad_A_r
p11
sVextraJoint/head/leaf/eyelid_top_r (TR)
p12
Vhead/leaf/eyelid_top_r (TR)
p13
sVextraJoint/head/chain/ponytail (3)
p14
Vhead/chain/ponytail (3)
p15
sS'torsoOptions_numSpineBones'
p16
(lp17
I3
a(lp18
F0.16470588235294117
aF0.16470588235294117
aF0.16470588235294117
aasVextraJoint/weapon_bladeB_01/leaf/weapon_bladeB_02 (TR)
p19
Vweapon_bladeB_01/leaf/weapon_bladeB_02 (TR)
p20
sS'rightFootOptions_numThumbBones'
p21
(lp22
I0
a(lp23
F0.16470588235294117
aF0.16470588235294117
aF0.16470588235294117
aasVextraJoint/clavicle_r/leaf/shoulder_blade_out_r (TR)
p24
Vclavicle_r/leaf/shoulder_blade_out_r (TR)
p25
sVextraJoint/weapon_bladeD_01/leaf/weapon_bladeE_01 (TR)
p26
Vweapon_bladeD_01/leaf/weapon_bladeE_01 (TR)
p27
sS'rightHandOptions_numIndexBones'
p28
(lp29
I3
a(lp30
F0.16470588235294117
aF0.16470588235294117
aF0.16470588235294117
aasVextraJoint/pelvis/chain/loin_cloth_fr (2)
p31
Vpelvis/chain/loin_cloth_fr (2)
p32
sVextraJoint/weapon_bladeB_02/leaf/weapon_bladeB_03 (TR)
p33
Vweapon_bladeB_02/leaf/weapon_bladeB_03 (TR)
p34
sS'leftHandOptions_numRingBones'
p35
(lp36
I3
a(lp37
F0.16470588235294117
aF0.16470588235294117
aF0.16470588235294117
aasS'rightLegOptions_numCalfTwistBones'
p38
(lp39
I1
a(lp40
F0.16470588235294117
aF0.16470588235294117
aF0.16470588235294117
aasVextraJoint/weapon_bladeD_01/leaf/weapon_bladeD_02 (TR)
p41
Vweapon_bladeD_01/leaf/weapon_bladeD_02 (TR)
p42
sVextraJoint/weapon_bladeA_03/leaf/weapon_bladeA_04 (TR)
p43
Vweapon_bladeA_03/leaf/weapon_bladeA_04 (TR)
p44
sS'rightFootOptions_numRingBones'
p45
(lp46
I0
a(lp47
F0.16470588235294117
aF0.16470588235294117
aF0.16470588235294117
aasVextraJoint/clavicle_r/leaf/shoulder_blade_in_r (TR)
p48
Vclavicle_r/leaf/shoulder_blade_in_r (TR)
p49
sVextraJoint/weapon_bladeA_02/leaf/weapon_bladeA_03 (TR)
p50
Vweapon_bladeA_02/leaf/weapon_bladeA_03 (TR)
p51
sVextraJoint/head/leaf/eyebrow_out_r (TR)
p52
Vhead/leaf/eyebrow_out_r (TR)
p53
sS'leftHandOptions_numThumbBones'
p54
(lp55
I3
a(lp56
F0.16470588235294117
aF0.16470588235294117
aF0.16470588235294117
aasVextraJoint/root/leaf/weapon (TR)
p57
Vroot/leaf/weapon (TR)
p58
sVextraJoint/head/chain/padawan_r (2)
p59
Vhead/chain/padawan_r (2)
p60
sVextraJoint/weapon_l/leaf/weapon_bladeA_01 (TR)
p61
Vweapon_l/leaf/weapon_bladeA_01 (TR)
p62
sVextraJoint/jaw/leaf/pipe (TR)
p63
Vjaw/leaf/pipe (TR)
p64
sS'leftFootOptions_numMiddleBones'
p65
(lp66
I0
a(lp67
F0.16470588235294117
aF0.16470588235294117
aF0.16470588235294117
aasVextraJoint/leg_shieldPad_A_r/chain/hip_eyelet_front_r (3)
p68
Vleg_shieldPad_A_r/chain/hip_eyelet_front_r (3)
p69
sVextraJoint/clavicle_r/leaf/shoulder_blade_mid_r (TR)
p70
Vclavicle_r/leaf/shoulder_blade_mid_r (TR)
p71
sS'leftLegOptions_numCalfTwistBones'
p72
(lp73
I1
a(lp74
F0.16470588235294117
aF0.16470588235294117
aF0.16470588235294117
aasVextraJoint/weapon_bladeA_01/leaf/weapon_bladeA_02 (TR)
p75
Vweapon_bladeA_01/leaf/weapon_bladeA_02 (TR)
p76
sS'leftHandOptions_numIndexBones'
p77
(lp78
I3
a(lp79
F0.16470588235294117
aF0.16470588235294117
aF0.16470588235294117
aasS'rightArmOptions_numLowArmTwistBones'
p80
(lp81
I1
a(lp82
F0.16470588235294117
aF0.16470588235294117
aF0.16470588235294117
aasS'leftFootOptions_numIndexBones'
p83
(lp84
I0
a(lp85
F0.16470588235294117
aF0.16470588235294117
aF0.16470588235294117
aasVextraJoint/clavicle_l/leaf/shoulder_cloth_02_l (TR)
p86
Vclavicle_l/leaf/shoulder_cloth_02_l (TR)
p87
sVextraJoint/pelvis/jiggle/leg_shieldPad_A_l
p88
Vpelvis/jiggle/leg_shieldPad_A_l
p89
sVextraJoint/weapon_bladeC_01/leaf/weapon_bladeC_02 (TR)
p90
Vweapon_bladeC_01/leaf/weapon_bladeC_02 (TR)
p91
sS'leftHandOptions_numMiddleBones'
p92
(lp93
I3
a(lp94
F0.16470588235294117
aF0.16470588235294117
aF0.16470588235294117
aasVextraJoint/head/leaf/eyeball_r (TR)
p95
Vhead/leaf/eyeball_r (TR)
p96
sVextraJoint/weapon_l/chain/weapon_butt (3)
p97
Vweapon_l/chain/weapon_butt (3)
p98
sVextraJoint/weapon_bladeB_04/leaf/weapon_bladeB_05 (TR)
p99
Vweapon_bladeB_04/leaf/weapon_bladeB_05 (TR)
p100
sS'rightHandOptions_numPinkyBones'
p101
(lp102
I3
a(lp103
F0.16470588235294117
aF0.16470588235294117
aF0.16470588235294117
aasVextraJoint/head/leaf/eyelid_top_l (TR)
p104
Vhead/leaf/eyelid_top_l (TR)
p105
sS'leftFootOptions_numPinkyBones'
p106
(lp107
I0
a(lp108
F0.16470588235294117
aF0.16470588235294117
aF0.16470588235294117
aasS'leftLegOptions_numThighTwistBones'
p109
(lp110
I2
a(lp111
F1
aF0.68000305180437937
aF0
aasS'leftLegIncludeBallJoint_CB'
p112
I01
sS'leftFootOptions_numRingBones'
p113
(lp114
I0
a(lp115
F0.16470588235294117
aF0.16470588235294117
aF0.16470588235294117
aasS'rightFootOptions_numPinkyBones'
p116
(lp117
I0
a(lp118
F0.16470588235294117
aF0.16470588235294117
aF0.16470588235294117
aasS'rightFootOptions_numMiddleBones'
p119
(lp120
I0
a(lp121
F0.16470588235294117
aF0.16470588235294117
aF0.16470588235294117
aasS'leftArmOptions_numLowArmTwistBones'
p122
(lp123
I1
a(lp124
F0.16470588235294117
aF0.16470588235294117
aF0.16470588235294117
aasVextraJoint/weapon_bladeB_03/leaf/weapon_bladeB_04 (TR)
p125
Vweapon_bladeB_03/leaf/weapon_bladeB_04 (TR)
p126
sVextraJoint/lowerarm_twist_01_l/leaf/bracelet_A_l (TR)
p127
Vlowerarm_twist_01_l/leaf/bracelet_A_l (TR)
p128
sVextraJoint/hip_back_flaps/chain/loin_cloth_bk (2)
p129
Vhip_back_flaps/chain/loin_cloth_bk (2)
p130
sVextraJoint/lowerarm_twist_01_l/leaf/bracelet_C_l (TR)
p131
Vlowerarm_twist_01_l/leaf/bracelet_C_l (TR)
p132
sS'leftHandOptions_numPinkyBones'
p133
(lp134
I3
a(lp135
F0.16470588235294117
aF0.16470588235294117
aF0.16470588235294117
aasVextraJoint/lowerarm_twist_01_r/leaf/wrist_plate_r (TR)
p136
Vlowerarm_twist_01_r/leaf/wrist_plate_r (TR)
p137
sS'rightLegOptions_numThighTwistBones'
p138
(lp139
I2
a(lp140
F1
aF0.68000305180437937
aF0
aasVextraJoint/weapon_l/leaf/weapon_bladeC_01 (TR)
p141
Vweapon_l/leaf/weapon_bladeC_01 (TR)
p142
sVextraJoint/hand_l/leaf/weapon_l (TR)
p143
Vhand_l/leaf/weapon_l (TR)
p144
sVextraJoint/leg_shieldPad_A_l/jiggle/leg_shieldPad_B_l
p145
Vleg_shieldPad_A_l/jiggle/leg_shieldPad_B_l
p146
sVextraJoint/head/leaf/eyebrow_in_l (TR)
p147
Vhead/leaf/eyebrow_in_l (TR)
p148
sVextraJoint/hip_back_flaps/chain/hip_eyelet_rear_r (3)
p149
Vhip_back_flaps/chain/hip_eyelet_rear_r (3)
p150
sVextraJoint/leg_shieldPad_A_l/chain/hip_eyelet_front_l (3)
p151
Vleg_shieldPad_A_l/chain/hip_eyelet_front_l (3)
p152
sVextraJoint/head/leaf/eyebrow_in_r (TR)
p153
Vhead/leaf/eyebrow_in_r (TR)
p154
sS'rightFootOptions_numIndexBones'
p155
(lp156
I0
a(lp157
F0.16470588235294117
aF0.16470588235294117
aF0.16470588235294117
aasVextraJoint/weapon_l/leaf/weapon_bladeB_01 (TR)
p158
Vweapon_l/leaf/weapon_bladeB_01 (TR)
p159
sVextraJoint/hand_r/leaf/weapon_r (TR)
p160
Vhand_r/leaf/weapon_r (TR)
p161
sS'rightHandOptions_numRingBones'
p162
(lp163
I3
a(lp164
F0.16470588235294117
aF0.16470588235294117
aF0.16470588235294117
aasVextraJoint/upperarm_twist_01_r/leaf/shoulder_pad_r (TR)
p165
Vupperarm_twist_01_r/leaf/shoulder_pad_r (TR)
p166
sVextraJoint/hip_back_flaps/chain/hip_eyelet_rear_l (3)
p167
Vhip_back_flaps/chain/hip_eyelet_rear_l (3)
p168
sVextraJoint/weapon_bladeC_02/leaf/weapon_bladeC_03 (TR)
p169
Vweapon_bladeC_02/leaf/weapon_bladeC_03 (TR)
p170
sVextraJoint/head/leaf/eyeball_l (TR)
p171
Vhead/leaf/eyeball_l (TR)
p172
sVextraJoint/weapon_bladeA_04/leaf/weapon_bladeA_05 (TR)
p173
Vweapon_bladeA_04/leaf/weapon_bladeA_05 (TR)
p174
sS'leftFootOptions_numThumbBones'
p175
(lp176
I0
a(lp177
F0.16470588235294117
aF0.16470588235294117
aF0.16470588235294117
aasS'leftLegOptions_numHeelTwistBones'
p178
(lp179
I0
a(lp180
F0.26666666666666666
aF0.26666666666666666
aF0.26666666666666666
aasVextraJoint/pelvis/leaf/hip_back_flaps (TR)
p181
Vpelvis/leaf/hip_back_flaps (TR)
p182
sS'rightHandOptions_numMiddleBones'
p183
(lp184
I3
a(lp185
F0.16470588235294117
aF0.16470588235294117
aF0.16470588235294117
aasVextraJoint/head/chain/padawan_l (2)
p186
Vhead/chain/padawan_l (2)
p187
sVextraJoint/head/leaf/eyebrow_out_l (TR)
p188
Vhead/leaf/eyebrow_out_l (TR)
p189
sVextraJoint/leg_shieldPad_A_r/jiggle/leg_shieldPad_B_r
p190
Vleg_shieldPad_A_r/jiggle/leg_shieldPad_B_r
p191
sS'rightLegIncludeBallJoint_CB'
p192
I01
sVextraJoint/spine_03/chain/back_sash (3)
p193
Vspine_03/chain/back_sash (3)
p194
sVextraJoint/head/leaf/eyelid_bott_l (TR)
p195
Vhead/leaf/eyelid_bott_l (TR)
p196
sVextraJoint/lowerarm_twist_01_l/leaf/bracelet_B_l (TR)
p197
Vlowerarm_twist_01_l/leaf/bracelet_B_l (TR)
p198
sVextraJoint/head/leaf/jaw (TR)
p199
Vhead/leaf/jaw (TR)
p200
sVextraJoint/weapon_l/leaf/weapon_bladeD_01 (TR)
p201
Vweapon_l/leaf/weapon_bladeD_01 (TR)
p202
sS'rightHandOptions_numThumbBones'
p203
(lp204
I3
a(lp205
F0.16470588235294117
aF0.16470588235294117
aF0.16470588235294117
aasVextraJoint/clavicle_l/leaf/shoulder_cloth_01_l (TR)
p206
Vclavicle_l/leaf/shoulder_cloth_01_l (TR)
p207
sS'torsoOptions_numNeckBones'
p208
(lp209
I2
a(lp210
F0.14999618524452582
aF0.14999618524452582
aF0.14999618524452582
aasS'rightArmOptions_numUpArmTwistBones'
p211
(lp212
I2
a(lp213
F1
aF0.68000305180437937
aF0
aas.