(dp1
S'rightFootOptions_numMiddleBones'
p2
(lp3
I0
a(lp4
F0.16470588235294117
aF0.16470588235294117
aF0.16470588235294117
aasVextraJoint/spine_03/chain/stage1_clav_cloth_l (4)
p5
Vspine_03/chain/stage1_clav_cloth_l (4)
p6
sS'rightLegOptions_numHeelTwistBones'
p7
(lp8
I0
a(lp9
F0.26666666666666666
aF0.26666666666666666
aF0.26666666666666666
aasS'leftArmOptions_numLowArmTwistBones'
p10
(lp11
I2
a(lp12
F1
aF0.68000305180437937
aF0
aasS'leftLegOptions_numHeelTwistBones'
p13
(lp14
I0
a(lp15
F0.26666666666666666
aF0.26666666666666666
aF0.26666666666666666
aasS'leftArmOptions_numUpArmTwistBones'
p16
(lp17
I2
a(lp18
F1
aF0.68000305180437937
aF0
aasVextraJoint/hand_l/leaf/weapon_l (TR)
p19
Vhand_l/leaf/weapon_l (TR)
p20
sS'leftFootOptions_numMiddleBones'
p21
(lp22
I0
a(lp23
F0.16470588235294117
aF0.16470588235294117
aF0.16470588235294117
aasVextraJoint/lowerarm_twist_02_r/chain/lowerarm_cloth_fr_r (3)
p24
Vlowerarm_twist_02_r/chain/lowerarm_cloth_fr_r (3)
p25
sVextraJoint/pelvis/chain/pelvis_cloth_bk (3)
p26
Vpelvis/chain/pelvis_cloth_bk (3)
p27
sVextraJoint/upperarm_twist_02_l/chain/upperarm_cloth_l (3)
p28
Vupperarm_twist_02_l/chain/upperarm_cloth_l (3)
p29
sVextraJoint/spine_03/chain/spine_cloth_fr_r (4)
p30
Vspine_03/chain/spine_cloth_fr_r (4)
p31
sVextraJoint/lowerarm_twist_02_r/chain/lowerarm_cloth_bk_r (3)
p32
Vlowerarm_twist_02_r/chain/lowerarm_cloth_bk_r (3)
p33
sS'leftLegOptions_numCalfTwistBones'
p34
(lp35
I0
a(lp36
F1
aF0.68000305180437937
aF0
aasVextraJoint/pelvis/chain/hip_cloth_fr_r (3)
p37
Vpelvis/chain/hip_cloth_fr_r (3)
p38
sS'leftHandOptions_numPinkyBones'
p39
(lp40
I3
a(lp41
F0.16470588235294117
aF0.16470588235294117
aF0.16470588235294117
aasS'rightHandOptions_numMiddleBones'
p42
(lp43
I3
a(lp44
F0.16470588235294117
aF0.16470588235294117
aF0.16470588235294117
aasS'torsoOptions_numSpineBones'
p45
(lp46
I3
a(lp47
F0.16470588235294117
aF0.16470588235294117
aF0.16470588235294117
aasVextraJoint/shoulderB_01_r/leaf/shoulderC_01_r (TR)
p48
VshoulderB_01_r/leaf/shoulderC_01_r (TR)
p49
sS'leftHandOptions_numIndexBones'
p50
(lp51
I3
a(lp52
F0.16470588235294117
aF0.16470588235294117
aF0.16470588235294117
aasVextraJoint/spine_03/leaf/shoulderpad_r (TR)
p53
Vspine_03/leaf/shoulderpad_r (TR)
p54
sS'rightArmOptions_numLowArmTwistBones'
p55
(lp56
I2
a(lp57
F1
aF0.68000305180437937
aF0
aasVextraJoint/pelvis/chain/hip_cloth_fr_l (3)
p58
Vpelvis/chain/hip_cloth_fr_l (3)
p59
sVextraJoint/shoulderpad_r/leaf/shoulderA_02_r (TR)
p60
Vshoulderpad_r/leaf/shoulderA_02_r (TR)
p61
sS'rightLegOptions_numThighTwistBones'
p62
(lp63
I0
a(lp64
F1
aF0.68000305180437937
aF0
aasVextraJoint/shoulderpad_l/leaf/shoulderA_02_l (TR)
p65
Vshoulderpad_l/leaf/shoulderA_02_l (TR)
p66
sS'rightHandOptions_numIndexBones'
p67
(lp68
I3
a(lp69
F0.16470588235294117
aF0.16470588235294117
aF0.16470588235294117
aasVextraJoint/lowerarm_twist_02_l/chain/lowerarm_cloth_bk_l (3)
p70
Vlowerarm_twist_02_l/chain/lowerarm_cloth_bk_l (3)
p71
sVextraJoint/shoulderB_01_l/leaf/shoulderC_01_l (TR)
p72
VshoulderB_01_l/leaf/shoulderC_01_l (TR)
p73
sS'leftHandOptions_numMiddleBones'
p74
(lp75
I3
a(lp76
F0.16470588235294117
aF0.16470588235294117
aF0.16470588235294117
aasVextraJoint/spine_03/chain/spine_cloth_bk_r (4)
p77
Vspine_03/chain/spine_cloth_bk_r (4)
p78
sVextraJoint/spine_03/chain/stage1_clav_cloth_r (4)
p79
Vspine_03/chain/stage1_clav_cloth_r (4)
p80
sVextraJoint/pelvis/chain/pelvis_cloth_fr (3)
p81
Vpelvis/chain/pelvis_cloth_fr (3)
p82
sVextraJoint/shoulderpad_l/leaf/shoulderA_01_l (TR)
p83
Vshoulderpad_l/leaf/shoulderA_01_l (TR)
p84
sS'leftHandOptions_numRingBones'
p85
(lp86
I3
a(lp87
F0.16470588235294117
aF0.16470588235294117
aF0.16470588235294117
aasVextraJoint/spine_03/leaf/shoulderpad_l (TR)
p88
Vspine_03/leaf/shoulderpad_l (TR)
p89
sS'rightLegOptions_numCalfTwistBones'
p90
(lp91
I0
a(lp92
F1
aF0.68000305180437937
aF0
aasVextraJoint/lowerarm_twist_02_l/leaf/forearm_armor_01_l (TR)
p93
Vlowerarm_twist_02_l/leaf/forearm_armor_01_l (TR)
p94
sVextraJoint/pelvis/chain/hip_cloth_bk_r (3)
p95
Vpelvis/chain/hip_cloth_bk_r (3)
p96
sS'rightHandOptions_numPinkyBones'
p97
(lp98
I3
a(lp99
F0.16470588235294117
aF0.16470588235294117
aF0.16470588235294117
aasVextraJoint/lowerarm_twist_02_l/chain/lowerarm_cloth_fr_l (3)
p100
Vlowerarm_twist_02_l/chain/lowerarm_cloth_fr_l (3)
p101
sVextraJoint/spine_03/chain/spine_cloth_fr_l (4)
p102
Vspine_03/chain/spine_cloth_fr_l (4)
p103
sVextraJoint/lowerarm_twist_02_r/leaf/forearm_armor_01_r (TR)
p104
Vlowerarm_twist_02_r/leaf/forearm_armor_01_r (TR)
p105
sS'rightLegIncludeBallJoint_CB'
p106
I00
sVextraJoint/hand_r/leaf/weapon_r (TR)
p107
Vhand_r/leaf/weapon_r (TR)
p108
sS'rightFootOptions_numRingBones'
p109
(lp110
I0
a(lp111
F0.16470588235294117
aF0.16470588235294117
aF0.16470588235294117
aasVextraJoint/shoulderA_01_l/leaf/shoulderB_01_l (TR)
p112
VshoulderA_01_l/leaf/shoulderB_01_l (TR)
p113
sVextraJoint/pelvis/chain/hip_cloth_bk_l (3)
p114
Vpelvis/chain/hip_cloth_bk_l (3)
p115
sS'rightFootOptions_numIndexBones'
p116
(lp117
I0
a(lp118
F0.16470588235294117
aF0.16470588235294117
aF0.16470588235294117
aasS'leftFootOptions_numPinkyBones'
p119
(lp120
I0
a(lp121
F0.16470588235294117
aF0.16470588235294117
aF0.16470588235294117
aasS'leftLegOptions_numThighTwistBones'
p122
(lp123
I0
a(lp124
F1
aF0.68000305180437937
aF0
aasVextraJoint/upperarm_twist_02_r/chain/upperarm_cloth_r (3)
p125
Vupperarm_twist_02_r/chain/upperarm_cloth_r (3)
p126
sVextraJoint/spine_03/chain/spine_cloth_bk_l (4)
p127
Vspine_03/chain/spine_cloth_bk_l (4)
p128
sS'leftLegIncludeBallJoint_CB'
p129
I00
sS'rightHandOptions_numRingBones'
p130
(lp131
I3
a(lp132
F0.16470588235294117
aF0.16470588235294117
aF0.16470588235294117
aasVextraJoint/shoulderA_01_r/leaf/shoulderB_01_r (TR)
p133
VshoulderA_01_r/leaf/shoulderB_01_r (TR)
p134
sS'rightHandOptions_numThumbBones'
p135
(lp136
I3
a(lp137
F0.16470588235294117
aF0.16470588235294117
aF0.16470588235294117
aasS'leftFootOptions_numRingBones'
p138
(lp139
I0
a(lp140
F0.16470588235294117
aF0.16470588235294117
aF0.16470588235294117
aasVextraJoint/spine_03/leaf/spintal_cord_01 (TR)
p141
Vspine_03/leaf/spintal_cord_01 (TR)
p142
sS'leftHandOptions_numThumbBones'
p143
(lp144
I3
a(lp145
F0.16470588235294117
aF0.16470588235294117
aF0.16470588235294117
aasS'leftFootOptions_numIndexBones'
p146
(lp147
I0
a(lp148
F0.16470588235294117
aF0.16470588235294117
aF0.16470588235294117
aasS'rightArmOptions_numUpArmTwistBones'
p149
(lp150
I2
a(lp151
F1
aF0.68000305180437937
aF0
aasVextraJoint/shoulderpad_r/leaf/shoulderA_01_r (TR)
p152
Vshoulderpad_r/leaf/shoulderA_01_r (TR)
p153
sS'rightFootOptions_numPinkyBones'
p154
(lp155
I0
a(lp156
F0.16470588235294117
aF0.16470588235294117
aF0.16470588235294117
aasS'torsoOptions_numNeckBones'
p157
(lp158
I1
a(lp159
F1
aF0.68000305180437937
aF0
aasS'rightFootOptions_numThumbBones'
p160
(lp161
I0
a(lp162
F0.16470588235294117
aF0.16470588235294117
aF0.16470588235294117
aasS'leftFootOptions_numThumbBones'
p163
(lp164
I0
a(lp165
F0.16470588235294117
aF0.16470588235294117
aF0.16470588235294117
aas.