(dp1
S'rightFootOptions_numMiddleBones'
p2
(lp3
I0
a(lp4
F0.16470588235294117
aF0.16470588235294117
aF0.16470588235294117
aasVextraJoint/lowerarm_r/leaf/hand_flap_r (TR)
p5
Vlowerarm_r/leaf/hand_flap_r (TR)
p6
sS'leftArmOptions_numLowArmTwistBones'
p7
(lp8
I0
a(lp9
F1
aF0.68000305180437937
aF0
aasS'leftArmOptions_numUpArmTwistBones'
p10
(lp11
I2
a(lp12
F1
aF0.68000305180437937
aF0
aasS'leftFootOptions_numMiddleBones'
p13
(lp14
I0
a(lp15
F0.16470588235294117
aF0.16470588235294117
aF0.16470588235294117
aasVextraJoint/wing_blade_D_r/leaf/wing_blade_C_r (TR)
p16
Vwing_blade_D_r/leaf/wing_blade_C_r (TR)
p17
sVextraJoint/head/leaf/eyelid_bott_r (TR)
p18
Vhead/leaf/eyelid_bott_r (TR)
p19
sVextraJoint/calf_l/leaf/foot_flap_l (TR)
p20
Vcalf_l/leaf/foot_flap_l (TR)
p21
sVextraJoint/head/leaf/eyelid_top_r (TR)
p22
Vhead/leaf/eyelid_top_r (TR)
p23
sS'leftLegOptions_numCalfTwistBones'
p24
(lp25
I0
a(lp26
F1
aF0.68000305180437937
aF0
aasVextraJoint/wing_main_l/leaf/wing_ext_l (TR)
p27
Vwing_main_l/leaf/wing_ext_l (TR)
p28
sVextraJoint/wing_blade_D_l/leaf/wing_blade_A_l (TR)
p29
Vwing_blade_D_l/leaf/wing_blade_A_l (TR)
p30
sS'leftHandOptions_numPinkyBones'
p31
(lp32
I3
a(lp33
F0.16470588235294117
aF0.16470588235294117
aF0.16470588235294117
aasVextraJoint/head/leaf/eyelid_bott_l (TR)
p34
Vhead/leaf/eyelid_bott_l (TR)
p35
sS'rightHandOptions_numMiddleBones'
p36
(lp37
I3
a(lp38
F0.16470588235294117
aF0.16470588235294117
aF0.16470588235294117
aasS'torsoOptions_numSpineBones'
p39
(lp40
I3
a(lp41
F0.16470588235294117
aF0.16470588235294117
aF0.16470588235294117
aasVextraJoint/wing_main_r/leaf/wing_ext_r (TR)
p42
Vwing_main_r/leaf/wing_ext_r (TR)
p43
sS'leftHandOptions_numIndexBones'
p44
(lp45
I3
a(lp46
F0.16470588235294117
aF0.16470588235294117
aF0.16470588235294117
aasS'rightArmOptions_numLowArmTwistBones'
p47
(lp48
I0
a(lp49
F1
aF0.68000305180437937
aF0
aasVextraJoint/spine_03/leaf/wing_main_l (TR)
p50
Vspine_03/leaf/wing_main_l (TR)
p51
sVextraJoint/wing_blade_D_l/leaf/wing_blade_B_l (TR)
p52
Vwing_blade_D_l/leaf/wing_blade_B_l (TR)
p53
sS'rightLegOptions_numThighTwistBones'
p54
(lp55
I2
a(lp56
F1
aF0.68000305180437937
aF0
aasVextraJoint/wing_ext_l/leaf/wing_blade_main_l (TR)
p57
Vwing_ext_l/leaf/wing_blade_main_l (TR)
p58
sS'rightHandOptions_numIndexBones'
p59
(lp60
I3
a(lp61
F0.16470588235294117
aF0.16470588235294117
aF0.16470588235294117
aasVextraJoint/spine_03/leaf/wing_main_r (TR)
p62
Vspine_03/leaf/wing_main_r (TR)
p63
sVextraJoint/wing_blade_track_l/leaf/wing_blade_D_l (TR)
p64
Vwing_blade_track_l/leaf/wing_blade_D_l (TR)
p65
sVextraJoint/calf_r/leaf/foot_flap_r (TR)
p66
Vcalf_r/leaf/foot_flap_r (TR)
p67
sVextraJoint/wing_blade_D_r/leaf/wing_blade_B_r (TR)
p68
Vwing_blade_D_r/leaf/wing_blade_B_r (TR)
p69
sS'leftHandOptions_numMiddleBones'
p70
(lp71
I3
a(lp72
F0.16470588235294117
aF0.16470588235294117
aF0.16470588235294117
aasVextraJoint/head/leaf/eyeball_r (TR)
p73
Vhead/leaf/eyeball_r (TR)
p74
sVextraJoint/wing_blade_main_r/leaf/wing_blade_track_r (TR)
p75
Vwing_blade_main_r/leaf/wing_blade_track_r (TR)
p76
sVextraJoint/wing_blade_D_l/leaf/wing_blade_C_l (TR)
p77
Vwing_blade_D_l/leaf/wing_blade_C_l (TR)
p78
sS'leftHandOptions_numRingBones'
p79
(lp80
I3
a(lp81
F0.16470588235294117
aF0.16470588235294117
aF0.16470588235294117
aasVextraJoint/wing_blade_D_r/leaf/wing_blade_A_r (TR)
p82
Vwing_blade_D_r/leaf/wing_blade_A_r (TR)
p83
sS'rightLegOptions_numCalfTwistBones'
p84
(lp85
I0
a(lp86
F1
aF0.68000305180437937
aF0
aasVextraJoint/spine_03/leaf/chest_ring (TR)
p87
Vspine_03/leaf/chest_ring (TR)
p88
sS'rightHandOptions_numPinkyBones'
p89
(lp90
I3
a(lp91
F0.16470588235294117
aF0.16470588235294117
aF0.16470588235294117
aasS'rightLegIncludeBallJoint_CB'
p92
I01
sVextraJoint/head/leaf/eyelid_top_l (TR)
p93
Vhead/leaf/eyelid_top_l (TR)
p94
sS'rightFootOptions_numRingBones'
p95
(lp96
I0
a(lp97
F0.16470588235294117
aF0.16470588235294117
aF0.16470588235294117
aasVextraJoint/lowerarm_l/leaf/hand_flap_l (TR)
p98
Vlowerarm_l/leaf/hand_flap_l (TR)
p99
sS'rightFootOptions_numIndexBones'
p100
(lp101
I0
a(lp102
F0.16470588235294117
aF0.16470588235294117
aF0.16470588235294117
aasS'leftFootOptions_numPinkyBones'
p103
(lp104
I0
a(lp105
F0.16470588235294117
aF0.16470588235294117
aF0.16470588235294117
aasS'leftLegOptions_numThighTwistBones'
p106
(lp107
I2
a(lp108
F1
aF0.68000305180437937
aF0
aasVextraJoint/head/leaf/jaw (TR)
p109
Vhead/leaf/jaw (TR)
p110
sS'leftLegIncludeBallJoint_CB'
p111
I01
sS'rightHandOptions_numRingBones'
p112
(lp113
I3
a(lp114
F0.16470588235294117
aF0.16470588235294117
aF0.16470588235294117
aasVextraJoint/wing_blade_track_r/leaf/wing_blade_D_r (TR)
p115
Vwing_blade_track_r/leaf/wing_blade_D_r (TR)
p116
sVextraJoint/wing_blade_main_l/leaf/wing_blade_track_l (TR)
p117
Vwing_blade_main_l/leaf/wing_blade_track_l (TR)
p118
sS'rightHandOptions_numThumbBones'
p119
(lp120
I3
a(lp121
F0.16470588235294117
aF0.16470588235294117
aF0.16470588235294117
aasS'leftFootOptions_numRingBones'
p122
(lp123
I0
a(lp124
F0.16470588235294117
aF0.16470588235294117
aF0.16470588235294117
aasS'leftHandOptions_numThumbBones'
p125
(lp126
I3
a(lp127
F0.16470588235294117
aF0.16470588235294117
aF0.16470588235294117
aasS'leftFootOptions_numIndexBones'
p128
(lp129
I0
a(lp130
F0.16470588235294117
aF0.16470588235294117
aF0.16470588235294117
aasS'rightArmOptions_numUpArmTwistBones'
p131
(lp132
I2
a(lp133
F1
aF0.68000305180437937
aF0
aasVextraJoint/head/leaf/eyeball_l (TR)
p134
Vhead/leaf/eyeball_l (TR)
p135
sS'rightFootOptions_numPinkyBones'
p136
(lp137
I0
a(lp138
F0.16470588235294117
aF0.16470588235294117
aF0.16470588235294117
aasS'torsoOptions_numNeckBones'
p139
(lp140
I2
a(lp141
F0.14999618524452582
aF0.14999618524452582
aF0.14999618524452582
aasVextraJoint/wing_ext_r/leaf/wing_blade_main_r (TR)
p142
Vwing_ext_r/leaf/wing_blade_main_r (TR)
p143
sS'rightFootOptions_numThumbBones'
p144
(lp145
I0
a(lp146
F0.16470588235294117
aF0.16470588235294117
aF0.16470588235294117
aasS'leftFootOptions_numThumbBones'
p147
(lp148
I0
a(lp149
F0.16470588235294117
aF0.16470588235294117
aF0.16470588235294117
aas.