(dp1
S'rightFootOptions_numMiddleBones'
p2
(lp3
I0
a(lp4
F0.16470588235294117
aF0.16470588235294117
aF0.16470588235294117
aasVextraJoint/dispencer_base/leaf/dispencer_handle (TR)
p5
Vdispencer_base/leaf/dispencer_handle (TR)
p6
sS'leftArmOptions_numLowArmTwistBones'
p7
(lp8
I1
a(lp9
F0.14999618524452582
aF0.14999618524452582
aF0.14999618524452582
aasVextraJoint/bottle_sack/leaf/bottle_01 (TR)
p10
Vbottle_sack/leaf/bottle_01 (TR)
p11
sS'leftArmOptions_numUpArmTwistBones'
p12
(lp13
I2
a(lp14
F1
aF0.68000305180437937
aF0
aasS'leftFootOptions_numMiddleBones'
p15
(lp16
I0
a(lp17
F0.16470588235294117
aF0.16470588235294117
aF0.16470588235294117
aasVextraJoint/dispencer_top/leaf/dispencer_clip_fl (TR)
p18
Vdispencer_top/leaf/dispencer_clip_fl (TR)
p19
sVextraJoint/jaw/leaf/gums_bottom (TR)
p20
Vjaw/leaf/gums_bottom (TR)
p21
sVextraJoint/head/leaf/gums_top (TR)
p22
Vhead/leaf/gums_top (TR)
p23
sS'leftLegOptions_numCalfTwistBones'
p24
(lp25
I0
a(lp26
F1
aF0.68000305180437937
aF0
aasVextraJoint/spine_02/leaf/muscle_belly (TR)
p27
Vspine_02/leaf/muscle_belly (TR)
p28
sS'leftHandOptions_numPinkyBones'
p29
(lp30
I0
a(lp31
F1
aF0.68000305180437937
aF0
aasVextraJoint/thigh_twist_02_r/leaf/muscle_thigh_r (TR)
p32
Vthigh_twist_02_r/leaf/muscle_thigh_r (TR)
p33
sVextraJoint/ball_l/leaf/toe_pink_a_l (TR)
p34
Vball_l/leaf/toe_pink_a_l (TR)
p35
sS'rightHandOptions_numMiddleBones'
p36
(lp37
I2
a(lp38
F1
aF0.68000305180437937
aF0
aasVextraJoint/tail_02/leaf/muscle_tail_bott (TR)
p39
Vtail_02/leaf/muscle_tail_bott (TR)
p40
sS'torsoOptions_numSpineBones'
p41
(lp42
I3
a(lp43
F0.16470588235294117
aF0.16470588235294117
aF0.16470588235294117
aasVextraJoint/ball_r/leaf/toe_pink_a_r (TR)
p44
Vball_r/leaf/toe_pink_a_r (TR)
p45
sVextraJoint/dispencer_top/leaf/dispencer_clip_bl (TR)
p46
Vdispencer_top/leaf/dispencer_clip_bl (TR)
p47
sS'leftHandOptions_numIndexBones'
p48
(lp49
I2
a(lp50
F1
aF0.68000305180437937
aF0
aasVextraJoint/jaw/chain/tongue (3)
p51
Vjaw/chain/tongue (3)
p52
sS'rightArmOptions_numLowArmTwistBones'
p53
(lp54
I1
a(lp55
F0.14999618524452582
aF0.14999618524452582
aF0.14999618524452582
aasVextraJoint/ball_l/leaf/toe_big_a_l (TR)
p56
Vball_l/leaf/toe_big_a_l (TR)
p57
sVextraJoint/dispencer_top/leaf/dispencer_door_mid_fr (TR)
p58
Vdispencer_top/leaf/dispencer_door_mid_fr (TR)
p59
sS'rightLegOptions_numThighTwistBones'
p60
(lp61
I2
a(lp62
F1
aF0.68000305180437937
aF0
aasVextraJoint/dispencer_base/leaf/dispencer_top (TR)
p63
Vdispencer_base/leaf/dispencer_top (TR)
p64
sVextraJoint/jaw/leaf/muscle_jowles (TR)
p65
Vjaw/leaf/muscle_jowles (TR)
p66
sS'rightHandOptions_numIndexBones'
p67
(lp68
I2
a(lp69
F1
aF0.68000305180437937
aF0
aasVextraJoint/bottle_sack/leaf/bottle_02 (TR)
p70
Vbottle_sack/leaf/bottle_02 (TR)
p71
sVextraJoint/pelvis/chain/tail (4)
p72
Vpelvis/chain/tail (4)
p73
sVextraJoint/dispencer_top/leaf/dispencer_door_top_fr (TR)
p74
Vdispencer_top/leaf/dispencer_door_top_fr (TR)
p75
sS'leftHandOptions_numMiddleBones'
p76
(lp77
I2
a(lp78
F1
aF0.68000305180437937
aF0
aasVextraJoint/head/leaf/eyeball_r (TR)
p79
Vhead/leaf/eyeball_r (TR)
p80
sVextraJoint/dispencer_top/leaf/dispencer_door_bott_bk (TR)
p81
Vdispencer_top/leaf/dispencer_door_bott_bk (TR)
p82
sVextraJoint/dispencer_top/leaf/dispencer_door_bott_fr (TR)
p83
Vdispencer_top/leaf/dispencer_door_bott_fr (TR)
p84
sS'leftHandOptions_numRingBones'
p85
(lp86
I0
a(lp87
F1
aF0.68000305180437937
aF0
aasVextraJoint/ball_r/leaf/toe_big_a_r (TR)
p88
Vball_r/leaf/toe_big_a_r (TR)
p89
sS'rightLegOptions_numCalfTwistBones'
p90
(lp91
I0
a(lp92
F0.14999618524452582
aF0.14999618524452582
aF0.14999618524452582
aasVextraJoint/dispencer_top/leaf/dispencer_clip_fr (TR)
p93
Vdispencer_top/leaf/dispencer_clip_fr (TR)
p94
sVextraJoint/ball_r/leaf/toe_mid_a_r (TR)
p95
Vball_r/leaf/toe_mid_a_r (TR)
p96
sS'rightHandOptions_numPinkyBones'
p97
(lp98
I0
a(lp99
F1
aF0.68000305180437937
aF0
aasVextraJoint/head/leaf/throttle_pivot (TR)
p100
Vhead/leaf/throttle_pivot (TR)
p101
sVextraJoint/thigh_twist_02_l/leaf/muscle_thigh_l (TR)
p102
Vthigh_twist_02_l/leaf/muscle_thigh_l (TR)
p103
sS'rightLegIncludeBallJoint_CB'
p104
I01
sVextraJoint/pelvis/chain/tail_armor (3)
p105
Vpelvis/chain/tail_armor (3)
p106
sS'rightFootOptions_numRingBones'
p107
(lp108
I0
a(lp109
F0.16470588235294117
aF0.16470588235294117
aF0.16470588235294117
aasVextraJoint/bottle_sack/leaf/bottle_throw (TR)
p110
Vbottle_sack/leaf/bottle_throw (TR)
p111
sVextraJoint/pelvis/leaf/dispencer_base (TR)
p112
Vpelvis/leaf/dispencer_base (TR)
p113
sS'rightFootOptions_numIndexBones'
p114
(lp115
I0
a(lp116
F0.16470588235294117
aF0.16470588235294117
aF0.16470588235294117
aasS'leftFootOptions_numPinkyBones'
p117
(lp118
I0
a(lp119
F0.16470588235294117
aF0.16470588235294117
aF0.16470588235294117
aasS'leftLegOptions_numThighTwistBones'
p120
(lp121
I2
a(lp122
F1
aF0.68000305180437937
aF0
aasVextraJoint/calf_l/leaf/heel_l (TR)
p123
Vcalf_l/leaf/heel_l (TR)
p124
sVextraJoint/head/leaf/jaw (TR)
p125
Vhead/leaf/jaw (TR)
p126
sVextraJoint/pelvis/leaf/back_pack (TR)
p127
Vpelvis/leaf/back_pack (TR)
p128
sS'leftLegIncludeBallJoint_CB'
p129
I01
sS'rightHandOptions_numRingBones'
p130
(lp131
I0
a(lp132
F1
aF0.68000305180437937
aF0
aasVextraJoint/dispencer_base/leaf/dispencer_plug (TR)
p133
Vdispencer_base/leaf/dispencer_plug (TR)
p134
sS'rightHandOptions_numThumbBones'
p135
(lp136
I2
a(lp137
F1
aF0.68000305180437937
aF0
aasS'leftFootOptions_numRingBones'
p138
(lp139
I0
a(lp140
F0.16470588235294117
aF0.16470588235294117
aF0.16470588235294117
aasVextraJoint/dispencer_top/leaf/dispencer_door_top_bk (TR)
p141
Vdispencer_top/leaf/dispencer_door_top_bk (TR)
p142
sS'leftHandOptions_numThumbBones'
p143
(lp144
I2
a(lp145
F1
aF0.68000305180437937
aF0
aasVextraJoint/calf_r/leaf/heel_r (TR)
p146
Vcalf_r/leaf/heel_r (TR)
p147
sS'leftFootOptions_numIndexBones'
p148
(lp149
I0
a(lp150
F0.16470588235294117
aF0.16470588235294117
aF0.16470588235294117
aasVextraJoint/pelvis/leaf/bottle_sack (TR)
p151
Vpelvis/leaf/bottle_sack (TR)
p152
sS'rightArmOptions_numUpArmTwistBones'
p153
(lp154
I2
a(lp155
F1
aF0.68000305180437937
aF0
aasVextraJoint/head/leaf/eyeball_l (TR)
p156
Vhead/leaf/eyeball_l (TR)
p157
sVextraJoint/ball_l/leaf/toe_mid_a_l (TR)
p158
Vball_l/leaf/toe_mid_a_l (TR)
p159
sVextraJoint/dispencer_top/leaf/dispencer_clip_br (TR)
p160
Vdispencer_top/leaf/dispencer_clip_br (TR)
p161
sS'rightFootOptions_numPinkyBones'
p162
(lp163
I0
a(lp164
F0.16470588235294117
aF0.16470588235294117
aF0.16470588235294117
aasVextraJoint/dispencer_top/leaf/dispencer_door_mid_bk (TR)
p165
Vdispencer_top/leaf/dispencer_door_mid_bk (TR)
p166
sS'torsoOptions_numNeckBones'
p167
(lp168
I1
a(lp169
F1
aF0.68000305180437937
aF0
aasS'rightFootOptions_numThumbBones'
p170
(lp171
I0
a(lp172
F0.16470588235294117
aF0.16470588235294117
aF0.16470588235294117
aasS'leftFootOptions_numThumbBones'
p173
(lp174
I0
a(lp175
F0.16470588235294117
aF0.16470588235294117
aF0.16470588235294117
aas.