(dp1
VextraJoint/head/chain/fin_head_c_l (2)
p2
Vhead/chain/fin_head_c_l (2)
p3
sS'rightLegOptions_numHeelTwistBones'
p4
(lp5
I0
a(lp6
F0.26666666666666666
aF0.26666666666666666
aF0.26666666666666666
aasVextraJoint/head/chain/fin_head_mid (2)
p7
Vhead/chain/fin_head_mid (2)
p8
sS'leftArmOptions_numUpArmTwistBones'
p9
(lp10
I2
a(lp11
F1
aF0.68000305180437937
aF0
aasVextraJoint/jaw/chain/chin_tent_f_r (2)
p12
Vjaw/chain/chin_tent_f_r (2)
p13
sVextraJoint/spine_03/leaf/pec_muscle_r (TR)
p14
Vspine_03/leaf/pec_muscle_r (TR)
p15
sVextraJoint/spine_03/chain/fin_spine_c (2)
p16
Vspine_03/chain/fin_spine_c (2)
p17
sVextraJoint/head/leaf/eyelid_bott_r (TR)
p18
Vhead/leaf/eyelid_bott_r (TR)
p19
sVextraJoint/toe_mid_02_l/leaf/toe_mid_03_l (TR)
p20
Vtoe_mid_02_l/leaf/toe_mid_03_l (TR)
p21
sVextraJoint/head/leaf/eyelid_top_r (TR)
p22
Vhead/leaf/eyelid_top_r (TR)
p23
sVextraJoint/spine_03/chain/fin_scap_b_r (2)
p24
Vspine_03/chain/fin_scap_b_r (2)
p25
sVextraJoint/head/chain/fin_head_a_l (2)
p26
Vhead/chain/fin_head_a_l (2)
p27
sVextraJoint/spine_02/leaf/lat_muscle_l (TR)
p28
Vspine_02/leaf/lat_muscle_l (TR)
p29
sVextraJoint/spine_03/chain/fin_spine_b (2)
p30
Vspine_03/chain/fin_spine_b (2)
p31
sS'torsoOptions_numSpineBones'
p32
(lp33
I3
a(lp34
F0.16470588235294117
aF0.16470588235294117
aF0.16470588235294117
aasVextraJoint/toe_mid_01_l/leaf/toe_mid_02_l (TR)
p35
Vtoe_mid_01_l/leaf/toe_mid_02_l (TR)
p36
sS'rightFootOptions_numThumbBones'
p37
(lp38
I0
a(lp39
F0.14999618524452582
aF0.14999618524452582
aF0.14999618524452582
aasVextraJoint/toe_pinky_02_r/leaf/toe_pinky_03_r (TR)
p40
Vtoe_pinky_02_r/leaf/toe_pinky_03_r (TR)
p41
sVextraJoint/ball_r/leaf/toe_pinky_01_r (TR)
p42
Vball_r/leaf/toe_pinky_01_r (TR)
p43
sS'rightHandOptions_numIndexBones'
p44
(lp45
I3
a(lp46
F0.14999618524452582
aF0.14999618524452582
aF0.14999618524452582
aasVextraJoint/upperarm_twist_02_l/leaf/bicep_muscle_l (TR)
p47
Vupperarm_twist_02_l/leaf/bicep_muscle_l (TR)
p48
sVextraJoint/toe_index_01_r/leaf/toe_index_02_r (TR)
p49
Vtoe_index_01_r/leaf/toe_index_02_r (TR)
p50
sVextraJoint/jaw/chain/chin_tent_d_r (2)
p51
Vjaw/chain/chin_tent_d_r (2)
p52
sS'leftHandOptions_numRingBones'
p53
(lp54
I0
a(lp55
F1
aF0.68000305180437937
aF0
aasVextraJoint/toe_index_02_r/leaf/toe_index_03_r (TR)
p56
Vtoe_index_02_r/leaf/toe_index_03_r (TR)
p57
sS'rightLegOptions_numCalfTwistBones'
p58
(lp59
I1
a(lp60
F0.14999618524452582
aF0.14999618524452582
aF0.14999618524452582
aasVextraJoint/toe_pinky_01_l/leaf/toe_pinky_02_l (TR)
p61
Vtoe_pinky_01_l/leaf/toe_pinky_02_l (TR)
p62
sS'rightFootOptions_numRingBones'
p63
(lp64
I0
a(lp65
F0.16470588235294117
aF0.16470588235294117
aF0.16470588235294117
aasVextraJoint/lowerarm_twist_01_r/leaf/fin_arm_a_r (TR)
p66
Vlowerarm_twist_01_r/leaf/fin_arm_a_r (TR)
p67
sVextraJoint/jaw/chain/chin_tent_a_l (2)
p68
Vjaw/chain/chin_tent_a_l (2)
p69
sVextraJoint/head/chain/chin_tent_k_r (2)
p70
Vhead/chain/chin_tent_k_r (2)
p71
sVextraJoint/jaw/chain/chin_tent_h_r (2)
p72
Vjaw/chain/chin_tent_h_r (2)
p73
sS'leftHandOptions_numThumbBones'
p74
(lp75
I2
a(lp76
F1
aF0.68000305180437937
aF0
aasS'leftFootOptions_numIndexBones'
p77
(lp78
I0
a(lp79
F0.14999618524452582
aF0.14999618524452582
aF0.14999618524452582
aasVextraJoint/jaw/chain/chin_tent_g_l (2)
p80
Vjaw/chain/chin_tent_g_l (2)
p81
sVextraJoint/jaw/chain/chin_tent_c_r (2)
p82
Vjaw/chain/chin_tent_c_r (2)
p83
sS'leftFootOptions_numMiddleBones'
p84
(lp85
I0
a(lp86
F0.14999618524452582
aF0.14999618524452582
aF0.14999618524452582
aasVextraJoint/toe_pinky_01_r/leaf/toe_pinky_02_r (TR)
p87
Vtoe_pinky_01_r/leaf/toe_pinky_02_r (TR)
p88
sS'leftLegOptions_numCalfTwistBones'
p89
(lp90
I1
a(lp91
F0.14999618524452582
aF0.14999618524452582
aF0.14999618524452582
aasVextraJoint/spine_03/chain/fin_spine_a (2)
p92
Vspine_03/chain/fin_spine_a (2)
p93
sVextraJoint/head/chain/fin_head_a_r (2)
p94
Vhead/chain/fin_head_a_r (2)
p95
sVextraJoint/lowerarm_l/chain/fin_arm_c_l (2)
p96
Vlowerarm_l/chain/fin_arm_c_l (2)
p97
sVextraJoint/jaw/chain/chin_tent_g_r (2)
p98
Vjaw/chain/chin_tent_g_r (2)
p99
sS'leftHandOptions_numIndexBones'
p100
(lp101
I3
a(lp102
F0.14999618524452582
aF0.14999618524452582
aF0.14999618524452582
aasS'rightArmOptions_numLowArmTwistBones'
p103
(lp104
I1
a(lp105
F0.16470588235294117
aF0.16470588235294117
aF0.16470588235294117
aasS'leftHandOptions_numMiddleBones'
p106
(lp107
I0
a(lp108
F1
aF0.68000305180437937
aF0
aasVextraJoint/head/leaf/eyeball_r (TR)
p109
Vhead/leaf/eyeball_r (TR)
p110
sS'rightHandOptions_numPinkyBones'
p111
(lp112
I3
a(lp113
F1
aF0.68000305180437937
aF0
aasVextraJoint/spine_03/chain/fin_scap_a_l (2)
p114
Vspine_03/chain/fin_scap_a_l (2)
p115
sVextraJoint/head/leaf/eyelid_top_l (TR)
p116
Vhead/leaf/eyelid_top_l (TR)
p117
sVextraJoint/spine_03/chain/fin_scap_c_r (2)
p118
Vspine_03/chain/fin_scap_c_r (2)
p119
sS'leftFootOptions_numPinkyBones'
p120
(lp121
I0
a(lp122
F0.14999618524452582
aF0.14999618524452582
aF0.14999618524452582
aasS'leftLegOptions_numThighTwistBones'
p123
(lp124
I2
a(lp125
F1
aF0.68000305180437937
aF0
aasS'leftLegIncludeBallJoint_CB'
p126
I01
sVextraJoint/ball_l/leaf/toe_pinky_01_l (TR)
p127
Vball_l/leaf/toe_pinky_01_l (TR)
p128
sS'leftFootOptions_numRingBones'
p129
(lp130
I0
a(lp131
F0.16470588235294117
aF0.16470588235294117
aF0.16470588235294117
aasVextraJoint/jaw/chain/chin_tent_f_l (2)
p132
Vjaw/chain/chin_tent_f_l (2)
p133
sS'rightFootOptions_numPinkyBones'
p134
(lp135
I0
a(lp136
F0.14999618524452582
aF0.14999618524452582
aF0.14999618524452582
aasVextraJoint/spine_03/chain/fin_scap_c_l (2)
p137
Vspine_03/chain/fin_scap_c_l (2)
p138
sVextraJoint/head/leaf/jaw (TR)
p139
Vhead/leaf/jaw (TR)
p140
sS'rightFootOptions_numMiddleBones'
p141
(lp142
I0
a(lp143
F0.14999618524452582
aF0.14999618524452582
aF0.14999618524452582
aasVextraJoint/head/chain/chin_tent_k_l (2)
p144
Vhead/chain/chin_tent_k_l (2)
p145
sS'leftArmOptions_numLowArmTwistBones'
p146
(lp147
I1
a(lp148
F0.16470588235294117
aF0.16470588235294117
aF0.16470588235294117
aasVextraJoint/head/chain/fin_head_b_r (2)
p149
Vhead/chain/fin_head_b_r (2)
p150
sVextraJoint/lowerarm_twist_01_l/chain/fin_arm_b_l (2)
p151
Vlowerarm_twist_01_l/chain/fin_arm_b_l (2)
p152
sVextraJoint/head/chain/fin_head_b_l (2)
p153
Vhead/chain/fin_head_b_l (2)
p154
sVextraJoint/jaw/chain/chin_tent_e_r (2)
p155
Vjaw/chain/chin_tent_e_r (2)
p156
sS'leftHandOptions_numPinkyBones'
p157
(lp158
I3
a(lp159
F0.14999618524452582
aF0.14999618524452582
aF0.14999618524452582
aasVextraJoint/ball_l/leaf/toe_index_01_l (TR)
p160
Vball_l/leaf/toe_index_01_l (TR)
p161
sVextraJoint/jaw/chain/chin_tent_c_l (2)
p162
Vjaw/chain/chin_tent_c_l (2)
p163
sVextraJoint/spine_03/leaf/fin_scap_d_l (TR)
p164
Vspine_03/leaf/fin_scap_d_l (TR)
p165
sS'rightLegOptions_numThighTwistBones'
p166
(lp167
I2
a(lp168
F1
aF0.68000305180437937
aF0
aasVextraJoint/spine_03/leaf/fin_scap_d_r (TR)
p169
Vspine_03/leaf/fin_scap_d_r (TR)
p170
sVextraJoint/toe_pinky_02_l/leaf/toe_pinky_03_l (TR)
p171
Vtoe_pinky_02_l/leaf/toe_pinky_03_l (TR)
p172
sVextraJoint/jaw/chain/chin_tent_i_r (2)
p173
Vjaw/chain/chin_tent_i_r (2)
p174
sVextraJoint/jaw/chain/chin_tent_e_l (2)
p175
Vjaw/chain/chin_tent_e_l (2)
p176
sVextraJoint/lowerarm_twist_01_l/leaf/fin_arm_a_l (TR)
p177
Vlowerarm_twist_01_l/leaf/fin_arm_a_l (TR)
p178
sVextraJoint/upperarm_twist_02_r/leaf/tricep_muscle_r (TR)
p179
Vupperarm_twist_02_r/leaf/tricep_muscle_r (TR)
p180
sVextraJoint/head/leaf/eyebrow_in_r (TR)
p181
Vhead/leaf/eyebrow_in_r (TR)
p182
sS'rightFootOptions_numIndexBones'
p183
(lp184
I0
a(lp185
F0.14999618524452582
aF0.14999618524452582
aF0.14999618524452582
aasVextraJoint/head/chain/fin_head_c_r (2)
p186
Vhead/chain/fin_head_c_r (2)
p187
sVextraJoint/hand_r/leaf/weapon_r (TR)
p188
Vhand_r/leaf/weapon_r (TR)
p189
sS'rightHandOptions_numRingBones'
p190
(lp191
I0
a(lp192
F1
aF0.68000305180437937
aF0
aasVextraJoint/lowerarm_r/chain/fin_arm_c_r (2)
p193
Vlowerarm_r/chain/fin_arm_c_r (2)
p194
sVextraJoint/ball_l/leaf/toe_mid_01_l (TR)
p195
Vball_l/leaf/toe_mid_01_l (TR)
p196
sVextraJoint/toe_mid_02_r/leaf/toe_mid_03_r (TR)
p197
Vtoe_mid_02_r/leaf/toe_mid_03_r (TR)
p198
sVextraJoint/head/leaf/eyeball_l (TR)
p199
Vhead/leaf/eyeball_l (TR)
p200
sVextraJoint/head/leaf/eyebrow_mid (TR)
p201
Vhead/leaf/eyebrow_mid (TR)
p202
sVextraJoint/upperarm_twist_02_l/leaf/tricep_muscle_l (TR)
p203
Vupperarm_twist_02_l/leaf/tricep_muscle_l (TR)
p204
sS'leftFootOptions_numThumbBones'
p205
(lp206
I0
a(lp207
F0.14999618524452582
aF0.14999618524452582
aF0.14999618524452582
aasVextraJoint/toe_index_02_l/leaf/toe_index_03_l (TR)
p208
Vtoe_index_02_l/leaf/toe_index_03_l (TR)
p209
sS'leftLegOptions_numHeelTwistBones'
p210
(lp211
I0
a(lp212
F0.26666666666666666
aF0.26666666666666666
aF0.26666666666666666
aasVextraJoint/lowerarm_l/chain/fin_arm_d_l (2)
p213
Vlowerarm_l/chain/fin_arm_d_l (2)
p214
sVextraJoint/spine_03/chain/fin_spine_d (2)
p215
Vspine_03/chain/fin_spine_d (2)
p216
sVextraJoint/ball_r/leaf/toe_index_01_r (TR)
p217
Vball_r/leaf/toe_index_01_r (TR)
p218
sVextraJoint/spine_03/leaf/pec_muscle_l (TR)
p219
Vspine_03/leaf/pec_muscle_l (TR)
p220
sVextraJoint/upperarm_twist_02_r/leaf/bicep_muscle_r (TR)
p221
Vupperarm_twist_02_r/leaf/bicep_muscle_r (TR)
p222
sS'rightHandOptions_numMiddleBones'
p223
(lp224
I0
a(lp225
F1
aF0.68000305180437937
aF0
aasVextraJoint/head/leaf/eyebrow_in_l (TR)
p226
Vhead/leaf/eyebrow_in_l (TR)
p227
sVextraJoint/lowerarm_twist_01_r/chain/fin_arm_b_r (2)
p228
Vlowerarm_twist_01_r/chain/fin_arm_b_r (2)
p229
sVextraJoint/ball_r/leaf/toe_mid_01_r (TR)
p230
Vball_r/leaf/toe_mid_01_r (TR)
p231
sVextraJoint/jaw/chain/chin_tent_d_l (2)
p232
Vjaw/chain/chin_tent_d_l (2)
p233
sVextraJoint/jaw/chain/chin_tent_a_r (2)
p234
Vjaw/chain/chin_tent_a_r (2)
p235
sVextraJoint/toe_mid_01_r/leaf/toe_mid_02_r (TR)
p236
Vtoe_mid_01_r/leaf/toe_mid_02_r (TR)
p237
sVextraJoint/lowerarm_twist_01_l/chain/chain (7)
p238
Vlowerarm_twist_01_l/chain/chain (7)
p239
sS'rightLegIncludeBallJoint_CB'
p240
I01
sVextraJoint/head/leaf/eyelid_bott_l (TR)
p241
Vhead/leaf/eyelid_bott_l (TR)
p242
sVextraJoint/lowerarm_r/chain/fin_arm_d_r (2)
p243
Vlowerarm_r/chain/fin_arm_d_r (2)
p244
sVextraJoint/spine_03/chain/fin_scap_a_r (2)
p245
Vspine_03/chain/fin_scap_a_r (2)
p246
sVextraJoint/jaw/chain/chin_tent_i_l (2)
p247
Vjaw/chain/chin_tent_i_l (2)
p248
sVextraJoint/spine_03/chain/fin_scap_b_l (2)
p249
Vspine_03/chain/fin_scap_b_l (2)
p250
sS'rightHandOptions_numThumbBones'
p251
(lp252
I2
a(lp253
F1
aF0.68000305180437937
aF0
aasVextraJoint/toe_index_01_l/leaf/toe_index_02_l (TR)
p254
Vtoe_index_01_l/leaf/toe_index_02_l (TR)
p255
sVextraJoint/spine_02/leaf/lat_muscle_r (TR)
p256
Vspine_02/leaf/lat_muscle_r (TR)
p257
sVextraJoint/jaw/chain/chin_tent_h_l (2)
p258
Vjaw/chain/chin_tent_h_l (2)
p259
sS'torsoOptions_numNeckBones'
p260
(lp261
I2
a(lp262
F0.14999618524452582
aF0.14999618524452582
aF0.14999618524452582
aasS'rightArmOptions_numUpArmTwistBones'
p263
(lp264
I2
a(lp265
F1
aF0.68000305180437937
aF0
aas.