(dp1
S'rightFootOptions_numMiddleBones'
p2
(lp3
I0
a(lp4
F0.16470588235294117
aF0.16470588235294117
aF0.16470588235294117
aasVextraJoint/outer_ring_B_r/leaf/outer_ring_C_r (TR)
p5
Vouter_ring_B_r/leaf/outer_ring_C_r (TR)
p6
sS'rightLegOptions_numHeelTwistBones'
p7
(lp8
I0
a(lp9
F0.26666666666666666
aF0.26666666666666666
aF0.26666666666666666
aasS'leftArmOptions_numLowArmTwistBones'
p10
(lp11
I2
a(lp12
F1
aF0.68000305180437937
aF0
aasVextraJoint/pelvis/chain/loin_cloth_bk (3)
p13
Vpelvis/chain/loin_cloth_bk (3)
p14
sS'leftLegOptions_numHeelTwistBones'
p15
(lp16
I0
a(lp17
F0.26666666666666666
aF0.26666666666666666
aF0.26666666666666666
aasS'leftArmOptions_numUpArmTwistBones'
p18
(lp19
I2
a(lp20
F1
aF0.68000305180437937
aF0
aasVextraJoint/spine_02/jiggle/cloth_chest_bk_l
p21
Vspine_02/jiggle/cloth_chest_bk_l
p22
sS'leftFootOptions_numMiddleBones'
p23
(lp24
I0
a(lp25
F0.16470588235294117
aF0.16470588235294117
aF0.16470588235294117
aasVextraJoint/portal_ring/leaf/portal (TR)
p26
Vportal_ring/leaf/portal (TR)
p27
sVextraJoint/head/leaf/eyebrow_inner_r (TR)
p28
Vhead/leaf/eyebrow_inner_r (TR)
p29
sVextraJoint/head/leaf/eyelid_bott_r (TR)
p30
Vhead/leaf/eyelid_bott_r (TR)
p31
sVextraJoint/head/leaf/eyebrow_inner_l (TR)
p32
Vhead/leaf/eyebrow_inner_l (TR)
p33
sVextraJoint/hips_cloth_main_l/chain/hips_cloth_bk_l (2)
p34
Vhips_cloth_main_l/chain/hips_cloth_bk_l (2)
p35
sVextraJoint/spine_02/jiggle/cloth_chest_bk_r
p36
Vspine_02/jiggle/cloth_chest_bk_r
p37
sS'leftLegOptions_numCalfTwistBones'
p38
(lp39
I1
a(lp40
F0.16470588235294117
aF0.16470588235294117
aF0.16470588235294117
aasVextraJoint/head/leaf/eyelid_top_r (TR)
p41
Vhead/leaf/eyelid_top_r (TR)
p42
sVextraJoint/outer_ring_A_l/leaf/outer_ring_A_piston01_l (TR)
p43
Vouter_ring_A_l/leaf/outer_ring_A_piston01_l (TR)
p44
sVextraJoint/outer_ring_A_r/leaf/outer_ring_A_piston02_r (TR)
p45
Vouter_ring_A_r/leaf/outer_ring_A_piston02_r (TR)
p46
sS'leftHandOptions_numPinkyBones'
p47
(lp48
I3
a(lp49
F0.16470588235294117
aF0.16470588235294117
aF0.16470588235294117
aasVextraJoint/head/leaf/eyelid_bott_l (TR)
p50
Vhead/leaf/eyelid_bott_l (TR)
p51
sS'rightHandOptions_numMiddleBones'
p52
(lp53
I3
a(lp54
F0.16470588235294117
aF0.16470588235294117
aF0.16470588235294117
aasVextraJoint/spine_03/leaf/cowl_l (TR)
p55
Vspine_03/leaf/cowl_l (TR)
p56
sVextraJoint/hips_cloth_main_r/chain/hips_cloth_fr_r (2)
p57
Vhips_cloth_main_r/chain/hips_cloth_fr_r (2)
p58
sS'torsoOptions_numSpineBones'
p59
(lp60
I3
a(lp61
F0.16470588235294117
aF0.16470588235294117
aF0.16470588235294117
aasVextraJoint/outer_ring_base/leaf/portal_ring (TR)
p62
Vouter_ring_base/leaf/portal_ring (TR)
p63
sS'leftHandOptions_numIndexBones'
p64
(lp65
I3
a(lp66
F0.16470588235294117
aF0.16470588235294117
aF0.16470588235294117
aasVextraJoint/head/leaf/eyebrow_outer_r (TR)
p67
Vhead/leaf/eyebrow_outer_r (TR)
p68
sS'rightArmOptions_numLowArmTwistBones'
p69
(lp70
I2
a(lp71
F1
aF0.68000305180437937
aF0
aasVextraJoint/pelvis/chain/loin_cloth_fr (3)
p72
Vpelvis/chain/loin_cloth_fr (3)
p73
sS'rightLegOptions_numThighTwistBones'
p74
(lp75
I2
a(lp76
F1
aF0.68000305180437937
aF0
aasVextraJoint/outer_ring_B_l/leaf/outer_ring_C_l (TR)
p77
Vouter_ring_B_l/leaf/outer_ring_C_l (TR)
p78
sVextraJoint/hips_cloth_main_l/chain/hips_cloth_fr_l (2)
p79
Vhips_cloth_main_l/chain/hips_cloth_fr_l (2)
p80
sS'rightHandOptions_numIndexBones'
p81
(lp82
I3
a(lp83
F0.16470588235294117
aF0.16470588235294117
aF0.16470588235294117
aasVextraJoint/outer_ring_A_l/leaf/outer_ring_A_piston02_l (TR)
p84
Vouter_ring_A_l/leaf/outer_ring_A_piston02_l (TR)
p85
sVextraJoint/head/leaf/eyebrow_outer_l (TR)
p86
Vhead/leaf/eyebrow_outer_l (TR)
p87
sVextraJoint/root/leaf/outer_ring_base_ik (TR)
p88
Vroot/leaf/outer_ring_base_ik (TR)
p89
sVextraJoint/outer_ring_A_r/leaf/outer_ring_A_piston01_r (TR)
p90
Vouter_ring_A_r/leaf/outer_ring_A_piston01_r (TR)
p91
sS'leftHandOptions_numMiddleBones'
p92
(lp93
I3
a(lp94
F0.16470588235294117
aF0.16470588235294117
aF0.16470588235294117
aasVextraJoint/head/leaf/eyeball_r (TR)
p95
Vhead/leaf/eyeball_r (TR)
p96
sVextraJoint/outer_ring_A_l/leaf/outer_ring_B_l (TR)
p97
Vouter_ring_A_l/leaf/outer_ring_B_l (TR)
p98
sVextraJoint/spine_02/jiggle/cloth_chest_fr_r
p99
Vspine_02/jiggle/cloth_chest_fr_r
p100
sVextraJoint/outer_ring_A_r/leaf/outer_ring_B_r (TR)
p101
Vouter_ring_A_r/leaf/outer_ring_B_r (TR)
p102
sVextraJoint/outer_ring_base/leaf/outer_ring_A_r (TR)
p103
Vouter_ring_base/leaf/outer_ring_A_r (TR)
p104
sVextraJoint/spine_03/leaf/cowl_r (TR)
p105
Vspine_03/leaf/cowl_r (TR)
p106
sVextraJoint/spine_03/leaf/outer_ring_base (TR)
p107
Vspine_03/leaf/outer_ring_base (TR)
p108
sVextraJoint/head/leaf/eyeball_l (TR)
p109
Vhead/leaf/eyeball_l (TR)
p110
sS'leftHandOptions_numRingBones'
p111
(lp112
I3
a(lp113
F0.16470588235294117
aF0.16470588235294117
aF0.16470588235294117
aasS'rightLegOptions_numCalfTwistBones'
p114
(lp115
I1
a(lp116
F0.16470588235294117
aF0.16470588235294117
aF0.16470588235294117
aasS'rightHandOptions_numPinkyBones'
p117
(lp118
I3
a(lp119
F0.16470588235294117
aF0.16470588235294117
aF0.16470588235294117
aasVextraJoint/outer_ring_B_r/leaf/outer_ring_B_piston01_r (TR)
p120
Vouter_ring_B_r/leaf/outer_ring_B_piston01_r (TR)
p121
sS'rightLegIncludeBallJoint_CB'
p122
I01
sVextraJoint/head/leaf/eyelid_top_l (TR)
p123
Vhead/leaf/eyelid_top_l (TR)
p124
sS'rightFootOptions_numRingBones'
p125
(lp126
I0
a(lp127
F0.16470588235294117
aF0.16470588235294117
aF0.16470588235294117
aasVextraJoint/head/leaf/eyebrow_mid (TR)
p128
Vhead/leaf/eyebrow_mid (TR)
p129
sVextraJoint/head/leaf/hood_r (TR)
p130
Vhead/leaf/hood_r (TR)
p131
sS'rightFootOptions_numIndexBones'
p132
(lp133
I0
a(lp134
F0.16470588235294117
aF0.16470588235294117
aF0.16470588235294117
aasVextraJoint/pelvis/leaf/hips_cloth_main_r (TR)
p135
Vpelvis/leaf/hips_cloth_main_r (TR)
p136
sS'leftFootOptions_numPinkyBones'
p137
(lp138
I0
a(lp139
F0.16470588235294117
aF0.16470588235294117
aF0.16470588235294117
aasVextraJoint/spine_02/jiggle/cloth_chest_fr_l
p140
Vspine_02/jiggle/cloth_chest_fr_l
p141
sS'leftLegOptions_numThighTwistBones'
p142
(lp143
I2
a(lp144
F1
aF0.68000305180437937
aF0
aasVextraJoint/head/leaf/jaw (TR)
p145
Vhead/leaf/jaw (TR)
p146
sVextraJoint/hips_cloth_main_r/chain/hips_cloth_bk_r (2)
p147
Vhips_cloth_main_r/chain/hips_cloth_bk_r (2)
p148
sS'leftLegIncludeBallJoint_CB'
p149
I01
sS'rightHandOptions_numRingBones'
p150
(lp151
I3
a(lp152
F0.16470588235294117
aF0.16470588235294117
aF0.16470588235294117
aasVextraJoint/spine_02/chain/chest_cloth (4)
p153
Vspine_02/chain/chest_cloth (4)
p154
sS'rightHandOptions_numThumbBones'
p155
(lp156
I3
a(lp157
F0.16470588235294117
aF0.16470588235294117
aF0.16470588235294117
aasS'leftFootOptions_numRingBones'
p158
(lp159
I0
a(lp160
F0.16470588235294117
aF0.16470588235294117
aF0.16470588235294117
aasVextraJoint/pelvis/leaf/hips_cloth_main_l (TR)
p161
Vpelvis/leaf/hips_cloth_main_l (TR)
p162
sS'leftHandOptions_numThumbBones'
p163
(lp164
I3
a(lp165
F0.16470588235294117
aF0.16470588235294117
aF0.16470588235294117
aasVextraJoint/outer_ring_base/leaf/outer_ring_A_l (TR)
p166
Vouter_ring_base/leaf/outer_ring_A_l (TR)
p167
sS'leftFootOptions_numIndexBones'
p168
(lp169
I0
a(lp170
F0.16470588235294117
aF0.16470588235294117
aF0.16470588235294117
aasVextraJoint/outer_ring_B_l/leaf/outer_ring_B_piston01_l (TR)
p171
Vouter_ring_B_l/leaf/outer_ring_B_piston01_l (TR)
p172
sS'rightArmOptions_numUpArmTwistBones'
p173
(lp174
I2
a(lp175
F1
aF0.68000305180437937
aF0
aasVextraJoint/spine_03/leaf/cowl_bk (TR)
p176
Vspine_03/leaf/cowl_bk (TR)
p177
sS'rightFootOptions_numPinkyBones'
p178
(lp179
I0
a(lp180
F0.16470588235294117
aF0.16470588235294117
aF0.16470588235294117
aasS'torsoOptions_numNeckBones'
p181
(lp182
I2
a(lp183
F0.16470588235294117
aF0.16470588235294117
aF0.16470588235294117
aasS'rightFootOptions_numThumbBones'
p184
(lp185
I0
a(lp186
F0.16470588235294117
aF0.16470588235294117
aF0.16470588235294117
aasS'leftFootOptions_numThumbBones'
p187
(lp188
I0
a(lp189
F0.16470588235294117
aF0.16470588235294117
aF0.16470588235294117
aasVextraJoint/head/leaf/hood_l (TR)
p190
Vhead/leaf/hood_l (TR)
p191
s.