(dp1
S'rightLegOptions_numHeelTwistBones'
p2
(lp3
I0
a(lp4
F0.26666666666666666
aF0.26666666666666666
aF0.26666666666666666
aasVextraJoint/lowerarm_l/leaf/up_lowarm_plate_A_l (TR)
p5
Vlowerarm_l/leaf/up_lowarm_plate_A_l (TR)
p6
sVextraJoint/spine_03/leaf/dogtag (TR)
p7
Vspine_03/leaf/dogtag (TR)
p8
sS'leftArmOptions_numUpArmTwistBones'
p9
(lp10
I2
a(lp11
F1
aF0.68000305180437937
aF0
aasVextraJoint/head/leaf/eyelid_bott_r (TR)
p12
Vhead/leaf/eyelid_bott_r (TR)
p13
sVextraJoint/head/leaf/eyelid_top_r (TR)
p14
Vhead/leaf/eyelid_top_r (TR)
p15
sVextraJoint/lowerarm_l/leaf/up_lowarm_plate_D_l (TR)
p16
Vlowerarm_l/leaf/up_lowarm_plate_D_l (TR)
p17
sS'torsoOptions_numSpineBones'
p18
(lp19
I3
a(lp20
F0.16470588235294117
aF0.16470588235294117
aF0.16470588235294117
aasS'rightFootOptions_numThumbBones'
p21
(lp22
I0
a(lp23
F0.16470588235294117
aF0.16470588235294117
aF0.16470588235294117
aasVextraJoint/lowerarm_r/leaf/up_lowarm_plate_C_r (TR)
p24
Vlowerarm_r/leaf/up_lowarm_plate_C_r (TR)
p25
sS'rightHandOptions_numIndexBones'
p26
(lp27
I3
a(lp28
F0.16470588235294117
aF0.16470588235294117
aF0.16470588235294117
aasVextraJoint/hand_r/leaf/q_weapon_r (TR)
p29
Vhand_r/leaf/q_weapon_r (TR)
p30
sVextraJoint/spine_03/leaf/collar_out_l (TR)
p31
Vspine_03/leaf/collar_out_l (TR)
p32
sVextraJoint/weapon_r/leaf/weapon_stock_r (TR)
p33
Vweapon_r/leaf/weapon_stock_r (TR)
p34
sVextraJoint/spine_03/leaf/collar_in_r (TR)
p35
Vspine_03/leaf/collar_in_r (TR)
p36
sVextraJoint/lowerarm_l/leaf/forearm_gears_l (TR)
p37
Vlowerarm_l/leaf/forearm_gears_l (TR)
p38
sS'leftHandOptions_numRingBones'
p39
(lp40
I3
a(lp41
F0.16470588235294117
aF0.16470588235294117
aF0.16470588235294117
aasS'rightLegOptions_numCalfTwistBones'
p42
(lp43
I1
a(lp44
F0.16470588235294117
aF0.16470588235294117
aF0.16470588235294117
aasVextraJoint/grenade/leaf/grenade_fin_04 (TR)
p45
Vgrenade/leaf/grenade_fin_04 (TR)
p46
sS'rightFootOptions_numRingBones'
p47
(lp48
I0
a(lp49
F0.16470588235294117
aF0.16470588235294117
aF0.16470588235294117
aasVextraJoint/weapon_l/leaf/weapon_forestock_bott_l (TR)
p50
Vweapon_l/leaf/weapon_forestock_bott_l (TR)
p51
sVextraJoint/lowerarm_r/leaf/forearm_gears_r (TR)
p52
Vlowerarm_r/leaf/forearm_gears_r (TR)
p53
sVextraJoint/spine_03/leaf/collar_back (TR)
p54
Vspine_03/leaf/collar_back (TR)
p55
sVextraJoint/head/leaf/eyebrow_out_r (TR)
p56
Vhead/leaf/eyebrow_out_r (TR)
p57
sVextraJoint/grenade/leaf/grenade_fin_03 (TR)
p58
Vgrenade/leaf/grenade_fin_03 (TR)
p59
sS'leftHandOptions_numThumbBones'
p60
(lp61
I3
a(lp62
F0.16470588235294117
aF0.16470588235294117
aF0.16470588235294117
aasS'leftFootOptions_numIndexBones'
p63
(lp64
I0
a(lp65
F0.16470588235294117
aF0.16470588235294117
aF0.16470588235294117
aasVextraJoint/lowerarm_r/leaf/up_lowarm_plate_D_r (TR)
p66
Vlowerarm_r/leaf/up_lowarm_plate_D_r (TR)
p67
sVextraJoint/collar_out_l/leaf/collar_out_flap_bott_l (TR)
p68
Vcollar_out_l/leaf/collar_out_flap_bott_l (TR)
p69
sVextraJoint/hand_l/leaf/ult_weapon_l (TR)
p70
Vhand_l/leaf/ult_weapon_l (TR)
p71
sVextraJoint/lowerarm_l/leaf/low_lowarm_plate_B_l (TR)
p72
Vlowerarm_l/leaf/low_lowarm_plate_B_l (TR)
p73
sVextraJoint/grenade/leaf/grenade_fin_02 (TR)
p74
Vgrenade/leaf/grenade_fin_02 (TR)
p75
sS'leftFootOptions_numMiddleBones'
p76
(lp77
I0
a(lp78
F0.16470588235294117
aF0.16470588235294117
aF0.16470588235294117
aasVextraJoint/lowerarm_r/leaf/low_lowarm_plate_C_r (TR)
p79
Vlowerarm_r/leaf/low_lowarm_plate_C_r (TR)
p80
sS'leftLegOptions_numCalfTwistBones'
p81
(lp82
I1
a(lp83
F0.16470588235294117
aF0.16470588235294117
aF0.16470588235294117
aasS'leftHandOptions_numIndexBones'
p84
(lp85
I3
a(lp86
F0.16470588235294117
aF0.16470588235294117
aF0.16470588235294117
aasS'rightArmOptions_numLowArmTwistBones'
p87
(lp88
I3
a(lp89
F1
aF0.68000305180437937
aF0
aasS'leftHandOptions_numMiddleBones'
p90
(lp91
I3
a(lp92
F0.16470588235294117
aF0.16470588235294117
aF0.16470588235294117
aasVextraJoint/head/leaf/eyeball_r (TR)
p93
Vhead/leaf/eyeball_r (TR)
p94
sVextraJoint/lowerarm_r/leaf/low_lowarm_plate_D_r (TR)
p95
Vlowerarm_r/leaf/low_lowarm_plate_D_r (TR)
p96
sVextraJoint/collar_out_r/leaf/collar_out_flap_bott_r (TR)
p97
Vcollar_out_r/leaf/collar_out_flap_bott_r (TR)
p98
sVextraJoint/collar_out_r/leaf/collar_out_flap_top_r (TR)
p99
Vcollar_out_r/leaf/collar_out_flap_top_r (TR)
p100
sS'rightHandOptions_numPinkyBones'
p101
(lp102
I3
a(lp103
F0.16470588235294117
aF0.16470588235294117
aF0.16470588235294117
aasVextraJoint/head/leaf/eyelid_top_l (TR)
p104
Vhead/leaf/eyelid_top_l (TR)
p105
sVextraJoint/grenade/leaf/grenade_fin_05 (TR)
p106
Vgrenade/leaf/grenade_fin_05 (TR)
p107
sS'leftFootOptions_numPinkyBones'
p108
(lp109
I0
a(lp110
F0.16470588235294117
aF0.16470588235294117
aF0.16470588235294117
aasS'leftLegOptions_numThighTwistBones'
p111
(lp112
I2
a(lp113
F1
aF0.68000305180437937
aF0
aasVextraJoint/weapon_l/leaf/weapon_forestock_top_l (TR)
p114
Vweapon_l/leaf/weapon_forestock_top_l (TR)
p115
sS'leftLegIncludeBallJoint_CB'
p116
I01
sS'leftFootOptions_numRingBones'
p117
(lp118
I0
a(lp119
F0.16470588235294117
aF0.16470588235294117
aF0.16470588235294117
aasVextraJoint/lowerarm_l/leaf/up_lowarm_plate_C_l (TR)
p120
Vlowerarm_l/leaf/up_lowarm_plate_C_l (TR)
p121
sVextraJoint/weapon_r/leaf/weapon_forestock_bott_r (TR)
p122
Vweapon_r/leaf/weapon_forestock_bott_r (TR)
p123
sS'rightFootOptions_numPinkyBones'
p124
(lp125
I0
a(lp126
F0.16470588235294117
aF0.16470588235294117
aF0.16470588235294117
aasS'rightFootOptions_numMiddleBones'
p127
(lp128
I0
a(lp129
F0.16470588235294117
aF0.16470588235294117
aF0.16470588235294117
aasVextraJoint/lowerarm_l/leaf/up_lowarm_plate_B_l (TR)
p130
Vlowerarm_l/leaf/up_lowarm_plate_B_l (TR)
p131
sS'leftArmOptions_numLowArmTwistBones'
p132
(lp133
I3
a(lp134
F1
aF0.68000305180437937
aF0
aasVextraJoint/lowerarm_l/leaf/low_lowarm_plate_A_l (TR)
p135
Vlowerarm_l/leaf/low_lowarm_plate_A_l (TR)
p136
sVextraJoint/collar_out_l/leaf/collar_out_flap_top_l (TR)
p137
Vcollar_out_l/leaf/collar_out_flap_top_l (TR)
p138
sS'leftHandOptions_numPinkyBones'
p139
(lp140
I3
a(lp141
F0.16470588235294117
aF0.16470588235294117
aF0.16470588235294117
aasVextraJoint/lowerarm_l/leaf/low_lowarm_plate_C_l (TR)
p142
Vlowerarm_l/leaf/low_lowarm_plate_C_l (TR)
p143
sS'rightLegOptions_numThighTwistBones'
p144
(lp145
I2
a(lp146
F1
aF0.68000305180437937
aF0
aasVextraJoint/grenade/leaf/grenade_front (TR)
p147
Vgrenade/leaf/grenade_front (TR)
p148
sVextraJoint/head/leaf/eyebrow_in_l (TR)
p149
Vhead/leaf/eyebrow_in_l (TR)
p150
sVextraJoint/lowerarm_r/leaf/up_lowarm_plate_A_r (TR)
p151
Vlowerarm_r/leaf/up_lowarm_plate_A_r (TR)
p152
sVextraJoint/head/leaf/eyebrow_in_r (TR)
p153
Vhead/leaf/eyebrow_in_r (TR)
p154
sS'rightFootOptions_numIndexBones'
p155
(lp156
I0
a(lp157
F0.16470588235294117
aF0.16470588235294117
aF0.16470588235294117
aasVextraJoint/lowerarm_r/leaf/low_lowarm_plate_A_r (TR)
p158
Vlowerarm_r/leaf/low_lowarm_plate_A_r (TR)
p159
sVextraJoint/weapon_l/leaf/weapon_stock_l (TR)
p160
Vweapon_l/leaf/weapon_stock_l (TR)
p161
sVextraJoint/hand_r/leaf/weapon_r (TR)
p162
Vhand_r/leaf/weapon_r (TR)
p163
sS'rightHandOptions_numRingBones'
p164
(lp165
I3
a(lp166
F0.16470588235294117
aF0.16470588235294117
aF0.16470588235294117
aasVextraJoint/spine_03/leaf/collar_l (TR)
p167
Vspine_03/leaf/collar_l (TR)
p168
sVextraJoint/weapon_r/leaf/weapon_forestock_top_r (TR)
p169
Vweapon_r/leaf/weapon_forestock_top_r (TR)
p170
sVextraJoint/head/leaf/eyeball_l (TR)
p171
Vhead/leaf/eyeball_l (TR)
p172
sVextraJoint/spine_03/leaf/collar_in_l (TR)
p173
Vspine_03/leaf/collar_in_l (TR)
p174
sVextraJoint/head/leaf/eyebrow_mid (TR)
p175
Vhead/leaf/eyebrow_mid (TR)
p176
sS'leftFootOptions_numThumbBones'
p177
(lp178
I0
a(lp179
F0.16470588235294117
aF0.16470588235294117
aF0.16470588235294117
aasVextraJoint/spine_03/leaf/collar_r (TR)
p180
Vspine_03/leaf/collar_r (TR)
p181
sVextraJoint/lowerarm_l/leaf/low_lowarm_plate_D_l (TR)
p182
Vlowerarm_l/leaf/low_lowarm_plate_D_l (TR)
p183
sS'leftLegOptions_numHeelTwistBones'
p184
(lp185
I0
a(lp186
F0.26666666666666666
aF0.26666666666666666
aF0.26666666666666666
aasVextraJoint/hand_l/leaf/weapon_l (TR)
p187
Vhand_l/leaf/weapon_l (TR)
p188
sVextraJoint/lowerarm_r/leaf/up_lowarm_plate_B_r (TR)
p189
Vlowerarm_r/leaf/up_lowarm_plate_B_r (TR)
p190
sVextraJoint/hand_l/leaf/q_weapon_l (TR)
p191
Vhand_l/leaf/q_weapon_l (TR)
p192
sVextraJoint/spine_03/leaf/collar_out_r (TR)
p193
Vspine_03/leaf/collar_out_r (TR)
p194
sS'rightHandOptions_numMiddleBones'
p195
(lp196
I3
a(lp197
F0.16470588235294117
aF0.16470588235294117
aF0.16470588235294117
aasVextraJoint/lowerarm_r/leaf/grenade (TR)
p198
Vlowerarm_r/leaf/grenade (TR)
p199
sVextraJoint/lowerarm_r/leaf/low_lowarm_plate_B_r (TR)
p200
Vlowerarm_r/leaf/low_lowarm_plate_B_r (TR)
p201
sVextraJoint/grenade/leaf/grenade_fin_01 (TR)
p202
Vgrenade/leaf/grenade_fin_01 (TR)
p203
sVextraJoint/grenade/leaf/grenade_fin_06 (TR)
p204
Vgrenade/leaf/grenade_fin_06 (TR)
p205
sVextraJoint/head/leaf/eyebrow_out_l (TR)
p206
Vhead/leaf/eyebrow_out_l (TR)
p207
sVextraJoint/hand_r/leaf/ult_weapon_r (TR)
p208
Vhand_r/leaf/ult_weapon_r (TR)
p209
sS'rightLegIncludeBallJoint_CB'
p210
I01
sVextraJoint/head/leaf/eyelid_bott_l (TR)
p211
Vhead/leaf/eyelid_bott_l (TR)
p212
sVextraJoint/head/leaf/jaw (TR)
p213
Vhead/leaf/jaw (TR)
p214
sS'rightHandOptions_numThumbBones'
p215
(lp216
I3
a(lp217
F0.16470588235294117
aF0.16470588235294117
aF0.16470588235294117
aasS'torsoOptions_numNeckBones'
p218
(lp219
I2
a(lp220
F0.14999618524452582
aF0.14999618524452582
aF0.14999618524452582
aasS'rightArmOptions_numUpArmTwistBones'
p221
(lp222
I2
a(lp223
F1
aF0.68000305180437937
aF0
aas.