(lp1
(lp2
S'head_fk_anim'
p3
a(lp4
VtranslateX
p5
aVtranslateY
p6
aVtranslateZ
p7
aVrotateX
p8
aVrotateY
p9
aVrotateZ
p10
aVscaleX
p11
aVscaleY
p12
aVscaleZ
p13
aVfkOrientation
p14
aaF-5.6843418859999994e-14
aF-7.8159700929999994e-14
aF2.218711326000001e-15
aF17.165963080858536
aF3.0507377472894106
aF8.2464022971850035
aF1
aF1
aF1
aI2
aa(lp15
S'neck_01_fk_anim'
p16
a(lp17
VtranslateX
p18
aVtranslateY
p19
aVtranslateZ
p20
aVrotateX
p21
aVrotateY
p22
aVrotateZ
p23
aVscaleX
p24
aVscaleY
p25
aVscaleZ
p26
aVfkOrientation
p27
aaF-1.136868377e-13
aF-2.842170943e-14
aF0
aF4.1502208055293153
aF13.801982491457169
aF-3.8214956035432159
aF1
aF1
aF1
aI0
aa(lp28
S'spine_01_anim'
p29
a(lp30
Vlength
p31
aVtranslateY
p32
aVtranslateZ
p33
aVrotateX
p34
aVrotateY
p35
aVrotateZ
p36
aaF0
aF0
aF0
aF1.4085508492369103
aF2.1622151458184482
aF-4.4522341006112764
aa(lp37
S'spine_02_anim'
p38
a(lp39
Vlength
p40
aVtranslateY
p41
aVtranslateZ
p42
aVrotateX
p43
aVrotateY
p44
aVrotateZ
p45
aaF0
aF0
aF0
aF-1.8614764043430565
aF-1.7411336994347064
aF-3.3189011318156507
aa(lp46
S'spine_03_anim'
p47
a(lp48
Vlength
p49
aVtranslateY
p50
aVtranslateZ
p51
aVrotateX
p52
aVrotateY
p53
aVrotateZ
p54
aaF0
aF0
aF0
aF-4.8397586929530121
aF-3.7272181424142499
aF-5.014822540101779
aa(lp55
S'mid_ik_anim'
p56
a(lp57
VtranslateX
p58
aVtranslateY
p59
aVtranslateZ
p60
aVrotateX
p61
aVrotateY
p62
aVrotateZ
p63
aaF0
aF0
aF0
aF0
aF0
aF0
aa(lp64
S'chest_ik_anim'
p65
a(lp66
VtranslateX
p67
aVtranslateY
p68
aVtranslateZ
p69
aVrotateX
p70
aVrotateY
p71
aVrotateZ
p72
aVstretch
p73
aVsquash
p74
aVtwist_amount
p75
aVspine_01_twistAmount
p76
aVspine_02_twistAmount
p77
aVautoSpine
p78
aVrotationInfluence
p79
aaF0
aF0
aF0
aF0
aF0
aF0
aF0
aF0
aF1
aF0.33333333329999998
aF0.66666666669999997
aF0
aF0
aa(lp80
S'body_anim'
p81
a(lp82
VtranslateX
p83
aVtranslateY
p84
aVtranslateZ
p85
aVrotateX
p86
aVrotateY
p87
aVrotateZ
p88
aaF-16.744399865800453
aF10.373828798821421
aF1.1321194480510419
aF-24.129307137623599
aF2.2632760903192155
aF-6.9342245512664462
aa(lp89
S'hip_anim'
p90
a(lp91
VtranslateX
p92
aVtranslateY
p93
aVtranslateZ
p94
aVrotateX
p95
aVrotateY
p96
aVrotateZ
p97
aVlTwistCtrlVis
p98
aVrTwistCtrlVis
p99
aVautoHips
p100
aaF0
aF0
aF0
aF0
aF0
aF0
aI00
aI00
aF0
aa(lp101
S'clavicle_l_anim'
p102
a(lp103
VtranslateX
p104
aVtranslateY
p105
aVtranslateZ
p106
aVautoShoulders
p107
aaF-1.234560356776679
aF3.3022665072352146
aF4.1664089357518179
aF0
aa(lp108
S'clavicle_r_anim'
p109
a(lp110
VtranslateX
p111
aVtranslateY
p112
aVtranslateZ
p113
aVautoShoulders
p114
aaF3.6812886186469012
aF-4.7303353712120906
aF7.7554934204905797
aF0
aa(lp115
S'fk_arm_l_anim'
p116
a(lp117
VtranslateX
p118
aVtranslateY
p119
aVtranslateZ
p120
aVrotateX
p121
aVrotateY
p122
aVrotateZ
p123
aaF-2.842170943e-14
aF-1.1102230249999999e-14
aF2.842170943e-14
aF-20.045319887302938
aF52.460580088512302
aF-33.29706181733502
aa(lp124
S'fk_arm_r_anim'
p125
a(lp126
VtranslateX
p127
aVtranslateY
p128
aVtranslateZ
p129
aVrotateX
p130
aVrotateY
p131
aVrotateZ
p132
aaF1.4210854719999995e-14
aF-3.5527136790000001e-14
aF0
aF-30.572412852108233
aF48.987001583892528
aF-55.011884334222891
aa(lp133
S'fk_elbow_l_anim'
p134
a(lp135
VtranslateX
p136
aVtranslateY
p137
aVtranslateZ
p138
aVrotateX
p139
aVrotateY
p140
aVrotateZ
p141
aaF0
aF0
aF0
aF0
aF0
aF-89.037267640697365
aa(lp142
S'fk_elbow_r_anim'
p143
a(lp144
VtranslateX
p145
aVtranslateY
p146
aVtranslateZ
p147
aVrotateX
p148
aVrotateY
p149
aVrotateZ
p150
aaF0
aF0
aF0
aF0
aF0
aF-107.64995888732092
aa(lp151
S'fk_wrist_l_anim'
p152
a(lp153
VtranslateX
p154
aVtranslateY
p155
aVtranslateZ
p156
aVrotateX
p157
aVrotateY
p158
aVrotateZ
p159
aaF0
aF0
aF0
aF3.1821123949078025
aF17.965686659118475
aF5.4812639671269672
aa(lp160
S'fk_wrist_r_anim'
p161
a(lp162
VtranslateX
p163
aVtranslateY
p164
aVtranslateZ
p165
aVrotateX
p166
aVrotateY
p167
aVrotateZ
p168
aaF0
aF0
aF0
aF-12.377111712337804
aF0
aF10.356003897017068
aa(lp169
S'ik_elbow_l_anim'
p170
a(lp171
VtranslateX
p172
aVtranslateY
p173
aVtranslateZ
p174
aaF-61.078809056275261
aF-98.924671257458755
aF-81.797356267890876
aa(lp175
S'ik_elbow_r_anim'
p176
a(lp177
VtranslateX
p178
aVtranslateY
p179
aVtranslateZ
p180
aaF39.745516852025986
aF-33.508136330429309
aF-74.801812701458346
aa(lp181
S'ik_wrist_l_anim'
p182
a(lp183
VtranslateX
p184
aVtranslateY
p185
aVtranslateZ
p186
aVrotateX
p187
aVrotateY
p188
aVrotateZ
p189
aVstretch
p190
aVsquash
p191
aVside
p192
aVmid_bend
p193
aVmid_swivel
p194
aVtip_pivot
p195
aVtip_swivel
p196
aaF-209.9137756286982
aF-142.06059139862975
aF-73.503230279025985
aF126.75617615268324
aF197.52641166407679
aF35.243287908263994
aF0
aF0
aF0
aF0
aF0
aF0
aF0
aa(lp197
S'ik_wrist_r_anim'
p198
a(lp199
VtranslateX
p200
aVtranslateY
p201
aVtranslateZ
p202
aVrotateX
p203
aVrotateY
p204
aVrotateZ
p205
aVstretch
p206
aVsquash
p207
aVside
p208
aVmid_bend
p209
aVmid_swivel
p210
aVtip_pivot
p211
aVtip_swivel
p212
aaF154.69809432868169
aF-85.09998228362835
aF-34.369671288474763
aF-60.056025939030675
aF19.75698745947858
aF116.05861085065452
aF0
aF0
aF0
aF0
aF0
aF0
aF0
aa(lp213
S'fk_thigh_l_anim'
p214
a(lp215
VrotateX
p216
aVrotateY
p217
aVrotateZ
p218
aaF0
aF0
aF0
aa(lp219
S'fk_thigh_r_anim'
p220
a(lp221
VrotateX
p222
aVrotateY
p223
aVrotateZ
p224
aaF0
aF0
aF0
aa(lp225
S'fk_calf_l_anim'
p226
a(lp227
VrotateX
p228
aVrotateY
p229
aVrotateZ
p230
aaF0
aF0
aF0
aa(lp231
S'fk_calf_r_anim'
p232
a(lp233
VrotateX
p234
aVrotateY
p235
aVrotateZ
p236
aaF0
aF0
aF0
aa(lp237
S'fk_foot_l_anim'
p238
a(lp239
VrotateX
p240
aVrotateY
p241
aVrotateZ
p242
aaF0
aF0
aF0
aa(lp243
S'fk_foot_r_anim'
p244
a(lp245
VrotateX
p246
aVrotateY
p247
aVrotateZ
p248
aaF0
aF0
aF0
aa(lp249
S'fk_ball_l_anim'
p250
a(lp251
VrotateX
p252
aVrotateY
p253
aVrotateZ
p254
aaF0
aF0
aF0
aa(lp255
S'fk_ball_r_anim'
p256
a(lp257
VrotateX
p258
aVrotateY
p259
aVrotateZ
p260
aaF0
aF0
aF0
aa(lp261
S'ik_foot_anim_l'
p262
a(lp263
VtranslateX
p264
aVtranslateY
p265
aVtranslateZ
p266
aVrotateX
p267
aVrotateY
p268
aVrotateZ
p269
aVknee_twist
p270
aVstretch
p271
aVsquash
p272
aVtoeCtrlVis
p273
aaF8.0163843231375154
aF-54.610484787109272
aF0
aF0
aF0
aF-10.338135078453368
aF-17.300000000000001
aF0
aF0
aI00
aa(lp274
S'ik_foot_anim_r'
p275
a(lp276
VtranslateX
p277
aVtranslateY
p278
aVtranslateZ
p279
aVrotateX
p280
aVrotateY
p281
aVrotateZ
p282
aVknee_twist
p283
aVstretch
p284
aVsquash
p285
aVtoeCtrlVis
p286
aaF-4.9486619047977314
aF60.59776324912383
aF0
aF0
aF0
aF-36.144528612360588
aF33.299999999999997
aF0
aF0
aI00
aa(lp287
S'heel_ctrl_l'
p288
a(lp289
VrotateX
p290
aVrotateY
p291
aVrotateZ
p292
aVheelPivot
p293
aVballPivot
p294
aaF0
aF0
aF0
aF0
aF0
aa(lp295
S'heel_ctrl_r'
p296
a(lp297
VrotateX
p298
aVrotateY
p299
aVrotateZ
p300
aVheelPivot
p301
aVballPivot
p302
aaF-3.3226118816963361
aF7.9962096578612663
aF-11.597398565125907
aF0
aF0
aa(lp303
S'toe_wiggle_ctrl_l'
p304
a(lp305
VrotateX
p306
aVrotateY
p307
aVrotateZ
p308
aaF0
aF0
aF0
aa(lp309
S'toe_wiggle_ctrl_r'
p310
a(lp311
VrotateX
p312
aVrotateY
p313
aVrotateZ
p314
aaF0
aF0
aF0
aa(lp315
S'toe_tip_ctrl_l'
p316
a(lp317
VrotateX
p318
aVrotateY
p319
aVrotateZ
p320
aaF0
aF0
aF0
aa(lp321
S'toe_tip_ctrl_r'
p322
a(lp323
VrotateX
p324
aVrotateY
p325
aVrotateZ
p326
aaF0
aF0
aF0
aa(lp327
S'master_anim'
p328
a(lp329
VtranslateX
p330
aVtranslateY
p331
aVtranslateZ
p332
aVrotateX
p333
aVrotateY
p334
aVrotateZ
p335
aaF0
aF0
aF0
aF0
aF0
aF0
aa(lp336
S'offset_anim'
p337
a(lp338
VtranslateX
p339
aVtranslateY
p340
aVtranslateZ
p341
aVrotateX
p342
aVrotateY
p343
aVrotateZ
p344
aaF0
aF0
aF0
aF0
aF0
aF0
aa(lp345
S'root_anim'
p346
a(lp347
VtranslateX
p348
aVtranslateY
p349
aVtranslateZ
p350
aVrotateX
p351
aVrotateY
p352
aVrotateZ
p353
aaF0
aF0
aF0
aF0
aF0
aF0
aa(lp354
S'upperarm_l_twist_anim'
p355
a(lp356
VtranslateX
p357
aVtranslateY
p358
aVtranslateZ
p359
aVrotateX
p360
aVrotateY
p361
aVrotateZ
p362
aVscaleX
p363
aVscaleY
p364
aVscaleZ
p365
aaF0
aF0
aF0
aF0
aF0
aF0
aF1
aF1
aF1
aa(lp366
S'upperarm_r_twist_anim'
p367
a(lp368
VtranslateX
p369
aVtranslateY
p370
aVtranslateZ
p371
aVrotateX
p372
aVrotateY
p373
aVrotateZ
p374
aVscaleX
p375
aVscaleY
p376
aVscaleZ
p377
aaF0
aF0
aF0
aF0
aF0
aF0
aF1
aF1
aF1
aa(lp378
S'thigh_l_twist_anim'
p379
a(lp380
VtranslateX
p381
aVtranslateY
p382
aVtranslateZ
p383
aVrotateX
p384
aVrotateY
p385
aVrotateZ
p386
aaF0
aF0
aF0
aF0
aF0
aF0
aa(lp387
S'thigh_r_twist_anim'
p388
a(lp389
VtranslateX
p390
aVtranslateY
p391
aVtranslateZ
p392
aVrotateX
p393
aVrotateY
p394
aVrotateZ
p395
aaF0
aF0
aF0
aF0
aF0
aF0
aa(lp396
S'pinky_finger_fk_ctrl_1_l'
p397
a(lp398
VtranslateX
p399
aVtranslateY
p400
aVtranslateZ
p401
aVrotateX
p402
aVrotateY
p403
aVrotateZ
p404
aVsticky
p405
aaF0
aF0
aF0
aF9.0331937558617739
aF26.145377270265687
aF31.084421636717423
aF0
aa(lp406
S'pinky_finger_fk_ctrl_1_r'
p407
a(lp408
VtranslateX
p409
aVtranslateY
p410
aVtranslateZ
p411
aVrotateX
p412
aVrotateY
p413
aVrotateZ
p414
aVsticky
p415
aaF0
aF0
aF0
aF9.0331937558617739
aF26.14537727026568
aF31.084421636717423
aF0
aa(lp416
S'pinky_finger_fk_ctrl_2_l'
p417
a(lp418
VtranslateX
p419
aVtranslateY
p420
aVtranslateZ
p421
aVrotateX
p422
aVrotateY
p423
aVrotateZ
p424
aaF0
aF0
aF0
aF0
aF0
aF126.70401948980735
aa(lp425
S'pinky_finger_fk_ctrl_2_r'
p426
a(lp427
VtranslateX
p428
aVtranslateY
p429
aVtranslateZ
p430
aVrotateX
p431
aVrotateY
p432
aVrotateZ
p433
aaF0
aF0
aF0
aF0
aF0
aF126.70401948980735
aa(lp434
S'ring_finger_fk_ctrl_1_l'
p435
a(lp436
VtranslateX
p437
aVtranslateY
p438
aVtranslateZ
p439
aVrotateX
p440
aVrotateY
p441
aVrotateZ
p442
aVsticky
p443
aaF0
aF0
aF0
aF0.12361652500565926
aF2.7923290394856091
aF73.303846156374789
aF0
aa(lp444
S'ring_finger_fk_ctrl_1_r'
p445
a(lp446
VtranslateX
p447
aVtranslateY
p448
aVtranslateZ
p449
aVrotateX
p450
aVrotateY
p451
aVrotateZ
p452
aVsticky
p453
aaF0
aF0
aF0
aF0.12361652500565926
aF2.7923290394856091
aF73.303846156374789
aF0
aa(lp454
S'ring_finger_fk_ctrl_2_l'
p455
a(lp456
VtranslateX
p457
aVtranslateY
p458
aVtranslateZ
p459
aVrotateX
p460
aVrotateY
p461
aVrotateZ
p462
aaF0
aF0
aF0
aF0
aF0
aF89.095932012173748
aa(lp463
S'ring_finger_fk_ctrl_2_r'
p464
a(lp465
VtranslateX
p466
aVtranslateY
p467
aVtranslateZ
p468
aVrotateX
p469
aVrotateY
p470
aVrotateZ
p471
aaF0
aF0
aF0
aF0
aF0
aF89.095932012173748
aa(lp472
S'middle_finger_fk_ctrl_1_l'
p473
a(lp474
VtranslateX
p475
aVtranslateY
p476
aVtranslateZ
p477
aVrotateX
p478
aVrotateY
p479
aVrotateZ
p480
aVsticky
p481
aaF0
aF0
aF0
aF-0.31606687408388051
aF-4.4039574058664925
aF69.325803698325828
aF0
aa(lp482
S'middle_finger_fk_ctrl_1_r'
p483
a(lp484
VtranslateX
p485
aVtranslateY
p486
aVtranslateZ
p487
aVrotateX
p488
aVrotateY
p489
aVrotateZ
p490
aVsticky
p491
aaF0
aF0
aF0
aF-0.31606687408388051
aF-4.4039574058664925
aF69.325803698325828
aF0
aa(lp492
S'middle_finger_fk_ctrl_2_l'
p493
a(lp494
VtranslateX
p495
aVtranslateY
p496
aVtranslateZ
p497
aVrotateX
p498
aVrotateY
p499
aVrotateZ
p500
aaF0
aF0
aF0
aF0
aF0
aF95.886859622173759
aa(lp501
S'middle_finger_fk_ctrl_2_r'
p502
a(lp503
VtranslateX
p504
aVtranslateY
p505
aVtranslateZ
p506
aVrotateX
p507
aVrotateY
p508
aVrotateZ
p509
aaF0
aF0
aF0
aF0
aF0
aF95.886859622173759
aa(lp510
S'index_finger_fk_ctrl_1_l'
p511
a(lp512
VtranslateX
p513
aVtranslateY
p514
aVtranslateZ
p515
aVrotateX
p516
aVrotateY
p517
aVrotateZ
p518
aVsticky
p519
aaF0
aF0
aF0
aF-5.2905198852459474
aF-3.7085000002149249
aF72.36138610076901
aF0
aa(lp520
S'index_finger_fk_ctrl_1_r'
p521
a(lp522
VtranslateX
p523
aVtranslateY
p524
aVtranslateZ
p525
aVrotateX
p526
aVrotateY
p527
aVrotateZ
p528
aVsticky
p529
aaF0
aF0
aF0
aF-5.2905198852459474
aF-3.7085000002149306
aF72.36138610076901
aF0
aa(lp530
S'index_finger_fk_ctrl_2_l'
p531
a(lp532
VtranslateX
p533
aVtranslateY
p534
aVtranslateZ
p535
aVrotateX
p536
aVrotateY
p537
aVrotateZ
p538
aaF0
aF0
aF0
aF0
aF0
aF111.58450244217381
aa(lp539
S'index_finger_fk_ctrl_2_r'
p540
a(lp541
VtranslateX
p542
aVtranslateY
p543
aVtranslateZ
p544
aVrotateX
p545
aVrotateY
p546
aVrotateZ
p547
aaF0
aF0
aF0
aF0
aF0
aF111.58450244217381
aa(lp548
S'thumb_finger_fk_ctrl_1_l'
p549
a(lp550
VtranslateX
p551
aVtranslateY
p552
aVtranslateZ
p553
aVrotateX
p554
aVrotateY
p555
aVrotateZ
p556
aVsticky
p557
aaF0
aF0
aF0
aF-16.401731580791303
aF-8.3092074161913967
aF14.031294074652489
aF0
aa(lp558
S'thumb_finger_fk_ctrl_1_r'
p559
a(lp560
VtranslateX
p561
aVtranslateY
p562
aVtranslateZ
p563
aVrotateX
p564
aVrotateY
p565
aVrotateZ
p566
aVsticky
p567
aaF0
aF0
aF0
aF-16.401731580791303
aF-8.3092074161913967
aF14.031294074652489
aF0
aa(lp568
S'thumb_finger_fk_ctrl_2_l'
p569
a(lp570
VtranslateX
p571
aVtranslateY
p572
aVtranslateZ
p573
aVrotateX
p574
aVrotateY
p575
aVrotateZ
p576
aaF0
aF0
aF0
aF6.9912631747006646
aF-2.5308618448132325
aF79.740733257076926
aa(lp577
S'thumb_finger_fk_ctrl_2_r'
p578
a(lp579
VtranslateX
p580
aVtranslateY
p581
aVtranslateZ
p582
aVrotateX
p583
aVrotateY
p584
aVrotateZ
p585
aaF0
aF0
aF0
aF6.9912631747006646
aF-2.5308618448132325
aF79.740733257076926
aa(lp586
S'Rig_Settings'
p587
a(lp588
Vspine_ik
p589
aVspine_fk
p590
aVlLegMode
p591
aVlThighTwistAmount
p592
aVrLegMode
p593
aVrThighTwistAmount
p594
aVlFkArmOrient
p595
aVlArmMode
p596
aVlClavMode
p597
aVltwistCtrlVis
p598
aVlUpperarmTwistAmount
p599
aVltwistCtrlVisLower
p600
aVlForearmTwistAmount
p601
aVrFkArmOrient
p602
aVrArmMode
p603
aVrClavMode
p604
aVrtwistCtrlVis
p605
aVrUpperarmTwistAmount
p606
aVrtwistCtrlVisLower
p607
aVrForearmTwistAmount
p608
aaF0
aF1
aI1
aF0.90000000000000002
aI1
aF0.90000000000000002
aI1
aI1
aI1
aI00
aF0.90000000000000002
aI00
aF0.5
aI1
aI1
aI1
aI00
aF0.90000000000000002
aI00
aF0.5
aa(lp609
Vcalf_armor_l_anim
p610
a(lp611
VtranslateX
p612
aVtranslateY
p613
aVtranslateZ
p614
aVrotateX
p615
aVrotateY
p616
aVrotateZ
p617
aVscaleX
p618
aVscaleY
p619
aVscaleZ
p620
aaF0
aF0
aF0
aF0
aF0
aF0
aF1
aF1
aF1
aa(lp621
Vcalf_armor_r_anim
p622
a(lp623
VtranslateX
p624
aVtranslateY
p625
aVtranslateZ
p626
aVrotateX
p627
aVrotateY
p628
aVrotateZ
p629
aVscaleX
p630
aVscaleY
p631
aVscaleZ
p632
aaF0
aF0
aF0
aF0
aF0
aF0
aF1
aF1
aF1
aa(lp633
Vflap_back_anim
p634
a(lp635
VtranslateX
p636
aVtranslateY
p637
aVtranslateZ
p638
aVrotateX
p639
aVrotateY
p640
aVrotateZ
p641
aVscaleX
p642
aVscaleY
p643
aVscaleZ
p644
aaF0
aF0
aF0
aF0
aF0
aF0
aF1
aF1
aF1
aa(lp645
Vflap_front_anim
p646
a(lp647
VtranslateX
p648
aVtranslateY
p649
aVtranslateZ
p650
aVrotateX
p651
aVrotateY
p652
aVrotateZ
p653
aVscaleX
p654
aVscaleY
p655
aVscaleZ
p656
aaF0
aF0
aF0
aF0
aF0
aF0
aF1
aF1
aF1
aa(lp657
Vjaw_anim
p658
a(lp659
VtranslateX
p660
aVtranslateY
p661
aVtranslateZ
p662
aVrotateX
p663
aVrotateY
p664
aVrotateZ
p665
aVscaleX
p666
aVscaleY
p667
aVscaleZ
p668
aaF0
aF0
aF0
aF0
aF0
aF0
aF1
aF1
aF1
aa(lp669
Vloarm_shield_back_l_anim
p670
a(lp671
VtranslateX
p672
aVtranslateY
p673
aVtranslateZ
p674
aVrotateX
p675
aVrotateY
p676
aVrotateZ
p677
aVscaleX
p678
aVscaleY
p679
aVscaleZ
p680
aaF0
aF0
aF0
aF0
aF0
aF0
aF1
aF1
aF1
aa(lp681
Vloarm_shield_bot_l_anim
p682
a(lp683
VtranslateX
p684
aVtranslateY
p685
aVrotateX
p686
aVrotateZ
p687
aVscaleX
p688
aVscaleY
p689
aVscaleZ
p690
aaF0
aF0
aF0
aF0
aF1
aF1
aF1
aa(lp691
Vloarm_shield_top_l_anim
p692
a(lp693
VtranslateX
p694
aVtranslateY
p695
aVrotateX
p696
aVrotateZ
p697
aVscaleX
p698
aVscaleY
p699
aVscaleZ
p700
aaF0
aF0
aF0
aF0
aF1
aF1
aF1
aa(lp701
Vpanel_bot_l_anim
p702
a(lp703
VtranslateX
p704
aVtranslateY
p705
aVtranslateZ
p706
aVrotateX
p707
aVrotateY
p708
aVrotateZ
p709
aVscaleY
p710
aaF1.7053025658242404e-13
aF0
aF-3.4106051316484809e-13
aF0
aF0
aF0
aF1
aa(lp711
Vpanel_bot_r_anim
p712
a(lp713
VtranslateX
p714
aVtranslateY
p715
aVtranslateZ
p716
aVrotateX
p717
aVrotateY
p718
aVrotateZ
p719
aVscaleY
p720
aaF1.1368683772161603e-13
aF0
aF-2.2737367544323206e-13
aF0
aF0
aF0
aF1
aa(lp721
Vpanel_bot_root_l_anim
p722
a(lp723
VtranslateX
p724
aVtranslateY
p725
aVtranslateZ
p726
aVrotateX
p727
aVrotateY
p728
aVscaleX
p729
aVscaleZ
p730
aaF5.6843418860808015e-14
aF-1.9895196601282805e-13
aF-1.1368683772161603e-13
aF0
aF0
aF1.0000000000000002
aF1
aa(lp731
Vpanel_bot_root_r_anim
p732
a(lp733
VtranslateX
p734
aVtranslateY
p735
aVtranslateZ
p736
aVrotateX
p737
aVrotateY
p738
aVscaleX
p739
aVscaleZ
p740
aaF0
aF1.9895196601282805e-13
aF3.4106051316484809e-13
aF0
aF0
aF1
aF1
aa(lp741
Vpanel_top_l_anim
p742
a(lp743
VtranslateX
p744
aVtranslateY
p745
aVtranslateZ
p746
aVrotateX
p747
aVrotateY
p748
aVrotateZ
p749
aVscaleY
p750
aaF2.8421709430404007e-13
aF0
aF0
aF0
aF0
aF0
aF1
aa(lp751
Vpanel_top_r_anim
p752
a(lp753
VtranslateX
p754
aVtranslateY
p755
aVtranslateZ
p756
aVrotateX
p757
aVrotateY
p758
aVrotateZ
p759
aVscaleY
p760
aaF2.8421709430404007e-13
aF0
aF-1.1368683772161603e-13
aF0
aF0
aF0
aF1
aa(lp761
Vpanel_top_root_l_anim
p762
a(lp763
VtranslateX
p764
aVtranslateY
p765
aVtranslateZ
p766
aVrotateX
p767
aVrotateY
p768
aVscaleX
p769
aVscaleZ
p770
aaF0
aF1.1368683772161603e-13
aF-2.2737367544323206e-13
aF0
aF0
aF1.0000000000000002
aF1
aa(lp771
Vpanel_top_root_r_anim
p772
a(lp773
VtranslateX
p774
aVtranslateY
p775
aVtranslateZ
p776
aVrotateX
p777
aVrotateY
p778
aVscaleX
p779
aVscaleZ
p780
aaF1.1368683772161603e-13
aF-2.2737367544323206e-13
aF1.1368683772161603e-13
aF0
aF0
aF1
aF1
aa(lp781
Vpanels_l_anim
p782
a(lp783
VtranslateX
p784
aVtranslateY
p785
aVtranslateZ
p786
aVrotateX
p787
aVrotateY
p788
aVrotateZ
p789
aVscaleX
p790
aVscaleY
p791
aVscaleZ
p792
aaF-5.6843418860808015e-14
aF-5.6843418860808015e-14
aF0
aF0
aF0
aF0
aF1.0000000000000002
aF1
aF1
aa(lp793
Vpanels_main_anim
p794
a(lp795
VtranslateX
p796
aVtranslateY
p797
aVtranslateZ
p798
aVrotateX
p799
aVrotateY
p800
aVrotateZ
p801
aVscaleX
p802
aVscaleY
p803
aVscaleZ
p804
aaF-6.2527760746888816e-13
aF2.8421709430404007e-14
aF-1.1368683772161603e-13
aF0
aF0
aF0
aF1.0000000000000002
aF1
aF1
aa(lp805
Vpanels_r_anim
p806
a(lp807
VtranslateX
p808
aVtranslateY
p809
aVtranslateZ
p810
aVrotateX
p811
aVrotateY
p812
aVrotateZ
p813
aVscaleX
p814
aVscaleY
p815
aVscaleZ
p816
aaF-5.6843418860808015e-14
aF1.7053025658242404e-13
aF0
aF0
aF0
aF0
aF1
aF1
aF1
aa(lp817
Vsheild_main_anim
p818
a(lp819
VtranslateX
p820
aVtranslateY
p821
aVtranslateZ
p822
aVrotateX
p823
aVrotateY
p824
aVrotateZ
p825
aVscaleX
p826
aVscaleY
p827
aVscaleZ
p828
aVshieldDeploy1
p829
aVshieldDeploy2
p830
aVshieldDeploy3
p831
aVshieldDeploy4
p832
aVpanelA_deploy1
p833
aVpanelA_deploy2
p834
aVpanelB_deploy1
p835
aVpanelB_deploy2
p836
aVpanelC_deploy1
p837
aVpanelC_deploy2
p838
aVpanelD_deploy1
p839
aVpanelD_deploy2
p840
aaF0
aF0
aF0
aF0
aF0
aF0
aF1
aF1
aF1
aF0
aF0
aF0
aF0
aF0
aF0
aF0
aF0
aF0
aF0
aF0
aF0
aa(lp841
Vshinpad_l_anim
p842
a(lp843
VtranslateX
p844
aVtranslateY
p845
aVtranslateZ
p846
aVrotateX
p847
aVrotateY
p848
aVrotateZ
p849
aVscaleX
p850
aVscaleY
p851
aVscaleZ
p852
aaF0
aF0
aF0
aF0
aF0
aF0
aF1
aF1
aF0.99999999999999989
aa(lp853
Vshinpad_r_anim
p854
a(lp855
VtranslateX
p856
aVtranslateY
p857
aVtranslateZ
p858
aVrotateX
p859
aVrotateY
p860
aVrotateZ
p861
aVscaleX
p862
aVscaleY
p863
aVscaleZ
p864
aaF0
aF0
aF0
aF0
aF0
aF0
aF0.99999999999999967
aF0.99999999999999989
aF0.99999999999999967
aa(lp865
Vtoe_l_anim
p866
a(lp867
VtranslateX
p868
aVtranslateY
p869
aVtranslateZ
p870
aVrotateX
p871
aVrotateY
p872
aVrotateZ
p873
aVscaleX
p874
aVscaleY
p875
aVscaleZ
p876
aaF0
aF0
aF0
aF0
aF0
aF0
aF0.99999999999999967
aF0.99999999999999978
aF0.99999999999999967
aa(lp877
Vtoe_plate_l_anim
p878
a(lp879
VtranslateX
p880
aVtranslateY
p881
aVtranslateZ
p882
aVrotateX
p883
aVrotateY
p884
aVrotateZ
p885
aVscaleX
p886
aVscaleY
p887
aVscaleZ
p888
aaF0
aF0
aF0
aF0
aF0
aF0
aF1
aF1
aF0.99999999999999989
aa(lp889
Vtoe_plate_r_anim
p890
a(lp891
VtranslateX
p892
aVtranslateY
p893
aVtranslateZ
p894
aVrotateX
p895
aVrotateY
p896
aVrotateZ
p897
aVscaleX
p898
aVscaleY
p899
aVscaleZ
p900
aaF0
aF0
aF0
aF0
aF0
aF0
aF1
aF1
aF1
aa(lp901
Vtoe_r_anim
p902
a(lp903
VtranslateX
p904
aVtranslateY
p905
aVtranslateZ
p906
aVrotateX
p907
aVrotateY
p908
aVrotateZ
p909
aVscaleX
p910
aVscaleY
p911
aVscaleZ
p912
aaF0
aF0
aF0
aF0
aF0
aF0
aF1.0000000000000002
aF1.0000000000000002
aF1.0000000000000002
aa(lp913
Vturbine_back_inner_anim
p914
a(lp915
VtranslateX
p916
aVtranslateY
p917
aVtranslateZ
p918
aVrotateX
p919
aVrotateY
p920
aVrotateZ
p921
aVscaleX
p922
aVscaleY
p923
aVscaleZ
p924
aaF0
aF5.6843418860808015e-14
aF2.8023805498378351e-11
aF0
aF0
aF0
aF1
aF1
aF1
aa(lp925
Vturbine_back_main_anim
p926
a(lp927
VtranslateX
p928
aVtranslateY
p929
aVtranslateZ
p930
aVrotateX
p931
aVrotateY
p932
aVrotateZ
p933
aVscaleX
p934
aVscaleY
p935
aVscaleZ
p936
aaF0
aF0
aF0
aF0
aF0
aF0
aF1
aF1
aF1
aa(lp937
Vweapon_r_anim
p938
a(lp939
VtranslateX
p940
aVtranslateY
p941
aVtranslateZ
p942
aVrotateX
p943
aVrotateY
p944
aVrotateZ
p945
aVscaleX
p946
aVscaleY
p947
aVscaleZ
p948
aaF0
aF0
aF0
aF0
aF0.00053843954945052667
aF-0.00012724122544928513
aF1.0000000000000002
aF1
aF1.0000000000000002
aa(lp949
Vbody_anim_space_switcher
p950
a(lp951
Vvisibility
p952
aVtranslateX
p953
aVtranslateY
p954
aVtranslateZ
p955
aVrotateX
p956
aVrotateY
p957
aVrotateZ
p958
aVscaleX
p959
aVscaleY
p960
aVscaleZ
p961
aVspace_world
p962
aaI01
aF0
aF0
aF0
aF0
aF0
aF0
aF1
aF1
aF1
aF0
aa(lp963
Vcalf_armor_l_anim_space_switcher
p964
a(lp965
Vvisibility
p966
aVtranslateX
p967
aVtranslateY
p968
aVtranslateZ
p969
aVrotateX
p970
aVrotateY
p971
aVrotateZ
p972
aVscaleX
p973
aVscaleY
p974
aVscaleZ
p975
aVspace_world
p976
aaI01
aF7.1054273576010019e-15
aF3.5527136788005009e-15
aF0
aF6.2120208622334312e-18
aF-0
aF-2.5527523230740508e-16
aF1
aF1
aF1
aF0
aa(lp977
Vcalf_armor_r_anim_space_switcher
p978
a(lp979
Vvisibility
p980
aVtranslateX
p981
aVtranslateY
p982
aVtranslateZ
p983
aVrotateX
p984
aVrotateY
p985
aVrotateZ
p986
aVscaleX
p987
aVscaleY
p988
aVscaleZ
p989
aVspace_world
p990
aaI01
aF-1.4210854715202004e-14
aF0
aF-7.1054273576010019e-15
aF0
aF-1.987846675914698e-16
aF-1.7743084587754238e-16
aF1
aF0.99999999999999978
aF1
aF0
aa(lp991
Vchest_ik_anim_space_switcher
p992
a(lp993
Vvisibility
p994
aVtranslateX
p995
aVtranslateY
p996
aVtranslateZ
p997
aVrotateX
p998
aVrotateY
p999
aVrotateZ
p1000
aVscaleX
p1001
aVscaleY
p1002
aVscaleZ
p1003
aVspace_world
p1004
aVspace_chest_ik_world_aligned
p1005
aaI01
aF-5.6843418860808015e-14
aF-7.1054273576010019e-15
aF0
aF-1.5772709220514573e-19
aF9.7062825972397362e-20
aF-1.5902773407317584e-15
aF1
aF1
aF1.0000000000000002
aF0
aF0
aa(lp1006
Vflap_back_anim_space_switcher
p1007
a(lp1008
Vvisibility
p1009
aVtranslateX
p1010
aVtranslateY
p1011
aVtranslateZ
p1012
aVrotateX
p1013
aVrotateY
p1014
aVrotateZ
p1015
aVscaleX
p1016
aVscaleY
p1017
aVscaleZ
p1018
aVspace_world
p1019
aaI01
aF4.4408920985006262e-16
aF0
aF-2.8421709430404007e-14
aF0
aF-9.9392333795734899e-17
aF1.5530052155583578e-18
aF1
aF1
aF1
aF0
aa(lp1020
Vflap_front_anim_space_switcher
p1021
a(lp1022
Vvisibility
p1023
aVtranslateX
p1024
aVtranslateY
p1025
aVtranslateZ
p1026
aVrotateX
p1027
aVrotateY
p1028
aVrotateZ
p1029
aVscaleX
p1030
aVscaleY
p1031
aVscaleZ
p1032
aVspace_world
p1033
aaI01
aF-8.8817841970012523e-16
aF-7.1054273576010019e-15
aF-5.6843418860808015e-14
aF0
aF-9.9392333795734899e-17
aF1.5530052155583578e-18
aF1
aF1
aF1
aF0
aa(lp1034
Vik_elbow_l_anim_space_switcher
p1035
a(lp1036
Vvisibility
p1037
aVtranslateX
p1038
aVtranslateY
p1039
aVtranslateZ
p1040
aVrotateX
p1041
aVrotateY
p1042
aVrotateZ
p1043
aVscaleX
p1044
aVscaleY
p1045
aVscaleZ
p1046
aVspace_world
p1047
aVspace_body_anim
p1048
aVspace_chest_ik_anim
p1049
aaI01
aF0
aF0
aF0
aF0
aF0
aF0
aF1
aF1
aF1
aF0
aF0
aF0
aa(lp1050
Vik_elbow_r_anim_space_switcher
p1051
a(lp1052
Vvisibility
p1053
aVtranslateX
p1054
aVtranslateY
p1055
aVtranslateZ
p1056
aVrotateX
p1057
aVrotateY
p1058
aVrotateZ
p1059
aVscaleX
p1060
aVscaleY
p1061
aVscaleZ
p1062
aVspace_world
p1063
aVspace_body_anim
p1064
aVspace_chest_ik_anim
p1065
aaI01
aF0
aF0
aF0
aF0
aF0
aF0
aF1
aF1
aF1
aF0
aF0
aF0
aa(lp1066
Vik_foot_anim_l_space_switcher
p1067
a(lp1068
Vvisibility
p1069
aVtranslateX
p1070
aVtranslateY
p1071
aVtranslateZ
p1072
aVrotateX
p1073
aVrotateY
p1074
aVrotateZ
p1075
aVscaleX
p1076
aVscaleY
p1077
aVscaleZ
p1078
aVspace_world
p1079
aVspace_body_anim
p1080
aaI01
aF0
aF0
aF0
aF0
aF0
aF0
aF1
aF1
aF1
aF0
aF0
aa(lp1081
Vik_foot_anim_r_space_switcher
p1082
a(lp1083
Vvisibility
p1084
aVtranslateX
p1085
aVtranslateY
p1086
aVtranslateZ
p1087
aVrotateX
p1088
aVrotateY
p1089
aVrotateZ
p1090
aVscaleX
p1091
aVscaleY
p1092
aVscaleZ
p1093
aVspace_world
p1094
aVspace_body_anim
p1095
aaI01
aF0
aF0
aF0
aF0
aF0
aF0
aF1
aF1
aF1
aF0
aF0
aa(lp1096
Vik_global_ctrl_l_grp_space_switcher
p1097
a(lp1098
Vvisibility
p1099
aVtranslateX
p1100
aVtranslateY
p1101
aVtranslateZ
p1102
aVrotateX
p1103
aVrotateY
p1104
aVrotateZ
p1105
aVscaleX
p1106
aVscaleY
p1107
aVscaleZ
p1108
aVspace_world
p1109
aaI01
aF0
aF0
aF7.1054273576010019e-15
aF0
aF1.4753549547804398e-17
aF1.987846675914698e-16
aF1
aF1
aF1
aF0
aa(lp1110
Vik_global_ctrl_r_grp_space_switcher
p1111
a(lp1112
Vvisibility
p1113
aVtranslateX
p1114
aVtranslateY
p1115
aVtranslateZ
p1116
aVrotateX
p1117
aVrotateY
p1118
aVrotateZ
p1119
aVscaleX
p1120
aVscaleY
p1121
aVscaleZ
p1122
aVspace_world
p1123
aaI01
aF-7.1054273576010019e-15
aF0
aF0
aF0
aF-6.2120208622334312e-18
aF0
aF1
aF1
aF1.0000000000000002
aF0
aa(lp1124
Vik_wrist_l_anim_space_switcher
p1125
a(lp1126
Vvisibility
p1127
aVtranslateX
p1128
aVtranslateY
p1129
aVtranslateZ
p1130
aVrotateX
p1131
aVrotateY
p1132
aVrotateZ
p1133
aVscaleX
p1134
aVscaleY
p1135
aVscaleZ
p1136
aVspace_world
p1137
aVspace_body_anim
p1138
aVspace_head_fk_anim
p1139
aVspace_chest_ik_anim
p1140
aaI01
aF0
aF0
aF0
aF0
aF0
aF0
aF1
aF1
aF1
aF0
aF0
aF0
aF0
aa(lp1141
Vik_wrist_r_anim_space_switcher
p1142
a(lp1143
Vvisibility
p1144
aVtranslateX
p1145
aVtranslateY
p1146
aVtranslateZ
p1147
aVrotateX
p1148
aVrotateY
p1149
aVrotateZ
p1150
aVscaleX
p1151
aVscaleY
p1152
aVscaleZ
p1153
aVspace_world
p1154
aVspace_body_anim
p1155
aVspace_head_fk_anim
p1156
aVspace_chest_ik_anim
p1157
aaI01
aF0
aF0
aF0
aF0
aF0
aF0
aF1
aF1
aF1
aF0
aF0
aF0
aF0
aa(lp1158
Vjaw_anim_space_switcher
p1159
a(lp1160
Vvisibility
p1161
aVtranslateX
p1162
aVtranslateY
p1163
aVtranslateZ
p1164
aVrotateX
p1165
aVrotateY
p1166
aVrotateZ
p1167
aVscaleX
p1168
aVscaleY
p1169
aVscaleZ
p1170
aVspace_world
p1171
aaI01
aF8.6736173798840355e-19
aF-1.4210854715202004e-14
aF0
aF0
aF-0
aF-4.8531412986198681e-20
aF1
aF1
aF1
aF0
aa(lp1172
Vloarm_shield_back_l_anim_space_switcher
p1173
a(lp1174
Vvisibility
p1175
aVtranslateX
p1176
aVtranslateY
p1177
aVtranslateZ
p1178
aVrotateX
p1179
aVrotateY
p1180
aVrotateZ
p1181
aVscaleX
p1182
aVscaleY
p1183
aVscaleZ
p1184
aVspace_world
p1185
aaI01
aF0
aF0
aF0
aF0
aF0
aF0
aF1
aF1
aF1
aF0
aa(lp1186
Vloarm_shield_bot_l_anim_space_switcher
p1187
a(lp1188
Vvisibility
p1189
aVtranslateX
p1190
aVtranslateY
p1191
aVtranslateZ
p1192
aVrotateX
p1193
aVrotateY
p1194
aVrotateZ
p1195
aVscaleX
p1196
aVscaleY
p1197
aVscaleZ
p1198
aVspace_world
p1199
aaI01
aF0
aF0
aF5.6843418860808015e-14
aF0
aF0
aF0
aF1
aF1
aF1
aF0
aa(lp1200
Vloarm_shield_top_l_anim_space_switcher
p1201
a(lp1202
Vvisibility
p1203
aVtranslateX
p1204
aVtranslateY
p1205
aVtranslateZ
p1206
aVrotateX
p1207
aVrotateY
p1208
aVrotateZ
p1209
aVscaleX
p1210
aVscaleY
p1211
aVscaleZ
p1212
aVspace_world
p1213
aaI01
aF0
aF0
aF0
aF0
aF0
aF0
aF1
aF1
aF1
aF0
aa(lp1214
Vmaster_anim_space_switcher
p1215
a(lp1216
Vvisibility
p1217
aVtranslateX
p1218
aVtranslateY
p1219
aVtranslateZ
p1220
aVrotateX
p1221
aVrotateY
p1222
aVrotateZ
p1223
aVscaleX
p1224
aVscaleY
p1225
aVscaleZ
p1226
aVspace_world
p1227
aaI01
aF0
aF0
aF0
aF0
aF0
aF0
aF1
aF1
aF1
aF0
aa(lp1228
Vpanel_bot_l_anim_space_switcher
p1229
a(lp1230
Vvisibility
p1231
aVtranslateX
p1232
aVtranslateY
p1233
aVtranslateZ
p1234
aVrotateX
p1235
aVrotateY
p1236
aVrotateZ
p1237
aVscaleX
p1238
aVscaleY
p1239
aVscaleZ
p1240
aVspace_world
p1241
aaI01
aF0
aF0
aF-5.6843418860808015e-14
aF0
aF-0
aF-3.4942617350063047e-18
aF1.0000000000000002
aF1.0000000000000002
aF1.0000000000000002
aF0
aa(lp1242
Vpanel_bot_r_anim_space_switcher
p1243
a(lp1244
Vvisibility
p1245
aVtranslateX
p1246
aVtranslateY
p1247
aVtranslateZ
p1248
aVrotateX
p1249
aVrotateY
p1250
aVrotateZ
p1251
aVscaleX
p1252
aVscaleY
p1253
aVscaleZ
p1254
aVspace_world
p1255
aaI01
aF3.5527136788005009e-15
aF0
aF0
aF0
aF-0
aF1.5530052155583578e-18
aF1
aF1
aF1
aF0
aa(lp1256
Vpanel_bot_root_l_anim_space_switcher
p1257
a(lp1258
Vvisibility
p1259
aVtranslateX
p1260
aVtranslateY
p1261
aVtranslateZ
p1262
aVrotateX
p1263
aVrotateY
p1264
aVrotateZ
p1265
aVscaleX
p1266
aVscaleY
p1267
aVscaleZ
p1268
aVspace_world
p1269
aaI01
aF-2.2204460492503131e-16
aF1.4210854715202004e-14
aF-5.6843418860808015e-14
aF0
aF-0
aF-3.4942617350063047e-18
aF1.0000000000000002
aF1.0000000000000002
aF1.0000000000000002
aF0
aa(lp1270
Vpanel_bot_root_r_anim_space_switcher
p1271
a(lp1272
Vvisibility
p1273
aVtranslateX
p1274
aVtranslateY
p1275
aVtranslateZ
p1276
aVrotateX
p1277
aVrotateY
p1278
aVrotateZ
p1279
aVscaleX
p1280
aVscaleY
p1281
aVscaleZ
p1282
aVspace_world
p1283
aaI01
aF0
aF0
aF0
aF0
aF-0
aF1.5530052155583578e-18
aF1
aF1
aF1
aF0
aa(lp1284
Vpanel_top_l_anim_space_switcher
p1285
a(lp1286
Vvisibility
p1287
aVtranslateX
p1288
aVtranslateY
p1289
aVtranslateZ
p1290
aVrotateX
p1291
aVrotateY
p1292
aVrotateZ
p1293
aVscaleX
p1294
aVscaleY
p1295
aVscaleZ
p1296
aVspace_world
p1297
aaI01
aF3.5527136788005009e-15
aF0
aF-5.6843418860808015e-14
aF0
aF-0
aF-3.4942617350063047e-18
aF1.0000000000000002
aF1.0000000000000002
aF1.0000000000000002
aF0
aa(lp1298
Vpanel_top_r_anim_space_switcher
p1299
a(lp1300
Vvisibility
p1301
aVtranslateX
p1302
aVtranslateY
p1303
aVtranslateZ
p1304
aVrotateX
p1305
aVrotateY
p1306
aVrotateZ
p1307
aVscaleX
p1308
aVscaleY
p1309
aVscaleZ
p1310
aVspace_world
p1311
aaI01
aF3.5527136788005009e-15
aF1.4210854715202004e-14
aF5.6843418860808015e-14
aF0
aF-0
aF1.5530052155583578e-18
aF1
aF1
aF1
aF0
aa(lp1312
Vpanel_top_root_l_anim_space_switcher
p1313
a(lp1314
Vvisibility
p1315
aVtranslateX
p1316
aVtranslateY
p1317
aVtranslateZ
p1318
aVrotateX
p1319
aVrotateY
p1320
aVrotateZ
p1321
aVscaleX
p1322
aVscaleY
p1323
aVscaleZ
p1324
aVspace_world
p1325
aaI01
aF0
aF0
aF0
aF0
aF-0
aF-3.4942617350063047e-18
aF1.0000000000000002
aF1.0000000000000002
aF1.0000000000000002
aF0
aa(lp1326
Vpanel_top_root_r_anim_space_switcher
p1327
a(lp1328
Vvisibility
p1329
aVtranslateX
p1330
aVtranslateY
p1331
aVtranslateZ
p1332
aVrotateX
p1333
aVrotateY
p1334
aVrotateZ
p1335
aVscaleX
p1336
aVscaleY
p1337
aVscaleZ
p1338
aVspace_world
p1339
aaI01
aF4.4408920985006262e-16
aF0
aF0
aF0
aF-0
aF1.5530052155583578e-18
aF1
aF1
aF1
aF0
aa(lp1340
Vpanels_l_anim_space_switcher
p1341
a(lp1342
Vvisibility
p1343
aVtranslateX
p1344
aVtranslateY
p1345
aVtranslateZ
p1346
aVrotateX
p1347
aVrotateY
p1348
aVrotateZ
p1349
aVscaleX
p1350
aVscaleY
p1351
aVscaleZ
p1352
aVspace_world
p1353
aaI01
aF0
aF0
aF0
aF0
aF-0
aF-3.4942617350063047e-18
aF1.0000000000000002
aF1.0000000000000002
aF1.0000000000000002
aF0
aa(lp1354
Vpanels_main_anim_space_switcher
p1355
a(lp1356
Vvisibility
p1357
aVtranslateX
p1358
aVtranslateY
p1359
aVtranslateZ
p1360
aVrotateX
p1361
aVrotateY
p1362
aVrotateZ
p1363
aVscaleX
p1364
aVscaleY
p1365
aVscaleZ
p1366
aVspace_world
p1367
aaI01
aF8.8817841970012523e-16
aF0
aF-5.6843418860808015e-14
aF0
aF-0
aF-3.4942617350063047e-18
aF1.0000000000000002
aF1.0000000000000002
aF1.0000000000000002
aF0
aa(lp1368
Vpanels_r_anim_space_switcher
p1369
a(lp1370
Vvisibility
p1371
aVtranslateX
p1372
aVtranslateY
p1373
aVtranslateZ
p1374
aVrotateX
p1375
aVrotateY
p1376
aVrotateZ
p1377
aVscaleX
p1378
aVscaleY
p1379
aVscaleZ
p1380
aVspace_world
p1381
aaI01
aF0
aF-1.4210854715202004e-14
aF0
aF0
aF-0
aF1.5530052155583578e-18
aF1
aF1
aF1
aF0
aa(lp1382
Vsheild_main_anim_space_switcher
p1383
a(lp1384
Vvisibility
p1385
aVtranslateX
p1386
aVtranslateY
p1387
aVtranslateZ
p1388
aVrotateX
p1389
aVrotateY
p1390
aVrotateZ
p1391
aVscaleX
p1392
aVscaleY
p1393
aVscaleZ
p1394
aVspace_world
p1395
aaI01
aF8.8817841970012523e-16
aF0
aF0
aF9.9392333795734874e-17
aF-4.9696166897867449e-17
aF1.1647539116687683e-18
aF1
aF1.0000000000000002
aF1
aF0
aa(lp1396
Vshinpad_l_anim_space_switcher
p1397
a(lp1398
Vvisibility
p1399
aVtranslateX
p1400
aVtranslateY
p1401
aVtranslateZ
p1402
aVrotateX
p1403
aVrotateY
p1404
aVrotateZ
p1405
aVscaleX
p1406
aVscaleY
p1407
aVscaleZ
p1408
aVspace_world
p1409
aaI01
aF-1.4210854715202004e-14
aF-5.3290705182007514e-15
aF-1.4210854715202004e-14
aF0
aF-1.987846675914698e-16
aF-9.9392333795734899e-17
aF1
aF1
aF1.0000000000000002
aF0
aa(lp1410
Vshinpad_r_anim_space_switcher
p1411
a(lp1412
Vvisibility
p1413
aVtranslateX
p1414
aVtranslateY
p1415
aVtranslateZ
p1416
aVrotateX
p1417
aVrotateY
p1418
aVrotateZ
p1419
aVscaleX
p1420
aVscaleY
p1421
aVscaleZ
p1422
aVspace_world
p1423
aaI01
aF-7.1054273576010019e-15
aF8.8817841970012523e-16
aF-1.4210854715202004e-14
aF0
aF1.9878466759146985e-16
aF-6.4605016967227699e-16
aF0.99999999999999989
aF0.99999999999999978
aF0.99999999999999989
aF0
aa(lp1424
Vspine_01_space_switcher
p1425
a(lp1426
Vvisibility
p1427
aVtranslateX
p1428
aVtranslateY
p1429
aVtranslateZ
p1430
aVrotateX
p1431
aVrotateY
p1432
aVrotateZ
p1433
aVscaleX
p1434
aVscaleY
p1435
aVscaleZ
p1436
aVspace_world
p1437
aaI01
aF0
aF1.7763568394002505e-15
aF2.1684043449710089e-19
aF3.336534642801159e-20
aF4.8531412986198681e-20
aF0
aF1
aF1.0000000000000002
aF1.0000000000000002
aF0
aa(lp1438
Vtoe_l_anim_space_switcher
p1439
a(lp1440
Vvisibility
p1441
aVtranslateX
p1442
aVtranslateY
p1443
aVtranslateZ
p1444
aVrotateX
p1445
aVrotateY
p1446
aVrotateZ
p1447
aVscaleX
p1448
aVscaleY
p1449
aVscaleZ
p1450
aVspace_world
p1451
aaI01
aF0
aF-1.7763568394002505e-15
aF0
aF6.0567203406775953e-17
aF-0
aF-4.9696166897867462e-17
aF0.99999999999999989
aF1
aF0.99999999999999989
aF0
aa(lp1452
Vtoe_plate_l_anim_space_switcher
p1453
a(lp1454
Vvisibility
p1455
aVtranslateX
p1456
aVtranslateY
p1457
aVtranslateZ
p1458
aVrotateX
p1459
aVrotateY
p1460
aVrotateZ
p1461
aVscaleX
p1462
aVscaleY
p1463
aVscaleZ
p1464
aVspace_world
p1465
aaI01
aF0
aF0
aF0
aF4.9696166897867449e-17
aF-6.2120208622334312e-17
aF0
aF1
aF1
aF1.0000000000000002
aF0
aa(lp1466
Vtoe_plate_r_anim_space_switcher
p1467
a(lp1468
Vvisibility
p1469
aVtranslateX
p1470
aVtranslateY
p1471
aVtranslateZ
p1472
aVrotateX
p1473
aVrotateY
p1474
aVrotateZ
p1475
aVscaleX
p1476
aVscaleY
p1477
aVscaleZ
p1478
aVspace_world
p1479
aaI01
aF0
aF1.1102230246251565e-16
aF7.1054273576010019e-15
aF0
aF1.3200544332246042e-17
aF0
aF1
aF1
aF1
aF0
aa(lp1480
Vtoe_r_anim_space_switcher
p1481
a(lp1482
Vvisibility
p1483
aVtranslateX
p1484
aVtranslateY
p1485
aVtranslateZ
p1486
aVrotateX
p1487
aVrotateY
p1488
aVrotateZ
p1489
aVscaleX
p1490
aVscaleY
p1491
aVscaleZ
p1492
aVspace_world
p1493
aaI01
aF3.5527136788005009e-15
aF-1.7763568394002505e-15
aF-7.1054273576010019e-15
aF-1.0851623943714025e-16
aF-0
aF-4.9696166897867437e-17
aF1.0000000000000002
aF1
aF1.0000000000000002
aF0
aa(lp1494
Vturbine_back_inner_anim_space_switcher
p1495
a(lp1496
Vvisibility
p1497
aVtranslateX
p1498
aVtranslateY
p1499
aVtranslateZ
p1500
aVrotateX
p1501
aVrotateY
p1502
aVrotateZ
p1503
aVscaleX
p1504
aVscaleY
p1505
aVscaleZ
p1506
aVspace_world
p1507
aaI01
aF0
aF0
aF0
aF0
aF0
aF0
aF1
aF1
aF1
aF0
aa(lp1508
Vturbine_back_main_anim_space_switcher
p1509
a(lp1510
Vvisibility
p1511
aVtranslateX
p1512
aVtranslateY
p1513
aVtranslateZ
p1514
aVrotateX
p1515
aVrotateY
p1516
aVrotateZ
p1517
aVscaleX
p1518
aVscaleY
p1519
aVscaleZ
p1520
aVspace_world
p1521
aaI01
aF0
aF0
aF0
aF0
aF0
aF0
aF1
aF1
aF1
aF0
aa(lp1522
Vweapon_r_anim_space_switcher
p1523
a(lp1524
Vvisibility
p1525
aVtranslateX
p1526
aVtranslateY
p1527
aVtranslateZ
p1528
aVrotateX
p1529
aVrotateY
p1530
aVrotateZ
p1531
aVscaleX
p1532
aVscaleY
p1533
aVscaleZ
p1534
aVspace_world
p1535
aaI01
aF-5.6843418860808015e-14
aF0
aF0
aF0
aF6.8389851651121717e-20
aF-1.9412565194479468e-19
aF1.0000000000000002
aF1
aF1.0000000000000002
aF0
aa.