(lp1
(lp2
S'head_fk_anim'
p3
a(lp4
VtranslateX
p5
aVtranslateY
p6
aVtranslateZ
p7
aVrotateX
p8
aVrotateY
p9
aVrotateZ
p10
aVscaleX
p11
aVscaleY
p12
aVscaleZ
p13
aVfkOrientation
p14
aaF0
aF0
aF0
aF42.707868658223639
aF25.328873522471952
aF15.354730747821593
aF1
aF1
aF1
aI2
aa(lp15
S'neck_01_fk_anim'
p16
a(lp17
VtranslateX
p18
aVtranslateY
p19
aVtranslateZ
p20
aVrotateX
p21
aVrotateY
p22
aVrotateZ
p23
aVscaleX
p24
aVscaleY
p25
aVscaleZ
p26
aVfkOrientation
p27
aaF0
aF0
aF0
aF20.442415972791803
aF4.5387054729102978
aF4.3542226330956169
aF0.99999999999999967
aF0.99999999999999956
aF0.99999999999999978
aI0
aa(lp28
S'spine_01_anim'
p29
a(lp30
Vlength
p31
aVtranslateY
p32
aVtranslateZ
p33
aVrotateX
p34
aVrotateY
p35
aVrotateZ
p36
aaF0
aF0
aF0
aF0.0022588954905347711
aF-0.00072805919877012403
aF3.4197502056741391
aa(lp37
S'spine_02_anim'
p38
a(lp39
Vlength
p40
aVtranslateY
p41
aVtranslateZ
p42
aVrotateX
p43
aVrotateY
p44
aVrotateZ
p45
aaF0
aF0
aF0
aF-1.3783161844849183
aF-0.019985523211562068
aF2.3574783666196204
aa(lp46
S'spine_03_anim'
p47
a(lp48
Vlength
p49
aVtranslateY
p50
aVtranslateZ
p51
aVrotateX
p52
aVrotateY
p53
aVrotateZ
p54
aaF0
aF0
aF0
aF2.5804767451649395
aF4.5881601167481403
aF10.3116344883802
aa(lp55
S'mid_ik_anim'
p56
a(lp57
VtranslateX
p58
aVtranslateY
p59
aVtranslateZ
p60
aVrotateX
p61
aVrotateY
p62
aVrotateZ
p63
aaF0
aF-0
aF-0
aF0
aF0
aF0
aa(lp64
S'chest_ik_anim'
p65
a(lp66
VtranslateX
p67
aVtranslateY
p68
aVtranslateZ
p69
aVrotateX
p70
aVrotateY
p71
aVrotateZ
p72
aVstretch
p73
aVsquash
p74
aVtwist_amount
p75
aVspine_01_twistAmount
p76
aVspine_02_twistAmount
p77
aVautoSpine
p78
aVrotationInfluence
p79
aaF0
aF0
aF0
aF0
aF0
aF0
aF0
aF0
aF1
aF0.33333333333333331
aF0.66666666666666663
aF0
aF0
aa(lp80
S'body_anim'
p81
a(lp82
VtranslateX
p83
aVtranslateY
p84
aVtranslateZ
p85
aVrotateX
p86
aVrotateY
p87
aVrotateZ
p88
aaF-5.9608340065892698
aF6.6598815783409044
aF23.442520206269982
aF-72.261695086800813
aF0.78993874453140267
aF0.74214481739056792
aa(lp89
S'hip_anim'
p90
a(lp91
VtranslateX
p92
aVtranslateY
p93
aVtranslateZ
p94
aVrotateX
p95
aVrotateY
p96
aVrotateZ
p97
aVlTwistCtrlVis
p98
aVrTwistCtrlVis
p99
aVautoHips
p100
aaF0
aF0
aF0
aF0
aF0
aF0
aI00
aI00
aF0
aa(lp101
S'clavicle_l_anim'
p102
a(lp103
VtranslateX
p104
aVtranslateY
p105
aVtranslateZ
p106
aVautoShoulders
p107
aaF0.02086872633350104
aF-0.23701285229142416
aF4.2550699005908577
aF0
aa(lp108
S'clavicle_r_anim'
p109
a(lp110
VtranslateX
p111
aVtranslateY
p112
aVtranslateZ
p113
aVautoShoulders
p114
aaF4.2165528211945897
aF0.12942055240402695
aF-0.8959947416587517
aF0
aa(lp115
S'fk_arm_l_anim'
p116
a(lp117
VtranslateX
p118
aVtranslateY
p119
aVtranslateZ
p120
aVrotateX
p121
aVrotateY
p122
aVrotateZ
p123
aaF0
aF0
aF0
aF-20.045319890000002
aF52.460580090000001
aF-33.297061820000003
aa(lp124
S'fk_arm_r_anim'
p125
a(lp126
VtranslateX
p127
aVtranslateY
p128
aVtranslateZ
p129
aVrotateX
p130
aVrotateY
p131
aVrotateZ
p132
aaF0
aF0
aF0
aF-30.572412849999996
aF48.987001579999998
aF-55.011884330000001
aa(lp133
S'fk_elbow_l_anim'
p134
a(lp135
VtranslateX
p136
aVtranslateY
p137
aVtranslateZ
p138
aVrotateX
p139
aVrotateY
p140
aVrotateZ
p141
aaF0
aF0
aF0
aF0
aF0
aF-89.037267639999996
aa(lp142
S'fk_elbow_r_anim'
p143
a(lp144
VtranslateX
p145
aVtranslateY
p146
aVtranslateZ
p147
aVrotateX
p148
aVrotateY
p149
aVrotateZ
p150
aaF0
aF0
aF0
aF0
aF0
aF-107.6499589
aa(lp151
S'fk_wrist_l_anim'
p152
a(lp153
VtranslateX
p154
aVtranslateY
p155
aVtranslateZ
p156
aVrotateX
p157
aVrotateY
p158
aVrotateZ
p159
aaF0
aF0
aF0
aF3.1821123950000003
aF17.965686659999999
aF5.4812639669999994
aa(lp160
S'fk_wrist_r_anim'
p161
a(lp162
VtranslateX
p163
aVtranslateY
p164
aVtranslateZ
p165
aVrotateX
p166
aVrotateY
p167
aVrotateZ
p168
aaF0
aF0
aF0
aF-12.377111709999998
aF0
aF10.356003899999997
aa(lp169
S'ik_elbow_l_anim'
p170
a(lp171
VtranslateX
p172
aVtranslateY
p173
aVtranslateZ
p174
aaF-22.860262419554573
aF-110.96967292301602
aF-95.294587725895752
aa(lp175
S'ik_elbow_r_anim'
p176
a(lp177
VtranslateX
p178
aVtranslateY
p179
aVtranslateZ
p180
aaF164.52289315185865
aF116.26925233239228
aF-44.638561304118156
aa(lp181
S'ik_wrist_l_anim'
p182
a(lp183
VtranslateX
p184
aVtranslateY
p185
aVtranslateZ
p186
aVrotateX
p187
aVrotateY
p188
aVrotateZ
p189
aVstretch
p190
aVsquash
p191
aVside
p192
aVmid_bend
p193
aVmid_swivel
p194
aVtip_pivot
p195
aVtip_swivel
p196
aaF-198.13201730441443
aF-112.52135190630374
aF-166.79974734837526
aF76.305358139471664
aF129.258684383521
aF24.514813714965104
aF0
aF0
aF0
aF0
aF0
aF0
aF0
aa(lp197
S'ik_wrist_r_anim'
p198
a(lp199
VtranslateX
p200
aVtranslateY
p201
aVtranslateZ
p202
aVrotateX
p203
aVrotateY
p204
aVrotateZ
p205
aVstretch
p206
aVsquash
p207
aVside
p208
aVmid_bend
p209
aVmid_swivel
p210
aVtip_pivot
p211
aVtip_swivel
p212
aaF148.39668414099452
aF87.824038541796796
aF-159.58351277851455
aF-90.043036592509111
aF-44.021074330207874
aF36.423910075275913
aF0
aF0
aF0
aF0
aF0
aF0
aF0
aa(lp213
S'fk_thigh_l_anim'
p214
a(lp215
VrotateX
p216
aVrotateY
p217
aVrotateZ
p218
aaF0
aF0
aF0
aa(lp219
S'fk_thigh_r_anim'
p220
a(lp221
VrotateX
p222
aVrotateY
p223
aVrotateZ
p224
aaF0
aF0
aF0
aa(lp225
S'fk_calf_l_anim'
p226
a(lp227
VrotateX
p228
aVrotateY
p229
aVrotateZ
p230
aaF0
aF0
aF0
aa(lp231
S'fk_calf_r_anim'
p232
a(lp233
VrotateX
p234
aVrotateY
p235
aVrotateZ
p236
aaF0
aF0
aF0
aa(lp237
S'fk_foot_l_anim'
p238
a(lp239
VrotateX
p240
aVrotateY
p241
aVrotateZ
p242
aaF0
aF0
aF0
aa(lp243
S'fk_foot_r_anim'
p244
a(lp245
VrotateX
p246
aVrotateY
p247
aVrotateZ
p248
aaF0
aF0
aF0
aa(lp249
S'fk_ball_l_anim'
p250
a(lp251
VrotateX
p252
aVrotateY
p253
aVrotateZ
p254
aaF0
aF0
aF0
aa(lp255
S'fk_ball_r_anim'
p256
a(lp257
VrotateX
p258
aVrotateY
p259
aVrotateZ
p260
aaF0
aF0
aF0
aa(lp261
S'ik_foot_anim_l'
p262
a(lp263
VtranslateX
p264
aVtranslateY
p265
aVtranslateZ
p266
aVrotateX
p267
aVrotateY
p268
aVrotateZ
p269
aVknee_twist
p270
aVstretch
p271
aVsquash
p272
aVtoeCtrlVis
p273
aaF-16.93296115911199
aF-52.171289498696865
aF0
aF0
aF0
aF-40.716791454959662
aF-54.799999999999997
aF0
aF0
aI00
aa(lp274
S'ik_foot_anim_r'
p275
a(lp276
VtranslateX
p277
aVtranslateY
p278
aVtranslateZ
p279
aVrotateX
p280
aVrotateY
p281
aVrotateZ
p282
aVknee_twist
p283
aVstretch
p284
aVsquash
p285
aVtoeCtrlVis
p286
aaF26.436511317505115
aF25.997883378116388
aF6.750155989720953e-14
aF0
aF0
aF-90.937272083191644
aF86.899999999999991
aF0
aF0
aI00
aa(lp287
S'heel_ctrl_l'
p288
a(lp289
VrotateX
p290
aVrotateY
p291
aVrotateZ
p292
aVheelPivot
p293
aVballPivot
p294
aaF0.75593767973936576
aF-4.1046754714899096
aF-10.444281609374547
aF0
aF0
aa(lp295
S'heel_ctrl_r'
p296
a(lp297
VrotateX
p298
aVrotateY
p299
aVrotateZ
p300
aVheelPivot
p301
aVballPivot
p302
aaF-0.33351622212141524
aF-2.5454522254592487
aF-9.810866689478976
aF0
aF0
aa(lp303
S'toe_wiggle_ctrl_l'
p304
a(lp305
VrotateX
p306
aVrotateY
p307
aVrotateZ
p308
aaF0
aF0
aF0
aa(lp309
S'toe_wiggle_ctrl_r'
p310
a(lp311
VrotateX
p312
aVrotateY
p313
aVrotateZ
p314
aaF0
aF0
aF0
aa(lp315
S'toe_tip_ctrl_l'
p316
a(lp317
VrotateX
p318
aVrotateY
p319
aVrotateZ
p320
aaF0
aF0
aF0
aa(lp321
S'toe_tip_ctrl_r'
p322
a(lp323
VrotateX
p324
aVrotateY
p325
aVrotateZ
p326
aaF0
aF0
aF0
aa(lp327
S'master_anim'
p328
a(lp329
VtranslateX
p330
aVtranslateY
p331
aVtranslateZ
p332
aVrotateX
p333
aVrotateY
p334
aVrotateZ
p335
aaF0
aF0
aF0
aF0
aF0
aF0
aa(lp336
S'offset_anim'
p337
a(lp338
VtranslateX
p339
aVtranslateY
p340
aVtranslateZ
p341
aVrotateX
p342
aVrotateY
p343
aVrotateZ
p344
aaF0
aF0
aF0
aF0
aF0
aF0
aa(lp345
S'root_anim'
p346
a(lp347
VtranslateX
p348
aVtranslateY
p349
aVtranslateZ
p350
aVrotateX
p351
aVrotateY
p352
aVrotateZ
p353
aaF0
aF0
aF0
aF0
aF0
aF0
aa(lp354
S'upperarm_l_twist_anim'
p355
a(lp356
VtranslateX
p357
aVtranslateY
p358
aVtranslateZ
p359
aVrotateX
p360
aVrotateY
p361
aVrotateZ
p362
aVscaleX
p363
aVscaleY
p364
aVscaleZ
p365
aaF0
aF0
aF0
aF0
aF0
aF0
aF1
aF1
aF1
aa(lp366
S'upperarm_r_twist_anim'
p367
a(lp368
VtranslateX
p369
aVtranslateY
p370
aVtranslateZ
p371
aVrotateX
p372
aVrotateY
p373
aVrotateZ
p374
aVscaleX
p375
aVscaleY
p376
aVscaleZ
p377
aaF0
aF0
aF0
aF0
aF0
aF0
aF1
aF1
aF1
aa(lp378
S'thigh_l_twist_anim'
p379
a(lp380
VtranslateX
p381
aVtranslateY
p382
aVtranslateZ
p383
aVrotateX
p384
aVrotateY
p385
aVrotateZ
p386
aaF0
aF0
aF0
aF0
aF0
aF0
aa(lp387
S'thigh_r_twist_anim'
p388
a(lp389
VtranslateX
p390
aVtranslateY
p391
aVtranslateZ
p392
aVrotateX
p393
aVrotateY
p394
aVrotateZ
p395
aaF0
aF0
aF0
aF0
aF0
aF0
aa(lp396
S'pinky_finger_fk_ctrl_1_l'
p397
a(lp398
VtranslateX
p399
aVtranslateY
p400
aVtranslateZ
p401
aVrotateX
p402
aVrotateY
p403
aVrotateZ
p404
aVsticky
p405
aaF0
aF0
aF0
aF9.0331937558617739
aF26.145377270265687
aF31.084421636717423
aF0
aa(lp406
S'pinky_finger_fk_ctrl_1_r'
p407
a(lp408
VtranslateX
p409
aVtranslateY
p410
aVtranslateZ
p411
aVrotateX
p412
aVrotateY
p413
aVrotateZ
p414
aVsticky
p415
aaF0
aF0
aF0
aF9.0331937558617739
aF26.14537727026568
aF31.084421636717423
aF0
aa(lp416
S'pinky_finger_fk_ctrl_2_l'
p417
a(lp418
VtranslateX
p419
aVtranslateY
p420
aVtranslateZ
p421
aVrotateX
p422
aVrotateY
p423
aVrotateZ
p424
aaF0
aF0
aF0
aF0
aF0
aF126.70401950000002
aa(lp425
S'pinky_finger_fk_ctrl_2_r'
p426
a(lp427
VtranslateX
p428
aVtranslateY
p429
aVtranslateZ
p430
aVrotateX
p431
aVrotateY
p432
aVrotateZ
p433
aaF0
aF0
aF0
aF0
aF0
aF126.70401950000002
aa(lp434
S'ring_finger_fk_ctrl_1_l'
p435
a(lp436
VtranslateX
p437
aVtranslateY
p438
aVtranslateZ
p439
aVrotateX
p440
aVrotateY
p441
aVrotateZ
p442
aVsticky
p443
aaF0
aF0
aF0
aF0.12361652500565926
aF2.7923290394856091
aF73.303846156374789
aF0
aa(lp444
S'ring_finger_fk_ctrl_1_r'
p445
a(lp446
VtranslateX
p447
aVtranslateY
p448
aVtranslateZ
p449
aVrotateX
p450
aVrotateY
p451
aVrotateZ
p452
aVsticky
p453
aaF0
aF0
aF0
aF0.12361652500565926
aF2.7923290394856091
aF73.303846156374789
aF0
aa(lp454
S'ring_finger_fk_ctrl_2_l'
p455
a(lp456
VtranslateX
p457
aVtranslateY
p458
aVtranslateZ
p459
aVrotateX
p460
aVrotateY
p461
aVrotateZ
p462
aaF0
aF0
aF0
aF0
aF0
aF89.095932012173748
aa(lp463
S'ring_finger_fk_ctrl_2_r'
p464
a(lp465
VtranslateX
p466
aVtranslateY
p467
aVtranslateZ
p468
aVrotateX
p469
aVrotateY
p470
aVrotateZ
p471
aaF0
aF0
aF0
aF0
aF0
aF89.095932012173748
aa(lp472
S'middle_finger_fk_ctrl_1_l'
p473
a(lp474
VtranslateX
p475
aVtranslateY
p476
aVtranslateZ
p477
aVrotateX
p478
aVrotateY
p479
aVrotateZ
p480
aVsticky
p481
aaF0
aF0
aF0
aF-0.31606687408388051
aF-4.4039574058664925
aF69.325803698325828
aF0
aa(lp482
S'middle_finger_fk_ctrl_1_r'
p483
a(lp484
VtranslateX
p485
aVtranslateY
p486
aVtranslateZ
p487
aVrotateX
p488
aVrotateY
p489
aVrotateZ
p490
aVsticky
p491
aaF0
aF0
aF0
aF-0.31606687408388051
aF-4.4039574058664925
aF69.325803698325828
aF0
aa(lp492
S'middle_finger_fk_ctrl_2_l'
p493
a(lp494
VtranslateX
p495
aVtranslateY
p496
aVtranslateZ
p497
aVrotateX
p498
aVrotateY
p499
aVrotateZ
p500
aaF0
aF0
aF0
aF0
aF0
aF95.886859622173759
aa(lp501
S'middle_finger_fk_ctrl_2_r'
p502
a(lp503
VtranslateX
p504
aVtranslateY
p505
aVtranslateZ
p506
aVrotateX
p507
aVrotateY
p508
aVrotateZ
p509
aaF0
aF0
aF0
aF0
aF0
aF95.886859622173759
aa(lp510
S'index_finger_fk_ctrl_1_l'
p511
a(lp512
VtranslateX
p513
aVtranslateY
p514
aVtranslateZ
p515
aVrotateX
p516
aVrotateY
p517
aVrotateZ
p518
aVsticky
p519
aaF0
aF0
aF0
aF-5.2905198852459474
aF-3.7085000002149249
aF72.36138610076901
aF0
aa(lp520
S'index_finger_fk_ctrl_1_r'
p521
a(lp522
VtranslateX
p523
aVtranslateY
p524
aVtranslateZ
p525
aVrotateX
p526
aVrotateY
p527
aVrotateZ
p528
aVsticky
p529
aaF0
aF0
aF0
aF-5.2905198852459474
aF-3.7085000002149306
aF72.36138610076901
aF0
aa(lp530
S'index_finger_fk_ctrl_2_l'
p531
a(lp532
VtranslateX
p533
aVtranslateY
p534
aVtranslateZ
p535
aVrotateX
p536
aVrotateY
p537
aVrotateZ
p538
aaF0
aF0
aF0
aF0
aF0
aF111.58450240000002
aa(lp539
S'index_finger_fk_ctrl_2_r'
p540
a(lp541
VtranslateX
p542
aVtranslateY
p543
aVtranslateZ
p544
aVrotateX
p545
aVrotateY
p546
aVrotateZ
p547
aaF0
aF0
aF0
aF0
aF0
aF111.58450240000002
aa(lp548
S'thumb_finger_fk_ctrl_1_l'
p549
a(lp550
VtranslateX
p551
aVtranslateY
p552
aVtranslateZ
p553
aVrotateX
p554
aVrotateY
p555
aVrotateZ
p556
aVsticky
p557
aaF0
aF0
aF0
aF-16.401731580791303
aF-8.3092074161913967
aF14.031294074652489
aF0
aa(lp558
S'thumb_finger_fk_ctrl_1_r'
p559
a(lp560
VtranslateX
p561
aVtranslateY
p562
aVtranslateZ
p563
aVrotateX
p564
aVrotateY
p565
aVrotateZ
p566
aVsticky
p567
aaF0
aF0
aF0
aF-16.401731580791303
aF-8.3092074161913967
aF14.031294074652489
aF0
aa(lp568
S'thumb_finger_fk_ctrl_2_l'
p569
a(lp570
VtranslateX
p571
aVtranslateY
p572
aVtranslateZ
p573
aVrotateX
p574
aVrotateY
p575
aVrotateZ
p576
aaF0
aF0
aF0
aF6.9912631747006646
aF-2.5308618448132325
aF79.740733257076926
aa(lp577
S'thumb_finger_fk_ctrl_2_r'
p578
a(lp579
VtranslateX
p580
aVtranslateY
p581
aVtranslateZ
p582
aVrotateX
p583
aVrotateY
p584
aVrotateZ
p585
aaF0
aF0
aF0
aF6.9912631747006646
aF-2.5308618448132325
aF79.740733257076926
aa(lp586
S'Rig_Settings'
p587
a(lp588
Vspine_ik
p589
aVspine_fk
p590
aVlLegMode
p591
aVlThighTwistAmount
p592
aVrLegMode
p593
aVrThighTwistAmount
p594
aVlFkArmOrient
p595
aVlArmMode
p596
aVlClavMode
p597
aVltwistCtrlVis
p598
aVlUpperarmTwistAmount
p599
aVltwistCtrlVisLower
p600
aVlForearmTwistAmount
p601
aVrFkArmOrient
p602
aVrArmMode
p603
aVrClavMode
p604
aVrtwistCtrlVis
p605
aVrUpperarmTwistAmount
p606
aVrtwistCtrlVisLower
p607
aVrForearmTwistAmount
p608
aaF0
aF1
aI1
aF0.90000000000000002
aI1
aF0.90000000000000002
aI1
aI1
aI1
aI00
aF0.90000000000000002
aI00
aF0.5
aI1
aI1
aI1
aI00
aF0.90000000000000002
aI00
aF0.5
aa(lp609
Vcalf_armor_l_anim
p610
a(lp611
VtranslateX
p612
aVtranslateY
p613
aVtranslateZ
p614
aVrotateX
p615
aVrotateY
p616
aVrotateZ
p617
aVscaleX
p618
aVscaleY
p619
aVscaleZ
p620
aaF5.4581636220186169
aF0.012810142825135004
aF-0.34507772875282383
aF0.12638299443675149
aF2.7444223371920815
aF2.6376681834178379
aF1
aF1
aF1
aa(lp621
Vcalf_armor_r_anim
p622
a(lp623
VtranslateX
p624
aVtranslateY
p625
aVtranslateZ
p626
aVrotateX
p627
aVrotateY
p628
aVrotateZ
p629
aVscaleX
p630
aVscaleY
p631
aVscaleZ
p632
aaF-4.1427231268678995
aF-0.24268889663222795
aF-0.15101454329173708
aF-0.11055750529773707
aF-3.084499473024239
aF3.1397990437017764
aF1
aF1
aF1
aa(lp633
Vflap_back_anim
p634
a(lp635
VtranslateX
p636
aVtranslateY
p637
aVtranslateZ
p638
aVrotateX
p639
aVrotateY
p640
aVrotateZ
p641
aVscaleX
p642
aVscaleY
p643
aVscaleZ
p644
aaF0
aF0
aF0
aF0
aF0
aF0
aF1
aF1
aF1
aa(lp645
Vflap_front_anim
p646
a(lp647
VtranslateX
p648
aVtranslateY
p649
aVtranslateZ
p650
aVrotateX
p651
aVrotateY
p652
aVrotateZ
p653
aVscaleX
p654
aVscaleY
p655
aVscaleZ
p656
aaF0
aF0
aF0
aF0
aF0
aF0
aF1
aF1
aF1
aa(lp657
Vjaw_anim
p658
a(lp659
VtranslateX
p660
aVtranslateY
p661
aVtranslateZ
p662
aVrotateX
p663
aVrotateY
p664
aVrotateZ
p665
aVscaleX
p666
aVscaleY
p667
aVscaleZ
p668
aaF0
aF0
aF0
aF0
aF0
aF0
aF1
aF1
aF1
aa(lp669
Vloarm_shield_back_l_anim
p670
a(lp671
VtranslateX
p672
aVtranslateY
p673
aVtranslateZ
p674
aVrotateX
p675
aVrotateY
p676
aVrotateZ
p677
aVscaleX
p678
aVscaleY
p679
aVscaleZ
p680
aaF0
aF0
aF0
aF0
aF0
aF0
aF1
aF1
aF1
aa(lp681
Vloarm_shield_bot_l_anim
p682
a(lp683
VtranslateX
p684
aVtranslateY
p685
aVrotateX
p686
aVrotateZ
p687
aVscaleX
p688
aVscaleY
p689
aVscaleZ
p690
aaF0
aF0
aF0
aF0
aF1
aF1
aF1
aa(lp691
Vloarm_shield_top_l_anim
p692
a(lp693
VtranslateX
p694
aVtranslateY
p695
aVrotateX
p696
aVrotateZ
p697
aVscaleX
p698
aVscaleY
p699
aVscaleZ
p700
aaF0
aF0
aF0
aF0
aF1
aF1
aF1
aa(lp701
Vpanel_bot_l_anim
p702
a(lp703
VtranslateX
p704
aVtranslateY
p705
aVtranslateZ
p706
aVrotateX
p707
aVrotateY
p708
aVrotateZ
p709
aVscaleY
p710
aaF0
aF0
aF0
aF0
aF0
aF0
aF1
aa(lp711
Vpanel_bot_r_anim
p712
a(lp713
VtranslateX
p714
aVtranslateY
p715
aVtranslateZ
p716
aVrotateX
p717
aVrotateY
p718
aVrotateZ
p719
aVscaleY
p720
aaF0
aF0
aF0
aF0
aF0
aF0
aF1
aa(lp721
Vpanel_bot_root_l_anim
p722
a(lp723
VtranslateX
p724
aVtranslateY
p725
aVtranslateZ
p726
aVrotateX
p727
aVrotateY
p728
aVscaleX
p729
aVscaleZ
p730
aaF0
aF0
aF0
aF0
aF0
aF1
aF1
aa(lp731
Vpanel_bot_root_r_anim
p732
a(lp733
VtranslateX
p734
aVtranslateY
p735
aVtranslateZ
p736
aVrotateX
p737
aVrotateY
p738
aVscaleX
p739
aVscaleZ
p740
aaF0
aF0
aF0
aF0
aF0
aF1
aF1
aa(lp741
Vpanel_top_l_anim
p742
a(lp743
VtranslateX
p744
aVtranslateY
p745
aVtranslateZ
p746
aVrotateX
p747
aVrotateY
p748
aVrotateZ
p749
aVscaleY
p750
aaF0
aF0
aF0
aF0
aF0
aF0
aF1
aa(lp751
Vpanel_top_r_anim
p752
a(lp753
VtranslateX
p754
aVtranslateY
p755
aVtranslateZ
p756
aVrotateX
p757
aVrotateY
p758
aVrotateZ
p759
aVscaleY
p760
aaF0
aF0
aF0
aF0
aF0
aF0
aF1
aa(lp761
Vpanel_top_root_l_anim
p762
a(lp763
VtranslateX
p764
aVtranslateY
p765
aVtranslateZ
p766
aVrotateX
p767
aVrotateY
p768
aVscaleX
p769
aVscaleZ
p770
aaF0
aF0
aF0
aF0
aF0
aF1
aF1
aa(lp771
Vpanel_top_root_r_anim
p772
a(lp773
VtranslateX
p774
aVtranslateY
p775
aVtranslateZ
p776
aVrotateX
p777
aVrotateY
p778
aVscaleX
p779
aVscaleZ
p780
aaF0
aF0
aF0
aF0
aF0
aF1
aF1
aa(lp781
Vpanels_l_anim
p782
a(lp783
VtranslateX
p784
aVtranslateY
p785
aVtranslateZ
p786
aVrotateX
p787
aVrotateY
p788
aVrotateZ
p789
aVscaleX
p790
aVscaleY
p791
aVscaleZ
p792
aaF0
aF0
aF0
aF0
aF0
aF0
aF1
aF1
aF1
aa(lp793
Vpanels_main_anim
p794
a(lp795
VtranslateX
p796
aVtranslateY
p797
aVtranslateZ
p798
aVrotateX
p799
aVrotateY
p800
aVrotateZ
p801
aVscaleX
p802
aVscaleY
p803
aVscaleZ
p804
aaF0
aF0
aF0
aF0
aF0
aF0
aF1
aF1
aF1
aa(lp805
Vpanels_r_anim
p806
a(lp807
VtranslateX
p808
aVtranslateY
p809
aVtranslateZ
p810
aVrotateX
p811
aVrotateY
p812
aVrotateZ
p813
aVscaleX
p814
aVscaleY
p815
aVscaleZ
p816
aaF0
aF0
aF0
aF0
aF0
aF0
aF1
aF1
aF1
aa(lp817
Vsheild_main_anim
p818
a(lp819
VtranslateX
p820
aVtranslateY
p821
aVtranslateZ
p822
aVrotateX
p823
aVrotateY
p824
aVrotateZ
p825
aVscaleX
p826
aVscaleY
p827
aVscaleZ
p828
aVshieldDeploy1
p829
aVshieldDeploy2
p830
aVshieldDeploy3
p831
aVshieldDeploy4
p832
aVpanelA_deploy1
p833
aVpanelA_deploy2
p834
aVpanelB_deploy1
p835
aVpanelB_deploy2
p836
aVpanelC_deploy1
p837
aVpanelC_deploy2
p838
aVpanelD_deploy1
p839
aVpanelD_deploy2
p840
aaF185.34160296824857
aF-133.17211637882085
aF-72.821674949610696
aF-17.871204334723437
aF21.426196531280258
aF-96.792255581872496
aF1
aF1
aF1
aF0
aF10
aF10
aF10
aF9
aF10
aF9
aF10
aF9
aF10
aF9
aF10
aa(lp841
Vshinpad_l_anim
p842
a(lp843
VtranslateX
p844
aVtranslateY
p845
aVtranslateZ
p846
aVrotateX
p847
aVrotateY
p848
aVrotateZ
p849
aVscaleX
p850
aVscaleY
p851
aVscaleZ
p852
aaF0
aF0
aF0
aF0
aF0
aF0
aF1
aF1
aF1
aa(lp853
Vshinpad_r_anim
p854
a(lp855
VtranslateX
p856
aVtranslateY
p857
aVtranslateZ
p858
aVrotateX
p859
aVrotateY
p860
aVrotateZ
p861
aVscaleX
p862
aVscaleY
p863
aVscaleZ
p864
aaF0
aF0
aF0
aF0
aF0
aF0
aF1
aF1
aF1
aa(lp865
Vtoe_l_anim
p866
a(lp867
VtranslateX
p868
aVtranslateY
p869
aVtranslateZ
p870
aVrotateX
p871
aVrotateY
p872
aVrotateZ
p873
aVscaleX
p874
aVscaleY
p875
aVscaleZ
p876
aaF0
aF0
aF0
aF0
aF0
aF0
aF1
aF1
aF1
aa(lp877
Vtoe_plate_l_anim
p878
a(lp879
VtranslateX
p880
aVtranslateY
p881
aVtranslateZ
p882
aVrotateX
p883
aVrotateY
p884
aVrotateZ
p885
aVscaleX
p886
aVscaleY
p887
aVscaleZ
p888
aaF0
aF0
aF0
aF0
aF0
aF0
aF1
aF1
aF1
aa(lp889
Vtoe_plate_r_anim
p890
a(lp891
VtranslateX
p892
aVtranslateY
p893
aVtranslateZ
p894
aVrotateX
p895
aVrotateY
p896
aVrotateZ
p897
aVscaleX
p898
aVscaleY
p899
aVscaleZ
p900
aaF0
aF0
aF0
aF0
aF0
aF0
aF1
aF1
aF1
aa(lp901
Vtoe_r_anim
p902
a(lp903
VtranslateX
p904
aVtranslateY
p905
aVtranslateZ
p906
aVrotateX
p907
aVrotateY
p908
aVrotateZ
p909
aVscaleX
p910
aVscaleY
p911
aVscaleZ
p912
aaF0
aF0
aF0
aF0
aF0
aF0
aF1
aF1
aF1
aa(lp913
Vturbine_back_inner_anim
p914
a(lp915
VtranslateX
p916
aVtranslateY
p917
aVtranslateZ
p918
aVrotateX
p919
aVrotateY
p920
aVrotateZ
p921
aVscaleX
p922
aVscaleY
p923
aVscaleZ
p924
aaF0
aF0
aF0
aF0
aF0
aF0
aF1
aF1
aF1
aa(lp925
Vturbine_back_main_anim
p926
a(lp927
VtranslateX
p928
aVtranslateY
p929
aVtranslateZ
p930
aVrotateX
p931
aVrotateY
p932
aVrotateZ
p933
aVscaleX
p934
aVscaleY
p935
aVscaleZ
p936
aaF0
aF0
aF0
aF0
aF0
aF0
aF1
aF1
aF1
aa(lp937
Vweapon_r_anim
p938
a(lp939
VtranslateX
p940
aVtranslateY
p941
aVtranslateZ
p942
aVrotateX
p943
aVrotateY
p944
aVrotateZ
p945
aVscaleX
p946
aVscaleY
p947
aVscaleZ
p948
aaF0
aF0
aF0
aF0
aF0.00053843999999999995
aF-0.000127241
aF1
aF1
aF1
aa(lp949
Vbody_anim_space_switcher
p950
a(lp951
Vvisibility
p952
aVtranslateX
p953
aVtranslateY
p954
aVtranslateZ
p955
aVrotateX
p956
aVrotateY
p957
aVrotateZ
p958
aVscaleX
p959
aVscaleY
p960
aVscaleZ
p961
aVspace_world
p962
aaI01
aF-2.8421709430404007e-14
aF0
aF-5.7365421416210884e-05
aF0
aF0
aF0
aF1
aF1
aF1
aF0
aa(lp963
Vcalf_armor_l_anim_space_switcher
p964
a(lp965
Vvisibility
p966
aVtranslateX
p967
aVtranslateY
p968
aVtranslateZ
p969
aVrotateX
p970
aVrotateY
p971
aVrotateZ
p972
aVscaleX
p973
aVscaleY
p974
aVscaleZ
p975
aVspace_world
p976
aaI01
aF0
aF0
aF0
aF0
aF0
aF0
aF1
aF1
aF1
aF0
aa(lp977
Vcalf_armor_r_anim_space_switcher
p978
a(lp979
Vvisibility
p980
aVtranslateX
p981
aVtranslateY
p982
aVtranslateZ
p983
aVrotateX
p984
aVrotateY
p985
aVrotateZ
p986
aVscaleX
p987
aVscaleY
p988
aVscaleZ
p989
aVspace_world
p990
aaI01
aF0
aF0
aF0
aF0
aF0
aF0
aF1
aF0.99999999999999978
aF1
aF0
aa(lp991
Vchest_ik_anim_space_switcher
p992
a(lp993
Vvisibility
p994
aVtranslateX
p995
aVtranslateY
p996
aVtranslateZ
p997
aVrotateX
p998
aVrotateY
p999
aVrotateZ
p1000
aVscaleX
p1001
aVscaleY
p1002
aVscaleZ
p1003
aVspace_world
p1004
aVspace_chest_ik_world_aligned
p1005
aaI01
aF7.3355626000193297e-06
aF-2.7743585796713433e-05
aF0.00015676881650206198
aF0
aF0
aF0
aF1
aF1
aF1.0000000000000002
aF0
aF0
aa(lp1006
Vflap_back_anim_space_switcher
p1007
a(lp1008
Vvisibility
p1009
aVtranslateX
p1010
aVtranslateY
p1011
aVtranslateZ
p1012
aVrotateX
p1013
aVrotateY
p1014
aVrotateZ
p1015
aVscaleX
p1016
aVscaleY
p1017
aVscaleZ
p1018
aVspace_world
p1019
aaI01
aF0
aF0
aF0
aF0
aF0
aF0
aF1
aF1
aF1
aF0
aa(lp1020
Vflap_front_anim_space_switcher
p1021
a(lp1022
Vvisibility
p1023
aVtranslateX
p1024
aVtranslateY
p1025
aVtranslateZ
p1026
aVrotateX
p1027
aVrotateY
p1028
aVrotateZ
p1029
aVscaleX
p1030
aVscaleY
p1031
aVscaleZ
p1032
aVspace_world
p1033
aaI01
aF0
aF0
aF0
aF0
aF0
aF0
aF1
aF1
aF1
aF0
aa(lp1034
Vik_elbow_l_anim_space_switcher
p1035
a(lp1036
Vvisibility
p1037
aVtranslateX
p1038
aVtranslateY
p1039
aVtranslateZ
p1040
aVrotateX
p1041
aVrotateY
p1042
aVrotateZ
p1043
aVscaleX
p1044
aVscaleY
p1045
aVscaleZ
p1046
aVspace_world
p1047
aVspace_body_anim
p1048
aVspace_chest_ik_anim
p1049
aaI01
aF-8.007806007981344e-05
aF0.0034688310492043684
aF-0.0026867962781125243
aF0
aF0
aF0
aF1
aF1
aF1
aF0
aF0
aF0
aa(lp1050
Vik_elbow_r_anim_space_switcher
p1051
a(lp1052
Vvisibility
p1053
aVtranslateX
p1054
aVtranslateY
p1055
aVtranslateZ
p1056
aVrotateX
p1057
aVrotateY
p1058
aVrotateZ
p1059
aVscaleX
p1060
aVscaleY
p1061
aVscaleZ
p1062
aVspace_world
p1063
aVspace_body_anim
p1064
aVspace_chest_ik_anim
p1065
aaI01
aF-8.007806007981344e-05
aF-0.0034688310492043684
aF0.0026867962781125243
aF0
aF0
aF0
aF1
aF1
aF1
aF0
aF0
aF0
aa(lp1066
Vik_foot_anim_l_space_switcher
p1067
a(lp1068
Vvisibility
p1069
aVtranslateX
p1070
aVtranslateY
p1071
aVtranslateZ
p1072
aVrotateX
p1073
aVrotateY
p1074
aVrotateZ
p1075
aVscaleX
p1076
aVscaleY
p1077
aVscaleZ
p1078
aVspace_world
p1079
aVspace_body_anim
p1080
aaI01
aF8.1907305265360719e-05
aF6.320659436198639e-05
aF-0.00036414576641163876
aF0
aF0
aF0
aF1
aF1
aF1
aF0
aF0
aa(lp1081
Vik_foot_anim_r_space_switcher
p1082
a(lp1083
Vvisibility
p1084
aVtranslateX
p1085
aVtranslateY
p1086
aVtranslateZ
p1087
aVrotateX
p1088
aVrotateY
p1089
aVrotateZ
p1090
aVscaleX
p1091
aVscaleY
p1092
aVscaleZ
p1093
aVspace_world
p1094
aVspace_body_anim
p1095
aaI01
aF8.1907305265360719e-05
aF-6.320659436198639e-05
aF0.00036414576641163876
aF0
aF0
aF0
aF1
aF1
aF1
aF0
aF0
aa(lp1096
Vik_global_ctrl_l_grp_space_switcher
p1097
a(lp1098
Vvisibility
p1099
aVtranslateX
p1100
aVtranslateY
p1101
aVtranslateZ
p1102
aVrotateX
p1103
aVrotateY
p1104
aVrotateZ
p1105
aVscaleX
p1106
aVscaleY
p1107
aVscaleZ
p1108
aVspace_world
p1109
aaI01
aF0
aF0
aF0
aF0
aF0
aF0
aF1
aF1
aF1
aF0
aa(lp1110
Vik_global_ctrl_r_grp_space_switcher
p1111
a(lp1112
Vvisibility
p1113
aVtranslateX
p1114
aVtranslateY
p1115
aVtranslateZ
p1116
aVrotateX
p1117
aVrotateY
p1118
aVrotateZ
p1119
aVscaleX
p1120
aVscaleY
p1121
aVscaleZ
p1122
aVspace_world
p1123
aaI01
aF0
aF0
aF0
aF0
aF0
aF0
aF1
aF1
aF1.0000000000000002
aF0
aa(lp1124
Vik_wrist_l_anim_space_switcher
p1125
a(lp1126
Vvisibility
p1127
aVtranslateX
p1128
aVtranslateY
p1129
aVtranslateZ
p1130
aVrotateX
p1131
aVrotateY
p1132
aVrotateZ
p1133
aVscaleX
p1134
aVscaleY
p1135
aVscaleZ
p1136
aVspace_world
p1137
aVspace_body_anim
p1138
aVspace_head_fk_anim
p1139
aVspace_chest_ik_anim
p1140
aVspace_sheild_main_anim
p1141
aaI01
aF0.00044199999999250394
aF0.0057650000000002422
aF-0.0043849999999565625
aF0
aF0
aF0
aF1
aF1
aF1
aF0
aF0
aF0
aF0
aF0
aa(lp1142
Vik_wrist_r_anim_space_switcher
p1143
a(lp1144
Vvisibility
p1145
aVtranslateX
p1146
aVtranslateY
p1147
aVtranslateZ
p1148
aVrotateX
p1149
aVrotateY
p1150
aVrotateZ
p1151
aVscaleX
p1152
aVscaleY
p1153
aVscaleZ
p1154
aVspace_world
p1155
aVspace_body_anim
p1156
aVspace_head_fk_anim
p1157
aVspace_chest_ik_anim
p1158
aVspace_sheild_main_anim
p1159
aaI01
aF0.00044199999999250394
aF-0.0057650000000002422
aF0.004385000000013406
aF0
aF0
aF0
aF1
aF1
aF1
aF0
aF0
aF0
aF0
aF0
aa(lp1160
Vjaw_anim_space_switcher
p1161
a(lp1162
Vvisibility
p1163
aVtranslateX
p1164
aVtranslateY
p1165
aVtranslateZ
p1166
aVrotateX
p1167
aVrotateY
p1168
aVrotateZ
p1169
aVscaleX
p1170
aVscaleY
p1171
aVscaleZ
p1172
aVspace_world
p1173
aaI01
aF0
aF0
aF0
aF0
aF0
aF0
aF1
aF1
aF1
aF0
aa(lp1174
Vloarm_shield_back_l_anim_space_switcher
p1175
a(lp1176
Vvisibility
p1177
aVtranslateX
p1178
aVtranslateY
p1179
aVtranslateZ
p1180
aVrotateX
p1181
aVrotateY
p1182
aVrotateZ
p1183
aVscaleX
p1184
aVscaleY
p1185
aVscaleZ
p1186
aVspace_world
p1187
aaI01
aF0
aF0
aF0
aF0
aF0
aF0
aF1
aF1
aF1
aF0
aa(lp1188
Vloarm_shield_bot_l_anim_space_switcher
p1189
a(lp1190
Vvisibility
p1191
aVtranslateX
p1192
aVtranslateY
p1193
aVtranslateZ
p1194
aVrotateX
p1195
aVrotateY
p1196
aVrotateZ
p1197
aVscaleX
p1198
aVscaleY
p1199
aVscaleZ
p1200
aVspace_world
p1201
aaI01
aF0
aF0
aF0
aF0
aF0
aF0
aF1
aF1
aF1
aF0
aa(lp1202
Vloarm_shield_top_l_anim_space_switcher
p1203
a(lp1204
Vvisibility
p1205
aVtranslateX
p1206
aVtranslateY
p1207
aVtranslateZ
p1208
aVrotateX
p1209
aVrotateY
p1210
aVrotateZ
p1211
aVscaleX
p1212
aVscaleY
p1213
aVscaleZ
p1214
aVspace_world
p1215
aaI01
aF0
aF0
aF0
aF0
aF0
aF0
aF1
aF1
aF1
aF0
aa(lp1216
Vmaster_anim_space_switcher
p1217
a(lp1218
Vvisibility
p1219
aVtranslateX
p1220
aVtranslateY
p1221
aVtranslateZ
p1222
aVrotateX
p1223
aVrotateY
p1224
aVrotateZ
p1225
aVscaleX
p1226
aVscaleY
p1227
aVscaleZ
p1228
aVspace_world
p1229
aaI01
aF0
aF0
aF0
aF0
aF0
aF0
aF1
aF1
aF1
aF0
aa(lp1230
Vpanel_bot_l_anim_space_switcher
p1231
a(lp1232
Vvisibility
p1233
aVtranslateX
p1234
aVtranslateY
p1235
aVtranslateZ
p1236
aVrotateX
p1237
aVrotateY
p1238
aVrotateZ
p1239
aVscaleX
p1240
aVscaleY
p1241
aVscaleZ
p1242
aVspace_world
p1243
aaI01
aF0
aF0
aF0
aF0
aF0
aF0
aF1.0000000000000002
aF1.0000000000000002
aF1.0000000000000002
aF0
aa(lp1244
Vpanel_bot_r_anim_space_switcher
p1245
a(lp1246
Vvisibility
p1247
aVtranslateX
p1248
aVtranslateY
p1249
aVtranslateZ
p1250
aVrotateX
p1251
aVrotateY
p1252
aVrotateZ
p1253
aVscaleX
p1254
aVscaleY
p1255
aVscaleZ
p1256
aVspace_world
p1257
aaI01
aF0
aF0
aF0
aF0
aF0
aF0
aF1
aF1
aF1
aF0
aa(lp1258
Vpanel_bot_root_l_anim_space_switcher
p1259
a(lp1260
Vvisibility
p1261
aVtranslateX
p1262
aVtranslateY
p1263
aVtranslateZ
p1264
aVrotateX
p1265
aVrotateY
p1266
aVrotateZ
p1267
aVscaleX
p1268
aVscaleY
p1269
aVscaleZ
p1270
aVspace_world
p1271
aaI01
aF0
aF0
aF0
aF0
aF0
aF0
aF1.0000000000000002
aF1.0000000000000002
aF1.0000000000000002
aF0
aa(lp1272
Vpanel_bot_root_r_anim_space_switcher
p1273
a(lp1274
Vvisibility
p1275
aVtranslateX
p1276
aVtranslateY
p1277
aVtranslateZ
p1278
aVrotateX
p1279
aVrotateY
p1280
aVrotateZ
p1281
aVscaleX
p1282
aVscaleY
p1283
aVscaleZ
p1284
aVspace_world
p1285
aaI01
aF0
aF0
aF0
aF0
aF0
aF0
aF1
aF1
aF1
aF0
aa(lp1286
Vpanel_top_l_anim_space_switcher
p1287
a(lp1288
Vvisibility
p1289
aVtranslateX
p1290
aVtranslateY
p1291
aVtranslateZ
p1292
aVrotateX
p1293
aVrotateY
p1294
aVrotateZ
p1295
aVscaleX
p1296
aVscaleY
p1297
aVscaleZ
p1298
aVspace_world
p1299
aaI01
aF0
aF0
aF0
aF0
aF0
aF0
aF1.0000000000000002
aF1.0000000000000002
aF1.0000000000000002
aF0
aa(lp1300
Vpanel_top_r_anim_space_switcher
p1301
a(lp1302
Vvisibility
p1303
aVtranslateX
p1304
aVtranslateY
p1305
aVtranslateZ
p1306
aVrotateX
p1307
aVrotateY
p1308
aVrotateZ
p1309
aVscaleX
p1310
aVscaleY
p1311
aVscaleZ
p1312
aVspace_world
p1313
aaI01
aF0
aF0
aF0
aF0
aF0
aF0
aF1
aF1
aF1
aF0
aa(lp1314
Vpanel_top_root_l_anim_space_switcher
p1315
a(lp1316
Vvisibility
p1317
aVtranslateX
p1318
aVtranslateY
p1319
aVtranslateZ
p1320
aVrotateX
p1321
aVrotateY
p1322
aVrotateZ
p1323
aVscaleX
p1324
aVscaleY
p1325
aVscaleZ
p1326
aVspace_world
p1327
aaI01
aF0
aF0
aF0
aF0
aF0
aF0
aF1.0000000000000002
aF1.0000000000000002
aF1.0000000000000002
aF0
aa(lp1328
Vpanel_top_root_r_anim_space_switcher
p1329
a(lp1330
Vvisibility
p1331
aVtranslateX
p1332
aVtranslateY
p1333
aVtranslateZ
p1334
aVrotateX
p1335
aVrotateY
p1336
aVrotateZ
p1337
aVscaleX
p1338
aVscaleY
p1339
aVscaleZ
p1340
aVspace_world
p1341
aaI01
aF0
aF0
aF0
aF0
aF0
aF0
aF1
aF1
aF1
aF0
aa(lp1342
Vpanels_l_anim_space_switcher
p1343
a(lp1344
Vvisibility
p1345
aVtranslateX
p1346
aVtranslateY
p1347
aVtranslateZ
p1348
aVrotateX
p1349
aVrotateY
p1350
aVrotateZ
p1351
aVscaleX
p1352
aVscaleY
p1353
aVscaleZ
p1354
aVspace_world
p1355
aaI01
aF0
aF0
aF0
aF0
aF0
aF0
aF1.0000000000000002
aF1.0000000000000002
aF1.0000000000000002
aF0
aa(lp1356
Vpanels_main_anim_space_switcher
p1357
a(lp1358
Vvisibility
p1359
aVtranslateX
p1360
aVtranslateY
p1361
aVtranslateZ
p1362
aVrotateX
p1363
aVrotateY
p1364
aVrotateZ
p1365
aVscaleX
p1366
aVscaleY
p1367
aVscaleZ
p1368
aVspace_world
p1369
aaI01
aF0
aF0
aF0
aF0
aF0
aF0
aF1.0000000000000002
aF1.0000000000000002
aF1.0000000000000002
aF0
aa(lp1370
Vpanels_r_anim_space_switcher
p1371
a(lp1372
Vvisibility
p1373
aVtranslateX
p1374
aVtranslateY
p1375
aVtranslateZ
p1376
aVrotateX
p1377
aVrotateY
p1378
aVrotateZ
p1379
aVscaleX
p1380
aVscaleY
p1381
aVscaleZ
p1382
aVspace_world
p1383
aaI01
aF0
aF0
aF0
aF0
aF0
aF0
aF1
aF1
aF1
aF0
aa(lp1384
Vsheild_main_anim_space_switcher
p1385
a(lp1386
Vvisibility
p1387
aVtranslateX
p1388
aVtranslateY
p1389
aVtranslateZ
p1390
aVrotateX
p1391
aVrotateY
p1392
aVrotateZ
p1393
aVscaleX
p1394
aVscaleY
p1395
aVscaleZ
p1396
aVspace_world
p1397
aaI01
aF0
aF0
aF0
aF0
aF0
aF0
aF1
aF1.0000000000000002
aF1
aF0
aa(lp1398
Vshinpad_l_anim_space_switcher
p1399
a(lp1400
Vvisibility
p1401
aVtranslateX
p1402
aVtranslateY
p1403
aVtranslateZ
p1404
aVrotateX
p1405
aVrotateY
p1406
aVrotateZ
p1407
aVscaleX
p1408
aVscaleY
p1409
aVscaleZ
p1410
aVspace_world
p1411
aaI01
aF0
aF0
aF0
aF0
aF0
aF0
aF1
aF1
aF1.0000000000000002
aF0
aa(lp1412
Vshinpad_r_anim_space_switcher
p1413
a(lp1414
Vvisibility
p1415
aVtranslateX
p1416
aVtranslateY
p1417
aVtranslateZ
p1418
aVrotateX
p1419
aVrotateY
p1420
aVrotateZ
p1421
aVscaleX
p1422
aVscaleY
p1423
aVscaleZ
p1424
aVspace_world
p1425
aaI01
aF0
aF0
aF0
aF0
aF0
aF0
aF0.99999999999999989
aF0.99999999999999978
aF0.99999999999999989
aF0
aa(lp1426
Vspine_01_space_switcher
p1427
a(lp1428
Vvisibility
p1429
aVtranslateX
p1430
aVtranslateY
p1431
aVtranslateZ
p1432
aVrotateX
p1433
aVrotateY
p1434
aVrotateZ
p1435
aVscaleX
p1436
aVscaleY
p1437
aVscaleZ
p1438
aVspace_world
p1439
aaI01
aF0
aF0
aF0
aF0
aF0
aF0
aF1
aF1.0000000000000002
aF1.0000000000000002
aF0
aa(lp1440
Vtoe_l_anim_space_switcher
p1441
a(lp1442
Vvisibility
p1443
aVtranslateX
p1444
aVtranslateY
p1445
aVtranslateZ
p1446
aVrotateX
p1447
aVrotateY
p1448
aVrotateZ
p1449
aVscaleX
p1450
aVscaleY
p1451
aVscaleZ
p1452
aVspace_world
p1453
aaI01
aF0
aF0
aF0
aF0
aF0
aF0
aF0.99999999999999989
aF1
aF0.99999999999999989
aF0
aa(lp1454
Vtoe_plate_l_anim_space_switcher
p1455
a(lp1456
Vvisibility
p1457
aVtranslateX
p1458
aVtranslateY
p1459
aVtranslateZ
p1460
aVrotateX
p1461
aVrotateY
p1462
aVrotateZ
p1463
aVscaleX
p1464
aVscaleY
p1465
aVscaleZ
p1466
aVspace_world
p1467
aaI01
aF0
aF0
aF0
aF0
aF0
aF0
aF1
aF1
aF1.0000000000000002
aF0
aa(lp1468
Vtoe_plate_r_anim_space_switcher
p1469
a(lp1470
Vvisibility
p1471
aVtranslateX
p1472
aVtranslateY
p1473
aVtranslateZ
p1474
aVrotateX
p1475
aVrotateY
p1476
aVrotateZ
p1477
aVscaleX
p1478
aVscaleY
p1479
aVscaleZ
p1480
aVspace_world
p1481
aaI01
aF0
aF0
aF0
aF0
aF0
aF0
aF1
aF1
aF1
aF0
aa(lp1482
Vtoe_r_anim_space_switcher
p1483
a(lp1484
Vvisibility
p1485
aVtranslateX
p1486
aVtranslateY
p1487
aVtranslateZ
p1488
aVrotateX
p1489
aVrotateY
p1490
aVrotateZ
p1491
aVscaleX
p1492
aVscaleY
p1493
aVscaleZ
p1494
aVspace_world
p1495
aaI01
aF0
aF0
aF0
aF0
aF0
aF0
aF1.0000000000000002
aF1
aF1.0000000000000002
aF0
aa(lp1496
Vturbine_back_inner_anim_space_switcher
p1497
a(lp1498
Vvisibility
p1499
aVtranslateX
p1500
aVtranslateY
p1501
aVtranslateZ
p1502
aVrotateX
p1503
aVrotateY
p1504
aVrotateZ
p1505
aVscaleX
p1506
aVscaleY
p1507
aVscaleZ
p1508
aVspace_world
p1509
aaI01
aF0
aF0
aF0
aF0
aF0
aF0
aF1
aF1
aF1
aF0
aa(lp1510
Vturbine_back_main_anim_space_switcher
p1511
a(lp1512
Vvisibility
p1513
aVtranslateX
p1514
aVtranslateY
p1515
aVtranslateZ
p1516
aVrotateX
p1517
aVrotateY
p1518
aVrotateZ
p1519
aVscaleX
p1520
aVscaleY
p1521
aVscaleZ
p1522
aVspace_world
p1523
aaI01
aF0
aF0
aF0
aF0
aF0
aF0
aF1
aF1
aF1
aF0
aa(lp1524
Vweapon_r_anim_space_switcher
p1525
a(lp1526
Vvisibility
p1527
aVtranslateX
p1528
aVtranslateY
p1529
aVtranslateZ
p1530
aVrotateX
p1531
aVrotateY
p1532
aVrotateZ
p1533
aVscaleX
p1534
aVscaleY
p1535
aVscaleZ
p1536
aVspace_world
p1537
aaI01
aF0
aF0
aF0
aF0
aF0
aF0
aF1.0000000000000002
aF1
aF1.0000000000000002
aF0
aa.