(lp1
(lp2
S'head_fk_anim'
p3
a(lp4
VrotateX
p5
aVrotateY
p6
aVrotateZ
p7
aVscaleX
p8
aVscaleY
p9
aVscaleZ
p10
aVfkOrientation
p11
aaF-6.0235413970479286
aF-9.4203968302750081
aF-13.854282871570785
aF1
aF1
aF1
aI3
aa(lp12
S'neck_01_fk_anim'
p13
a(lp14
VrotateX
p15
aVrotateY
p16
aVrotateZ
p17
aVscaleX
p18
aVscaleY
p19
aVscaleZ
p20
aVfkOrientation
p21
aaF-36.471252461055826
aF-8.9931619174919568
aF-25.126574290790355
aF1
aF1
aF1
aI2
aa(lp22
S'neck_02_fk_anim'
p23
a(lp24
VrotateX
p25
aVrotateY
p26
aVrotateZ
p27
aVscaleX
p28
aVscaleY
p29
aVscaleZ
p30
aaF0.40000000000000002
aF0
aF0
aF1
aF1
aF1
aa(lp31
S'spine_01_anim'
p32
a(lp33
Vlength
p34
aVtranslateY
p35
aVtranslateZ
p36
aVrotateX
p37
aVrotateY
p38
aVrotateZ
p39
aaF0
aF0
aF0
aF-1.0980056507717726
aF2.3558061935812815
aF-7.6663534383373833
aa(lp40
S'spine_02_anim'
p41
a(lp42
Vlength
p43
aVtranslateY
p44
aVtranslateZ
p45
aVrotateX
p46
aVrotateY
p47
aVrotateZ
p48
aVspine_3_Influence
p49
aVspine_1_Influence
p50
aVdriven
p51
aaF0
aF0
aF0
aF0
aF0
aF0
aF0
aF0
aF1
aa(lp52
S'spine_03_anim'
p53
a(lp54
Vlength
p55
aVtranslateY
p56
aVtranslateZ
p57
aVrotateX
p58
aVrotateY
p59
aVrotateZ
p60
aaF0
aF0
aF0
aF-1.2111612267402041
aF-0.51852113549747114
aF-6.8376597179919916
aa(lp61
S'spine_04_anim'
p62
a(lp63
Vlength
p64
aVtranslateY
p65
aVtranslateZ
p66
aVrotateX
p67
aVrotateY
p68
aVrotateZ
p69
aVspine_5_Influence
p70
aVspine_3_Influence
p71
aVdriven
p72
aaF0
aF0
aF0
aF0
aF0
aF0
aF0
aF0
aF1
aa(lp73
S'spine_05_anim'
p74
a(lp75
Vlength
p76
aVtranslateY
p77
aVtranslateZ
p78
aVrotateX
p79
aVrotateY
p80
aVrotateZ
p81
aaF0
aF0
aF0
aF-1.7934631751404198
aF1.0725965539540576
aF-2.4562053314080541
aa(lp82
S'mid_ik_anim'
p83
a(lp84
VtranslateX
p85
aVtranslateY
p86
aVtranslateZ
p87
aVrotateX
p88
aVrotateY
p89
aVrotateZ
p90
aaF0
aF0
aF0
aF0
aF0
aF0
aa(lp91
S'chest_ik_anim'
p92
a(lp93
VtranslateX
p94
aVtranslateY
p95
aVtranslateZ
p96
aVrotateX
p97
aVrotateY
p98
aVrotateZ
p99
aVstretch
p100
aVsquash
p101
aVtwist_amount
p102
aVspine_01_twistAmount
p103
aVspine_02_twistAmount
p104
aVspine_03_twistAmount
p105
aVspine_04_twistAmount
p106
aVautoSpine
p107
aVrotationInfluence
p108
aaF2.8421709430404007e-14
aF1.4210854715202004e-14
aF3.5527136788004883e-15
aF-12.82557652896786
aF-0.56637248973753784
aF-21.992645693153488
aF0
aF0
aF0.5
aF0.20000000000000001
aF0.40000000000000002
aF0.59999999999999998
aF0.80000000000000004
aF1
aF0.25
aa(lp109
S'body_anim'
p110
a(lp111
VtranslateX
p112
aVtranslateY
p113
aVtranslateZ
p114
aVrotateX
p115
aVrotateY
p116
aVrotateZ
p117
aaF-14.875790793014829
aF12.08721195
aF-3.9339706759999999
aF-54.779188542571731
aF4.3862500011494632
aF-15.788484397800868
aa(lp118
S'hip_anim'
p119
a(lp120
VtranslateX
p121
aVtranslateY
p122
aVtranslateZ
p123
aVrotateX
p124
aVrotateY
p125
aVrotateZ
p126
aVlTwistCtrlVis
p127
aVlCalfTwistCtrlVis
p128
aVrTwistCtrlVis
p129
aVrCalfTwistCtrlVis
p130
aVautoHips
p131
aaF0
aF0
aF0
aF0.67916651363685365
aF-2.3181910704808573
aF16.334082610190499
aI00
aI00
aI00
aI00
aF0
aa(lp132
S'clavicle_l_anim'
p133
a(lp134
VtranslateX
p135
aVtranslateY
p136
aVtranslateZ
p137
aVautoShoulders
p138
aVtwistCtrlVis
p139
aVtwistCtrlVisLower
p140
aaF-0.37232817840000176
aF-3.3689057922667756
aF4.6239168999574218
aF0
aI00
aI00
aa(lp141
S'clavicle_r_anim'
p142
a(lp143
VtranslateX
p144
aVtranslateY
p145
aVtranslateZ
p146
aVautoShoulders
p147
aVtwistCtrlVis
p148
aVtwistCtrlVisLower
p149
aaF-0.10376380940000711
aF2.8543084999999859
aF1.7502393439872765
aF0
aI00
aI00
aa(lp150
S'fk_arm_l_anim'
p151
a(lp152
VtranslateX
p153
aVtranslateY
p154
aVtranslateZ
p155
aVrotateX
p156
aVrotateY
p157
aVrotateZ
p158
aaF0
aF0
aF0
aF-27.598202109999999
aF67.175911049999996
aF-34.268535870000008
aa(lp159
S'fk_arm_r_anim'
p160
a(lp161
VtranslateX
p162
aVtranslateY
p163
aVtranslateZ
p164
aVrotateX
p165
aVrotateY
p166
aVrotateZ
p167
aaF0
aF0
aF0
aF-43.090235679999999
aF65.145359439999993
aF-34.169663280000002
aa(lp168
S'fk_elbow_l_anim'
p169
a(lp170
VtranslateX
p171
aVtranslateY
p172
aVtranslateZ
p173
aVrotateX
p174
aVrotateY
p175
aVrotateZ
p176
aaF0
aF0
aF0
aF2.8216562270000001
aF0.93464744
aF-80.85194448
aa(lp177
S'fk_elbow_r_anim'
p178
a(lp179
VtranslateX
p180
aVtranslateY
p181
aVtranslateZ
p182
aVrotateX
p183
aVrotateY
p184
aVrotateZ
p185
aaF0
aF0
aF0
aF-14.610100750000001
aF11.367836949999999
aF260.0223307
aa(lp186
S'fk_wrist_l_anim'
p187
a(lp188
VtranslateX
p189
aVtranslateY
p190
aVtranslateZ
p191
aVrotateX
p192
aVrotateY
p193
aVrotateZ
p194
aaF0
aF0
aF0
aF39.675570039999997
aF31.798310529999995
aF-7.9753636309999987
aa(lp195
S'fk_wrist_r_anim'
p196
a(lp197
VtranslateX
p198
aVtranslateY
p199
aVtranslateZ
p200
aVrotateX
p201
aVrotateY
p202
aVrotateZ
p203
aaF0
aF0
aF0
aF-76.034261650000005
aF16.10047642
aF-9.4216662279999994
aa(lp204
S'ik_elbow_l_anim'
p205
a(lp206
VtranslateX
p207
aVtranslateY
p208
aVtranslateZ
p209
aaF-38.433354754666126
aF-45.399370324652246
aF-48.546304365359106
aa(lp210
S'ik_elbow_r_anim'
p211
a(lp212
VtranslateX
p213
aVtranslateY
p214
aVtranslateZ
p215
aaF42.127298918302195
aF16.7912789341866
aF-40.791509270827206
aa(lp216
S'ik_wrist_l_anim'
p217
a(lp218
VtranslateX
p219
aVtranslateY
p220
aVtranslateZ
p221
aVrotateX
p222
aVrotateY
p223
aVrotateZ
p224
aVstretch
p225
aVsquash
p226
aVside
p227
aVmid_bend
p228
aVmid_swivel
p229
aVtip_pivot
p230
aVtip_swivel
p231
aaF-102.30856916696879
aF4.8731480812240058
aF-40.629059016206909
aF-61.01680827146361
aF-18.875801638051993
aF136.36298748153919
aF0
aF0
aF0
aF0
aF0
aF0
aF0
aa(lp232
S'ik_wrist_r_anim'
p233
a(lp234
VtranslateX
p235
aVtranslateY
p236
aVtranslateZ
p237
aVrotateX
p238
aVrotateY
p239
aVrotateZ
p240
aVstretch
p241
aVsquash
p242
aVside
p243
aVmid_bend
p244
aVmid_swivel
p245
aVtip_pivot
p246
aVtip_swivel
p247
aaF38.889080869157873
aF22.389827716351014
aF-31.880539591743059
aF-108.97450281491248
aF32.426802331644076
aF11.972277745006146
aF0
aF0
aF0
aF0
aF0
aF0
aF0
aa(lp248
S'fk_thigh_l_anim'
p249
a(lp250
VrotateX
p251
aVrotateY
p252
aVrotateZ
p253
aaF1.1311612129999999
aF-17.981336590000002
aF43.790046689999997
aa(lp254
S'fk_thigh_r_anim'
p255
a(lp256
VrotateX
p257
aVrotateY
p258
aVrotateZ
p259
aaF-1.7677320240000003
aF-12.040833470000001
aF19.059583660000001
aa(lp260
S'fk_calf_l_anim'
p261
a(lp262
VrotateX
p263
aVrotateY
p264
aVrotateZ
p265
aaF0.38451958000000003
aF-1.3992077110000001
aF-25.52500534
aa(lp266
S'fk_calf_r_anim'
p267
a(lp268
VrotateX
p269
aVrotateY
p270
aVrotateZ
p271
aaF0.89512186999999999
aF-1.9553707840000001
aF-39.876312259999999
aa(lp272
S'fk_foot_l_anim'
p273
a(lp274
VrotateX
p275
aVrotateY
p276
aVrotateZ
p277
aaF0.71337605000000004
aF12.98264313
aF-11.75557899
aa(lp278
S'fk_foot_r_anim'
p279
a(lp280
VrotateX
p281
aVrotateY
p282
aVrotateZ
p283
aaF21.498125080000001
aF16.679384230000004
aF28.482416149999999
aa(lp284
S'fk_ball_l_anim'
p285
a(lp286
VrotateX
p287
aVrotateY
p288
aVrotateZ
p289
aaF2.5555391000000005e-05
aF2.1523707000000001e-05
aF2.2702478000000001e-05
aa(lp290
S'fk_ball_r_anim'
p291
a(lp292
VrotateX
p293
aVrotateY
p294
aVrotateZ
p295
aaF-0.00011235497000000002
aF-0.00010458958000000001
aF1.0995396000000001e-05
aa(lp296
S'ik_foot_anim_l'
p297
a(lp298
VtranslateX
p299
aVtranslateY
p300
aVtranslateZ
p301
aVrotateX
p302
aVrotateY
p303
aVrotateZ
p304
aVknee_twist
p305
aVstretch
p306
aVsquash
p307
aVtoeCtrlVis
p308
aaF12.60909534
aF-21.469108210000002
aF-8.9820669000000001e-05
aF1.404690445
aF-0.69222576999999996
aF-9.2881528000000007
aF-22.879000000000001
aF0
aF0
aI00
aa(lp309
S'ik_foot_anim_r'
p310
a(lp311
VtranslateX
p312
aVtranslateY
p313
aVtranslateZ
p314
aVrotateX
p315
aVrotateY
p316
aVrotateZ
p317
aVknee_twist
p318
aVstretch
p319
aVsquash
p320
aVtoeCtrlVis
p321
aaF-9.5533081989999999
aF32.664260130000002
aF1.6827223e-05
aF0
aF0
aF-55.030274249325359
aF59.789000000000001
aF0
aF0
aI00
aa(lp322
S'heel_ctrl_l'
p323
a(lp324
VrotateX
p325
aVrotateY
p326
aVrotateZ
p327
aVheelPivot
p328
aVballPivot
p329
aaF0
aF0
aF0
aF0
aF0
aa(lp330
S'heel_ctrl_r'
p331
a(lp332
VrotateX
p333
aVrotateY
p334
aVrotateZ
p335
aVheelPivot
p336
aVballPivot
p337
aaF0
aF0
aF0
aF0
aF0
aa(lp338
S'toe_wiggle_ctrl_l'
p339
a(lp340
VrotateX
p341
aVrotateY
p342
aVrotateZ
p343
aaF0
aF0
aF0
aa(lp344
S'toe_wiggle_ctrl_r'
p345
a(lp346
VrotateX
p347
aVrotateY
p348
aVrotateZ
p349
aaF0
aF0
aF0
aa(lp350
S'toe_tip_ctrl_l'
p351
a(lp352
VrotateX
p353
aVrotateY
p354
aVrotateZ
p355
aaF0
aF0
aF0
aa(lp356
S'toe_tip_ctrl_r'
p357
a(lp358
VrotateX
p359
aVrotateY
p360
aVrotateZ
p361
aaF0
aF0
aF0
aa(lp362
S'master_anim'
p363
a(lp364
VtranslateX
p365
aVtranslateY
p366
aVtranslateZ
p367
aVrotateX
p368
aVrotateY
p369
aVrotateZ
p370
aaF0
aF0
aF0
aF0
aF0
aF0
aa(lp371
S'offset_anim'
p372
a(lp373
VtranslateX
p374
aVtranslateY
p375
aVtranslateZ
p376
aVrotateX
p377
aVrotateY
p378
aVrotateZ
p379
aaF0
aF0
aF0
aF0
aF0
aF0
aa(lp380
S'root_anim'
p381
a(lp382
VtranslateX
p383
aVtranslateY
p384
aVtranslateZ
p385
aVrotateX
p386
aVrotateY
p387
aVrotateZ
p388
aaF0
aF0
aF0
aF0
aF0
aF0
aa(lp389
S'upperarm_l_twist_anim'
p390
a(lp391
VtranslateX
p392
aVtranslateY
p393
aVtranslateZ
p394
aVrotateX
p395
aVrotateY
p396
aVrotateZ
p397
aaF0
aF0
aF0
aF-14.999999999999998
aF0
aF0
aa(lp398
S'upperarm_r_twist_anim'
p399
a(lp400
VtranslateX
p401
aVtranslateY
p402
aVtranslateZ
p403
aVrotateX
p404
aVrotateY
p405
aVrotateZ
p406
aaF0
aF0
aF0
aF20
aF0
aF0
aa(lp407
S'thigh_l_twist_anim'
p408
a(lp409
VtranslateX
p410
aVtranslateY
p411
aVtranslateZ
p412
aVrotateX
p413
aVrotateY
p414
aVrotateZ
p415
aaF0
aF0
aF0
aF0
aF0
aF0
aa(lp416
S'thigh_r_twist_anim'
p417
a(lp418
VtranslateX
p419
aVtranslateY
p420
aVtranslateZ
p421
aVrotateX
p422
aVrotateY
p423
aVrotateZ
p424
aaF0
aF0
aF0
aF0
aF0
aF0
aa(lp425
S'pinky_metacarpal_ctrl_l'
p426
a(lp427
VrotateX
p428
aVrotateY
p429
aVrotateZ
p430
aaF-0.29432495923684132
aF2.8529245993890364
aF8.7378582300531527
aa(lp431
S'pinky_metacarpal_ctrl_r'
p432
a(lp433
VrotateX
p434
aVrotateY
p435
aVrotateZ
p436
aaF0.1275192275863353
aF2.9801988637932419
aF4.8734212270363946
aa(lp437
S'pinky_finger_fk_ctrl_1_l'
p438
a(lp439
VtranslateX
p440
aVtranslateY
p441
aVtranslateZ
p442
aVrotateX
p443
aVrotateY
p444
aVrotateZ
p445
aVsticky
p446
aaF0
aF0
aF0
aF-9.8380618236559325
aF12.879599583658131
aF68.676777494845425
aF0
aa(lp447
S'pinky_finger_fk_ctrl_1_r'
p448
a(lp449
VtranslateX
p450
aVtranslateY
p451
aVtranslateZ
p452
aVrotateX
p453
aVrotateY
p454
aVrotateZ
p455
aVsticky
p456
aaF0
aF0
aF0
aF-11.985289204386962
aF11.30507775355443
aF70.382620364304088
aF0
aa(lp457
S'pinky_finger_fk_ctrl_2_l'
p458
a(lp459
VtranslateX
p460
aVtranslateY
p461
aVtranslateZ
p462
aVrotateX
p463
aVrotateY
p464
aVrotateZ
p465
aaF0
aF0
aF0
aF0
aF0
aF41.035069693421178
aa(lp466
S'pinky_finger_fk_ctrl_2_r'
p467
a(lp468
VtranslateX
p469
aVtranslateY
p470
aVtranslateZ
p471
aVrotateX
p472
aVrotateY
p473
aVrotateZ
p474
aaF0
aF0
aF0
aF-0.65830730853756969
aF0.021933588944503247
aF41.490477420138809
aa(lp475
S'pinky_finger_fk_ctrl_3_l'
p476
a(lp477
VtranslateX
p478
aVtranslateY
p479
aVtranslateZ
p480
aVrotateX
p481
aVrotateY
p482
aVrotateZ
p483
aaF0
aF0
aF0
aF0
aF0
aF30.578963552059761
aa(lp484
S'pinky_finger_fk_ctrl_3_r'
p485
a(lp486
VtranslateX
p487
aVtranslateY
p488
aVtranslateZ
p489
aVrotateX
p490
aVrotateY
p491
aVrotateZ
p492
aaF0
aF0
aF0
aF-0.28689077176510086
aF0.55598296988767137
aF49.444368514639805
aa(lp493
S'ring_metacarpal_ctrl_l'
p494
a(lp495
VrotateX
p496
aVrotateY
p497
aVrotateZ
p498
aaF0.35546304036472692
aF3.3750129168218792
aF7.1787523983147432
aa(lp499
S'ring_metacarpal_ctrl_r'
p500
a(lp501
VrotateX
p502
aVrotateY
p503
aVrotateZ
p504
aaF0
aF2.2752197870000002
aF4.0439683701562075
aa(lp505
S'ring_finger_fk_ctrl_1_l'
p506
a(lp507
VtranslateX
p508
aVtranslateY
p509
aVtranslateZ
p510
aVrotateX
p511
aVrotateY
p512
aVrotateZ
p513
aVsticky
p514
aaF0
aF0
aF0
aF-4.5551836999431137
aF2.0365925649722478
aF73.496068406570529
aF0
aa(lp515
S'ring_finger_fk_ctrl_1_r'
p516
a(lp517
VtranslateX
p518
aVtranslateY
p519
aVtranslateZ
p520
aVrotateX
p521
aVrotateY
p522
aVrotateZ
p523
aVsticky
p524
aaF0
aF0
aF0
aF-5.6752373369423692
aF-1.7581750544535397
aF72.674764287981091
aF0
aa(lp525
S'ring_finger_fk_ctrl_2_l'
p526
a(lp527
VtranslateX
p528
aVtranslateY
p529
aVtranslateZ
p530
aVrotateX
p531
aVrotateY
p532
aVrotateZ
p533
aaF0
aF0
aF0
aF-0.021283731081320284
aF0.071798067876246652
aF45.009727741009385
aa(lp534
S'ring_finger_fk_ctrl_2_r'
p535
a(lp536
VtranslateX
p537
aVtranslateY
p538
aVtranslateZ
p539
aVrotateX
p540
aVrotateY
p541
aVrotateZ
p542
aaF0
aF0
aF0
aF0
aF0
aF49.859979400684445
aa(lp543
S'ring_finger_fk_ctrl_3_l'
p544
a(lp545
VtranslateX
p546
aVtranslateY
p547
aVtranslateZ
p548
aVrotateX
p549
aVrotateY
p550
aVrotateZ
p551
aaF0
aF0
aF0
aF0
aF0
aF36.522762182099193
aa(lp552
S'ring_finger_fk_ctrl_3_r'
p553
a(lp554
VtranslateX
p555
aVtranslateY
p556
aVtranslateZ
p557
aVrotateX
p558
aVrotateY
p559
aVrotateZ
p560
aaF0
aF0
aF0
aF0
aF0
aF50.152191160000001
aa(lp561
S'middle_metacarpal_ctrl_l'
p562
a(lp563
VrotateX
p564
aVrotateY
p565
aVrotateZ
p566
aaF-0.11379204454550336
aF0.59831168626519626
aF7.6971484651213933
aa(lp567
S'middle_metacarpal_ctrl_r'
p568
a(lp569
VrotateX
p570
aVrotateY
p571
aVrotateZ
p572
aaF0
aF0
aF2.3955311153528513
aa(lp573
S'middle_finger_fk_ctrl_1_l'
p574
a(lp575
VtranslateX
p576
aVtranslateY
p577
aVtranslateZ
p578
aVrotateX
p579
aVrotateY
p580
aVrotateZ
p581
aVsticky
p582
aaF0
aF0
aF0
aF-4.430041638385255
aF4.9255506412557413
aF69.454702602960637
aF0
aa(lp583
S'middle_finger_fk_ctrl_1_r'
p584
a(lp585
VtranslateX
p586
aVtranslateY
p587
aVtranslateZ
p588
aVrotateX
p589
aVrotateY
p590
aVrotateZ
p591
aVsticky
p592
aaF0
aF0
aF0
aF-5.942229935428168
aF-0.027788572753423734
aF77.095014305093514
aF0
aa(lp593
S'middle_finger_fk_ctrl_2_l'
p594
a(lp595
VtranslateX
p596
aVtranslateY
p597
aVtranslateZ
p598
aVrotateX
p599
aVrotateY
p600
aVrotateZ
p601
aaF0
aF0
aF0
aF0
aF0
aF51.930507660000004
aa(lp602
S'middle_finger_fk_ctrl_2_r'
p603
a(lp604
VtranslateX
p605
aVtranslateY
p606
aVtranslateZ
p607
aVrotateX
p608
aVrotateY
p609
aVrotateZ
p610
aaF0
aF0
aF0
aF0
aF0
aF58.664794919999999
aa(lp611
S'middle_finger_fk_ctrl_3_l'
p612
a(lp613
VtranslateX
p614
aVtranslateY
p615
aVtranslateZ
p616
aVrotateX
p617
aVrotateY
p618
aVrotateZ
p619
aaF0
aF0
aF0
aF0
aF0
aF53.75726318000001
aa(lp620
S'middle_finger_fk_ctrl_3_r'
p621
a(lp622
VtranslateX
p623
aVtranslateY
p624
aVtranslateZ
p625
aVrotateX
p626
aVrotateY
p627
aVrotateZ
p628
aaF0
aF0
aF0
aF0
aF0
aF51.707767490000002
aa(lp629
S'index_metacarpal_ctrl_l'
p630
a(lp631
VrotateX
p632
aVrotateY
p633
aVrotateZ
p634
aaF0
aF0
aF-3.1346014060350238
aa(lp635
S'index_metacarpal_ctrl_r'
p636
a(lp637
VrotateX
p638
aVrotateY
p639
aVrotateZ
p640
aaF0
aF0
aF-7.1830948395576861
aa(lp641
S'index_finger_fk_ctrl_1_l'
p642
a(lp643
VtranslateX
p644
aVtranslateY
p645
aVtranslateZ
p646
aVrotateX
p647
aVrotateY
p648
aVrotateZ
p649
aVsticky
p650
aaF0
aF0
aF0
aF-12.004259214483081
aF-1.4826847459899715
aF50.471130181181422
aF0
aa(lp651
S'index_finger_fk_ctrl_1_r'
p652
a(lp653
VtranslateX
p654
aVtranslateY
p655
aVtranslateZ
p656
aVrotateX
p657
aVrotateY
p658
aVrotateZ
p659
aVsticky
p660
aaF0
aF0
aF0
aF-9.0445769319690292
aF-0.95190237632050023
aF46.431829797280351
aF0
aa(lp661
S'index_finger_fk_ctrl_2_l'
p662
a(lp663
VtranslateX
p664
aVtranslateY
p665
aVtranslateZ
p666
aVrotateX
p667
aVrotateY
p668
aVrotateZ
p669
aaF0
aF0
aF0
aF0
aF0
aF65.19894441688939
aa(lp670
S'index_finger_fk_ctrl_2_r'
p671
a(lp672
VtranslateX
p673
aVtranslateY
p674
aVtranslateZ
p675
aVrotateX
p676
aVrotateY
p677
aVrotateZ
p678
aaF0
aF0
aF0
aF0
aF0
aF73.228797479218485
aa(lp679
S'index_finger_fk_ctrl_3_l'
p680
a(lp681
VtranslateX
p682
aVtranslateY
p683
aVtranslateZ
p684
aVrotateX
p685
aVrotateY
p686
aVrotateZ
p687
aaF0
aF0
aF0
aF0
aF0
aF35.333047762867217
aa(lp688
S'index_finger_fk_ctrl_3_r'
p689
a(lp690
VtranslateX
p691
aVtranslateY
p692
aVtranslateZ
p693
aVrotateX
p694
aVrotateY
p695
aVrotateZ
p696
aaF0
aF0
aF0
aF0
aF0
aF43.237064359999998
aa(lp697
S'thumb_finger_fk_ctrl_1_l'
p698
a(lp699
VtranslateX
p700
aVtranslateY
p701
aVtranslateZ
p702
aVrotateX
p703
aVrotateY
p704
aVrotateZ
p705
aVsticky
p706
aaF0
aF0
aF0
aF19.437401502043368
aF15.743490541828285
aF-2.470451714095649
aF0
aa(lp707
S'thumb_finger_fk_ctrl_1_r'
p708
a(lp709
VtranslateX
p710
aVtranslateY
p711
aVtranslateZ
p712
aVrotateX
p713
aVrotateY
p714
aVrotateZ
p715
aVsticky
p716
aaF0
aF0
aF0
aF18.645589836857042
aF9.6662151737650905
aF-6.9505807734985146
aF0
aa(lp717
S'thumb_finger_fk_ctrl_2_l'
p718
a(lp719
VtranslateX
p720
aVtranslateY
p721
aVtranslateZ
p722
aVrotateX
p723
aVrotateY
p724
aVrotateZ
p725
aaF0
aF0
aF0
aF0
aF0
aF17.42092658694931
aa(lp726
S'thumb_finger_fk_ctrl_2_r'
p727
a(lp728
VtranslateX
p729
aVtranslateY
p730
aVtranslateZ
p731
aVrotateX
p732
aVrotateY
p733
aVrotateZ
p734
aaF0
aF0
aF0
aF-15.014762420785903
aF-2.7392671966996582
aF25.030614053722633
aa(lp735
S'thumb_finger_fk_ctrl_3_l'
p736
a(lp737
VtranslateX
p738
aVtranslateY
p739
aVtranslateZ
p740
aVrotateX
p741
aVrotateY
p742
aVrotateZ
p743
aaF0
aF0
aF0
aF0
aF-8.3000000000000007
aF34.471469608639097
aa(lp744
S'thumb_finger_fk_ctrl_3_r'
p745
a(lp746
VtranslateX
p747
aVtranslateY
p748
aVtranslateZ
p749
aVrotateX
p750
aVrotateY
p751
aVrotateZ
p752
aaF0
aF0
aF0
aF0
aF-8.3000000000000007
aF24.949148329958785
aa(lp753
S'index_l_ik_anim'
p754
a(lp755
VtranslateX
p756
aVtranslateY
p757
aVtranslateZ
p758
aVrotateX
p759
aVrotateY
p760
aVrotateZ
p761
aVpoleVectorVis
p762
aaF0
aF0
aF0
aF0
aF0
aF0
aF0
aa(lp763
S'index_r_ik_anim'
p764
a(lp765
VtranslateX
p766
aVtranslateY
p767
aVtranslateZ
p768
aVrotateX
p769
aVrotateY
p770
aVrotateZ
p771
aVpoleVectorVis
p772
aaF0
aF0
aF0
aF0
aF0
aF0
aF0
aa(lp773
S'middle_l_ik_anim'
p774
a(lp775
VtranslateX
p776
aVtranslateY
p777
aVtranslateZ
p778
aVrotateX
p779
aVrotateY
p780
aVrotateZ
p781
aVpoleVectorVis
p782
aaF0
aF0
aF0
aF0
aF0
aF0
aF0
aa(lp783
S'middle_r_ik_anim'
p784
a(lp785
VtranslateX
p786
aVtranslateY
p787
aVtranslateZ
p788
aVrotateX
p789
aVrotateY
p790
aVrotateZ
p791
aVpoleVectorVis
p792
aaF0
aF0
aF0
aF0
aF0
aF0
aF0
aa(lp793
S'ring_l_ik_anim'
p794
a(lp795
VtranslateX
p796
aVtranslateY
p797
aVtranslateZ
p798
aVrotateX
p799
aVrotateY
p800
aVrotateZ
p801
aVpoleVectorVis
p802
aaF0
aF0
aF0
aF0
aF0
aF0
aF0
aa(lp803
S'ring_r_ik_anim'
p804
a(lp805
VtranslateX
p806
aVtranslateY
p807
aVtranslateZ
p808
aVrotateX
p809
aVrotateY
p810
aVrotateZ
p811
aVpoleVectorVis
p812
aaF0
aF0
aF0
aF0
aF0
aF0
aF0
aa(lp813
S'pinky_l_ik_anim'
p814
a(lp815
VtranslateX
p816
aVtranslateY
p817
aVtranslateZ
p818
aVrotateX
p819
aVrotateY
p820
aVrotateZ
p821
aVpoleVectorVis
p822
aaF0
aF0
aF0
aF0
aF0
aF0
aF0
aa(lp823
S'pinky_r_ik_anim'
p824
a(lp825
VtranslateX
p826
aVtranslateY
p827
aVtranslateZ
p828
aVrotateX
p829
aVrotateY
p830
aVrotateZ
p831
aVpoleVectorVis
p832
aaF0
aF0
aF0
aF0
aF0
aF0
aF0
aa(lp833
S'thumb_l_ik_anim'
p834
a(lp835
VtranslateX
p836
aVtranslateY
p837
aVtranslateZ
p838
aVrotateX
p839
aVrotateY
p840
aVrotateZ
p841
aVpoleVectorVis
p842
aaF0
aF0
aF0
aF0
aF0
aF0
aF0
aa(lp843
S'thumb_r_ik_anim'
p844
a(lp845
VtranslateX
p846
aVtranslateY
p847
aVtranslateZ
p848
aVrotateX
p849
aVrotateY
p850
aVrotateZ
p851
aVpoleVectorVis
p852
aaF0
aF0
aF0
aF0
aF0
aF0
aF0
aa(lp853
S'index_l_poleVector'
p854
a(lp855
VtranslateX
p856
aVtranslateY
p857
aVtranslateZ
p858
aVrotateX
p859
aVrotateY
p860
aVrotateZ
p861
aaF0
aF0
aF0
aF0
aF0
aF0
aa(lp862
S'index_r_poleVector'
p863
a(lp864
VtranslateX
p865
aVtranslateY
p866
aVtranslateZ
p867
aVrotateX
p868
aVrotateY
p869
aVrotateZ
p870
aaF0
aF0
aF0
aF0
aF0
aF0
aa(lp871
S'middle_l_poleVector'
p872
a(lp873
VtranslateX
p874
aVtranslateY
p875
aVtranslateZ
p876
aVrotateX
p877
aVrotateY
p878
aVrotateZ
p879
aaF0
aF0
aF0
aF0
aF0
aF0
aa(lp880
S'middle_r_poleVector'
p881
a(lp882
VtranslateX
p883
aVtranslateY
p884
aVtranslateZ
p885
aVrotateX
p886
aVrotateY
p887
aVrotateZ
p888
aaF0
aF0
aF0
aF0
aF0
aF0
aa(lp889
S'ring_l_poleVector'
p890
a(lp891
VtranslateX
p892
aVtranslateY
p893
aVtranslateZ
p894
aVrotateX
p895
aVrotateY
p896
aVrotateZ
p897
aaF0
aF0
aF0
aF0
aF0
aF0
aa(lp898
S'ring_r_poleVector'
p899
a(lp900
VtranslateX
p901
aVtranslateY
p902
aVtranslateZ
p903
aVrotateX
p904
aVrotateY
p905
aVrotateZ
p906
aaF0
aF0
aF0
aF0
aF0
aF0
aa(lp907
S'pinky_l_poleVector'
p908
a(lp909
VtranslateX
p910
aVtranslateY
p911
aVtranslateZ
p912
aVrotateX
p913
aVrotateY
p914
aVrotateZ
p915
aaF0
aF0
aF0
aF0
aF0
aF0
aa(lp916
S'pinky_r_poleVector'
p917
a(lp918
VtranslateX
p919
aVtranslateY
p920
aVtranslateZ
p921
aVrotateX
p922
aVrotateY
p923
aVrotateZ
p924
aaF0
aF0
aF0
aF0
aF0
aF0
aa(lp925
S'thumb_l_poleVector'
p926
a(lp927
VtranslateX
p928
aVtranslateY
p929
aVtranslateZ
p930
aVrotateX
p931
aVrotateY
p932
aVrotateZ
p933
aaF0
aF0
aF0
aF0
aF0
aF0
aa(lp934
S'thumb_r_poleVector'
p935
a(lp936
VtranslateX
p937
aVtranslateY
p938
aVtranslateZ
p939
aVrotateX
p940
aVrotateY
p941
aVrotateZ
p942
aaF0
aF0
aF0
aF0
aF0
aF0
aa(lp943
S'l_global_ik_anim'
p944
a(lp945
VtranslateX
p946
aVtranslateY
p947
aVtranslateZ
p948
aVrotateX
p949
aVrotateY
p950
aVrotateZ
p951
aaF0
aF0
aF0
aF0
aF0
aF0
aa(lp952
S'r_global_ik_anim'
p953
a(lp954
VtranslateX
p955
aVtranslateY
p956
aVtranslateZ
p957
aVrotateX
p958
aVrotateY
p959
aVrotateZ
p960
aaF0
aF0
aF0
aF0
aF0
aF0
aa(lp961
S'Rig_Settings'
p962
a(lp963
Vspine_ik
p964
aVspine_fk
p965
aVlLegMode
p966
aVlThighTwistAmount
p967
aVlCalfTwistAmount
p968
aVlCalfTwist2Amount
p969
aVrLegMode
p970
aVrThighTwistAmount
p971
aVrCalfTwistAmount
p972
aVrCalfTwist2Amount
p973
aVlFkArmOrient
p974
aVrFkArmOrient
p975
aVlArmMode
p976
aVlUpperarmTwistAmount
p977
aVlForearmTwistAmount
p978
aVlForearmTwist2Amount
p979
aVrArmMode
p980
aVrUpperarmTwistAmount
p981
aVrForearmTwistAmount
p982
aVrForearmTwist2Amount
p983
aaF1
aF0
aI1
aF0.90000000000000002
aF0.75
aF0.5
aI1
aF0.90000000000000002
aF0.75
aF0.5
aI0
aI0
aI1
aF0.90000000000000002
aF0.40000000000000002
aF0.40000000000000002
aI1
aF0.90000000000000002
aF0.40000000000000002
aF0.5
aa(lp984
Vweapon_l_anim
p985
a(lp986
VtranslateX
p987
aVtranslateY
p988
aVtranslateZ
p989
aVrotateX
p990
aVrotateY
p991
aVrotateZ
p992
aVscaleX
p993
aVscaleY
p994
aVscaleZ
p995
aaF0
aF0
aF0
aF0
aF0
aF0
aF1
aF1
aF1
aa(lp996
Vweapon_r_anim
p997
a(lp998
VtranslateX
p999
aVtranslateY
p1000
aVtranslateZ
p1001
aVrotateX
p1002
aVrotateY
p1003
aVrotateZ
p1004
aVscaleX
p1005
aVscaleY
p1006
aVscaleZ
p1007
aaF-6.8007963139798164
aF0.53709661751397819
aF-5.5612791537677424
aF17.746102744029727
aF-3.564498709927328
aF-90.757371789728396
aF1
aF1
aF1
aa(lp1008
Vattach_anim
p1009
a(lp1010
VtranslateX
p1011
aVtranslateY
p1012
aVtranslateZ
p1013
aVrotateX
p1014
aVrotateY
p1015
aVrotateZ
p1016
aVscaleX
p1017
aVscaleY
p1018
aVscaleZ
p1019
aaF0
aF0
aF0
aF0
aF0
aF0
aF1
aF1
aF1
aa(lp1020
Vattach_space_switcher
p1021
a(lp1022
Vvisibility
p1023
aVtranslateX
p1024
aVtranslateY
p1025
aVtranslateZ
p1026
aVrotateX
p1027
aVrotateY
p1028
aVrotateZ
p1029
aVscaleX
p1030
aVscaleY
p1031
aVscaleZ
p1032
aVspace_world
p1033
aaI01
aF0
aF0
aF0
aF0
aF0
aF0
aF1
aF1
aF1
aF0
aa(lp1034
Vbody_anim_space_switcher
p1035
a(lp1036
Vvisibility
p1037
aVtranslateX
p1038
aVtranslateY
p1039
aVtranslateZ
p1040
aVrotateX
p1041
aVrotateY
p1042
aVrotateZ
p1043
aVscaleX
p1044
aVscaleY
p1045
aVscaleZ
p1046
aVspace_world
p1047
aaI01
aF0
aF0
aF0
aF0
aF0
aF0
aF1
aF1
aF1
aF0
aa(lp1048
Vchest_ik_anim_space_switcher
p1049
a(lp1050
Vvisibility
p1051
aVtranslateX
p1052
aVtranslateY
p1053
aVtranslateZ
p1054
aVrotateX
p1055
aVrotateY
p1056
aVrotateZ
p1057
aVscaleX
p1058
aVscaleY
p1059
aVscaleZ
p1060
aVspace_world
p1061
aVspace_chest_ik_world_aligned
p1062
aaI01
aF0
aF0
aF0
aF0
aF0
aF0
aF1
aF1
aF1
aF0
aF0
aa(lp1063
Vik_elbow_l_anim_space_switcher
p1064
a(lp1065
Vvisibility
p1066
aVtranslateX
p1067
aVtranslateY
p1068
aVtranslateZ
p1069
aVrotateX
p1070
aVrotateY
p1071
aVrotateZ
p1072
aVscaleX
p1073
aVscaleY
p1074
aVscaleZ
p1075
aVspace_world
p1076
aVspace_body_anim
p1077
aVspace_chest_ik_anim
p1078
aaI01
aF0
aF0
aF0
aF0
aF0
aF0
aF1
aF1
aF1
aF0
aF0
aF0
aa(lp1079
Vik_elbow_r_anim_space_switcher
p1080
a(lp1081
Vvisibility
p1082
aVtranslateX
p1083
aVtranslateY
p1084
aVtranslateZ
p1085
aVrotateX
p1086
aVrotateY
p1087
aVrotateZ
p1088
aVscaleX
p1089
aVscaleY
p1090
aVscaleZ
p1091
aVspace_world
p1092
aVspace_body_anim
p1093
aVspace_chest_ik_anim
p1094
aaI01
aF0
aF0
aF0
aF0
aF0
aF0
aF1
aF1
aF1
aF0
aF0
aF0
aa(lp1095
Vik_foot_anim_l_space_switcher
p1096
a(lp1097
Vvisibility
p1098
aVtranslateX
p1099
aVtranslateY
p1100
aVtranslateZ
p1101
aVrotateX
p1102
aVrotateY
p1103
aVrotateZ
p1104
aVscaleX
p1105
aVscaleY
p1106
aVscaleZ
p1107
aVspace_world
p1108
aVspace_body_anim
p1109
aaI01
aF0
aF0
aF0
aF0
aF0
aF0
aF1
aF1
aF1
aF0
aF0
aa(lp1110
Vik_foot_anim_r_space_switcher
p1111
a(lp1112
Vvisibility
p1113
aVtranslateX
p1114
aVtranslateY
p1115
aVtranslateZ
p1116
aVrotateX
p1117
aVrotateY
p1118
aVrotateZ
p1119
aVscaleX
p1120
aVscaleY
p1121
aVscaleZ
p1122
aVspace_world
p1123
aVspace_body_anim
p1124
aaI01
aF0
aF0
aF0
aF0
aF0
aF0
aF1
aF1
aF1
aF0
aF0
aa(lp1125
Vik_wrist_l_anim_space_switcher
p1126
a(lp1127
Vvisibility
p1128
aVtranslateX
p1129
aVtranslateY
p1130
aVtranslateZ
p1131
aVrotateX
p1132
aVrotateY
p1133
aVrotateZ
p1134
aVscaleX
p1135
aVscaleY
p1136
aVscaleZ
p1137
aVspace_world
p1138
aVspace_body_anim
p1139
aVspace_head_fk_anim
p1140
aVspace_chest_ik_anim
p1141
aaI01
aF0
aF0
aF0
aF0
aF0
aF0
aF1
aF1
aF1
aF0
aF0
aF0
aF0
aa(lp1142
Vik_wrist_r_anim_space_switcher
p1143
a(lp1144
Vvisibility
p1145
aVtranslateX
p1146
aVtranslateY
p1147
aVtranslateZ
p1148
aVrotateX
p1149
aVrotateY
p1150
aVrotateZ
p1151
aVscaleX
p1152
aVscaleY
p1153
aVscaleZ
p1154
aVspace_world
p1155
aVspace_body_anim
p1156
aVspace_head_fk_anim
p1157
aVspace_chest_ik_anim
p1158
aaI01
aF0
aF0
aF0
aF0
aF0
aF0
aF1
aF1
aF1
aF0
aF0
aF0
aF0
aa(lp1159
Vl_global_ik_anim_space_switcher
p1160
a(lp1161
Vvisibility
p1162
aVtranslateX
p1163
aVtranslateY
p1164
aVtranslateZ
p1165
aVrotateX
p1166
aVrotateY
p1167
aVrotateZ
p1168
aVscaleX
p1169
aVscaleY
p1170
aVscaleZ
p1171
aVspace_world
p1172
aaI01
aF1.4210854715202004e-14
aF7.1054273576010019e-15
aF1.4210854715202004e-14
aF6.3611093629270335e-15
aF1.2523434058262599e-14
aF3.1805546814635176e-15
aF1
aF1.0000000000000002
aF1
aF0
aa(lp1173
Vmaster_anim_space_switcher
p1174
a(lp1175
Vvisibility
p1176
aVtranslateX
p1177
aVtranslateY
p1178
aVtranslateZ
p1179
aVrotateX
p1180
aVrotateY
p1181
aVrotateZ
p1182
aVscaleX
p1183
aVscaleY
p1184
aVscaleZ
p1185
aVspace_world
p1186
aaI01
aF0
aF0
aF0
aF0
aF0
aF0
aF1
aF1
aF1
aF0
aa(lp1187
Vr_global_ik_anim_space_switcher
p1188
a(lp1189
Vvisibility
p1190
aVtranslateX
p1191
aVtranslateY
p1192
aVtranslateZ
p1193
aVrotateX
p1194
aVrotateY
p1195
aVrotateZ
p1196
aVscaleX
p1197
aVscaleY
p1198
aVscaleZ
p1199
aVspace_world
p1200
aaI01
aF-2.8421709430404007e-14
aF-3.5527136788005009e-15
aF-1.4210854715202004e-14
aF6.3611093629270335e-15
aF-1.2722218725854067e-14
aF-5.5659706925611551e-15
aF1
aF1.0000000000000002
aF1
aF0
aa(lp1201
Vspine_01_space_switcher
p1202
a(lp1203
Vvisibility
p1204
aVtranslateX
p1205
aVtranslateY
p1206
aVtranslateZ
p1207
aVrotateX
p1208
aVrotateY
p1209
aVrotateZ
p1210
aVscaleX
p1211
aVscaleY
p1212
aVscaleZ
p1213
aVspace_world
p1214
aaI01
aF1.4210854715202004e-14
aF0
aF0
aF1.5902773407317584e-14
aF-4.3732626870123352e-15
aF-4.7708320221952759e-15
aF1
aF1
aF1
aF0
aa(lp1215
Vweapon_l_space_switcher
p1216
a(lp1217
Vvisibility
p1218
aVtranslateX
p1219
aVtranslateY
p1220
aVtranslateZ
p1221
aVrotateX
p1222
aVrotateY
p1223
aVrotateZ
p1224
aVscaleX
p1225
aVscaleY
p1226
aVscaleZ
p1227
aVspace_world
p1228
aaI01
aF-2.1316282072803006e-14
aF2.1316282072803006e-14
aF0
aF3.180554681463516e-15
aF4.2738703532165994e-15
aF4.5720473546038036e-15
aF1.0000000000000002
aF1.0000000000000002
aF1.0000000000000002
aF0
aa(lp1229
Vweapon_r_space_switcher
p1230
a(lp1231
Vvisibility
p1232
aVtranslateX
p1233
aVtranslateY
p1234
aVtranslateZ
p1235
aVrotateX
p1236
aVrotateY
p1237
aVrotateZ
p1238
aVscaleX
p1239
aVscaleY
p1240
aVscaleZ
p1241
aVspace_world
p1242
aaI01
aF-1.4210854715202004e-14
aF0
aF1.4210854715202004e-14
aF-1.7493050748049344e-14
aF-1.2722218725854064e-14
aF2.1468744099878741e-14
aF1.0000000000000002
aF1
aF1
aF0
aa.