(lp1
(lp2
S'head_fk_anim'
p3
a(lp4
VtranslateX
p5
aVtranslateY
p6
aVtranslateZ
p7
aVrotateX
p8
aVrotateY
p9
aVrotateZ
p10
aVscaleX
p11
aVscaleY
p12
aVscaleZ
p13
aVfkOrientation
p14
aaF0
aF0
aF0
aF0.29470213460078137
aF3.7744886582078192
aF42.134192751037794
aF1
aF1
aF1
aI0
aa(lp15
S'neck_01_fk_anim'
p16
a(lp17
VtranslateX
p18
aVtranslateY
p19
aVtranslateZ
p20
aVrotateX
p21
aVrotateY
p22
aVrotateZ
p23
aVscaleX
p24
aVscaleY
p25
aVscaleZ
p26
aVfkOrientation
p27
aaF1.4210854715202004e-14
aF1.4210854715202004e-14
aF0
aF2.1061821567292731
aF4.5487403074240618
aF33.53372055017222
aF1
aF1
aF0.99999999999999989
aI0
aa(lp28
S'spine_01_anim'
p29
a(lp30
Vlength
p31
aVtranslateY
p32
aVtranslateZ
p33
aVrotateX
p34
aVrotateY
p35
aVrotateZ
p36
aaF0
aF0
aF0
aF-4.8696455093690485
aF-8.3408603319542767
aF-62.480990100064908
aa(lp37
S'spine_02_anim'
p38
a(lp39
Vlength
p40
aVtranslateY
p41
aVtranslateZ
p42
aVrotateX
p43
aVrotateY
p44
aVrotateZ
p45
aaF0
aF0
aF0
aF-3.3309989827556015
aF1.63820836273718
aF-22.690266103025667
aa(lp46
S'spine_03_anim'
p47
a(lp48
Vlength
p49
aVtranslateY
p50
aVtranslateZ
p51
aVrotateX
p52
aVrotateY
p53
aVrotateZ
p54
aaF0
aF0
aF0
aF175.6180826608726
aF-182.43709091637012
aF-201.49043908221688
aa(lp55
S'mid_ik_anim'
p56
a(lp57
VtranslateX
p58
aVtranslateY
p59
aVtranslateZ
p60
aVrotateX
p61
aVrotateY
p62
aVrotateZ
p63
aaF-6.76300575585487
aF-11.531995952159445
aF1.7460254497534331
aF-5.2746089373159517
aF-4.6383976797994917
aF-80.612255513902582
aa(lp64
S'chest_ik_anim'
p65
a(lp66
VtranslateX
p67
aVtranslateY
p68
aVtranslateZ
p69
aVrotateX
p70
aVrotateY
p71
aVrotateZ
p72
aVstretch
p73
aVsquash
p74
aVtwist_amount
p75
aVspine_01_twistAmount
p76
aVspine_02_twistAmount
p77
aVautoSpine
p78
aVrotationInfluence
p79
aaF-16.858373223798459
aF-23.354383900760997
aF2.9724174526282452
aF-3.6965751348685458
aF0.12018940833422162
aF-100.33052623922271
aF0
aF0
aF1
aF0.33333333333333331
aF0.66666666666666663
aF0
aF0.25
aa(lp80
S'body_anim'
p81
a(lp82
VtranslateX
p83
aVtranslateY
p84
aVtranslateZ
p85
aVrotateX
p86
aVrotateY
p87
aVrotateZ
p88
aaF-44.048057626261162
aF37.744437979385154
aF-0.67244799367899288
aF3.5296690527986749
aF6.9850437135209313
aF-23.427246182047845
aa(lp89
S'hip_anim'
p90
a(lp91
VtranslateX
p92
aVtranslateY
p93
aVtranslateZ
p94
aVrotateX
p95
aVrotateY
p96
aVrotateZ
p97
aVlTwistCtrlVis
p98
aVlCalfTwistCtrlVis
p99
aVrTwistCtrlVis
p100
aVrCalfTwistCtrlVis
p101
aVautoHips
p102
aaF0
aF0
aF0
aF0
aF0
aF0
aI00
aI00
aI00
aI00
aF0
aa(lp103
S'clavicle_l_anim'
p104
a(lp105
VtranslateX
p106
aVtranslateY
p107
aVtranslateZ
p108
aVautoShoulders
p109
aaF-2.1113554009456603
aF-0.63705093527693324
aF1.4369713976016429
aF0
aa(lp110
S'clavicle_r_anim'
p111
a(lp112
VtranslateX
p113
aVtranslateY
p114
aVtranslateZ
p115
aVautoShoulders
p116
aaF0
aF0.49055942318591228
aF7.4841283379445693
aF0
aa(lp117
S'fk_arm_l_anim'
p118
a(lp119
VtranslateX
p120
aVtranslateY
p121
aVtranslateZ
p122
aVrotateX
p123
aVrotateY
p124
aVrotateZ
p125
aaF0
aF0
aF0
aF-362.5734369704914
aF168.98172993195561
aF-124.02074054968651
aa(lp126
S'fk_arm_r_anim'
p127
a(lp128
VtranslateX
p129
aVtranslateY
p130
aVtranslateZ
p131
aVrotateX
p132
aVrotateY
p133
aVrotateZ
p134
aaF0
aF0
aF0
aF172.82268983452232
aF-0.079898922339863537
aF7.5953229253580243
aa(lp135
S'fk_elbow_l_anim'
p136
a(lp137
VtranslateX
p138
aVtranslateY
p139
aVtranslateZ
p140
aVrotateX
p141
aVrotateY
p142
aVrotateZ
p143
aaF0
aF0
aF0
aF-0.13368887994334214
aF0.37094231279398654
aF-39.629022070868395
aa(lp144
S'fk_elbow_r_anim'
p145
a(lp146
VtranslateX
p147
aVtranslateY
p148
aVtranslateZ
p149
aVrotateX
p150
aVrotateY
p151
aVrotateZ
p152
aaF0
aF0
aF0
aF179.68942110689662
aF179.48529581146892
aF117.78564417380701
aa(lp153
S'fk_wrist_l_anim'
p154
a(lp155
VtranslateX
p156
aVtranslateY
p157
aVtranslateZ
p158
aVrotateX
p159
aVrotateY
p160
aVrotateZ
p161
aaF0
aF0
aF0
aF40.178814712789638
aF9.7226864565877058
aF-32.590523234814313
aa(lp162
S'fk_wrist_r_anim'
p163
a(lp164
VtranslateX
p165
aVtranslateY
p166
aVtranslateZ
p167
aVrotateX
p168
aVrotateY
p169
aVrotateZ
p170
aaF0
aF0
aF0
aF35.339064084126548
aF1.0053020943802067
aF-23.784500928325894
aa(lp171
S'ik_elbow_l_anim'
p172
a(lp173
VtranslateX
p174
aVtranslateY
p175
aVtranslateZ
p176
aaF-8.3891490989999724
aF-20.479221287384192
aF-110.38516319999999
aa(lp177
S'ik_elbow_r_anim'
p178
a(lp179
VtranslateX
p180
aVtranslateY
p181
aVtranslateZ
p182
aaF15.730771041720612
aF-9.8560448438122634
aF-116.63896230000003
aa(lp183
S'ik_wrist_l_anim'
p184
a(lp185
VtranslateX
p186
aVtranslateY
p187
aVtranslateZ
p188
aVrotateX
p189
aVrotateY
p190
aVrotateZ
p191
aVstretch
p192
aVsquash
p193
aVside
p194
aVmid_bend
p195
aVmid_swivel
p196
aVtip_pivot
p197
aVtip_swivel
p198
aaF-44.403985135947686
aF-33.73015895987507
aF-133.26419182722387
aF10.045867415114431
aF1.3417897837273207
aF-90.059770897049575
aF0
aF0
aF0
aF0
aF0
aF0
aF0
aa(lp199
S'ik_wrist_r_anim'
p200
a(lp201
VtranslateX
p202
aVtranslateY
p203
aVtranslateZ
p204
aVrotateX
p205
aVrotateY
p206
aVrotateZ
p207
aVstretch
p208
aVsquash
p209
aVside
p210
aVmid_bend
p211
aVmid_swivel
p212
aVtip_pivot
p213
aVtip_swivel
p214
aaF50.585782873353466
aF-24.827208916193804
aF-132.01655837905531
aF10.193789973866453
aF-7.4892901005759942
aF104.09596357210282
aF0
aF0
aF0
aF0
aF0
aF0
aF0
aa(lp215
S'fk_thigh_l_anim'
p216
a(lp217
VrotateX
p218
aVrotateY
p219
aVrotateZ
p220
aaF-365.75904444376437
aF-7.0205678415742341
aF80.559783586316129
aa(lp221
S'fk_thigh_r_anim'
p222
a(lp223
VrotateX
p224
aVrotateY
p225
aVrotateZ
p226
aaF-7.9274509688808932
aF-42.055121722223596
aF128.89797617235556
aa(lp227
S'fk_calf_l_anim'
p228
a(lp229
VrotateX
p230
aVrotateY
p231
aVrotateZ
p232
aaF0.39427645598474392
aF1.40415403296359
aF-104.45116962578
aa(lp233
S'fk_calf_r_anim'
p234
a(lp235
VrotateX
p236
aVrotateY
p237
aVrotateZ
p238
aaF180.49770166938558
aF178.77289469030018
aF88.311420979112853
aa(lp239
S'fk_foot_l_anim'
p240
a(lp241
VrotateX
p242
aVrotateY
p243
aVrotateZ
p244
aaF14.801304641610391
aF9.55950737433764
aF72.9289332818487
aa(lp245
S'fk_foot_r_anim'
p246
a(lp247
VrotateX
p248
aVrotateY
p249
aVrotateZ
p250
aaF-172.66046533250162
aF164.39935064857386
aF185.97869523322115
aa(lp251
S'fk_ball_l_anim'
p252
a(lp253
VrotateX
p254
aVrotateY
p255
aVrotateZ
p256
aaF-2.0795065975721567e-08
aF4.6104234426193616e-06
aF-7.3106941092119055e-06
aa(lp257
S'fk_ball_r_anim'
p258
a(lp259
VrotateX
p260
aVrotateY
p261
aVrotateZ
p262
aaF0
aF0
aF0
aa(lp263
S'ik_foot_anim_l'
p264
a(lp265
VtranslateX
p266
aVtranslateY
p267
aVtranslateZ
p268
aVrotateX
p269
aVrotateY
p270
aVrotateZ
p271
aVknee_twist
p272
aVstretch
p273
aVsquash
p274
aVtoeCtrlVis
p275
aaF11.910782161229628
aF45.341638695367251
aF0
aF0
aF0
aF20.103019307314362
aF3.3099999999999996
aF0
aF0
aI00
aa(lp276
S'ik_foot_anim_r'
p277
a(lp278
VtranslateX
p279
aVtranslateY
p280
aVtranslateZ
p281
aVrotateX
p282
aVrotateY
p283
aVrotateZ
p284
aVknee_twist
p285
aVstretch
p286
aVsquash
p287
aVtoeCtrlVis
p288
aaF-16.488781022278665
aF18.134908302544588
aF-1.7358777068210429e-05
aF0
aF0
aF-35.314541771695666
aF22
aF0
aF0
aI00
aa(lp289
S'heel_ctrl_l'
p290
a(lp291
VrotateX
p292
aVrotateY
p293
aVrotateZ
p294
aVheelPivot
p295
aVballPivot
p296
aaF0
aF0
aF-19.516169666352955
aF0
aF0
aa(lp297
S'heel_ctrl_r'
p298
a(lp299
VrotateX
p300
aVrotateY
p301
aVrotateZ
p302
aVheelPivot
p303
aVballPivot
p304
aaF0
aF0
aF0
aF0
aF0
aa(lp305
S'toe_wiggle_ctrl_l'
p306
a(lp307
VrotateX
p308
aVrotateY
p309
aVrotateZ
p310
aaF0
aF0
aF0
aa(lp311
S'toe_wiggle_ctrl_r'
p312
a(lp313
VrotateX
p314
aVrotateY
p315
aVrotateZ
p316
aaF0
aF-1.3083219646198305
aF-0
aa(lp317
S'toe_tip_ctrl_l'
p318
a(lp319
VrotateX
p320
aVrotateY
p321
aVrotateZ
p322
aaF0
aF0
aF0
aa(lp323
S'toe_tip_ctrl_r'
p324
a(lp325
VrotateX
p326
aVrotateY
p327
aVrotateZ
p328
aaF0
aF0
aF0
aa(lp329
S'master_anim'
p330
a(lp331
VtranslateX
p332
aVtranslateY
p333
aVtranslateZ
p334
aVrotateX
p335
aVrotateY
p336
aVrotateZ
p337
aaF0
aF0
aF0
aF0
aF0
aF0
aa(lp338
S'offset_anim'
p339
a(lp340
VtranslateX
p341
aVtranslateY
p342
aVtranslateZ
p343
aVrotateX
p344
aVrotateY
p345
aVrotateZ
p346
aaF0
aF0
aF0
aF0
aF0
aF0
aa(lp347
S'root_anim'
p348
a(lp349
VtranslateX
p350
aVtranslateY
p351
aVtranslateZ
p352
aVrotateX
p353
aVrotateY
p354
aVrotateZ
p355
aaF0
aF0
aF0
aF0
aF0
aF0
aa(lp356
S'upperarm_l_twist_anim'
p357
a(lp358
VtranslateX
p359
aVtranslateY
p360
aVtranslateZ
p361
aVrotateX
p362
aVrotateY
p363
aVrotateZ
p364
aVscaleX
p365
aVscaleY
p366
aVscaleZ
p367
aaF0
aF0
aF0
aF0
aF0
aF0
aF1
aF1
aF1
aa(lp368
S'upperarm_r_twist_anim'
p369
a(lp370
VtranslateX
p371
aVtranslateY
p372
aVtranslateZ
p373
aVrotateX
p374
aVrotateY
p375
aVrotateZ
p376
aVscaleX
p377
aVscaleY
p378
aVscaleZ
p379
aaF0
aF0
aF0
aF0
aF0
aF0
aF1
aF1
aF1
aa(lp380
S'thigh_l_twist_anim'
p381
a(lp382
VtranslateX
p383
aVtranslateY
p384
aVtranslateZ
p385
aVrotateX
p386
aVrotateY
p387
aVrotateZ
p388
aaF0
aF0
aF0
aF0
aF0
aF0
aa(lp389
S'thigh_r_twist_anim'
p390
a(lp391
VtranslateX
p392
aVtranslateY
p393
aVtranslateZ
p394
aVrotateX
p395
aVrotateY
p396
aVrotateZ
p397
aaF0
aF0
aF0
aF0
aF0
aF0
aa(lp398
S'pinky_finger_fk_ctrl_1_l'
p399
a(lp400
VtranslateX
p401
aVtranslateY
p402
aVtranslateZ
p403
aVrotateX
p404
aVrotateY
p405
aVrotateZ
p406
aVsticky
p407
aaF0
aF0
aF0
aF1.9844668177761615
aF1.0459046336730073
aF-24.778972600330675
aF1
aa(lp408
S'pinky_finger_fk_ctrl_1_r'
p409
a(lp410
VtranslateX
p411
aVtranslateY
p412
aVtranslateZ
p413
aVrotateX
p414
aVrotateY
p415
aVrotateZ
p416
aVsticky
p417
aaF0
aF0
aF0
aF0.93780694055185987
aF-8.8849616267392211
aF-30.427358599083366
aF1
aa(lp418
S'pinky_finger_fk_ctrl_2_l'
p419
a(lp420
VtranslateX
p421
aVtranslateY
p422
aVtranslateZ
p423
aVrotateX
p424
aVrotateY
p425
aVrotateZ
p426
aaF0
aF0
aF0
aF0.39966951884911062
aF-3.1571000234314264
aF-19.786429858927765
aa(lp427
S'pinky_finger_fk_ctrl_2_r'
p428
a(lp429
VtranslateX
p430
aVtranslateY
p431
aVtranslateZ
p432
aVrotateX
p433
aVrotateY
p434
aVrotateZ
p435
aaF0
aF0
aF0
aF0.23356178242171277
aF-2.79133913264124
aF-16.69388558654871
aa(lp436
S'pinky_finger_fk_ctrl_3_l'
p437
a(lp438
VtranslateX
p439
aVtranslateY
p440
aVtranslateZ
p441
aVrotateX
p442
aVrotateY
p443
aVrotateZ
p444
aaF0
aF0
aF0
aF0.86867238151688919
aF0.8182829036110757
aF7.1838922359063133
aa(lp445
S'pinky_finger_fk_ctrl_3_r'
p446
a(lp447
VtranslateX
p448
aVtranslateY
p449
aVtranslateZ
p450
aVrotateX
p451
aVrotateY
p452
aVrotateZ
p453
aaF0
aF0
aF0
aF1.8145325789600759
aF1.494490524492565
aF13.61697330703411
aa(lp454
S'ring_finger_fk_ctrl_1_l'
p455
a(lp456
VtranslateX
p457
aVtranslateY
p458
aVtranslateZ
p459
aVrotateX
p460
aVrotateY
p461
aVrotateZ
p462
aVsticky
p463
aaF0
aF0
aF0
aF-0.00077261611851726941
aF-2.5303744189831776
aF5.8531902304682957
aF1
aa(lp464
S'ring_finger_fk_ctrl_1_r'
p465
a(lp466
VtranslateX
p467
aVtranslateY
p468
aVtranslateZ
p469
aVrotateX
p470
aVrotateY
p471
aVrotateZ
p472
aVsticky
p473
aaF0
aF0
aF0
aF-181.14197966643621
aF-177.88225125774395
aF177.12832646072854
aF1
aa(lp474
S'ring_finger_fk_ctrl_2_l'
p475
a(lp476
VtranslateX
p477
aVtranslateY
p478
aVtranslateZ
p479
aVrotateX
p480
aVrotateY
p481
aVrotateZ
p482
aaF0
aF0
aF0
aF-2.3841221846990801
aF0.32998749837806024
aF-34.141765220780314
aa(lp483
S'ring_finger_fk_ctrl_2_r'
p484
a(lp485
VtranslateX
p486
aVtranslateY
p487
aVtranslateZ
p488
aVrotateX
p489
aVrotateY
p490
aVrotateZ
p491
aaF0
aF0
aF0
aF-2.2638624789017401
aF0.093540625767066718
aF-31.967541303661033
aa(lp492
S'ring_finger_fk_ctrl_3_l'
p493
a(lp494
VtranslateX
p495
aVtranslateY
p496
aVtranslateZ
p497
aVrotateX
p498
aVrotateY
p499
aVrotateZ
p500
aaF0
aF0
aF0
aF0.72215257178974868
aF-0.48297900602727928
aF12.157829035097306
aa(lp501
S'ring_finger_fk_ctrl_3_r'
p502
a(lp503
VtranslateX
p504
aVtranslateY
p505
aVtranslateZ
p506
aVrotateX
p507
aVrotateY
p508
aVrotateZ
p509
aaF0
aF0
aF0
aF1.2296612964788149
aF-0.74314707002727853
aF20.101290687993711
aa(lp510
S'middle_finger_fk_ctrl_1_l'
p511
a(lp512
VtranslateX
p513
aVtranslateY
p514
aVtranslateZ
p515
aVrotateX
p516
aVrotateY
p517
aVrotateZ
p518
aVsticky
p519
aaF0
aF0
aF0
aF-3.4046073268072194
aF-0.15937230406743924
aF1.9675369199781567
aF1
aa(lp520
S'middle_finger_fk_ctrl_1_r'
p521
a(lp522
VtranslateX
p523
aVtranslateY
p524
aVtranslateZ
p525
aVrotateX
p526
aVrotateY
p527
aVrotateZ
p528
aVsticky
p529
aaF0
aF0
aF0
aF-1.0421211933971704
aF-1.8303241697221926
aF-4.4407180733408183
aF1
aa(lp530
S'middle_finger_fk_ctrl_2_l'
p531
a(lp532
VtranslateX
p533
aVtranslateY
p534
aVtranslateZ
p535
aVrotateX
p536
aVrotateY
p537
aVrotateZ
p538
aaF0
aF0
aF0
aF2.4944209222458888
aF1.2690691966106928
aF-13.635662602060389
aa(lp539
S'middle_finger_fk_ctrl_2_r'
p540
a(lp541
VtranslateX
p542
aVtranslateY
p543
aVtranslateZ
p544
aVrotateX
p545
aVrotateY
p546
aVrotateZ
p547
aaF0
aF0
aF0
aF-1.5440382468141032
aF6.3600523308695474
aF-22.939292064847926
aa(lp548
S'middle_finger_fk_ctrl_3_l'
p549
a(lp550
VtranslateX
p551
aVtranslateY
p552
aVtranslateZ
p553
aVrotateX
p554
aVrotateY
p555
aVrotateZ
p556
aaF0
aF0
aF0
aF-0.17578742853241627
aF-1.0408547181578158
aF3.777641770778315
aa(lp557
S'middle_finger_fk_ctrl_3_r'
p558
a(lp559
VtranslateX
p560
aVtranslateY
p561
aVtranslateZ
p562
aVrotateX
p563
aVrotateY
p564
aVrotateZ
p565
aaF0
aF0
aF0
aF-1.5516015664552594
aF-5.1101727175393918
aF19.988608701852147
aa(lp566
S'index_finger_fk_ctrl_1_l'
p567
a(lp568
VtranslateX
p569
aVtranslateY
p570
aVtranslateZ
p571
aVrotateX
p572
aVrotateY
p573
aVrotateZ
p574
aVsticky
p575
aaF0
aF0
aF0
aF-2.2219469194729107
aF-3.9298165631168258
aF-0.98287177907202961
aF1
aa(lp576
S'index_finger_fk_ctrl_1_r'
p577
a(lp578
VtranslateX
p579
aVtranslateY
p580
aVtranslateZ
p581
aVrotateX
p582
aVrotateY
p583
aVrotateZ
p584
aVsticky
p585
aaF0
aF0
aF0
aF-3.1867386522075369
aF-2.9134083288969643
aF-15.52681504996298
aF1
aa(lp586
S'index_finger_fk_ctrl_2_l'
p587
a(lp588
VtranslateX
p589
aVtranslateY
p590
aVtranslateZ
p591
aVrotateX
p592
aVrotateY
p593
aVrotateZ
p594
aaF0
aF0
aF0
aF-0.53855767561214785
aF4.9224582802768433
aF-29.39244717394989
aa(lp595
S'index_finger_fk_ctrl_2_r'
p596
a(lp597
VtranslateX
p598
aVtranslateY
p599
aVtranslateZ
p600
aVrotateX
p601
aVrotateY
p602
aVrotateZ
p603
aaF0
aF0
aF0
aF-0.030855365792210862
aF2.5590819067474122
aF-15.998586818272127
aa(lp604
S'index_finger_fk_ctrl_3_l'
p605
a(lp606
VtranslateX
p607
aVtranslateY
p608
aVtranslateZ
p609
aVrotateX
p610
aVrotateY
p611
aVrotateZ
p612
aaF0
aF0
aF0
aF-1.6134162057358792
aF-3.3434537845891992
aF22.242920329328879
aa(lp613
S'index_finger_fk_ctrl_3_r'
p614
a(lp615
VtranslateX
p616
aVtranslateY
p617
aVtranslateZ
p618
aVrotateX
p619
aVrotateY
p620
aVrotateZ
p621
aaF0
aF0
aF0
aF-0.85943368189789104
aF-2.2196169711168463
aF15.110967171327237
aa(lp622
S'thumb_finger_fk_ctrl_1_l'
p623
a(lp624
VtranslateX
p625
aVtranslateY
p626
aVtranslateZ
p627
aVrotateX
p628
aVrotateY
p629
aVrotateZ
p630
aVsticky
p631
aaF0
aF0
aF0
aF-4.5196808874520871
aF-31.138178684108077
aF5.6940976450347698
aF1
aa(lp632
S'thumb_finger_fk_ctrl_1_r'
p633
a(lp634
VtranslateX
p635
aVtranslateY
p636
aVtranslateZ
p637
aVrotateX
p638
aVrotateY
p639
aVrotateZ
p640
aVsticky
p641
aaF0
aF0
aF0
aF-4.3414056724551058
aF-30.560396125331145
aF0.11095985504365305
aF1
aa(lp642
S'thumb_finger_fk_ctrl_2_l'
p643
a(lp644
VtranslateX
p645
aVtranslateY
p646
aVtranslateZ
p647
aVrotateX
p648
aVrotateY
p649
aVrotateZ
p650
aaF0
aF0
aF0
aF0
aF0
aF0
aa(lp651
S'thumb_finger_fk_ctrl_2_r'
p652
a(lp653
VtranslateX
p654
aVtranslateY
p655
aVtranslateZ
p656
aVrotateX
p657
aVrotateY
p658
aVrotateZ
p659
aaF0
aF0
aF0
aF0
aF0
aF0
aa(lp660
S'thumb_finger_fk_ctrl_3_l'
p661
a(lp662
VtranslateX
p663
aVtranslateY
p664
aVtranslateZ
p665
aVrotateX
p666
aVrotateY
p667
aVrotateZ
p668
aaF0
aF0
aF0
aF0
aF0
aF0
aa(lp669
S'thumb_finger_fk_ctrl_3_r'
p670
a(lp671
VtranslateX
p672
aVtranslateY
p673
aVtranslateZ
p674
aVrotateX
p675
aVrotateY
p676
aVrotateZ
p677
aaF0
aF0
aF0
aF0
aF0
aF0
aa(lp678
S'index_l_ik_anim'
p679
a(lp680
VtranslateX
p681
aVtranslateY
p682
aVtranslateZ
p683
aVrotateX
p684
aVrotateY
p685
aVrotateZ
p686
aVpoleVectorVis
p687
aaF0
aF0
aF0
aF0
aF0
aF0
aF0
aa(lp688
S'index_r_ik_anim'
p689
a(lp690
VtranslateX
p691
aVtranslateY
p692
aVtranslateZ
p693
aVrotateX
p694
aVrotateY
p695
aVrotateZ
p696
aVpoleVectorVis
p697
aaF0
aF0
aF0
aF0
aF0
aF0
aF0
aa(lp698
S'middle_l_ik_anim'
p699
a(lp700
VtranslateX
p701
aVtranslateY
p702
aVtranslateZ
p703
aVrotateX
p704
aVrotateY
p705
aVrotateZ
p706
aVpoleVectorVis
p707
aaF0
aF0
aF0
aF0
aF0
aF0
aF0
aa(lp708
S'middle_r_ik_anim'
p709
a(lp710
VtranslateX
p711
aVtranslateY
p712
aVtranslateZ
p713
aVrotateX
p714
aVrotateY
p715
aVrotateZ
p716
aVpoleVectorVis
p717
aaF0
aF0
aF0
aF0
aF0
aF0
aF0
aa(lp718
S'ring_l_ik_anim'
p719
a(lp720
VtranslateX
p721
aVtranslateY
p722
aVtranslateZ
p723
aVrotateX
p724
aVrotateY
p725
aVrotateZ
p726
aVpoleVectorVis
p727
aaF0
aF0
aF0
aF0
aF0
aF0
aF0
aa(lp728
S'ring_r_ik_anim'
p729
a(lp730
VtranslateX
p731
aVtranslateY
p732
aVtranslateZ
p733
aVrotateX
p734
aVrotateY
p735
aVrotateZ
p736
aVpoleVectorVis
p737
aaF0
aF0
aF0
aF0
aF0
aF0
aF0
aa(lp738
S'pinky_l_ik_anim'
p739
a(lp740
VtranslateX
p741
aVtranslateY
p742
aVtranslateZ
p743
aVrotateX
p744
aVrotateY
p745
aVrotateZ
p746
aVpoleVectorVis
p747
aaF0
aF0
aF0
aF0
aF0
aF0
aF0
aa(lp748
S'pinky_r_ik_anim'
p749
a(lp750
VtranslateX
p751
aVtranslateY
p752
aVtranslateZ
p753
aVrotateX
p754
aVrotateY
p755
aVrotateZ
p756
aVpoleVectorVis
p757
aaF0
aF0
aF0
aF0
aF0
aF0
aF0
aa(lp758
S'thumb_l_ik_anim'
p759
a(lp760
VtranslateX
p761
aVtranslateY
p762
aVtranslateZ
p763
aVrotateX
p764
aVrotateY
p765
aVrotateZ
p766
aVpoleVectorVis
p767
aaF0
aF0
aF0
aF0
aF0
aF0
aF0
aa(lp768
S'thumb_r_ik_anim'
p769
a(lp770
VtranslateX
p771
aVtranslateY
p772
aVtranslateZ
p773
aVrotateX
p774
aVrotateY
p775
aVrotateZ
p776
aVpoleVectorVis
p777
aaF0
aF0
aF0
aF0
aF0
aF0
aF0
aa(lp778
S'index_l_poleVector'
p779
a(lp780
VtranslateX
p781
aVtranslateY
p782
aVtranslateZ
p783
aVrotateX
p784
aVrotateY
p785
aVrotateZ
p786
aaF0
aF0
aF0
aF0
aF0
aF0
aa(lp787
S'index_r_poleVector'
p788
a(lp789
VtranslateX
p790
aVtranslateY
p791
aVtranslateZ
p792
aVrotateX
p793
aVrotateY
p794
aVrotateZ
p795
aaF0
aF0
aF0
aF0
aF0
aF0
aa(lp796
S'middle_l_poleVector'
p797
a(lp798
VtranslateX
p799
aVtranslateY
p800
aVtranslateZ
p801
aVrotateX
p802
aVrotateY
p803
aVrotateZ
p804
aaF0
aF0
aF0
aF0
aF0
aF0
aa(lp805
S'middle_r_poleVector'
p806
a(lp807
VtranslateX
p808
aVtranslateY
p809
aVtranslateZ
p810
aVrotateX
p811
aVrotateY
p812
aVrotateZ
p813
aaF0
aF0
aF0
aF0
aF0
aF0
aa(lp814
S'ring_l_poleVector'
p815
a(lp816
VtranslateX
p817
aVtranslateY
p818
aVtranslateZ
p819
aVrotateX
p820
aVrotateY
p821
aVrotateZ
p822
aaF0
aF0
aF0
aF0
aF0
aF0
aa(lp823
S'ring_r_poleVector'
p824
a(lp825
VtranslateX
p826
aVtranslateY
p827
aVtranslateZ
p828
aVrotateX
p829
aVrotateY
p830
aVrotateZ
p831
aaF0
aF0
aF0
aF0
aF0
aF0
aa(lp832
S'pinky_l_poleVector'
p833
a(lp834
VtranslateX
p835
aVtranslateY
p836
aVtranslateZ
p837
aVrotateX
p838
aVrotateY
p839
aVrotateZ
p840
aaF0
aF0
aF0
aF0
aF0
aF0
aa(lp841
S'pinky_r_poleVector'
p842
a(lp843
VtranslateX
p844
aVtranslateY
p845
aVtranslateZ
p846
aVrotateX
p847
aVrotateY
p848
aVrotateZ
p849
aaF0
aF0
aF0
aF0
aF0
aF0
aa(lp850
S'thumb_l_poleVector'
p851
a(lp852
VtranslateX
p853
aVtranslateY
p854
aVtranslateZ
p855
aVrotateX
p856
aVrotateY
p857
aVrotateZ
p858
aaF0
aF0
aF0
aF0
aF0
aF0
aa(lp859
S'thumb_r_poleVector'
p860
a(lp861
VtranslateX
p862
aVtranslateY
p863
aVtranslateZ
p864
aVrotateX
p865
aVrotateY
p866
aVrotateZ
p867
aaF0
aF0
aF0
aF0
aF0
aF0
aa(lp868
S'l_global_ik_anim'
p869
a(lp870
VtranslateX
p871
aVtranslateY
p872
aVtranslateZ
p873
aVrotateX
p874
aVrotateY
p875
aVrotateZ
p876
aaF0
aF0
aF0
aF0
aF0
aF0
aa(lp877
S'r_global_ik_anim'
p878
a(lp879
VtranslateX
p880
aVtranslateY
p881
aVtranslateZ
p882
aVrotateX
p883
aVrotateY
p884
aVrotateZ
p885
aaF0
aF0
aF0
aF0
aF0
aF0
aa(lp886
S'Rig_Settings'
p887
a(lp888
Vspine_ik
p889
aVspine_fk
p890
aVlLegMode
p891
aVlThighTwistAmount
p892
aVlCalfTwistAmount
p893
aVrLegMode
p894
aVrThighTwistAmount
p895
aVrCalfTwistAmount
p896
aVlFkArmOrient
p897
aVlArmMode
p898
aVlClavMode
p899
aVltwistCtrlVis
p900
aVlUpperarmTwistAmount
p901
aVlUpperarmTwist2Amount
p902
aVltwistCtrlVisLower
p903
aVlForearmTwistAmount
p904
aVlForearmTwist2Amount
p905
aVrFkArmOrient
p906
aVrArmMode
p907
aVrClavMode
p908
aVrtwistCtrlVis
p909
aVrUpperarmTwistAmount
p910
aVrUpperarmTwist2Amount
p911
aVrtwistCtrlVisLower
p912
aVrForearmTwistAmount
p913
aVrForearmTwist2Amount
p914
aVhood_fk
p915
aVhood_ik
p916
aVhood_dynamic
p917
aaF1
aF0
aI1
aF0.90000000000000002
aF0.5
aI1
aF0.90000000000000002
aF0.5
aI0
aI1
aI1
aI00
aF0.59999999999999998
aF0.5
aI00
aF0.5
aF0.5
aI0
aI1
aI1
aI00
aF0.59999999999999998
aF0.5
aI00
aF0.5
aF0.5
aF1
aF0
aF0
aa(lp918
Vjaw_anim
p919
a(lp920
VtranslateX
p921
aVtranslateY
p922
aVtranslateZ
p923
aVrotateX
p924
aVrotateY
p925
aVrotateZ
p926
aVscaleX
p927
aVscaleY
p928
aVscaleZ
p929
aaF0.049088807434735315
aF0.29651779137599243
aF0.017472448519908701
aF12.241325153361908
aF1.5795711077773062
aF-11.248207386439734
aF1.0000000000000002
aF1.0000000000000002
aF1.0000000000000002
aa(lp930
Vhood_dyn_anim
p931
a(lp932
VtranslateX
p933
aVtranslateY
p934
aVtranslateZ
p935
aVrotateX
p936
aVrotateY
p937
aVrotateZ
p938
aVchainAttach
p939
aVchainStartEnvelope
p940
aVchainStartFrame
p941
aVchainStiffness
p942
aVchainDamping
p943
aVchainGravity
p944
aVchainIteration
p945
aVchainCollide
p946
aVchainWidthBase
p947
aVchainWidthExtremity
p948
aVchainCollideGround
p949
aVchainCollideGroundHeight
p950
aaF0
aF0
aF0
aF0
aF0
aF0
aI1
aF1
aF1
aF0.050000000000000003
aF0.25
aF5
aI5
aI00
aF1
aF1
aI00
aF0
aa(lp951
Vhood_ik_2_anim
p952
a(lp953
VtranslateX
p954
aVtranslateY
p955
aVtranslateZ
p956
aVrotateX
p957
aVrotateY
p958
aVrotateZ
p959
aaF-4.2351647362715017e-22
aF0
aF0
aF7.9513867036587899e-16
aF4.7393957994334638e-23
aF-3.791516639546771e-22
aa(lp960
Vhood_ik_3_anim
p961
a(lp962
VtranslateX
p963
aVtranslateY
p964
aVtranslateZ
p965
aVrotateX
p966
aVrotateY
p967
aVrotateZ
p968
aVclusterControlVis
p969
aaF8.4703294725430034e-22
aF-2.8421709430404007e-14
aF0
aF7.9513867036587899e-16
aF4.7393957994334638e-23
aF-3.791516639546771e-22
aI00
aa(lp970
Vhood_ik_base_anim
p971
a(lp972
VtranslateX
p973
aVtranslateY
p974
aVtranslateZ
p975
aVrotateX
p976
aVrotateY
p977
aVrotateZ
p978
aVglobal_scale
p979
aaF0
aF-7.1054273576010019e-15
aF-2.8421709430404007e-14
aF0
aF-0
aF-2.843637479660079e-22
aF1
aa(lp980
Vfk_hood_01_anim
p981
a(lp982
VtranslateX
p983
aVtranslateY
p984
aVtranslateZ
p985
aVrotateX
p986
aVrotateY
p987
aVrotateZ
p988
aVglobal_scale
p989
aVlagMode
p990
aaF-0.082947754211433203
aF-3.6432039881029255
aF-9.0769231510491437
aF1.2166563922205067
aF0.14028801690217105
aF4.3602834471789391
aF1
aF0
aa(lp991
Vhood_cv_0_anim
p992
a(lp993
VtranslateX
p994
aVtranslateY
p995
aVtranslateZ
p996
aaF0
aF0
aF0
aa(lp997
Vfk_hood_02_anim
p998
a(lp999
VtranslateX
p1000
aVtranslateY
p1001
aVtranslateZ
p1002
aVrotateX
p1003
aVrotateY
p1004
aVrotateZ
p1005
aaF0
aF0
aF0
aF-18.14227928372253
aF0
aF0
aa(lp1006
Vhood_cv_1_anim
p1007
a(lp1008
VtranslateX
p1009
aVtranslateY
p1010
aVtranslateZ
p1011
aaF0
aF0
aF0
aa(lp1012
Vfk_hood_03_anim
p1013
a(lp1014
VtranslateX
p1015
aVtranslateY
p1016
aVtranslateZ
p1017
aVrotateX
p1018
aVrotateY
p1019
aVrotateZ
p1020
aaF0
aF0
aF0
aF12.653780683475823
aF0
aF0
aa(lp1021
Vhood_cv_2_anim
p1022
a(lp1023
VtranslateX
p1024
aVtranslateY
p1025
aVtranslateZ
p1026
aaF0
aF0
aF0
aa(lp1027
Vbody_anim_space_switcher
p1028
a(lp1029
Vvisibility
p1030
aVtranslateX
p1031
aVtranslateY
p1032
aVtranslateZ
p1033
aVrotateX
p1034
aVrotateY
p1035
aVrotateZ
p1036
aVscaleX
p1037
aVscaleY
p1038
aVscaleZ
p1039
aVspace_world
p1040
aaI01
aF0
aF0
aF0
aF0
aF0
aF0
aF1
aF1
aF1
aF0
aa(lp1041
Vchest_ik_anim_space_switcher
p1042
a(lp1043
Vvisibility
p1044
aVtranslateX
p1045
aVtranslateY
p1046
aVtranslateZ
p1047
aVrotateX
p1048
aVrotateY
p1049
aVrotateZ
p1050
aVscaleX
p1051
aVscaleY
p1052
aVscaleZ
p1053
aVspace_world
p1054
aVspace_chest_ik_world_aligned
p1055
aaI01
aF0
aF0
aF0
aF0
aF0
aF0
aF1
aF1
aF1
aF0
aF0
aa(lp1056
Vik_elbow_l_anim_space_switcher
p1057
a(lp1058
Vvisibility
p1059
aVtranslateX
p1060
aVtranslateY
p1061
aVtranslateZ
p1062
aVrotateX
p1063
aVrotateY
p1064
aVrotateZ
p1065
aVscaleX
p1066
aVscaleY
p1067
aVscaleZ
p1068
aVspace_world
p1069
aVspace_body_anim
p1070
aVspace_chest_ik_anim
p1071
aaI01
aF0
aF0
aF0
aF0
aF0
aF0
aF1
aF1
aF1
aF0
aF0
aF0
aa(lp1072
Vik_elbow_r_anim_space_switcher
p1073
a(lp1074
Vvisibility
p1075
aVtranslateX
p1076
aVtranslateY
p1077
aVtranslateZ
p1078
aVrotateX
p1079
aVrotateY
p1080
aVrotateZ
p1081
aVscaleX
p1082
aVscaleY
p1083
aVscaleZ
p1084
aVspace_world
p1085
aVspace_body_anim
p1086
aVspace_chest_ik_anim
p1087
aaI01
aF0
aF0
aF0
aF0
aF0
aF0
aF1
aF1
aF1
aF0
aF0
aF0
aa(lp1088
Vik_foot_anim_l_space_switcher
p1089
a(lp1090
Vvisibility
p1091
aVtranslateX
p1092
aVtranslateY
p1093
aVtranslateZ
p1094
aVrotateX
p1095
aVrotateY
p1096
aVrotateZ
p1097
aVscaleX
p1098
aVscaleY
p1099
aVscaleZ
p1100
aVspace_world
p1101
aVspace_body_anim
p1102
aaI01
aF0
aF0
aF0
aF0
aF0
aF0
aF1
aF1
aF1
aF0
aF0
aa(lp1103
Vik_foot_anim_r_space_switcher
p1104
a(lp1105
Vvisibility
p1106
aVtranslateX
p1107
aVtranslateY
p1108
aVtranslateZ
p1109
aVrotateX
p1110
aVrotateY
p1111
aVrotateZ
p1112
aVscaleX
p1113
aVscaleY
p1114
aVscaleZ
p1115
aVspace_world
p1116
aVspace_body_anim
p1117
aaI01
aF0
aF0
aF0
aF0
aF0
aF0
aF1
aF1
aF1
aF0
aF0
aa(lp1118
Vik_wrist_l_anim_space_switcher
p1119
a(lp1120
Vvisibility
p1121
aVtranslateX
p1122
aVtranslateY
p1123
aVtranslateZ
p1124
aVrotateX
p1125
aVrotateY
p1126
aVrotateZ
p1127
aVscaleX
p1128
aVscaleY
p1129
aVscaleZ
p1130
aVspace_world
p1131
aVspace_body_anim
p1132
aVspace_head_fk_anim
p1133
aVspace_chest_ik_anim
p1134
aaI01
aF0
aF0
aF0
aF0
aF0
aF0
aF1
aF1
aF1
aF0
aF0
aF0
aF0
aa(lp1135
Vik_wrist_r_anim_space_switcher
p1136
a(lp1137
Vvisibility
p1138
aVtranslateX
p1139
aVtranslateY
p1140
aVtranslateZ
p1141
aVrotateX
p1142
aVrotateY
p1143
aVrotateZ
p1144
aVscaleX
p1145
aVscaleY
p1146
aVscaleZ
p1147
aVspace_world
p1148
aVspace_body_anim
p1149
aVspace_head_fk_anim
p1150
aVspace_chest_ik_anim
p1151
aaI01
aF0
aF0
aF0
aF0
aF0
aF0
aF1
aF1
aF1
aF0
aF0
aF0
aF0
aa(lp1152
Vjaw_anim_space_switcher
p1153
a(lp1154
Vvisibility
p1155
aVtranslateX
p1156
aVtranslateY
p1157
aVtranslateZ
p1158
aVrotateX
p1159
aVrotateY
p1160
aVrotateZ
p1161
aVscaleX
p1162
aVscaleY
p1163
aVscaleZ
p1164
aVspace_world
p1165
aaI01
aF1.4210854715202004e-14
aF2.8421709430404007e-14
aF0
aF0
aF-0
aF-3.1805546814635168e-15
aF1
aF1
aF1.0000000000000002
aF0
aa(lp1166
Vl_global_ik_anim_space_switcher
p1167
a(lp1168
Vvisibility
p1169
aVtranslateX
p1170
aVtranslateY
p1171
aVtranslateZ
p1172
aVrotateX
p1173
aVrotateY
p1174
aVrotateZ
p1175
aVscaleX
p1176
aVscaleY
p1177
aVscaleZ
p1178
aVspace_world
p1179
aaI01
aF0
aF0
aF0
aF0
aF0
aF0
aF1
aF1
aF1
aF0
aa(lp1180
Vmaster_anim_space_switcher
p1181
a(lp1182
Vvisibility
p1183
aVtranslateX
p1184
aVtranslateY
p1185
aVtranslateZ
p1186
aVrotateX
p1187
aVrotateY
p1188
aVrotateZ
p1189
aVscaleX
p1190
aVscaleY
p1191
aVscaleZ
p1192
aVspace_world
p1193
aaI01
aF0
aF0
aF0
aF0
aF0
aF0
aF1
aF1
aF1
aF0
aa(lp1194
Vr_global_ik_anim_space_switcher
p1195
a(lp1196
Vvisibility
p1197
aVtranslateX
p1198
aVtranslateY
p1199
aVtranslateZ
p1200
aVrotateX
p1201
aVrotateY
p1202
aVrotateZ
p1203
aVscaleX
p1204
aVscaleY
p1205
aVscaleZ
p1206
aVspace_world
p1207
aaI01
aF0
aF0
aF0
aF0
aF0
aF0
aF1
aF1
aF1
aF0
aa(lp1208
Vspine_01_space_switcher
p1209
a(lp1210
Vvisibility
p1211
aVtranslateX
p1212
aVtranslateY
p1213
aVtranslateZ
p1214
aVrotateX
p1215
aVrotateY
p1216
aVrotateZ
p1217
aVscaleX
p1218
aVscaleY
p1219
aVscaleZ
p1220
aVspace_world
p1221
aaI01
aF0
aF0
aF0
aF0
aF0
aF0
aF1
aF1
aF1
aF0
aa.