(lp1
(lp2
S'head_fk_anim'
p3
a(lp4
VtranslateX
p5
aVtranslateY
p6
aVtranslateZ
p7
aVrotateX
p8
aVrotateY
p9
aVrotateZ
p10
aVscaleX
p11
aVscaleY
p12
aVscaleZ
p13
aVfkOrientation
p14
aaF0
aF0
aF0
aF1.4189253224449403
aF-3.6983384171248108
aF-39.310235048037732
aF1
aF1
aF1
aI0
aa(lp15
S'neck_01_fk_anim'
p16
a(lp17
VtranslateX
p18
aVtranslateY
p19
aVtranslateZ
p20
aVrotateX
p21
aVrotateY
p22
aVrotateZ
p23
aVscaleX
p24
aVscaleY
p25
aVscaleZ
p26
aVfkOrientation
p27
aaF1.4210854715202004e-14
aF1.4210854715202004e-14
aF0
aF0.43908511282872703
aF-0.47937248386154852
aF23.149313311001595
aF1
aF1
aF0.99999999999999989
aI0
aa(lp28
S'spine_01_anim'
p29
a(lp30
Vlength
p31
aVtranslateY
p32
aVtranslateZ
p33
aVrotateX
p34
aVrotateY
p35
aVrotateZ
p36
aaF0
aF0
aF0
aF1.9029583183856715
aF1.6339285593288602
aF-25.04546501243988
aa(lp37
S'spine_02_anim'
p38
a(lp39
Vlength
p40
aVtranslateY
p41
aVtranslateZ
p42
aVrotateX
p43
aVrotateY
p44
aVrotateZ
p45
aaF0
aF0
aF0
aF0.32750903138977511
aF1.7403133048644883
aF-24.980531750961006
aa(lp46
S'spine_03_anim'
p47
a(lp48
Vlength
p49
aVtranslateY
p50
aVtranslateZ
p51
aVrotateX
p52
aVrotateY
p53
aVrotateZ
p54
aaF0
aF0
aF0
aF-1.388356460689282
aF1.8288917184836009
aF-24.921496425610822
aa(lp55
S'mid_ik_anim'
p56
a(lp57
VtranslateX
p58
aVtranslateY
p59
aVtranslateZ
p60
aVrotateX
p61
aVrotateY
p62
aVrotateZ
p63
aaF0
aF0
aF0
aF0
aF0
aF0
aa(lp64
S'chest_ik_anim'
p65
a(lp66
VtranslateX
p67
aVtranslateY
p68
aVtranslateZ
p69
aVrotateX
p70
aVrotateY
p71
aVrotateZ
p72
aVstretch
p73
aVsquash
p74
aVtwist_amount
p75
aVspine_01_twistAmount
p76
aVspine_02_twistAmount
p77
aVautoSpine
p78
aVrotationInfluence
p79
aaF0
aF0
aF0
aF0
aF0
aF0
aF0
aF0
aF1
aF0.33333333333333331
aF0.66666666666666663
aF0
aF0.25
aa(lp80
S'body_anim'
p81
a(lp82
VtranslateX
p83
aVtranslateY
p84
aVtranslateZ
p85
aVrotateX
p86
aVrotateY
p87
aVrotateZ
p88
aaF-0.42604721553101377
aF-0.6293777965404761
aF-0.0067572649745998
aF-0.94779665074680852
aF-0.42477292487532398
aF24.134704243966684
aa(lp89
S'hip_anim'
p90
a(lp91
VtranslateX
p92
aVtranslateY
p93
aVtranslateZ
p94
aVrotateX
p95
aVrotateY
p96
aVrotateZ
p97
aVlTwistCtrlVis
p98
aVlCalfTwistCtrlVis
p99
aVrTwistCtrlVis
p100
aVrCalfTwistCtrlVis
p101
aVautoHips
p102
aaF2.8421709430404007e-14
aF0
aF0
aF0
aF0
aF0
aI00
aI00
aI00
aI00
aF0
aa(lp103
S'clavicle_l_anim'
p104
a(lp105
VtranslateX
p106
aVtranslateY
p107
aVtranslateZ
p108
aVautoShoulders
p109
aVtwistCtrlVis
p110
aVtwistCtrlVisLower
p111
aaF0
aF-2.7175337961415842
aF-3.6428548056388195
aF0
aI00
aI00
aa(lp112
S'clavicle_r_anim'
p113
a(lp114
VtranslateX
p115
aVtranslateY
p116
aVtranslateZ
p117
aVautoShoulders
p118
aVtwistCtrlVis
p119
aVtwistCtrlVisLower
p120
aaF0
aF-2.2034094450962867
aF-2.4587349189515919
aF0
aI00
aI00
aa(lp121
S'fk_arm_l_anim'
p122
a(lp123
VtranslateX
p124
aVtranslateY
p125
aVtranslateZ
p126
aVrotateX
p127
aVrotateY
p128
aVrotateZ
p129
aaF0
aF0
aF0
aF-43.890348465999871
aF40.740242207662043
aF-68.024326077513237
aa(lp130
S'fk_arm_r_anim'
p131
a(lp132
VtranslateX
p133
aVtranslateY
p134
aVtranslateZ
p135
aVrotateX
p136
aVrotateY
p137
aVrotateZ
p138
aaF0
aF0
aF0
aF118.31883898426739
aF127.93802453849916
aF101.62361481187267
aa(lp139
S'fk_elbow_l_anim'
p140
a(lp141
VtranslateX
p142
aVtranslateY
p143
aVtranslateZ
p144
aVrotateX
p145
aVrotateY
p146
aVrotateZ
p147
aaF0
aF0
aF0
aF-0.022135990324004394
aF0.15895675716786123
aF-15.855803109267406
aa(lp148
S'fk_elbow_r_anim'
p149
a(lp150
VtranslateX
p151
aVtranslateY
p152
aVtranslateZ
p153
aVrotateX
p154
aVrotateY
p155
aVrotateZ
p156
aaF0
aF0
aF0
aF-0.054516573390541764
aF0.24586734742759275
aF-24.99897253390839
aa(lp157
S'fk_wrist_l_anim'
p158
a(lp159
VtranslateX
p160
aVtranslateY
p161
aVtranslateZ
p162
aVrotateX
p163
aVrotateY
p164
aVrotateZ
p165
aaF0
aF0
aF0
aF19.99829977178268
aF-2.1174283166809929
aF8.4700451295964747
aa(lp166
S'fk_wrist_r_anim'
p167
a(lp168
VtranslateX
p169
aVtranslateY
p170
aVtranslateZ
p171
aVrotateX
p172
aVrotateY
p173
aVrotateZ
p174
aaF0
aF0
aF0
aF3.9715288022294689e-05
aF0.66945001160229844
aF0.006798095320600067
aa(lp175
S'ik_elbow_l_anim'
p176
a(lp177
VtranslateX
p178
aVtranslateY
p179
aVtranslateZ
p180
aaF0
aF3.5527136788005009e-15
aF0
aa(lp181
S'ik_elbow_r_anim'
p182
a(lp183
VtranslateX
p184
aVtranslateY
p185
aVtranslateZ
p186
aaF7.1054273576010019e-15
aF-1.7763568394002505e-15
aF-2.8421709430404007e-14
aa(lp187
S'ik_wrist_l_anim'
p188
a(lp189
VtranslateX
p190
aVtranslateY
p191
aVtranslateZ
p192
aVrotateX
p193
aVrotateY
p194
aVrotateZ
p195
aVstretch
p196
aVsquash
p197
aVside
p198
aVmid_bend
p199
aVmid_swivel
p200
aVtip_pivot
p201
aVtip_swivel
p202
aaF1.4210854715202004e-14
aF1.7763568394002505e-15
aF2.8421709430404007e-14
aF0
aF0
aF0
aF0
aF0
aF0
aF0
aF0
aF0
aF0
aa(lp203
S'ik_wrist_r_anim'
p204
a(lp205
VtranslateX
p206
aVtranslateY
p207
aVtranslateZ
p208
aVrotateX
p209
aVrotateY
p210
aVrotateZ
p211
aVstretch
p212
aVsquash
p213
aVside
p214
aVmid_bend
p215
aVmid_swivel
p216
aVtip_pivot
p217
aVtip_swivel
p218
aaF0
aF-3.4591918662840726e-08
aF2.8421709430404007e-14
aF0
aF0
aF0
aF0
aF0
aF0
aF0
aF0
aF0
aF0
aa(lp219
S'fk_thigh_l_anim'
p220
a(lp221
VrotateX
p222
aVrotateY
p223
aVrotateZ
p224
aaF-179.99999999999997
aF179.99999999999994
aF179.99999999999997
aa(lp225
S'fk_thigh_r_anim'
p226
a(lp227
VrotateX
p228
aVrotateY
p229
aVrotateZ
p230
aaF0
aF0
aF-360
aa(lp231
S'fk_calf_l_anim'
p232
a(lp233
VrotateX
p234
aVrotateY
p235
aVrotateZ
p236
aaF0
aF0
aF0
aa(lp237
S'fk_calf_r_anim'
p238
a(lp239
VrotateX
p240
aVrotateY
p241
aVrotateZ
p242
aaF0
aF0
aF0
aa(lp243
S'fk_foot_l_anim'
p244
a(lp245
VrotateX
p246
aVrotateY
p247
aVrotateZ
p248
aaF0
aF0
aF0
aa(lp249
S'fk_foot_r_anim'
p250
a(lp251
VrotateX
p252
aVrotateY
p253
aVrotateZ
p254
aaF0
aF0
aF0
aa(lp255
S'fk_ball_l_anim'
p256
a(lp257
VrotateX
p258
aVrotateY
p259
aVrotateZ
p260
aaF0
aF0
aF0
aa(lp261
S'fk_ball_r_anim'
p262
a(lp263
VrotateX
p264
aVrotateY
p265
aVrotateZ
p266
aaF0
aF0
aF0
aa(lp267
S'ik_foot_anim_l'
p268
a(lp269
VtranslateX
p270
aVtranslateY
p271
aVtranslateZ
p272
aVrotateX
p273
aVrotateY
p274
aVrotateZ
p275
aVknee_twist
p276
aVstretch
p277
aVsquash
p278
aVtoeCtrlVis
p279
aaF-5.19595949931775
aF-5.6478611292096481
aF-3.5954422905604133e-07
aF2
aF0
aF21
aF1
aF0
aF0
aI00
aa(lp280
S'ik_foot_anim_r'
p281
a(lp282
VtranslateX
p283
aVtranslateY
p284
aVtranslateZ
p285
aVrotateX
p286
aVrotateY
p287
aVrotateZ
p288
aVknee_twist
p289
aVstretch
p290
aVsquash
p291
aVtoeCtrlVis
p292
aaF5.4509003410756005
aF-1.2381796026407788
aF0.00020309193664580505
aF2
aF0
aF-29.24405233427526
aF0
aF0
aF0
aI00
aa(lp293
S'heel_ctrl_l'
p294
a(lp295
VrotateX
p296
aVrotateY
p297
aVrotateZ
p298
aVheelPivot
p299
aVballPivot
p300
aaF0
aF0
aF-0.30000000000000004
aF0
aF0
aa(lp301
S'heel_ctrl_r'
p302
a(lp303
VrotateX
p304
aVrotateY
p305
aVrotateZ
p306
aVheelPivot
p307
aVballPivot
p308
aaF0
aF-0.29999999999999999
aF-0.30000000000000004
aF0
aF0
aa(lp309
S'toe_wiggle_ctrl_l'
p310
a(lp311
VrotateX
p312
aVrotateY
p313
aVrotateZ
p314
aaF0
aF0
aF0
aa(lp315
S'toe_wiggle_ctrl_r'
p316
a(lp317
VrotateX
p318
aVrotateY
p319
aVrotateZ
p320
aaF0
aF0
aF0
aa(lp321
S'toe_tip_ctrl_l'
p322
a(lp323
VrotateX
p324
aVrotateY
p325
aVrotateZ
p326
aaF0
aF0
aF0
aa(lp327
S'toe_tip_ctrl_r'
p328
a(lp329
VrotateX
p330
aVrotateY
p331
aVrotateZ
p332
aaF0
aF0
aF0
aa(lp333
S'master_anim'
p334
a(lp335
VtranslateX
p336
aVtranslateY
p337
aVtranslateZ
p338
aVrotateX
p339
aVrotateY
p340
aVrotateZ
p341
aaF0
aF0
aF0
aF0
aF0
aF0
aa(lp342
S'offset_anim'
p343
a(lp344
VtranslateX
p345
aVtranslateY
p346
aVtranslateZ
p347
aVrotateX
p348
aVrotateY
p349
aVrotateZ
p350
aaF0
aF0
aF0
aF0
aF0
aF0
aa(lp351
S'root_anim'
p352
a(lp353
VtranslateX
p354
aVtranslateY
p355
aVtranslateZ
p356
aVrotateX
p357
aVrotateY
p358
aVrotateZ
p359
aaF0
aF0
aF0
aF0
aF0
aF0
aa(lp360
S'upperarm_l_twist_anim'
p361
a(lp362
VtranslateX
p363
aVtranslateY
p364
aVtranslateZ
p365
aVrotateX
p366
aVrotateY
p367
aVrotateZ
p368
aaF0
aF0
aF0
aF0
aF0
aF0
aa(lp369
S'upperarm_r_twist_anim'
p370
a(lp371
VtranslateX
p372
aVtranslateY
p373
aVtranslateZ
p374
aVrotateX
p375
aVrotateY
p376
aVrotateZ
p377
aaF0
aF0
aF0
aF0
aF0
aF0
aa(lp378
S'thigh_l_twist_anim'
p379
a(lp380
VtranslateX
p381
aVtranslateY
p382
aVtranslateZ
p383
aVrotateX
p384
aVrotateY
p385
aVrotateZ
p386
aaF0
aF0
aF0
aF0
aF0
aF0
aa(lp387
S'thigh_r_twist_anim'
p388
a(lp389
VtranslateX
p390
aVtranslateY
p391
aVtranslateZ
p392
aVrotateX
p393
aVrotateY
p394
aVrotateZ
p395
aaF0
aF0
aF0
aF0
aF0
aF0
aa(lp396
S'pinky_finger_fk_ctrl_1_l'
p397
a(lp398
VtranslateX
p399
aVtranslateY
p400
aVtranslateZ
p401
aVrotateX
p402
aVrotateY
p403
aVrotateZ
p404
aVsticky
p405
aaF0
aF0
aF0
aF-0.79609391216892711
aF16.478961670908326
aF-13.631167492799754
aF0
aa(lp406
S'pinky_finger_fk_ctrl_1_r'
p407
a(lp408
VtranslateX
p409
aVtranslateY
p410
aVtranslateZ
p411
aVrotateX
p412
aVrotateY
p413
aVrotateZ
p414
aVsticky
p415
aaF0
aF0
aF0
aF3.5515477402335622
aF24.991772717475758
aF-1.1053338426275401
aF0
aa(lp416
S'pinky_finger_fk_ctrl_2_l'
p417
a(lp418
VtranslateX
p419
aVtranslateY
p420
aVtranslateZ
p421
aVrotateX
p422
aVrotateY
p423
aVrotateZ
p424
aaF0
aF0
aF0
aF0.3542242807088668
aF2.1391214449538967
aF13.442714936681547
aa(lp425
S'pinky_finger_fk_ctrl_2_r'
p426
a(lp427
VtranslateX
p428
aVtranslateY
p429
aVtranslateZ
p430
aVrotateX
p431
aVrotateY
p432
aVrotateZ
p433
aaF0
aF0
aF0
aF1.3122692128074382
aF4.2854021372165176
aF26.90781873174129
aa(lp434
S'pinky_finger_fk_ctrl_3_l'
p435
a(lp436
VtranslateX
p437
aVtranslateY
p438
aVtranslateZ
p439
aVrotateX
p440
aVrotateY
p441
aVrotateZ
p442
aaF0
aF0
aF0
aF1.7032224550811421
aF1.4371821624191063
aF13.447659829103364
aa(lp443
S'pinky_finger_fk_ctrl_3_r'
p444
a(lp445
VtranslateX
p446
aVtranslateY
p447
aVtranslateZ
p448
aVrotateX
p449
aVrotateY
p450
aVrotateZ
p451
aaF0
aF0
aF0
aF3.8725675501371395
aF2.4983848943587645
aF26.922240273933784
aa(lp452
S'ring_finger_fk_ctrl_1_l'
p453
a(lp454
VtranslateX
p455
aVtranslateY
p456
aVtranslateZ
p457
aVrotateX
p458
aVrotateY
p459
aVrotateZ
p460
aVsticky
p461
aaF0
aF0
aF0
aF3.4589016369633838
aF15.088045408036431
aF2.4719981949871328
aF0
aa(lp462
S'ring_finger_fk_ctrl_1_r'
p463
a(lp464
VtranslateX
p465
aVtranslateY
p466
aVtranslateZ
p467
aVrotateX
p468
aVrotateY
p469
aVrotateZ
p470
aVsticky
p471
aaF0
aF0
aF0
aF5.5780399786877979
aF21.905694170206566
aF16.910827527070996
aF0
aa(lp472
S'ring_finger_fk_ctrl_2_l'
p473
a(lp474
VtranslateX
p475
aVtranslateY
p476
aVtranslateZ
p477
aVrotateX
p478
aVrotateY
p479
aVrotateZ
p480
aaF0
aF0
aF0
aF0.82438103526727813
aF-0.5098610667629061
aF13.571064943859959
aa(lp481
S'ring_finger_fk_ctrl_2_r'
p482
a(lp483
VtranslateX
p484
aVtranslateY
p485
aVtranslateZ
p486
aVrotateX
p487
aVrotateY
p488
aVrotateZ
p489
aaF0
aF0
aF0
aF1.7221829867947132
aF-1.1077692212914001
aF28.799774602002529
aa(lp490
S'ring_finger_fk_ctrl_3_l'
p491
a(lp492
VtranslateX
p493
aVtranslateY
p494
aVtranslateZ
p495
aVrotateX
p496
aVrotateY
p497
aVrotateZ
p498
aaF0
aF0
aF0
aF0.79903102926112568
aF-0.54877622946511739
aF13.570904843739324
aa(lp499
S'ring_finger_fk_ctrl_3_r'
p500
a(lp501
VtranslateX
p502
aVtranslateY
p503
aVtranslateZ
p504
aVrotateX
p505
aVrotateY
p506
aVrotateZ
p507
aaF0
aF0
aF0
aF1.667149352975243
aF-1.188988225634094
aF28.799125201742807
aa(lp508
S'middle_finger_fk_ctrl_1_l'
p509
a(lp510
VtranslateX
p511
aVtranslateY
p512
aVtranslateZ
p513
aVrotateX
p514
aVrotateY
p515
aVrotateZ
p516
aVsticky
p517
aaF0
aF0
aF0
aF1.0784565835932727
aF-0.91238493098217011
aF2.1119258466729609
aF0
aa(lp518
S'middle_finger_fk_ctrl_1_r'
p519
a(lp520
VtranslateX
p521
aVtranslateY
p522
aVtranslateZ
p523
aVrotateX
p524
aVrotateY
p525
aVrotateZ
p526
aVsticky
p527
aaF0
aF0
aF0
aF2.2273181142764509
aF4.8945283304584368
aF9.8874274805709685
aF0
aa(lp528
S'middle_finger_fk_ctrl_2_l'
p529
a(lp530
VtranslateX
p531
aVtranslateY
p532
aVtranslateZ
p533
aVrotateX
p534
aVrotateY
p535
aVrotateZ
p536
aaF0
aF0
aF0
aF-0.35379682833839576
aF-3.8671529855277145
aF13.057781858169545
aa(lp537
S'middle_finger_fk_ctrl_2_r'
p538
a(lp539
VtranslateX
p540
aVtranslateY
p541
aVtranslateZ
p542
aVrotateX
p543
aVrotateY
p544
aVrotateZ
p545
aaF0
aF0
aF0
aF-0.67414682192498288
aF-5.3281507171505176
aF18.738860872691376
aa(lp546
S'middle_finger_fk_ctrl_3_l'
p547
a(lp548
VtranslateX
p549
aVtranslateY
p550
aVtranslateZ
p551
aVrotateX
p552
aVrotateY
p553
aVrotateZ
p554
aaF0
aF0
aF0
aF-0.90140651900768354
aF-3.5439842925521048
aF13.138783624828033
aa(lp555
S'middle_finger_fk_ctrl_3_r'
p556
a(lp557
VtranslateX
p558
aVtranslateY
p559
aVtranslateZ
p560
aVrotateX
p561
aVrotateY
p562
aVrotateZ
p563
aaF0
aF0
aF0
aF-1.417345125273124
aF-4.8396570105582217
aF18.857718725115653
aa(lp564
S'index_finger_fk_ctrl_1_l'
p565
a(lp566
VtranslateX
p567
aVtranslateY
p568
aVtranslateZ
p569
aVrotateX
p570
aVrotateY
p571
aVrotateZ
p572
aVsticky
p573
aaF0
aF0
aF0
aF-0.39407845535314012
aF-13.366244984001847
aF0.26217981997060241
aF0
aa(lp574
S'index_finger_fk_ctrl_1_r'
p575
a(lp576
VtranslateX
p577
aVtranslateY
p578
aVtranslateZ
p579
aVrotateX
p580
aVrotateY
p581
aVrotateZ
p582
aVsticky
p583
aaF0
aF0
aF0
aF0.013213178698805995
aF-9.7965977039500718
aF6.9033463193961335
aF0
aa(lp584
S'index_finger_fk_ctrl_2_l'
p585
a(lp586
VtranslateX
p587
aVtranslateY
p588
aVtranslateZ
p589
aVrotateX
p590
aVrotateY
p591
aVrotateZ
p592
aaF0
aF0
aF0
aF-0.59752583066196474
aF-2.2034903196802227
aF13.428649520850183
aa(lp593
S'index_finger_fk_ctrl_2_r'
p594
a(lp595
VtranslateX
p596
aVtranslateY
p597
aVtranslateZ
p598
aVrotateX
p599
aVrotateY
p600
aVrotateZ
p601
aaF0
aF0
aF0
aF-0.89386825115171709
aF-2.9363839401318139
aF19.238105299208257
aa(lp602
S'index_finger_fk_ctrl_3_l'
p603
a(lp604
VtranslateX
p605
aVtranslateY
p606
aVtranslateZ
p607
aVrotateX
p608
aVrotateY
p609
aVrotateZ
p610
aaF0
aF0
aF0
aF-0.82081470781986698
aF-2.09941952454228
aF13.437065996452938
aa(lp611
S'index_finger_fk_ctrl_3_r'
p612
a(lp613
VtranslateX
p614
aVtranslateY
p615
aVtranslateZ
p616
aVrotateX
p617
aVrotateY
p618
aVrotateZ
p619
aaF0
aF0
aF0
aF-1.1936858391658025
aF-2.780026191212412
aF19.251077798047174
aa(lp620
S'thumb_finger_fk_ctrl_1_l'
p621
a(lp622
VtranslateX
p623
aVtranslateY
p624
aVtranslateZ
p625
aVrotateX
p626
aVrotateY
p627
aVrotateZ
p628
aVsticky
p629
aaF0
aF0
aF0
aF2.8340578202290927
aF-2.7904892574871401
aF13.581440993235919
aF0
aa(lp630
S'thumb_finger_fk_ctrl_1_r'
p631
a(lp632
VtranslateX
p633
aVtranslateY
p634
aVtranslateZ
p635
aVrotateX
p636
aVrotateY
p637
aVrotateZ
p638
aVsticky
p639
aaF0
aF0
aF0
aF363.0028648666156
aF-3.3195382145892784
aF15.813296241053347
aF0
aa(lp640
S'thumb_finger_fk_ctrl_2_l'
p641
a(lp642
VtranslateX
p643
aVtranslateY
p644
aVtranslateZ
p645
aVrotateX
p646
aVrotateY
p647
aVrotateZ
p648
aaF0
aF0
aF0
aF0.28129929435820145
aF-3.5843695628519296
aF13.295283382733468
aa(lp649
S'thumb_finger_fk_ctrl_2_r'
p650
a(lp651
VtranslateX
p652
aVtranslateY
p653
aVtranslateZ
p654
aVrotateX
p655
aVrotateY
p656
aVrotateZ
p657
aaF0
aF0
aF0
aF360.15894272932076
aF-4.0659344859410504
aF15.558578488655488
aa(lp658
S'thumb_finger_fk_ctrl_3_l'
p659
a(lp660
VtranslateX
p661
aVtranslateY
p662
aVtranslateZ
p663
aVrotateX
p664
aVrotateY
p665
aVrotateZ
p666
aaF0
aF0
aF0
aF-1.4713597426130358
aF-2.7333988965440357
aF13.461820849155252
aa(lp667
S'thumb_finger_fk_ctrl_3_r'
p668
a(lp669
VtranslateX
p670
aVtranslateY
p671
aVtranslateZ
p672
aVrotateX
p673
aVrotateY
p674
aVrotateZ
p675
aaF0
aF0
aF0
aF-1.8531184207928117
aF-3.0219827520673883
aF15.740139102876253
aa(lp676
S'index_l_ik_anim'
p677
a(lp678
VtranslateX
p679
aVtranslateY
p680
aVtranslateZ
p681
aVrotateX
p682
aVrotateY
p683
aVrotateZ
p684
aVpoleVectorVis
p685
aaF0
aF0
aF0
aF0
aF0
aF0
aF0
aa(lp686
S'index_r_ik_anim'
p687
a(lp688
VtranslateX
p689
aVtranslateY
p690
aVtranslateZ
p691
aVrotateX
p692
aVrotateY
p693
aVrotateZ
p694
aVpoleVectorVis
p695
aaF0
aF0
aF0
aF0
aF0
aF0
aF0
aa(lp696
S'middle_l_ik_anim'
p697
a(lp698
VtranslateX
p699
aVtranslateY
p700
aVtranslateZ
p701
aVrotateX
p702
aVrotateY
p703
aVrotateZ
p704
aVpoleVectorVis
p705
aaF0
aF0
aF0
aF0
aF0
aF0
aF0
aa(lp706
S'middle_r_ik_anim'
p707
a(lp708
VtranslateX
p709
aVtranslateY
p710
aVtranslateZ
p711
aVrotateX
p712
aVrotateY
p713
aVrotateZ
p714
aVpoleVectorVis
p715
aaF0
aF0
aF0
aF0
aF0
aF0
aF0
aa(lp716
S'ring_l_ik_anim'
p717
a(lp718
VtranslateX
p719
aVtranslateY
p720
aVtranslateZ
p721
aVrotateX
p722
aVrotateY
p723
aVrotateZ
p724
aVpoleVectorVis
p725
aaF0
aF0
aF0
aF0
aF0
aF0
aF0
aa(lp726
S'ring_r_ik_anim'
p727
a(lp728
VtranslateX
p729
aVtranslateY
p730
aVtranslateZ
p731
aVrotateX
p732
aVrotateY
p733
aVrotateZ
p734
aVpoleVectorVis
p735
aaF0
aF0
aF0
aF0
aF0
aF0
aF0
aa(lp736
S'pinky_l_ik_anim'
p737
a(lp738
VtranslateX
p739
aVtranslateY
p740
aVtranslateZ
p741
aVrotateX
p742
aVrotateY
p743
aVrotateZ
p744
aVpoleVectorVis
p745
aaF0
aF0
aF0
aF0
aF0
aF0
aF0
aa(lp746
S'pinky_r_ik_anim'
p747
a(lp748
VtranslateX
p749
aVtranslateY
p750
aVtranslateZ
p751
aVrotateX
p752
aVrotateY
p753
aVrotateZ
p754
aVpoleVectorVis
p755
aaF0
aF0
aF0
aF0
aF0
aF0
aF0
aa(lp756
S'thumb_l_ik_anim'
p757
a(lp758
VtranslateX
p759
aVtranslateY
p760
aVtranslateZ
p761
aVrotateX
p762
aVrotateY
p763
aVrotateZ
p764
aVpoleVectorVis
p765
aaF0
aF0
aF0
aF0
aF0
aF0
aF0
aa(lp766
S'thumb_r_ik_anim'
p767
a(lp768
VtranslateX
p769
aVtranslateY
p770
aVtranslateZ
p771
aVrotateX
p772
aVrotateY
p773
aVrotateZ
p774
aVpoleVectorVis
p775
aaF0
aF0
aF0
aF0
aF0
aF0
aF0
aa(lp776
S'index_l_poleVector'
p777
a(lp778
VtranslateX
p779
aVtranslateY
p780
aVtranslateZ
p781
aVrotateX
p782
aVrotateY
p783
aVrotateZ
p784
aaF0
aF0
aF0
aF0
aF0
aF0
aa(lp785
S'index_r_poleVector'
p786
a(lp787
VtranslateX
p788
aVtranslateY
p789
aVtranslateZ
p790
aVrotateX
p791
aVrotateY
p792
aVrotateZ
p793
aaF0
aF0
aF0
aF0
aF0
aF0
aa(lp794
S'middle_l_poleVector'
p795
a(lp796
VtranslateX
p797
aVtranslateY
p798
aVtranslateZ
p799
aVrotateX
p800
aVrotateY
p801
aVrotateZ
p802
aaF0
aF0
aF0
aF0
aF0
aF0
aa(lp803
S'middle_r_poleVector'
p804
a(lp805
VtranslateX
p806
aVtranslateY
p807
aVtranslateZ
p808
aVrotateX
p809
aVrotateY
p810
aVrotateZ
p811
aaF0
aF0
aF0
aF0
aF0
aF0
aa(lp812
S'ring_l_poleVector'
p813
a(lp814
VtranslateX
p815
aVtranslateY
p816
aVtranslateZ
p817
aVrotateX
p818
aVrotateY
p819
aVrotateZ
p820
aaF0
aF0
aF0
aF0
aF0
aF0
aa(lp821
S'ring_r_poleVector'
p822
a(lp823
VtranslateX
p824
aVtranslateY
p825
aVtranslateZ
p826
aVrotateX
p827
aVrotateY
p828
aVrotateZ
p829
aaF0
aF0
aF0
aF0
aF0
aF0
aa(lp830
S'pinky_l_poleVector'
p831
a(lp832
VtranslateX
p833
aVtranslateY
p834
aVtranslateZ
p835
aVrotateX
p836
aVrotateY
p837
aVrotateZ
p838
aaF0
aF0
aF0
aF0
aF0
aF0
aa(lp839
S'pinky_r_poleVector'
p840
a(lp841
VtranslateX
p842
aVtranslateY
p843
aVtranslateZ
p844
aVrotateX
p845
aVrotateY
p846
aVrotateZ
p847
aaF0
aF0
aF0
aF0
aF0
aF0
aa(lp848
S'thumb_l_poleVector'
p849
a(lp850
VtranslateX
p851
aVtranslateY
p852
aVtranslateZ
p853
aVrotateX
p854
aVrotateY
p855
aVrotateZ
p856
aaF0
aF0
aF0
aF0
aF0
aF0
aa(lp857
S'thumb_r_poleVector'
p858
a(lp859
VtranslateX
p860
aVtranslateY
p861
aVtranslateZ
p862
aVrotateX
p863
aVrotateY
p864
aVrotateZ
p865
aaF0
aF0
aF0
aF0
aF0
aF0
aa(lp866
S'l_global_ik_anim'
p867
a(lp868
VtranslateX
p869
aVtranslateY
p870
aVtranslateZ
p871
aVrotateX
p872
aVrotateY
p873
aVrotateZ
p874
aaF0
aF0
aF0
aF0
aF0
aF0
aa(lp875
S'r_global_ik_anim'
p876
a(lp877
VtranslateX
p878
aVtranslateY
p879
aVtranslateZ
p880
aVrotateX
p881
aVrotateY
p882
aVrotateZ
p883
aaF0
aF0
aF0
aF0
aF0
aF0
aa(lp884
S'Rig_Settings'
p885
a(lp886
Vspine_ik
p887
aVspine_fk
p888
aVlLegMode
p889
aVlThighTwistAmount
p890
aVlCalfTwistAmount
p891
aVrLegMode
p892
aVrThighTwistAmount
p893
aVrCalfTwistAmount
p894
aVlFkArmOrient
p895
aVrFkArmOrient
p896
aVlArmMode
p897
aVlUpperarmTwistAmount
p898
aVlForearmTwistAmount
p899
aVrArmMode
p900
aVrUpperarmTwistAmount
p901
aVrForearmTwistAmount
p902
aVhood_fk
p903
aVhood_ik
p904
aVhood_dynamic
p905
aaF0
aF1
aI1
aF0.90000000000000002
aF0.5
aI1
aF0.90000000000000002
aF0.5
aI0
aI0
aI0
aF0.90000000000000002
aF0.5
aI0
aF0.90000000000000002
aF0.5
aF1
aF0
aF0
aa(lp906
Vjaw_anim
p907
a(lp908
VtranslateX
p909
aVtranslateY
p910
aVtranslateZ
p911
aVrotateX
p912
aVrotateY
p913
aVrotateZ
p914
aVscaleX
p915
aVscaleY
p916
aVscaleZ
p917
aaF-0.025059255924503532
aF-0.030795447670323384
aF-0.0092339162734883518
aF7.7042011171510549e-08
aF1.7080568483416079e-07
aF-15.478340100353551
aF1.0000000000000002
aF1.0000000000000002
aF1.0000000000000002
aa(lp918
Vhood_dyn_anim
p919
a(lp920
VtranslateX
p921
aVtranslateY
p922
aVtranslateZ
p923
aVrotateX
p924
aVrotateY
p925
aVrotateZ
p926
aVchainAttach
p927
aVchainStartEnvelope
p928
aVchainStartFrame
p929
aVchainStiffness
p930
aVchainDamping
p931
aVchainGravity
p932
aVchainIteration
p933
aVchainCollide
p934
aVchainWidthBase
p935
aVchainWidthExtremity
p936
aVchainCollideGround
p937
aVchainCollideGroundHeight
p938
aaF0
aF0
aF-8
aF0
aF0
aF0
aI1
aF1
aF1
aF0.69999999999999996
aF3
aF0.10000000000000001
aI1
aI00
aF1
aF1
aI00
aF0
aa(lp939
Vhood_ik_2_anim
p940
a(lp941
VtranslateX
p942
aVtranslateY
p943
aVtranslateZ
p944
aVrotateX
p945
aVrotateY
p946
aVrotateZ
p947
aaF-4.2351647362715017e-22
aF0
aF0
aF7.9513867036587899e-16
aF4.7393957994334638e-23
aF-3.791516639546771e-22
aa(lp948
Vhood_ik_3_anim
p949
a(lp950
VtranslateX
p951
aVtranslateY
p952
aVtranslateZ
p953
aVrotateX
p954
aVrotateY
p955
aVrotateZ
p956
aVclusterControlVis
p957
aaF8.4703294725430034e-22
aF-2.8421709430404007e-14
aF0
aF7.9513867036587899e-16
aF4.7393957994334638e-23
aF-3.791516639546771e-22
aI00
aa(lp958
Vhood_ik_base_anim
p959
a(lp960
VtranslateX
p961
aVtranslateY
p962
aVtranslateZ
p963
aVrotateX
p964
aVrotateY
p965
aVrotateZ
p966
aVglobal_scale
p967
aaF0
aF-7.1054273576010019e-15
aF-2.8421709430404007e-14
aF0
aF-0
aF-2.843637479660079e-22
aF1
aa(lp968
Vfk_hood_01_anim
p969
a(lp970
VtranslateX
p971
aVtranslateY
p972
aVtranslateZ
p973
aVrotateX
p974
aVrotateY
p975
aVrotateZ
p976
aVglobal_scale
p977
aVlagMode
p978
aaF0.81907846313959398
aF-1.8712038130139221
aF-8.0557373350342072
aF-13.168982168566007
aF-5.967212118971541
aF1.4641438855997544
aF1
aF0
aa(lp979
Vhood_cv_0_anim
p980
a(lp981
VtranslateX
p982
aVtranslateY
p983
aVtranslateZ
p984
aaF0
aF0
aF0
aa(lp985
Vfk_hood_02_anim
p986
a(lp987
VtranslateX
p988
aVtranslateY
p989
aVtranslateZ
p990
aVrotateX
p991
aVrotateY
p992
aVrotateZ
p993
aaF-2.7755575615628914e-17
aF0
aF1.4210854715202004e-14
aF0.57688666584395776
aF0.43572040456301669
aF5.1227994456279919
aa(lp994
Vhood_cv_1_anim
p995
a(lp996
VtranslateX
p997
aVtranslateY
p998
aVtranslateZ
p999
aaF0
aF0
aF0
aa(lp1000
Vfk_hood_03_anim
p1001
a(lp1002
VtranslateX
p1003
aVtranslateY
p1004
aVtranslateZ
p1005
aVrotateX
p1006
aVrotateY
p1007
aVrotateZ
p1008
aaF-2.7755575615628914e-17
aF0
aF0
aF-1.5902773407317584e-14
aF0
aF0
aa(lp1009
Vhood_cv_2_anim
p1010
a(lp1011
VtranslateX
p1012
aVtranslateY
p1013
aVtranslateZ
p1014
aaF0
aF0
aF0
aa(lp1015
Vbody_anim_space_switcher
p1016
a(lp1017
Vvisibility
p1018
aVtranslateX
p1019
aVtranslateY
p1020
aVtranslateZ
p1021
aVrotateX
p1022
aVrotateY
p1023
aVrotateZ
p1024
aVscaleX
p1025
aVscaleY
p1026
aVscaleZ
p1027
aVspace_world
p1028
aaI01
aF0
aF0
aF0
aF0
aF0
aF0
aF1
aF1
aF1
aF0
aa(lp1029
Vchest_ik_anim_space_switcher
p1030
a(lp1031
Vvisibility
p1032
aVtranslateX
p1033
aVtranslateY
p1034
aVtranslateZ
p1035
aVrotateX
p1036
aVrotateY
p1037
aVrotateZ
p1038
aVscaleX
p1039
aVscaleY
p1040
aVscaleZ
p1041
aVspace_world
p1042
aVspace_chest_ik_world_aligned
p1043
aaI01
aF0
aF-1.7763568394002505e-15
aF0
aF-7.1090936991501974e-23
aF-0
aF7.9513867036587919e-16
aF1
aF1
aF1
aF0
aF0
aa(lp1044
Vik_elbow_l_anim_space_switcher
p1045
a(lp1046
Vvisibility
p1047
aVtranslateX
p1048
aVtranslateY
p1049
aVtranslateZ
p1050
aVrotateX
p1051
aVrotateY
p1052
aVrotateZ
p1053
aVscaleX
p1054
aVscaleY
p1055
aVscaleZ
p1056
aVspace_world
p1057
aVspace_body_anim
p1058
aVspace_chest_ik_anim
p1059
aaI00
aF0
aF0
aF0
aF0
aF0
aF0
aF1
aF1
aF1
aF0
aF0
aF0
aa(lp1060
Vik_elbow_r_anim_space_switcher
p1061
a(lp1062
Vvisibility
p1063
aVtranslateX
p1064
aVtranslateY
p1065
aVtranslateZ
p1066
aVrotateX
p1067
aVrotateY
p1068
aVrotateZ
p1069
aVscaleX
p1070
aVscaleY
p1071
aVscaleZ
p1072
aVspace_world
p1073
aVspace_body_anim
p1074
aVspace_chest_ik_anim
p1075
aaI00
aF0
aF0
aF0
aF0
aF0
aF0
aF1
aF1
aF1
aF0
aF0
aF0
aa(lp1076
Vik_foot_anim_l_space_switcher
p1077
a(lp1078
Vvisibility
p1079
aVtranslateX
p1080
aVtranslateY
p1081
aVtranslateZ
p1082
aVrotateX
p1083
aVrotateY
p1084
aVrotateZ
p1085
aVscaleX
p1086
aVscaleY
p1087
aVscaleZ
p1088
aVspace_world
p1089
aVspace_body_anim
p1090
aaI01
aF0
aF0
aF0
aF0
aF0
aF0
aF1
aF1
aF1
aF0
aF0
aa(lp1091
Vik_foot_anim_r_space_switcher
p1092
a(lp1093
Vvisibility
p1094
aVtranslateX
p1095
aVtranslateY
p1096
aVtranslateZ
p1097
aVrotateX
p1098
aVrotateY
p1099
aVrotateZ
p1100
aVscaleX
p1101
aVscaleY
p1102
aVscaleZ
p1103
aVspace_world
p1104
aVspace_body_anim
p1105
aaI01
aF0
aF0
aF0
aF0
aF0
aF0
aF1
aF1
aF1
aF0
aF0
aa(lp1106
Vik_wrist_l_anim_space_switcher
p1107
a(lp1108
Vvisibility
p1109
aVtranslateX
p1110
aVtranslateY
p1111
aVtranslateZ
p1112
aVrotateX
p1113
aVrotateY
p1114
aVrotateZ
p1115
aVscaleX
p1116
aVscaleY
p1117
aVscaleZ
p1118
aVspace_world
p1119
aVspace_body_anim
p1120
aVspace_head_fk_anim
p1121
aVspace_chest_ik_anim
p1122
aaI00
aF0
aF0
aF0
aF0
aF0
aF0
aF1
aF1
aF1
aF0
aF0
aF0
aF0
aa(lp1123
Vik_wrist_r_anim_space_switcher
p1124
a(lp1125
Vvisibility
p1126
aVtranslateX
p1127
aVtranslateY
p1128
aVtranslateZ
p1129
aVrotateX
p1130
aVrotateY
p1131
aVrotateZ
p1132
aVscaleX
p1133
aVscaleY
p1134
aVscaleZ
p1135
aVspace_world
p1136
aVspace_body_anim
p1137
aVspace_head_fk_anim
p1138
aVspace_chest_ik_anim
p1139
aaI00
aF0
aF0
aF0
aF0
aF0
aF0
aF1
aF1
aF1
aF0
aF0
aF0
aF0
aa(lp1140
Vjaw_space_switcher
p1141
a(lp1142
Vvisibility
p1143
aVtranslateX
p1144
aVtranslateY
p1145
aVtranslateZ
p1146
aVrotateX
p1147
aVrotateY
p1148
aVrotateZ
p1149
aVscaleX
p1150
aVscaleY
p1151
aVscaleZ
p1152
aVspace_world
p1153
aaI01
aF-1.4210854715202004e-14
aF-2.8421709430404007e-14
aF2.7755575615628914e-17
aF0
aF-1.5166066558187084e-21
aF3.180554681463516e-15
aF1.0000000000000002
aF1.0000000000000002
aF1
aF0
aa(lp1154
Vl_global_ik_anim_space_switcher
p1155
a(lp1156
Vvisibility
p1157
aVtranslateX
p1158
aVtranslateY
p1159
aVtranslateZ
p1160
aVrotateX
p1161
aVrotateY
p1162
aVrotateZ
p1163
aVscaleX
p1164
aVscaleY
p1165
aVscaleZ
p1166
aVspace_world
p1167
aaI01
aF0
aF0
aF0
aF0
aF0
aF0
aF1
aF1
aF1
aF0
aa(lp1168
Vmaster_anim_space_switcher
p1169
a(lp1170
Vvisibility
p1171
aVtranslateX
p1172
aVtranslateY
p1173
aVtranslateZ
p1174
aVrotateX
p1175
aVrotateY
p1176
aVrotateZ
p1177
aVscaleX
p1178
aVscaleY
p1179
aVscaleZ
p1180
aVspace_world
p1181
aaI01
aF0
aF0
aF0
aF0
aF0
aF0
aF1
aF1
aF1
aF0
aa(lp1182
Vr_global_ik_anim_space_switcher
p1183
a(lp1184
Vvisibility
p1185
aVtranslateX
p1186
aVtranslateY
p1187
aVtranslateZ
p1188
aVrotateX
p1189
aVrotateY
p1190
aVrotateZ
p1191
aVscaleX
p1192
aVscaleY
p1193
aVscaleZ
p1194
aVspace_world
p1195
aaI01
aF0
aF0
aF0
aF0
aF0
aF0
aF1
aF1
aF1
aF0
aa(lp1196
Vspine_01_space_switcher
p1197
a(lp1198
Vvisibility
p1199
aVtranslateX
p1200
aVtranslateY
p1201
aVtranslateZ
p1202
aVrotateX
p1203
aVrotateY
p1204
aVrotateZ
p1205
aVscaleX
p1206
aVscaleY
p1207
aVscaleZ
p1208
aVspace_world
p1209
aaI01
aF0
aF0
aF0
aF3.9725156682451432e-31
aF5.649800061504203e-30
aF0
aF1
aF1
aF1
aF0
aa.