(lp1
(lp2
S'head_fk_anim'
p3
a(lp4
(lp5
Na(lp6
aaaa(lp7
S'neck_01_fk_anim'
p8
a(lp9
(lp10
Na(lp11
aaaa(lp12
S'neck_02_fk_anim'
p13
a(lp14
(lp15
Na(lp16
aaaa(lp17
g14
aa(lp18
S'spine_01_anim'
p19
a(lp20
(lp21
Na(lp22
aaaa(lp23
S'spine_02_anim'
p24
a(lp25
(lp26
Na(lp27
(lp28
VrotateX
p29
a(lp30
(lp31
F1.25
aF0
a(lp32
NaNaNaNaNaNaaaaa(lp33
VrotateY
p34
a(lp35
(lp36
F1.25
aF0
a(lp37
NaNaNaNaNaNaaaaa(lp38
VrotateZ
p39
a(lp40
(lp41
F1.25
aF0
a(lp42
NaNaNaNaNaNaaaaa(lp43
VblendUnitConversion82
p44
a(lp45
(lp46
F-1250
aF1
a(lp47
NaNaNaNaNaNaaaaaaaaa(lp48
S'spine_03_anim'
p49
a(lp50
(lp51
Na(lp52
aaaa(lp53
S'spine_04_anim'
p54
a(lp55
(lp56
Na(lp57
(lp58
VrotateX
p59
a(lp60
(lp61
F1.25
aF0
a(lp62
NaNaNaNaNaNaaaaa(lp63
VrotateY
p64
a(lp65
(lp66
F1.25
aF0
a(lp67
NaNaNaNaNaNaaaaa(lp68
VrotateZ
p69
a(lp70
(lp71
F1.25
aF0
a(lp72
NaNaNaNaNaNaaaaa(lp73
VblendUnitConversion91
p74
a(lp75
(lp76
F-1250
aF1
a(lp77
NaNaNaNaNaNaaaaaaaaa(lp78
S'spine_05_anim'
p79
a(lp80
(lp81
Na(lp82
aaaa(lp83
S'mid_ik_anim'
p84
a(lp85
(lp86
Na(lp87
aaaa(lp88
S'chest_ik_anim'
p89
a(lp90
(lp91
Na(lp92
aaaa(lp93
S'body_anim'
p94
a(lp95
(lp96
Na(lp97
(lp98
VtranslateX
p99
a(lp100
(lp101
F0
aF0
a(lp102
(lp103
Vfixed
p104
aa(lp105
Vfixed
p106
aa(lp107
F-50.944489056725018
aa(lp108
F-74.36946975874082
aa(lp109
F1
aa(lp110
F1
aaaa(lp111
F12
aF-24.494193510115167
a(lp112
NaNaNaNaNaNaaaaa(lp113
VtranslateY
p114
a(lp115
(lp116
F0
aF0
a(lp117
(lp118
Vfixed
p119
aa(lp120
Vfixed
p121
aa(lp122
F-78.116695952517418
aa(lp123
F-84.210303862057643
aa(lp124
F1
aa(lp125
F1
aaaa(lp126
F12
aF-30.867468934918691
a(lp127
NaNaNaNaNaNaaaaa(lp128
VtranslateZ
p129
a(lp130
(lp131
F0
aF0
a(lp132
(lp133
Vlinear
p134
aa(lp135
Vlinear
p136
aa(lp137
F0
aa(lp138
F-3.5776891591892332
aa(lp139
F1
aa(lp140
F1
aaaa(lp141
F12
aF-0.75028493728752843
a(lp142
NaNaNaNaNaNaaaaa(lp143
VrotateX
p144
a(lp145
(lp146
F0
aF0
a(lp147
(lp148
Vlinear
p149
aa(lp150
Vlinear
p151
aa(lp152
F0
aa(lp153
F0
aa(lp154
F1
aa(lp155
F1
aaaa(lp156
F12
aF0
a(lp157
NaNaNaNaNaNaaaaa(lp158
VrotateY
p159
a(lp160
(lp161
F0
aF0
a(lp162
(lp163
Vlinear
p164
aa(lp165
Vlinear
p166
aa(lp167
F0
aa(lp168
F0
aa(lp169
F1
aa(lp170
F1
aaaa(lp171
F12
aF0
a(lp172
NaNaNaNaNaNaaaaa(lp173
VrotateZ
p174
a(lp175
(lp176
F0
aF0
a(lp177
(lp178
Vlinear
p179
aa(lp180
Vlinear
p181
aa(lp182
F0
aa(lp183
F-71.779523497174523
aa(lp184
F1
aa(lp185
F1
aaaa(lp186
F12
aF-36.454293407814177
a(lp187
NaNaNaNaNaNaaaaaaaaa(lp188
S'hip_anim'
p189
a(lp190
(lp191
Na(lp192
aaaa(lp193
S'clavicle_l_anim'
p194
a(lp195
(lp196
Na(lp197
aaaa(lp198
S'clavicle_r_anim'
p199
a(lp200
(lp201
Na(lp202
aaaa(lp203
S'fk_arm_l_anim'
p204
a(lp205
(lp206
Na(lp207
aaaa(lp208
S'fk_arm_r_anim'
p209
a(lp210
(lp211
Na(lp212
aaaa(lp213
S'fk_elbow_l_anim'
p214
a(lp215
(lp216
Na(lp217
aaaa(lp218
S'fk_elbow_r_anim'
p219
a(lp220
(lp221
Na(lp222
aaaa(lp223
S'fk_wrist_l_anim'
p224
a(lp225
(lp226
Na(lp227
aaaa(lp228
S'fk_wrist_r_anim'
p229
a(lp230
(lp231
Na(lp232
aaaa(lp233
S'ik_elbow_l_anim'
p234
a(lp235
(lp236
Na(lp237
aaaa(lp238
S'ik_elbow_r_anim'
p239
a(lp240
(lp241
Na(lp242
aaaa(lp243
S'ik_wrist_l_anim'
p244
a(lp245
(lp246
Na(lp247
aaaa(lp248
S'ik_wrist_r_anim'
p249
a(lp250
(lp251
Na(lp252
aaaa(lp253
S'fk_thigh_l_anim'
p254
a(lp255
(lp256
Na(lp257
aaaa(lp258
S'fk_thigh_r_anim'
p259
a(lp260
(lp261
Na(lp262
aaaa(lp263
S'fk_calf_l_anim'
p264
a(lp265
(lp266
Na(lp267
aaaa(lp268
S'fk_calf_r_anim'
p269
a(lp270
(lp271
Na(lp272
aaaa(lp273
S'fk_foot_l_anim'
p274
a(lp275
(lp276
Na(lp277
aaaa(lp278
S'fk_foot_r_anim'
p279
a(lp280
(lp281
Na(lp282
aaaa(lp283
S'fk_ball_l_anim'
p284
a(lp285
(lp286
Na(lp287
aaaa(lp288
S'fk_ball_r_anim'
p289
a(lp290
(lp291
Na(lp292
aaaa(lp293
S'ik_foot_anim_l'
p294
a(lp295
(lp296
Na(lp297
aaaa(lp298
S'ik_foot_anim_r'
p299
a(lp300
(lp301
Na(lp302
aaaa(lp303
S'heel_ctrl_l'
p304
a(lp305
(lp306
Na(lp307
aaaa(lp308
S'heel_ctrl_r'
p309
a(lp310
(lp311
Na(lp312
aaaa(lp313
S'toe_wiggle_ctrl_l'
p314
a(lp315
(lp316
Na(lp317
aaaa(lp318
S'toe_wiggle_ctrl_r'
p319
a(lp320
(lp321
Na(lp322
aaaa(lp323
S'toe_tip_ctrl_l'
p324
a(lp325
(lp326
Na(lp327
aaaa(lp328
S'toe_tip_ctrl_r'
p329
a(lp330
(lp331
Na(lp332
aaaa(lp333
S'master_anim'
p334
a(lp335
(lp336
Na(lp337
aaaa(lp338
S'offset_anim'
p339
a(lp340
(lp341
Na(lp342
aaaa(lp343
S'root_anim'
p344
a(lp345
(lp346
Na(lp347
aaaa(lp348
S'upperarm_l_twist_anim'
p349
a(lp350
(lp351
Na(lp352
aaaa(lp353
S'upperarm_r_twist_anim'
p354
a(lp355
(lp356
Na(lp357
aaaa(lp358
S'thigh_l_twist_anim'
p359
a(lp360
(lp361
Na(lp362
aaaa(lp363
S'thigh_r_twist_anim'
p364
a(lp365
(lp366
Na(lp367
aaaa(lp368
S'pinky_metacarpal_ctrl_l'
p369
a(lp370
(lp371
Na(lp372
aaaa(lp373
S'pinky_metacarpal_ctrl_r'
p374
a(lp375
(lp376
Na(lp377
aaaa(lp378
S'pinky_finger_fk_ctrl_1_l'
p379
a(lp380
(lp381
Na(lp382
aaaa(lp383
S'pinky_finger_fk_ctrl_1_r'
p384
a(lp385
(lp386
Na(lp387
aaaa(lp388
S'pinky_finger_fk_ctrl_2_l'
p389
a(lp390
(lp391
Na(lp392
aaaa(lp393
S'pinky_finger_fk_ctrl_2_r'
p394
a(lp395
(lp396
Na(lp397
aaaa(lp398
S'pinky_finger_fk_ctrl_3_l'
p399
a(lp400
(lp401
Na(lp402
aaaa(lp403
S'pinky_finger_fk_ctrl_3_r'
p404
a(lp405
(lp406
Na(lp407
aaaa(lp408
S'ring_metacarpal_ctrl_l'
p409
a(lp410
(lp411
Na(lp412
aaaa(lp413
S'ring_metacarpal_ctrl_r'
p414
a(lp415
(lp416
Na(lp417
aaaa(lp418
S'ring_finger_fk_ctrl_1_l'
p419
a(lp420
(lp421
Na(lp422
aaaa(lp423
S'ring_finger_fk_ctrl_1_r'
p424
a(lp425
(lp426
Na(lp427
aaaa(lp428
S'ring_finger_fk_ctrl_2_l'
p429
a(lp430
(lp431
Na(lp432
aaaa(lp433
S'ring_finger_fk_ctrl_2_r'
p434
a(lp435
(lp436
Na(lp437
aaaa(lp438
S'ring_finger_fk_ctrl_3_l'
p439
a(lp440
(lp441
Na(lp442
aaaa(lp443
S'ring_finger_fk_ctrl_3_r'
p444
a(lp445
(lp446
Na(lp447
aaaa(lp448
S'middle_metacarpal_ctrl_l'
p449
a(lp450
(lp451
Na(lp452
aaaa(lp453
S'middle_metacarpal_ctrl_r'
p454
a(lp455
(lp456
Na(lp457
aaaa(lp458
S'middle_finger_fk_ctrl_1_l'
p459
a(lp460
(lp461
Na(lp462
aaaa(lp463
S'middle_finger_fk_ctrl_1_r'
p464
a(lp465
(lp466
Na(lp467
aaaa(lp468
S'middle_finger_fk_ctrl_2_l'
p469
a(lp470
(lp471
Na(lp472
aaaa(lp473
S'middle_finger_fk_ctrl_2_r'
p474
a(lp475
(lp476
Na(lp477
aaaa(lp478
S'middle_finger_fk_ctrl_3_l'
p479
a(lp480
(lp481
Na(lp482
aaaa(lp483
S'middle_finger_fk_ctrl_3_r'
p484
a(lp485
(lp486
Na(lp487
aaaa(lp488
S'index_metacarpal_ctrl_l'
p489
a(lp490
(lp491
Na(lp492
aaaa(lp493
S'index_metacarpal_ctrl_r'
p494
a(lp495
(lp496
Na(lp497
aaaa(lp498
S'index_finger_fk_ctrl_1_l'
p499
a(lp500
(lp501
Na(lp502
aaaa(lp503
S'index_finger_fk_ctrl_1_r'
p504
a(lp505
(lp506
Na(lp507
aaaa(lp508
S'index_finger_fk_ctrl_2_l'
p509
a(lp510
(lp511
Na(lp512
aaaa(lp513
S'index_finger_fk_ctrl_2_r'
p514
a(lp515
(lp516
Na(lp517
aaaa(lp518
S'index_finger_fk_ctrl_3_l'
p519
a(lp520
(lp521
Na(lp522
aaaa(lp523
S'index_finger_fk_ctrl_3_r'
p524
a(lp525
(lp526
Na(lp527
aaaa(lp528
S'thumb_finger_fk_ctrl_1_l'
p529
a(lp530
(lp531
Na(lp532
aaaa(lp533
S'thumb_finger_fk_ctrl_1_r'
p534
a(lp535
(lp536
Na(lp537
aaaa(lp538
S'thumb_finger_fk_ctrl_2_l'
p539
a(lp540
(lp541
Na(lp542
aaaa(lp543
S'thumb_finger_fk_ctrl_2_r'
p544
a(lp545
(lp546
Na(lp547
aaaa(lp548
S'thumb_finger_fk_ctrl_3_l'
p549
a(lp550
(lp551
Na(lp552
aaaa(lp553
S'thumb_finger_fk_ctrl_3_r'
p554
a(lp555
(lp556
Na(lp557
aaaa(lp558
S'index_l_ik_anim'
p559
a(lp560
(lp561
Na(lp562
aaaa(lp563
S'index_r_ik_anim'
p564
a(lp565
(lp566
Na(lp567
aaaa(lp568
S'middle_l_ik_anim'
p569
a(lp570
(lp571
Na(lp572
aaaa(lp573
S'middle_r_ik_anim'
p574
a(lp575
(lp576
Na(lp577
aaaa(lp578
S'ring_l_ik_anim'
p579
a(lp580
(lp581
Na(lp582
aaaa(lp583
S'ring_r_ik_anim'
p584
a(lp585
(lp586
Na(lp587
aaaa(lp588
S'pinky_l_ik_anim'
p589
a(lp590
(lp591
Na(lp592
aaaa(lp593
S'pinky_r_ik_anim'
p594
a(lp595
(lp596
Na(lp597
aaaa(lp598
S'thumb_l_ik_anim'
p599
a(lp600
(lp601
Na(lp602
aaaa(lp603
S'thumb_r_ik_anim'
p604
a(lp605
(lp606
Na(lp607
aaaa(lp608
S'index_l_poleVector'
p609
a(lp610
(lp611
Na(lp612
aaaa(lp613
S'index_r_poleVector'
p614
a(lp615
(lp616
Na(lp617
aaaa(lp618
S'middle_l_poleVector'
p619
a(lp620
(lp621
Na(lp622
aaaa(lp623
S'middle_r_poleVector'
p624
a(lp625
(lp626
Na(lp627
aaaa(lp628
S'ring_l_poleVector'
p629
a(lp630
(lp631
Na(lp632
aaaa(lp633
S'ring_r_poleVector'
p634
a(lp635
(lp636
Na(lp637
aaaa(lp638
S'pinky_l_poleVector'
p639
a(lp640
(lp641
Na(lp642
aaaa(lp643
S'pinky_r_poleVector'
p644
a(lp645
(lp646
Na(lp647
aaaa(lp648
S'thumb_l_poleVector'
p649
a(lp650
(lp651
Na(lp652
aaaa(lp653
S'thumb_r_poleVector'
p654
a(lp655
(lp656
Na(lp657
aaaa(lp658
S'l_global_ik_anim'
p659
a(lp660
(lp661
Na(lp662
aaaa(lp663
S'r_global_ik_anim'
p664
a(lp665
(lp666
Na(lp667
aaaa(lp668
S'Rig_Settings'
p669
a(lp670
(lp671
Na(lp672
aaaa(lp673
Vweapon_l_anim
p674
a(lp675
(lp676
Na(lp677
aaaa(lp678
Vweapon_r_anim
p679
a(lp680
(lp681
Na(lp682
aaaa(lp683
Vattach_anim
p684
a(lp685
(lp686
Na(lp687
aaaa(lp688
Vattach_space_switcher
p689
a(lp690
(lp691
Na(lp692
aaaa(lp693
Vbody_anim_space_switcher
p694
a(lp695
(lp696
Na(lp697
aaaa(lp698
Vchest_ik_anim_space_switcher
p699
a(lp700
(lp701
Na(lp702
aaaa(lp703
Vik_elbow_l_anim_space_switcher
p704
a(lp705
(lp706
Na(lp707
aaaa(lp708
Vik_elbow_r_anim_space_switcher
p709
a(lp710
(lp711
Na(lp712
aaaa(lp713
Vik_foot_anim_l_space_switcher
p714
a(lp715
(lp716
Na(lp717
aaaa(lp718
Vik_foot_anim_r_space_switcher
p719
a(lp720
(lp721
Na(lp722
aaaa(lp723
Vik_wrist_l_anim_space_switcher
p724
a(lp725
(lp726
Na(lp727
aaaa(lp728
Vik_wrist_r_anim_space_switcher
p729
a(lp730
(lp731
Na(lp732
aaaa(lp733
Vl_global_ik_anim_space_switcher
p734
a(lp735
(lp736
Na(lp737
aaaa(lp738
Vmaster_anim_space_switcher
p739
a(lp740
(lp741
Na(lp742
aaaa(lp743
Vr_global_ik_anim_space_switcher
p744
a(lp745
(lp746
Na(lp747
aaaa(lp748
Vspine_01_space_switcher
p749
a(lp750
(lp751
Na(lp752
aaaa(lp753
Vweapon_l_space_switcher
p754
a(lp755
(lp756
Na(lp757
aaaa(lp758
Vweapon_r_space_switcher
p759
a(lp760
(lp761
Na(lp762
aaaa(lp763
S'fk_orient_world_loc_l'
p764
a(lp765
(lp766
Na(lp767
aaaa(lp768
S'fk_orient_world_loc_r'
p769
a(lp770
(lp771
Na(lp772
aaaa(lp773
S'fk_orient_body_loc_l'
p774
a(lp775
(lp776
Na(lp777
aaaa(lp778
S'fk_orient_body_loc_r'
p779
a(lp780
(lp781
Na(lp782
aaaa(lp783
S'head_fk_orient_neck'
p784
a(lp785
(lp786
Na(lp787
aaaa(lp788
S'head_fk_orient_shoulder'
p789
a(lp790
(lp791
Na(lp792
aaaa(lp793
S'head_fk_orient_body'
p794
a(lp795
(lp796
Na(lp797
aaaa(lp798
S'head_fk_orient_world'
p799
a(lp800
(lp801
Na(lp802
aaaa.