(lp1
(lp2
S'fk_clavicle_r_anim'
p3
a(lp4
VtranslateX
p5
aVtranslateY
p6
aVtranslateZ
p7
aVrotateX
p8
aVrotateY
p9
aVrotateZ
p10
aaF0
aF0
aF0
aF0
aF-13.047404
aF9.3157025000000004
aa(lp11
S'fk_clavicle_l_anim'
p12
a(lp13
VtranslateX
p14
aVtranslateY
p15
aVtranslateZ
p16
aVrotateX
p17
aVrotateY
p18
aVrotateZ
p19
aaF0
aF0
aF0
aF0.95437963000000003
aF-9.2065041999999995
aF-14.264896999999999
aa(lp20
S'head_fk_anim'
p21
a(lp22
VtranslateX
p23
aVtranslateY
p24
aVtranslateZ
p25
aVrotateX
p26
aVrotateY
p27
aVrotateZ
p28
aVscaleX
p29
aVscaleY
p30
aVscaleZ
p31
aVfkOrientation
p32
aaF0
aF0
aF0
aF-10.579535
aF-5.5181423000000001
aF-10.069288
aF1
aF1
aF1
aI3
aa(lp33
S'neck_01_fk_anim'
p34
a(lp35
VtranslateX
p36
aVtranslateY
p37
aVtranslateZ
p38
aVrotateX
p39
aVrotateY
p40
aVrotateZ
p41
aVscaleX
p42
aVscaleY
p43
aVscaleZ
p44
aVfkOrientation
p45
aaF0
aF0
aF0
aF-34.907668999999999
aF-15.102969999999999
aF-7.3007050000000007
aF1
aF1
aF1
aI2
aa(lp46
S'neck_02_fk_anim'
p47
a(lp48
VtranslateX
p49
aVtranslateY
p50
aVtranslateZ
p51
aVrotateX
p52
aVrotateY
p53
aVrotateZ
p54
aVscaleX
p55
aVscaleY
p56
aVscaleZ
p57
aaF0
aF0
aF0
aF0
aF0
aF0
aF1
aF1
aF1
aa(lp58
S'spine_01_anim'
p59
a(lp60
Vlength
p61
aVtranslateY
p62
aVtranslateZ
p63
aVrotateX
p64
aVrotateY
p65
aVrotateZ
p66
aVlength
p67
aaF0
aF0
aF0
aF-6.2301735999999996
aF5.2517510999999999
aF-11.625978
aF0
aa(lp68
S'spine_02_anim'
p69
a(lp70
Vlength
p71
aVtranslateY
p72
aVtranslateZ
p73
aVrotateX
p74
aVrotateY
p75
aVrotateZ
p76
aVspine_3_Influence
p77
aVspine_1_Influence
p78
aVdriven
p79
aaF0
aF0
aF0
aF-4.7752351760864258
aF1.9314582347869875
aF-7.9767379760742188
aF1
aF1
aF1
aa(lp80
S'spine_03_anim'
p81
a(lp82
Vlength
p83
aVtranslateY
p84
aVtranslateZ
p85
aVrotateX
p86
aVrotateY
p87
aVrotateZ
p88
aVlength
p89
aaF0
aF0
aF0
aF-3.3202970999999999
aF-1.3888346
aF-4.3274968999999999
aF0
aa(lp90
S'spine_04_anim'
p91
a(lp92
Vlength
p93
aVtranslateY
p94
aVtranslateZ
p95
aVrotateX
p96
aVrotateY
p97
aVrotateZ
p98
aVspine_5_Influence
p99
aVspine_3_Influence
p100
aVdriven
p101
aaF0
aF0
aF0
aF-1.7601758241653442
aF0.068892538547515869
aF-6.2653980255126953
aF1
aF1
aF1
aa(lp102
S'spine_05_anim'
p103
a(lp104
Vlength
p105
aVtranslateY
p106
aVtranslateZ
p107
aVrotateX
p108
aVrotateY
p109
aVrotateZ
p110
aVlength
p111
aaF0
aF0
aF0
aF-0.20005475
aF1.5266196999999999
aF-8.2032989999999995
aF0
aa(lp112
S'mid_ik_anim'
p113
a(lp114
VtranslateX
p115
aVtranslateY
p116
aVtranslateZ
p117
aVrotateX
p118
aVrotateY
p119
aVrotateZ
p120
aaF0
aF0
aF0
aF0
aF0
aF0
aa(lp121
S'chest_ik_anim'
p122
a(lp123
VtranslateX
p124
aVtranslateY
p125
aVtranslateZ
p126
aVrotateX
p127
aVrotateY
p128
aVrotateZ
p129
aVstretch
p130
aVsquash
p131
aVtwist_amount
p132
aVautoSpine
p133
aVrotationInfluence
p134
aaF0
aF0
aF0
aF-42.587069
aF0.67288075999999997
aF6.9251522000000003
aF1
aF0
aF1
aF1
aF0.25
aa(lp135
S'body_anim'
p136
a(lp137
VtranslateX
p138
aVtranslateY
p139
aVtranslateZ
p140
aVrotateX
p141
aVrotateY
p142
aVrotateZ
p143
aaF-6.4673655999999999
aF0.97436144999999996
aF-0.36960262999999999
aF-30.469526999999999
aF0.77621826000000005
aF4.7618475
aa(lp144
S'hip_anim'
p145
a(lp146
VtranslateX
p147
aVtranslateY
p148
aVtranslateZ
p149
aVrotateX
p150
aVrotateY
p151
aVrotateZ
p152
aVlCalfTwistCtrlVis
p153
aVrCalfTwistCtrlVis
p154
aVautoHips
p155
aaF0
aF0
aF0
aF0
aF-0.29810930000000002
aF5.6942083999999999
aI00
aI00
aF0
aa(lp156
S'clavicle_l_anim'
p157
a(lp158
VtranslateX
p159
aVtranslateY
p160
aVtranslateZ
p161
aVautoShoulders
p162
aaF-0.095483512000000006
aF-3.8706206000000001
aF7.6972798999999998
aF0
aa(lp163
S'clavicle_r_anim'
p164
a(lp165
VtranslateX
p166
aVtranslateY
p167
aVtranslateZ
p168
aVautoShoulders
p169
aaF-0.40437392
aF-1.9324741000000001
aF4.0550889999999997
aF0
aa(lp170
S'fk_arm_l_anim'
p171
a(lp172
VtranslateX
p173
aVtranslateY
p174
aVtranslateZ
p175
aVrotateX
p176
aVrotateY
p177
aVrotateZ
p178
aaF0
aF0
aF0
aF-73.634758000000005
aF-4.4772613000000003
aF-63.361296000000003
aa(lp179
S'fk_arm_r_anim'
p180
a(lp181
VtranslateX
p182
aVtranslateY
p183
aVtranslateZ
p184
aVrotateX
p185
aVrotateY
p186
aVrotateZ
p187
aaF0
aF0
aF0
aF-70.812039999999996
aF17.334921999999999
aF-102.15729
aa(lp188
S'fk_elbow_l_anim'
p189
a(lp190
VtranslateX
p191
aVtranslateY
p192
aVtranslateZ
p193
aVrotateX
p194
aVrotateY
p195
aVrotateZ
p196
aaF0
aF0
aF0
aF2.5485926000000001
aF0.85524082000000001
aF-55.961503
aa(lp197
S'fk_elbow_r_anim'
p198
a(lp199
VtranslateX
p200
aVtranslateY
p201
aVtranslateZ
p202
aVrotateX
p203
aVrotateY
p204
aVrotateZ
p205
aaF0
aF0
aF0
aF-15.472583999999999
aF11.306393999999999
aF255.51965000000001
aa(lp206
S'fk_wrist_l_anim'
p207
a(lp208
VtranslateX
p209
aVtranslateY
p210
aVtranslateZ
p211
aVrotateX
p212
aVrotateY
p213
aVrotateZ
p214
aaF0
aF0
aF0
aF-123.35973000000001
aF-18.918234999999999
aF22.729030999999999
aa(lp215
S'fk_wrist_r_anim'
p216
a(lp217
VtranslateX
p218
aVtranslateY
p219
aVtranslateZ
p220
aVrotateX
p221
aVrotateY
p222
aVrotateZ
p223
aaF0
aF0
aF0
aF-23.083424999999998
aF-50.811577999999997
aF6.9051517000000002
aa(lp224
S'ik_elbow_l_anim'
p225
a(lp226
VtranslateX
p227
aVtranslateY
p228
aVtranslateZ
p229
aaF-30.810397999999999
aF-40.461745000000001
aF-20.799623
aa(lp230
S'ik_elbow_r_anim'
p231
a(lp232
VtranslateX
p233
aVtranslateY
p234
aVtranslateZ
p235
aaF27.385897
aF37.316608000000002
aF-29.703517999999999
aa(lp236
S'ik_wrist_l_anim'
p237
a(lp238
VtranslateX
p239
aVtranslateY
p240
aVtranslateZ
p241
aVrotateX
p242
aVrotateY
p243
aVrotateZ
p244
aVstretch
p245
aVsquash
p246
aVstretchBias
p247
aVside
p248
aVmid_bend
p249
aVmid_swivel
p250
aVtip_pivot
p251
aVtip_swivel
p252
aVspace_heavy_weapon_root_anim
p253
aVspace_goingCommando_Handle_Top_Mstr_anim
p254
aaF-78.22258748671257
aF-38.149431219332556
aF-29.15135300020853
aF164.19644
aF159.77787000000001
aF53.39107400000001
aF0
aF0
aF0
aF0
aF0
aF0
aF0
aF0
aF0
aF0
aa(lp255
S'ik_wrist_r_anim'
p256
a(lp257
VtranslateX
p258
aVtranslateY
p259
aVtranslateZ
p260
aVrotateX
p261
aVrotateY
p262
aVrotateZ
p263
aVstretch
p264
aVsquash
p265
aVstretchBias
p266
aVside
p267
aVmid_bend
p268
aVmid_swivel
p269
aVtip_pivot
p270
aVtip_swivel
p271
aVspace_heavy_weapon_root_anim
p272
aVspace_goingCommando_Handle_Rot_anim
p273
aaF43.789716173412714
aF18.012284628548599
aF-40.22079236101618
aF-73.711704898308653
aF-42.506285476046038
aF83.167688302343635
aF0
aF0
aF0
aF0
aF0
aF0
aF0
aF0
aF0
aF0
aa(lp274
S'fk_thigh_l_anim'
p275
a(lp276
VrotateX
p277
aVrotateY
p278
aVrotateZ
p279
aaF0.075329803000000001
aF-19.026608
aF44.617207000000001
aa(lp280
S'fk_thigh_r_anim'
p281
a(lp282
VrotateX
p283
aVrotateY
p284
aVrotateZ
p285
aaF-1.9420740999999999
aF-11.519425999999999
aF20.635788000000005
aa(lp286
S'fk_calf_l_anim'
p287
a(lp288
VrotateX
p289
aVrotateY
p290
aVrotateZ
p291
aaF0.40155962000000001
aF-1.4255301
aF-26.105278000000002
aa(lp292
S'fk_calf_r_anim'
p293
a(lp294
VrotateX
p295
aVrotateY
p296
aVrotateZ
p297
aaF0.89050549000000001
aF-1.9518694999999999
aF-39.764927
aa(lp298
S'fk_foot_l_anim'
p299
a(lp300
VrotateX
p301
aVrotateY
p302
aVrotateZ
p303
aaF2.7807702999999999
aF13.956371000000001
aF-10.934742999999999
aa(lp304
S'fk_foot_r_anim'
p305
a(lp306
VrotateX
p307
aVrotateY
p308
aVrotateZ
p309
aaF19.773244999999999
aF16.872174999999999
aF27.68092
aa(lp310
S'fk_ball_l_anim'
p311
a(lp312
VrotateX
p313
aVrotateY
p314
aVrotateZ
p315
aaF2.6347818000000001e-05
aF2.2079776999999999e-05
aF2.4747790999999999e-05
aa(lp316
S'fk_ball_r_anim'
p317
a(lp318
VrotateX
p319
aVrotateY
p320
aVrotateZ
p321
aaF-0.00011698927999999999
aF-0.00010855614000000001
aF7.4199304999999991e-06
aa(lp322
S'ik_foot_anim_l'
p323
a(lp324
VtranslateX
p325
aVtranslateY
p326
aVtranslateZ
p327
aVrotateX
p328
aVrotateY
p329
aVrotateZ
p330
aVknee_twist
p331
aVstretch
p332
aVsquash
p333
aVtoeCtrlVis
p334
aVstretchBias
p335
aaF6.0483744000000002
aF-23.435086999999999
aF-8.910255e-05
aF0
aF0
aF-5.3927632000000001
aF-8.9000000000000004
aF0
aF0
aI00
aF0
aa(lp336
S'ik_foot_anim_r'
p337
a(lp338
VtranslateX
p339
aVtranslateY
p340
aVtranslateZ
p341
aVrotateX
p342
aVrotateY
p343
aVrotateZ
p344
aVknee_twist
p345
aVstretch
p346
aVsquash
p347
aVtoeCtrlVis
p348
aVstretchBias
p349
aaF1.9271914999999999
aF24.308461000000001
aF2.6387896000000001e-05
aF0
aF0
aF-48.065947999999999
aF50.799999999999997
aF0
aF0
aI00
aF0
aa(lp350
S'heel_ctrl_l'
p351
a(lp352
VrotateX
p353
aVrotateY
p354
aVrotateZ
p355
aVheelPivot
p356
aVballPivot
p357
aaF0
aF0
aF0
aF0
aF0
aa(lp358
S'heel_ctrl_r'
p359
a(lp360
VrotateX
p361
aVrotateY
p362
aVrotateZ
p363
aVheelPivot
p364
aVballPivot
p365
aaF0
aF0
aF0
aF0
aF0
aa(lp366
S'toe_wiggle_ctrl_l'
p367
a(lp368
VrotateX
p369
aVrotateY
p370
aVrotateZ
p371
aaF0
aF0
aF0
aa(lp372
S'toe_wiggle_ctrl_r'
p373
a(lp374
VrotateX
p375
aVrotateY
p376
aVrotateZ
p377
aaF0
aF0
aF0
aa(lp378
S'toe_tip_ctrl_l'
p379
a(lp380
VrotateX
p381
aVrotateY
p382
aVrotateZ
p383
aaF0
aF0
aF0
aa(lp384
S'toe_tip_ctrl_r'
p385
a(lp386
VrotateX
p387
aVrotateY
p388
aVrotateZ
p389
aaF0
aF0
aF0
aa(lp390
S'master_anim'
p391
a(lp392
VtranslateX
p393
aVtranslateY
p394
aVtranslateZ
p395
aVrotateX
p396
aVrotateY
p397
aVrotateZ
p398
aaF0
aF0
aF0
aF0
aF0
aF0
aa(lp399
S'offset_anim'
p400
a(lp401
VtranslateX
p402
aVtranslateY
p403
aVtranslateZ
p404
aVrotateX
p405
aVrotateY
p406
aVrotateZ
p407
aaF0
aF0
aF0
aF0
aF0
aF0
aa(lp408
S'root_anim'
p409
a(lp410
VtranslateX
p411
aVtranslateY
p412
aVtranslateZ
p413
aVrotateX
p414
aVrotateY
p415
aVrotateZ
p416
aaF0
aF0
aF0
aF0
aF0
aF0
aa(lp417
S'upperarm_l_twist_anim'
p418
a(lp419
VtranslateX
p420
aVtranslateY
p421
aVtranslateZ
p422
aVrotateX
p423
aVrotateY
p424
aVrotateZ
p425
aVscaleX
p426
aVscaleY
p427
aVscaleZ
p428
aaF0
aF0
aF0
aF-10
aF0
aF0
aF1
aF1
aF1
aa(lp429
S'upperarm_l_twist_2_anim'
p430
a(lp431
VtranslateX
p432
aVtranslateY
p433
aVtranslateZ
p434
aVrotateX
p435
aVrotateY
p436
aVrotateZ
p437
aVscaleX
p438
aVscaleY
p439
aVscaleZ
p440
aaF0
aF0
aF0
aF-13
aF0
aF0
aF1
aF1
aF1
aa(lp441
S'upperarm_r_twist_anim'
p442
a(lp443
VtranslateX
p444
aVtranslateY
p445
aVtranslateZ
p446
aVrotateX
p447
aVrotateY
p448
aVrotateZ
p449
aVscaleX
p450
aVscaleY
p451
aVscaleZ
p452
aaF0
aF0
aF0
aF0
aF0
aF0
aF1
aF1
aF1
aa(lp453
S'upperarm_r_twist_2_anim'
p454
a(lp455
VtranslateX
p456
aVtranslateY
p457
aVtranslateZ
p458
aVrotateX
p459
aVrotateY
p460
aVrotateZ
p461
aVscaleX
p462
aVscaleY
p463
aVscaleZ
p464
aaF0
aF0
aF0
aF0
aF0
aF0
aF1
aF1
aF1
aa(lp465
S'lowerarm_l_twist_anim'
p466
a(lp467
VtranslateX
p468
aVtranslateY
p469
aVtranslateZ
p470
aVrotateX
p471
aVrotateY
p472
aVrotateZ
p473
aaF0
aF0
aF0
aF0
aF0
aF0
aa(lp474
S'lowerarm_r_twist_anim'
p475
a(lp476
VtranslateX
p477
aVtranslateY
p478
aVtranslateZ
p479
aVrotateX
p480
aVrotateY
p481
aVrotateZ
p482
aaF0
aF0
aF0
aF0
aF0
aF0
aa(lp483
S'l_thigh_twist_01_anim'
p484
a(lp485
VtranslateX
p486
aVtranslateY
p487
aVtranslateZ
p488
aVrotateX
p489
aVrotateY
p490
aVrotateZ
p491
aVscaleX
p492
aVscaleY
p493
aVscaleZ
p494
aaF0
aF0
aF0
aF0
aF0
aF0
aF1
aF1
aF1
aa(lp495
S'r_thigh_twist_01_anim'
p496
a(lp497
VtranslateX
p498
aVtranslateY
p499
aVtranslateZ
p500
aVrotateX
p501
aVrotateY
p502
aVrotateZ
p503
aVscaleX
p504
aVscaleY
p505
aVscaleZ
p506
aaF0
aF0
aF0
aF0
aF0
aF0
aF1
aF1
aF1
aa(lp507
S'pinky_metacarpal_ctrl_l'
p508
a(lp509
VrotateX
p510
aVrotateY
p511
aVrotateZ
p512
aaF0
aF3.5389541000000002
aF4.8355690999999998
aa(lp513
S'pinky_metacarpal_ctrl_r'
p514
a(lp515
VrotateX
p516
aVrotateY
p517
aVrotateZ
p518
aaF0
aF2.7762003000000002
aF2.9008531
aa(lp519
S'pinky_finger_fk_ctrl_1_l'
p520
a(lp521
VtranslateX
p522
aVtranslateY
p523
aVtranslateZ
p524
aVrotateX
p525
aVrotateY
p526
aVrotateZ
p527
aVsticky
p528
aaF0
aF0
aF0
aF-7.4539649498283067
aF5.6418443118556549
aF55.898363268972659
aF0
aa(lp529
S'pinky_finger_fk_ctrl_1_r'
p530
a(lp531
VtranslateX
p532
aVtranslateY
p533
aVtranslateZ
p534
aVrotateX
p535
aVrotateY
p536
aVrotateZ
p537
aVsticky
p538
aaF0
aF0
aF0
aF-4.8024070999999999
aF-6.3735576683101458
aF35.216360000000002
aF0
aa(lp539
S'pinky_finger_fk_ctrl_2_l'
p540
a(lp541
VtranslateX
p542
aVtranslateY
p543
aVtranslateZ
p544
aVrotateX
p545
aVrotateY
p546
aVrotateZ
p547
aaF0
aF0
aF0
aF0
aF0
aF4.2894272999999998
aa(lp548
S'pinky_finger_fk_ctrl_2_r'
p549
a(lp550
VtranslateX
p551
aVtranslateY
p552
aVtranslateZ
p553
aVrotateX
p554
aVrotateY
p555
aVrotateZ
p556
aaF0
aF0
aF0
aF0
aF0
aF23.45326
aa(lp557
S'pinky_finger_fk_ctrl_3_l'
p558
a(lp559
VtranslateX
p560
aVtranslateY
p561
aVtranslateZ
p562
aVrotateX
p563
aVrotateY
p564
aVrotateZ
p565
aaF0
aF0
aF0
aF0
aF0
aF20.099551999999999
aa(lp566
S'pinky_finger_fk_ctrl_3_r'
p567
a(lp568
VtranslateX
p569
aVtranslateY
p570
aVtranslateZ
p571
aVrotateX
p572
aVrotateY
p573
aVrotateZ
p574
aaF0
aF0
aF0
aF0
aF0
aF42.281720999999997
aa(lp575
S'ring_metacarpal_ctrl_l'
p576
a(lp577
VrotateX
p578
aVrotateY
p579
aVrotateZ
p580
aaF0
aF1.7422650000000002
aF1.4338305
aa(lp581
S'ring_metacarpal_ctrl_r'
p582
a(lp583
VrotateX
p584
aVrotateY
p585
aVrotateZ
p586
aaF0
aF0.61614413999999995
aF1.4089528
aa(lp587
S'ring_finger_fk_ctrl_1_l'
p588
a(lp589
VtranslateX
p590
aVtranslateY
p591
aVtranslateZ
p592
aVrotateX
p593
aVrotateY
p594
aVrotateZ
p595
aVsticky
p596
aaF0
aF0
aF0
aF-9.9045293000000001
aF2.2886316
aF57.105432999999998
aF0
aa(lp597
S'ring_finger_fk_ctrl_1_r'
p598
a(lp599
VtranslateX
p600
aVtranslateY
p601
aVtranslateZ
p602
aVrotateX
p603
aVrotateY
p604
aVrotateZ
p605
aVsticky
p606
aaF0
aF0
aF0
aF-5.2835292999999997
aF-4.1338093683101444
aF48.08963
aF0
aa(lp607
S'ring_finger_fk_ctrl_2_l'
p608
a(lp609
VtranslateX
p610
aVtranslateY
p611
aVtranslateZ
p612
aVrotateX
p613
aVrotateY
p614
aVrotateZ
p615
aaF0
aF0
aF0
aF0
aF0
aF15.161971123648204
aa(lp616
S'ring_finger_fk_ctrl_2_r'
p617
a(lp618
VtranslateX
p619
aVtranslateY
p620
aVtranslateZ
p621
aVrotateX
p622
aVrotateY
p623
aVrotateZ
p624
aaF0
aF0
aF0
aF0
aF0
aF39.296396999999999
aa(lp625
S'ring_finger_fk_ctrl_3_l'
p626
a(lp627
VtranslateX
p628
aVtranslateY
p629
aVtranslateZ
p630
aVrotateX
p631
aVrotateY
p632
aVrotateZ
p633
aaF0
aF0
aF0
aF0
aF0
aF26.057645000000001
aa(lp634
S'ring_finger_fk_ctrl_3_r'
p635
a(lp636
VtranslateX
p637
aVtranslateY
p638
aVtranslateZ
p639
aVrotateX
p640
aVrotateY
p641
aVrotateZ
p642
aaF0
aF0
aF0
aF0
aF0
aF21.906846000000002
aa(lp643
S'middle_metacarpal_ctrl_l'
p644
a(lp645
VrotateX
p646
aVrotateY
p647
aVrotateZ
p648
aaF0
aF-0.73232286000000002
aF0
aa(lp649
S'middle_metacarpal_ctrl_r'
p650
a(lp651
VrotateX
p652
aVrotateY
p653
aVrotateZ
p654
aaF0
aF-0.92927598000000011
aF0
aa(lp655
S'middle_finger_fk_ctrl_1_l'
p656
a(lp657
VtranslateX
p658
aVtranslateY
p659
aVtranslateZ
p660
aVrotateX
p661
aVrotateY
p662
aVrotateZ
p663
aVsticky
p664
aaF0
aF0
aF0
aF-14.157245
aF1.8607785999999999
aF49.538352000000003
aF0
aa(lp665
S'middle_finger_fk_ctrl_1_r'
p666
a(lp667
VtranslateX
p668
aVtranslateY
p669
aVtranslateZ
p670
aVrotateX
p671
aVrotateY
p672
aVrotateZ
p673
aVsticky
p674
aaF0
aF0
aF0
aF-3.1314118
aF-2.5107479183101447
aF52.134010000000004
aF0
aa(lp675
S'middle_finger_fk_ctrl_2_l'
p676
a(lp677
VtranslateX
p678
aVtranslateY
p679
aVtranslateZ
p680
aVrotateX
p681
aVrotateY
p682
aVrotateZ
p683
aaF0
aF0
aF0
aF0
aF0
aF21.505213999999999
aa(lp684
S'middle_finger_fk_ctrl_2_r'
p685
a(lp686
VtranslateX
p687
aVtranslateY
p688
aVtranslateZ
p689
aVrotateX
p690
aVrotateY
p691
aVrotateZ
p692
aaF0
aF0
aF0
aF0
aF0
aF43.966971999999998
aa(lp693
S'middle_finger_fk_ctrl_3_l'
p694
a(lp695
VtranslateX
p696
aVtranslateY
p697
aVtranslateZ
p698
aVrotateX
p699
aVrotateY
p700
aVrotateZ
p701
aaF0
aF0
aF0
aF0
aF0
aF22.333741
aa(lp702
S'middle_finger_fk_ctrl_3_r'
p703
a(lp704
VtranslateX
p705
aVtranslateY
p706
aVtranslateZ
p707
aVrotateX
p708
aVrotateY
p709
aVrotateZ
p710
aaF0
aF0
aF0
aF0
aF0
aF5.2271605000000001
aa(lp711
S'index_metacarpal_ctrl_l'
p712
a(lp713
VrotateX
p714
aVrotateY
p715
aVrotateZ
p716
aaF0
aF-1.5103438
aF0
aa(lp717
S'index_metacarpal_ctrl_r'
p718
a(lp719
VrotateX
p720
aVrotateY
p721
aVrotateZ
p722
aaF0
aF0
aF4.6799999999999997
aa(lp723
S'index_finger_fk_ctrl_1_l'
p724
a(lp725
VtranslateX
p726
aVtranslateY
p727
aVtranslateZ
p728
aVrotateX
p729
aVrotateY
p730
aVrotateZ
p731
aVsticky
p732
aaF0
aF0
aF0
aF-7.4255246999999995
aF-4.6941683999999997
aF26.932317999999999
aF0
aa(lp733
S'index_finger_fk_ctrl_1_r'
p734
a(lp735
VtranslateX
p736
aVtranslateY
p737
aVtranslateZ
p738
aVrotateX
p739
aVrotateY
p740
aVrotateZ
p741
aVsticky
p742
aaF0
aF0
aF0
aF-0.53210035
aF8.140185140560428
aF-4.9353488032510917
aF0
aa(lp743
S'index_finger_fk_ctrl_2_l'
p744
a(lp745
VtranslateX
p746
aVtranslateY
p747
aVtranslateZ
p748
aVrotateX
p749
aVrotateY
p750
aVrotateZ
p751
aaF0
aF0
aF0
aF0
aF0
aF21.267284
aa(lp752
S'index_finger_fk_ctrl_2_r'
p753
a(lp754
VtranslateX
p755
aVtranslateY
p756
aVtranslateZ
p757
aVrotateX
p758
aVrotateY
p759
aVrotateZ
p760
aaF0
aF0
aF0
aF0
aF0
aF37.150627999999998
aa(lp761
S'index_finger_fk_ctrl_3_l'
p762
a(lp763
VtranslateX
p764
aVtranslateY
p765
aVtranslateZ
p766
aVrotateX
p767
aVrotateY
p768
aVrotateZ
p769
aaF0
aF0
aF0
aF0
aF0
aF36.187334999999997
aa(lp770
S'index_finger_fk_ctrl_3_r'
p771
a(lp772
VtranslateX
p773
aVtranslateY
p774
aVtranslateZ
p775
aVrotateX
p776
aVrotateY
p777
aVrotateZ
p778
aaF0
aF0
aF0
aF0
aF0
aF28.891234000000004
aa(lp779
S'thumb_finger_fk_ctrl_1_l'
p780
a(lp781
VtranslateX
p782
aVtranslateY
p783
aVtranslateZ
p784
aVrotateX
p785
aVrotateY
p786
aVrotateZ
p787
aVsticky
p788
aaF0
aF0
aF0
aF6.3168775000000004
aF-2.4065756999999999
aF11.526527
aF0
aa(lp789
S'thumb_finger_fk_ctrl_1_r'
p790
a(lp791
VtranslateX
p792
aVtranslateY
p793
aVtranslateZ
p794
aVrotateX
p795
aVrotateY
p796
aVrotateZ
p797
aVsticky
p798
aaF0
aF0
aF0
aF15.823610000000002
aF10.217101000000001
aF3.2349573999999999
aF0
aa(lp799
S'thumb_finger_fk_ctrl_2_l'
p800
a(lp801
VtranslateX
p802
aVtranslateY
p803
aVtranslateZ
p804
aVrotateX
p805
aVrotateY
p806
aVrotateZ
p807
aaF0
aF0
aF0
aF5.5974107999999996
aF0
aF-32.525799999999997
aa(lp808
S'thumb_finger_fk_ctrl_2_r'
p809
a(lp810
VtranslateX
p811
aVtranslateY
p812
aVtranslateZ
p813
aVrotateX
p814
aVrotateY
p815
aVrotateZ
p816
aaF0
aF0
aF0
aF0
aF0
aF11.168957000000001
aa(lp817
S'thumb_finger_fk_ctrl_3_l'
p818
a(lp819
VtranslateX
p820
aVtranslateY
p821
aVtranslateZ
p822
aVrotateX
p823
aVrotateY
p824
aVrotateZ
p825
aaF0
aF0
aF0
aF0
aF0
aF22.254515000000001
aa(lp826
S'thumb_finger_fk_ctrl_3_r'
p827
a(lp828
VtranslateX
p829
aVtranslateY
p830
aVtranslateZ
p831
aVrotateX
p832
aVrotateY
p833
aVrotateZ
p834
aaF0
aF0
aF0
aF0
aF0
aF26.214932999999998
aa(lp835
S'index_l_ik_anim'
p836
a(lp837
VtranslateX
p838
aVtranslateY
p839
aVtranslateZ
p840
aVrotateX
p841
aVrotateY
p842
aVrotateZ
p843
aVpoleVectorVis
p844
aaF0
aF0
aF0
aF0
aF0
aF0
aF0
aa(lp845
S'index_r_ik_anim'
p846
a(lp847
VtranslateX
p848
aVtranslateY
p849
aVtranslateZ
p850
aVrotateX
p851
aVrotateY
p852
aVrotateZ
p853
aVpoleVectorVis
p854
aaF0
aF0
aF0
aF0
aF0
aF0
aF0
aa(lp855
S'middle_l_ik_anim'
p856
a(lp857
VtranslateX
p858
aVtranslateY
p859
aVtranslateZ
p860
aVrotateX
p861
aVrotateY
p862
aVrotateZ
p863
aVpoleVectorVis
p864
aaF0
aF0
aF0
aF0
aF0
aF0
aF0
aa(lp865
S'middle_r_ik_anim'
p866
a(lp867
VtranslateX
p868
aVtranslateY
p869
aVtranslateZ
p870
aVrotateX
p871
aVrotateY
p872
aVrotateZ
p873
aVpoleVectorVis
p874
aaF0
aF0
aF0
aF0
aF0
aF0
aF0
aa(lp875
S'ring_l_ik_anim'
p876
a(lp877
VtranslateX
p878
aVtranslateY
p879
aVtranslateZ
p880
aVrotateX
p881
aVrotateY
p882
aVrotateZ
p883
aVpoleVectorVis
p884
aaF0
aF0
aF0
aF0
aF0
aF0
aF0
aa(lp885
S'ring_r_ik_anim'
p886
a(lp887
VtranslateX
p888
aVtranslateY
p889
aVtranslateZ
p890
aVrotateX
p891
aVrotateY
p892
aVrotateZ
p893
aVpoleVectorVis
p894
aaF0
aF0
aF0
aF0
aF0
aF0
aF0
aa(lp895
S'pinky_l_ik_anim'
p896
a(lp897
VtranslateX
p898
aVtranslateY
p899
aVtranslateZ
p900
aVrotateX
p901
aVrotateY
p902
aVrotateZ
p903
aVpoleVectorVis
p904
aaF0
aF0
aF0
aF0
aF0
aF0
aF0
aa(lp905
S'pinky_r_ik_anim'
p906
a(lp907
VtranslateX
p908
aVtranslateY
p909
aVtranslateZ
p910
aVrotateX
p911
aVrotateY
p912
aVrotateZ
p913
aVpoleVectorVis
p914
aaF0
aF0
aF0
aF0
aF0
aF0
aF0
aa(lp915
S'thumb_l_ik_anim'
p916
a(lp917
VtranslateX
p918
aVtranslateY
p919
aVtranslateZ
p920
aVrotateX
p921
aVrotateY
p922
aVrotateZ
p923
aVpoleVectorVis
p924
aaF0
aF0
aF0
aF0
aF0
aF0
aF0
aa(lp925
S'thumb_r_ik_anim'
p926
a(lp927
VtranslateX
p928
aVtranslateY
p929
aVtranslateZ
p930
aVrotateX
p931
aVrotateY
p932
aVrotateZ
p933
aVpoleVectorVis
p934
aaF0
aF0
aF0
aF0
aF0
aF0
aF0
aa(lp935
S'index_l_poleVector'
p936
a(lp937
VtranslateX
p938
aVtranslateY
p939
aVtranslateZ
p940
aVrotateX
p941
aVrotateY
p942
aVrotateZ
p943
aaF0
aF0
aF0
aF0
aF0
aF0
aa(lp944
S'index_r_poleVector'
p945
a(lp946
VtranslateX
p947
aVtranslateY
p948
aVtranslateZ
p949
aVrotateX
p950
aVrotateY
p951
aVrotateZ
p952
aaF0
aF0
aF0
aF0
aF0
aF0
aa(lp953
S'middle_l_poleVector'
p954
a(lp955
VtranslateX
p956
aVtranslateY
p957
aVtranslateZ
p958
aVrotateX
p959
aVrotateY
p960
aVrotateZ
p961
aaF0
aF0
aF0
aF0
aF0
aF0
aa(lp962
S'middle_r_poleVector'
p963
a(lp964
VtranslateX
p965
aVtranslateY
p966
aVtranslateZ
p967
aVrotateX
p968
aVrotateY
p969
aVrotateZ
p970
aaF0
aF0
aF0
aF0
aF0
aF0
aa(lp971
S'ring_l_poleVector'
p972
a(lp973
VtranslateX
p974
aVtranslateY
p975
aVtranslateZ
p976
aVrotateX
p977
aVrotateY
p978
aVrotateZ
p979
aaF0
aF0
aF0
aF0
aF0
aF0
aa(lp980
S'ring_r_poleVector'
p981
a(lp982
VtranslateX
p983
aVtranslateY
p984
aVtranslateZ
p985
aVrotateX
p986
aVrotateY
p987
aVrotateZ
p988
aaF0
aF0
aF0
aF0
aF0
aF0
aa(lp989
S'pinky_l_poleVector'
p990
a(lp991
VtranslateX
p992
aVtranslateY
p993
aVtranslateZ
p994
aVrotateX
p995
aVrotateY
p996
aVrotateZ
p997
aaF0
aF0
aF0
aF0
aF0
aF0
aa(lp998
S'pinky_r_poleVector'
p999
a(lp1000
VtranslateX
p1001
aVtranslateY
p1002
aVtranslateZ
p1003
aVrotateX
p1004
aVrotateY
p1005
aVrotateZ
p1006
aaF0
aF0
aF0
aF0
aF0
aF0
aa(lp1007
S'thumb_l_poleVector'
p1008
a(lp1009
VtranslateX
p1010
aVtranslateY
p1011
aVtranslateZ
p1012
aVrotateX
p1013
aVrotateY
p1014
aVrotateZ
p1015
aaF0
aF0
aF0
aF0
aF0
aF0
aa(lp1016
S'thumb_r_poleVector'
p1017
a(lp1018
VtranslateX
p1019
aVtranslateY
p1020
aVtranslateZ
p1021
aVrotateX
p1022
aVrotateY
p1023
aVrotateZ
p1024
aaF0
aF0
aF0
aF0
aF0
aF0
aa(lp1025
S'l_global_ik_anim'
p1026
a(lp1027
VtranslateX
p1028
aVtranslateY
p1029
aVtranslateZ
p1030
aVrotateX
p1031
aVrotateY
p1032
aVrotateZ
p1033
aaF0
aF0
aF0
aF0
aF0
aF0
aa(lp1034
S'r_global_ik_anim'
p1035
a(lp1036
VtranslateX
p1037
aVtranslateY
p1038
aVtranslateZ
p1039
aVrotateX
p1040
aVrotateY
p1041
aVrotateZ
p1042
aaF0
aF0
aF0
aF0
aF0
aF0
aa(lp1043
S'Rig_Settings'
p1044
a(lp1045
Vspine_ik
p1046
aVspine_fk
p1047
aVlLegMode
p1048
aVlThighTwistAmount
p1049
aVllegTwistCtrlVis
p1050
aVlCalfTwistAmount
p1051
aVlCalfTwist2Amount
p1052
aVrLegMode
p1053
aVrThighTwistAmount
p1054
aVrlegTwistCtrlVis
p1055
aVrCalfTwistAmount
p1056
aVrCalfTwist2Amount
p1057
aVlFkArmOrient
p1058
aVlArmMode
p1059
aVlClavMode
p1060
aVlUpperarmTwistAmount
p1061
aVlUpperarmTwist2Amount
p1062
aVltwistCtrlVis
p1063
aVltwistCtrlVisLower
p1064
aVlForearmTwistAmount
p1065
aVlForearmTwist2Amount
p1066
aVrFkArmOrient
p1067
aVrArmMode
p1068
aVrClavMode
p1069
aVrUpperarmTwistAmount
p1070
aVrUpperarmTwist2Amount
p1071
aVrtwistCtrlVis
p1072
aVrtwistCtrlVisLower
p1073
aVrForearmTwistAmount
p1074
aVrForearmTwist2Amount
p1075
aaF1
aF0
aI1
aF0.29999999999999999
aI00
aF0.75
aF0.5
aI1
aF0.29999999999999999
aI00
aF0.75
aF0.5
aI0
aI1
aI0
aF0.90000000000000002
aF0.59999999999999998
aI00
aI00
aF0.75
aF0.40000000000000002
aI0
aI1
aI0
aF0.90000000000000002
aF0.59999999999999998
aI00
aI00
aF0.75
aF0.5
aa(lp1076
S'calf_l_twist_anim'
p1077
a(lp1078
VtranslateX
p1079
aVtranslateY
p1080
aVtranslateZ
p1081
aVrotateX
p1082
aVrotateY
p1083
aVrotateZ
p1084
aaF0
aF0
aF0
aF0
aF0
aF0
aa(lp1085
S'calf_r_twist_anim'
p1086
a(lp1087
VtranslateX
p1088
aVtranslateY
p1089
aVtranslateZ
p1090
aVrotateX
p1091
aVrotateY
p1092
aVrotateZ
p1093
aaF0
aF0
aF0
aF0
aF0
aF0
aa(lp1094
S'calf_l_twist2_anim'
p1095
a(lp1096
VtranslateX
p1097
aVtranslateY
p1098
aVtranslateZ
p1099
aVrotateX
p1100
aVrotateY
p1101
aVrotateZ
p1102
aaF0
aF0
aF0
aF0
aF0
aF0
aa(lp1103
S'calf_r_twist2_anim'
p1104
a(lp1105
VtranslateX
p1106
aVtranslateY
p1107
aVtranslateZ
p1108
aVrotateX
p1109
aVrotateY
p1110
aVrotateZ
p1111
aaF0
aF0
aF0
aF0
aF0
aF0
aa(lp1112
S'lowerarm_l_twist2_anim'
p1113
a(lp1114
VtranslateX
p1115
aVtranslateY
p1116
aVtranslateZ
p1117
aVrotateX
p1118
aVrotateY
p1119
aVrotateZ
p1120
aaF0
aF0
aF0
aF0
aF0
aF0
aa(lp1121
S'lowerarm_r_twist2_anim'
p1122
a(lp1123
VtranslateX
p1124
aVtranslateY
p1125
aVtranslateZ
p1126
aVrotateX
p1127
aVrotateY
p1128
aVrotateZ
p1129
aaF0
aF0
aF0
aF0
aF0
aF0
aa(lp1130
Vweapon_l_anim
p1131
a(lp1132
VtranslateX
p1133
aVtranslateY
p1134
aVtranslateZ
p1135
aVrotateX
p1136
aVrotateY
p1137
aVrotateZ
p1138
aVscaleX
p1139
aVscaleY
p1140
aVscaleZ
p1141
aaF0
aF0
aF0
aF0
aF0
aF0
aF1
aF1
aF1
aa(lp1142
Vattach_anim
p1143
a(lp1144
VtranslateX
p1145
aVtranslateY
p1146
aVtranslateZ
p1147
aVrotateX
p1148
aVrotateY
p1149
aVrotateZ
p1150
aVscaleX
p1151
aVscaleY
p1152
aVscaleZ
p1153
aaF0
aF0
aF0
aF0
aF0
aF0
aF1
aF1
aF1
aa(lp1154
Vweapon_r_anim
p1155
a(lp1156
VtranslateX
p1157
aVtranslateY
p1158
aVtranslateZ
p1159
aVrotateX
p1160
aVrotateY
p1161
aVrotateZ
p1162
aVscaleX
p1163
aVscaleY
p1164
aVscaleZ
p1165
aaF-1.0732048703094108
aF-0.39801505489092648
aF-9.8611537789702339
aF4.9264041014349793
aF-42.646278970758658
aF174.34317300974641
aF1
aF1
aF1
aa(lp1166
Vattach_anim_space_switcher
p1167
a(lp1168
Vvisibility
p1169
aVtranslateX
p1170
aVtranslateY
p1171
aVtranslateZ
p1172
aVrotateX
p1173
aVrotateY
p1174
aVrotateZ
p1175
aVscaleX
p1176
aVscaleY
p1177
aVscaleZ
p1178
aVspace_world
p1179
aaI01
aF0
aF0
aF0
aF0
aF0
aF0
aF1
aF1
aF1
aF0
aa(lp1180
Vbody_anim_space_switcher
p1181
a(lp1182
Vvisibility
p1183
aVtranslateX
p1184
aVtranslateY
p1185
aVtranslateZ
p1186
aVrotateX
p1187
aVrotateY
p1188
aVrotateZ
p1189
aVscaleX
p1190
aVscaleY
p1191
aVscaleZ
p1192
aVspace_world
p1193
aaI01
aF0
aF0
aF0
aF0
aF0
aF0
aF1
aF1
aF1
aF0
aa(lp1194
Vchest_ik_anim_space_switcher
p1195
a(lp1196
Vvisibility
p1197
aVtranslateX
p1198
aVtranslateY
p1199
aVtranslateZ
p1200
aVrotateX
p1201
aVrotateY
p1202
aVrotateZ
p1203
aVscaleX
p1204
aVscaleY
p1205
aVscaleZ
p1206
aVspace_world
p1207
aVspace_chest_ik_world_aligned
p1208
aaI01
aF0
aF0
aF0
aF0
aF0
aF0
aF1
aF1
aF1
aF0
aF1
aa(lp1209
Vik_elbow_l_anim_space_switcher
p1210
a(lp1211
Vvisibility
p1212
aVtranslateX
p1213
aVtranslateY
p1214
aVtranslateZ
p1215
aVrotateX
p1216
aVrotateY
p1217
aVrotateZ
p1218
aVscaleX
p1219
aVscaleY
p1220
aVscaleZ
p1221
aVspace_world
p1222
aVspace_body_anim
p1223
aVspace_chest_ik_anim
p1224
aaI01
aF0
aF0
aF0
aF0
aF0
aF0
aF1
aF1
aF1
aF0
aF0
aF0
aa(lp1225
Vik_elbow_r_anim_space_switcher
p1226
a(lp1227
Vvisibility
p1228
aVtranslateX
p1229
aVtranslateY
p1230
aVtranslateZ
p1231
aVrotateX
p1232
aVrotateY
p1233
aVrotateZ
p1234
aVscaleX
p1235
aVscaleY
p1236
aVscaleZ
p1237
aVspace_world
p1238
aVspace_body_anim
p1239
aVspace_chest_ik_anim
p1240
aaI01
aF0
aF0
aF0
aF0
aF0
aF0
aF1
aF1
aF1
aF0
aF0
aF0
aa(lp1241
Vik_foot_anim_l_space_switcher
p1242
a(lp1243
Vvisibility
p1244
aVtranslateX
p1245
aVtranslateY
p1246
aVtranslateZ
p1247
aVrotateX
p1248
aVrotateY
p1249
aVrotateZ
p1250
aVscaleX
p1251
aVscaleY
p1252
aVscaleZ
p1253
aVspace_world
p1254
aVspace_body_anim
p1255
aaI01
aF0
aF0
aF0
aF0
aF0
aF0
aF1
aF1
aF1
aF0
aF0
aa(lp1256
Vik_foot_anim_r_space_switcher
p1257
a(lp1258
Vvisibility
p1259
aVtranslateX
p1260
aVtranslateY
p1261
aVtranslateZ
p1262
aVrotateX
p1263
aVrotateY
p1264
aVrotateZ
p1265
aVscaleX
p1266
aVscaleY
p1267
aVscaleZ
p1268
aVspace_world
p1269
aVspace_body_anim
p1270
aaI01
aF0
aF0
aF0
aF0
aF0
aF0
aF1
aF1
aF1
aF0
aF0
aa(lp1271
Vik_wrist_l_anim_space_switcher
p1272
a(lp1273
Vvisibility
p1274
aVtranslateX
p1275
aVtranslateY
p1276
aVtranslateZ
p1277
aVrotateX
p1278
aVrotateY
p1279
aVrotateZ
p1280
aVscaleX
p1281
aVscaleY
p1282
aVscaleZ
p1283
aVspace_world
p1284
aVspace_body_anim
p1285
aVspace_head_fk_anim
p1286
aVspace_chest_ik_anim
p1287
aaI01
aF0
aF0
aF0
aF0
aF0
aF0
aF1
aF1
aF1
aF0
aF0
aF0
aF0
aa(lp1288
Vik_wrist_r_anim_space_switcher
p1289
a(lp1290
Vvisibility
p1291
aVtranslateX
p1292
aVtranslateY
p1293
aVtranslateZ
p1294
aVrotateX
p1295
aVrotateY
p1296
aVrotateZ
p1297
aVscaleX
p1298
aVscaleY
p1299
aVscaleZ
p1300
aVspace_world
p1301
aVspace_body_anim
p1302
aVspace_head_fk_anim
p1303
aVspace_chest_ik_anim
p1304
aaI01
aF0
aF0
aF0
aF0
aF0
aF0
aF1
aF1
aF1
aF0
aF0
aF0
aF0
aa(lp1305
Vl_global_ik_anim_space_switcher
p1306
a(lp1307
Vvisibility
p1308
aVtranslateX
p1309
aVtranslateY
p1310
aVtranslateZ
p1311
aVrotateX
p1312
aVrotateY
p1313
aVrotateZ
p1314
aVscaleX
p1315
aVscaleY
p1316
aVscaleZ
p1317
aVspace_world
p1318
aaI01
aF0
aF0
aF0
aF0
aF0
aF0
aF1
aF1
aF1
aF0
aa(lp1319
Vmaster_anim_space_switcher
p1320
a(lp1321
Vvisibility
p1322
aVtranslateX
p1323
aVtranslateY
p1324
aVtranslateZ
p1325
aVrotateX
p1326
aVrotateY
p1327
aVrotateZ
p1328
aVscaleX
p1329
aVscaleY
p1330
aVscaleZ
p1331
aVspace_world
p1332
aaI01
aF0
aF0
aF0
aF0
aF0
aF0
aF1
aF1
aF1
aF0
aa(lp1333
Vr_global_ik_anim_space_switcher
p1334
a(lp1335
Vvisibility
p1336
aVtranslateX
p1337
aVtranslateY
p1338
aVtranslateZ
p1339
aVrotateX
p1340
aVrotateY
p1341
aVrotateZ
p1342
aVscaleX
p1343
aVscaleY
p1344
aVscaleZ
p1345
aVspace_world
p1346
aaI01
aF0
aF0
aF0
aF0
aF0
aF0
aF1
aF1
aF1
aF0
aa(lp1347
Vspine_01_space_switcher
p1348
a(lp1349
Vvisibility
p1350
aVtranslateX
p1351
aVtranslateY
p1352
aVtranslateZ
p1353
aVrotateX
p1354
aVrotateY
p1355
aVrotateZ
p1356
aVscaleX
p1357
aVscaleY
p1358
aVscaleZ
p1359
aVspace_world
p1360
aaI01
aF0
aF0
aF0
aF0
aF0
aF0
aF1
aF1
aF1
aF0
aa(lp1361
Vweapon_l_anim_space_switcher
p1362
a(lp1363
Vvisibility
p1364
aVtranslateX
p1365
aVtranslateY
p1366
aVtranslateZ
p1367
aVrotateX
p1368
aVrotateY
p1369
aVrotateZ
p1370
aVscaleX
p1371
aVscaleY
p1372
aVscaleZ
p1373
aVspace_world
p1374
aaI01
aF0
aF0
aF0
aF0
aF0
aF0
aF1
aF1
aF1
aF0
aa(lp1375
Vweapon_r_anim_space_switcher
p1376
a(lp1377
Vvisibility
p1378
aVtranslateX
p1379
aVtranslateY
p1380
aVtranslateZ
p1381
aVrotateX
p1382
aVrotateY
p1383
aVrotateZ
p1384
aVscaleX
p1385
aVscaleY
p1386
aVscaleZ
p1387
aVspace_world
p1388
aaI01
aF0
aF0
aF0
aF0
aF0
aF0
aF1
aF1
aF1
aF0
aa.