(lp1
(lp2
S'fk_clavicle_r_anim'
p3
a(lp4
VtranslateX
p5
aVtranslateY
p6
aVtranslateZ
p7
aVrotateX
p8
aVrotateY
p9
aVrotateZ
p10
aaF0
aF0
aF0
aF0
aF-13.047403814712219
aF9.3157024845951995
aa(lp11
S'fk_clavicle_l_anim'
p12
a(lp13
VtranslateX
p14
aVtranslateY
p15
aVtranslateZ
p16
aVrotateX
p17
aVrotateY
p18
aVrotateZ
p19
aaF0
aF0
aF0
aF0.95437963069755505
aF-9.2065042137798052
aF-14.264897191443428
aa(lp20
S'head_fk_anim'
p21
a(lp22
VtranslateX
p23
aVtranslateY
p24
aVtranslateZ
p25
aVrotateX
p26
aVrotateY
p27
aVrotateZ
p28
aVscaleX
p29
aVscaleY
p30
aVscaleZ
p31
aVfkOrientation
p32
aaF0
aF0
aF0
aF-10.579535497294975
aF-5.5181423025907037
aF-10.069287841703755
aF1
aF1
aF1
aI3
aa(lp33
S'neck_01_fk_anim'
p34
a(lp35
VtranslateX
p36
aVtranslateY
p37
aVtranslateZ
p38
aVrotateX
p39
aVrotateY
p40
aVrotateZ
p41
aVscaleX
p42
aVscaleY
p43
aVscaleZ
p44
aVfkOrientation
p45
aaF0
aF0
aF0
aF-34.907668940951147
aF-15.102969672695449
aF-7.3007050474147208
aF1
aF1
aF1
aI2
aa(lp46
S'neck_02_fk_anim'
p47
a(lp48
VtranslateX
p49
aVtranslateY
p50
aVtranslateZ
p51
aVrotateX
p52
aVrotateY
p53
aVrotateZ
p54
aVscaleX
p55
aVscaleY
p56
aVscaleZ
p57
aaF0
aF0
aF0
aF0
aF0
aF0
aF1
aF1
aF1
aa(lp58
S'spine_01_anim'
p59
a(lp60
Vlength
p61
aVtranslateY
p62
aVtranslateZ
p63
aVrotateX
p64
aVrotateY
p65
aVrotateZ
p66
aaF0
aF0
aF0
aF-6.2301735999999996
aF5.2517510999999999
aF-11.625978
aa(lp67
S'spine_02_anim'
p68
a(lp69
Vlength
p70
aVtranslateY
p71
aVtranslateZ
p72
aVrotateX
p73
aVrotateY
p74
aVrotateZ
p75
aVspine_3_Influence
p76
aVspine_1_Influence
p77
aVdriven
p78
aaF0
aF0
aF0
aF0
aF0
aF0
aF0
aF0
aF0
aa(lp79
S'spine_03_anim'
p80
a(lp81
Vlength
p82
aVtranslateY
p83
aVtranslateZ
p84
aVrotateX
p85
aVrotateY
p86
aVrotateZ
p87
aaF0
aF0
aF0
aF-3.3202970999999999
aF-1.3888346
aF-4.3274968999999999
aa(lp88
S'spine_04_anim'
p89
a(lp90
Vlength
p91
aVtranslateY
p92
aVtranslateZ
p93
aVrotateX
p94
aVrotateY
p95
aVrotateZ
p96
aVspine_5_Influence
p97
aVspine_3_Influence
p98
aVdriven
p99
aaF0
aF0
aF0
aF0
aF0
aF0
aF0
aF0
aF0
aa(lp100
S'spine_05_anim'
p101
a(lp102
Vlength
p103
aVtranslateY
p104
aVtranslateZ
p105
aVrotateX
p106
aVrotateY
p107
aVrotateZ
p108
aaF0
aF0
aF0
aF-0.20005475
aF1.5266196999999999
aF-8.2032989999999995
aa(lp109
S'mid_ik_anim'
p110
a(lp111
VtranslateX
p112
aVtranslateY
p113
aVtranslateZ
p114
aVrotateX
p115
aVrotateY
p116
aVrotateZ
p117
aaF0
aF0
aF0
aF0
aF0
aF0
aa(lp118
S'chest_ik_anim'
p119
a(lp120
VtranslateX
p121
aVtranslateY
p122
aVtranslateZ
p123
aVrotateX
p124
aVrotateY
p125
aVrotateZ
p126
aVstretch
p127
aVsquash
p128
aVtwist_amount
p129
aVautoSpine
p130
aVrotationInfluence
p131
aaF0
aF0
aF0
aF-42.587068883136745
aF0.67288075523074409
aF6.9251521771568836
aF1
aF0
aF1
aF1
aF0.5
aa(lp132
S'body_anim'
p133
a(lp134
VtranslateX
p135
aVtranslateY
p136
aVtranslateZ
p137
aVrotateX
p138
aVrotateY
p139
aVrotateZ
p140
aaF-6.4673656065162843
aF0.97436144811475411
aF-0.36960262765918867
aF-30.469527391576491
aF0.77621825684648638
aF4.7618474843989533
aa(lp141
S'hip_anim'
p142
a(lp143
VtranslateX
p144
aVtranslateY
p145
aVtranslateZ
p146
aVrotateX
p147
aVrotateY
p148
aVrotateZ
p149
aVlCalfTwistCtrlVis
p150
aVrCalfTwistCtrlVis
p151
aVautoHips
p152
aaF0
aF0
aF0
aF0
aF-0.29810929899592448
aF5.6942084386412786
aI00
aI00
aF0
aa(lp153
S'clavicle_l_anim'
p154
a(lp155
VtranslateX
p156
aVtranslateY
p157
aVtranslateZ
p158
aVautoShoulders
p159
aaF-0.095483512000000006
aF-3.8706206000000001
aF7.6972798999999998
aF0
aa(lp160
S'clavicle_r_anim'
p161
a(lp162
VtranslateX
p163
aVtranslateY
p164
aVtranslateZ
p165
aVautoShoulders
p166
aaF-0.40437392293661556
aF-1.9324740907310769
aF4.0550890141172022
aF0
aa(lp167
S'fk_arm_l_anim'
p168
a(lp169
VtranslateX
p170
aVtranslateY
p171
aVtranslateZ
p172
aVrotateX
p173
aVrotateY
p174
aVrotateZ
p175
aaF0
aF0
aF0
aF-73.634758000000005
aF-4.4772613000000003
aF-63.361296000000003
aa(lp176
S'fk_arm_r_anim'
p177
a(lp178
VtranslateX
p179
aVtranslateY
p180
aVtranslateZ
p181
aVrotateX
p182
aVrotateY
p183
aVrotateZ
p184
aaF0
aF0
aF0
aF-70.812039999999996
aF17.334921999999999
aF-102.15729
aa(lp185
S'fk_elbow_l_anim'
p186
a(lp187
VtranslateX
p188
aVtranslateY
p189
aVtranslateZ
p190
aVrotateX
p191
aVrotateY
p192
aVrotateZ
p193
aaF0
aF0
aF0
aF2.5485926000000001
aF0.85524082000000001
aF-55.961503
aa(lp194
S'fk_elbow_r_anim'
p195
a(lp196
VtranslateX
p197
aVtranslateY
p198
aVtranslateZ
p199
aVrotateX
p200
aVrotateY
p201
aVrotateZ
p202
aaF0
aF0
aF0
aF-15.472583999999999
aF11.306393999999999
aF255.51965000000001
aa(lp203
S'fk_wrist_l_anim'
p204
a(lp205
VtranslateX
p206
aVtranslateY
p207
aVtranslateZ
p208
aVrotateX
p209
aVrotateY
p210
aVrotateZ
p211
aaF0
aF0
aF0
aF-123.35973000000001
aF-18.918234999999999
aF22.729030999999999
aa(lp212
S'fk_wrist_r_anim'
p213
a(lp214
VtranslateX
p215
aVtranslateY
p216
aVtranslateZ
p217
aVrotateX
p218
aVrotateY
p219
aVrotateZ
p220
aaF0
aF0
aF0
aF-23.083424999999998
aF-50.811577999999997
aF6.9051517000000002
aa(lp221
S'ik_elbow_l_anim'
p222
a(lp223
VtranslateX
p224
aVtranslateY
p225
aVtranslateZ
p226
aaF-30.810397837102009
aF-40.46174547969634
aF-20.799623494025639
aa(lp227
S'ik_elbow_r_anim'
p228
a(lp229
VtranslateX
p230
aVtranslateY
p231
aVtranslateZ
p232
aaF27.385897098088662
aF37.316608369549954
aF-29.703517814592274
aa(lp233
S'ik_wrist_l_anim'
p234
a(lp235
VtranslateX
p236
aVtranslateY
p237
aVtranslateZ
p238
aVrotateX
p239
aVrotateY
p240
aVrotateZ
p241
aVstretch
p242
aVsquash
p243
aVstretchBias
p244
aVside
p245
aVmid_bend
p246
aVmid_swivel
p247
aVtip_pivot
p248
aVtip_swivel
p249
aVspace_heavy_weapon_root_anim
p250
aaF-78.222586624419236
aF-38.645551875798141
aF-29.286124879778797
aF-15.803555440865074
aF20.222128378168083
aF-126.60892562006264
aF0
aF0
aF0
aF0
aF0
aF0
aF0
aF0
aF0
aa(lp251
S'ik_wrist_r_anim'
p252
a(lp253
VtranslateX
p254
aVtranslateY
p255
aVtranslateZ
p256
aVrotateX
p257
aVrotateY
p258
aVrotateZ
p259
aVstretch
p260
aVsquash
p261
aVstretchBias
p262
aVside
p263
aVmid_bend
p264
aVmid_swivel
p265
aVtip_pivot
p266
aVtip_swivel
p267
aVspace_heavy_weapon_root_anim
p268
aaF44.895144187754958
aF19.753240450286171
aF-42.209167233121093
aF-75.617839910011796
aF-31.989803937280843
aF-275.1981704083878
aF0
aF0
aF0
aF0
aF0
aF0
aF0
aF0
aF0
aa(lp269
S'fk_thigh_l_anim'
p270
a(lp271
VrotateX
p272
aVrotateY
p273
aVrotateZ
p274
aaF0.075329803000000001
aF-19.026608
aF44.617207000000001
aa(lp275
S'fk_thigh_r_anim'
p276
a(lp277
VrotateX
p278
aVrotateY
p279
aVrotateZ
p280
aaF-1.9420740999999999
aF-11.519425999999999
aF20.635788000000005
aa(lp281
S'fk_calf_l_anim'
p282
a(lp283
VrotateX
p284
aVrotateY
p285
aVrotateZ
p286
aaF0.40155962000000001
aF-1.4255301
aF-26.105278000000002
aa(lp287
S'fk_calf_r_anim'
p288
a(lp289
VrotateX
p290
aVrotateY
p291
aVrotateZ
p292
aaF0.89050549000000001
aF-1.9518694999999999
aF-39.764927
aa(lp293
S'fk_foot_l_anim'
p294
a(lp295
VrotateX
p296
aVrotateY
p297
aVrotateZ
p298
aaF2.7807702999999999
aF13.956371000000001
aF-10.934742999999999
aa(lp299
S'fk_foot_r_anim'
p300
a(lp301
VrotateX
p302
aVrotateY
p303
aVrotateZ
p304
aaF19.773244999999999
aF16.872174999999999
aF27.68092
aa(lp305
S'fk_ball_l_anim'
p306
a(lp307
VrotateX
p308
aVrotateY
p309
aVrotateZ
p310
aaF2.6347818000000001e-05
aF2.2079776999999999e-05
aF2.4747790999999999e-05
aa(lp311
S'fk_ball_r_anim'
p312
a(lp313
VrotateX
p314
aVrotateY
p315
aVrotateZ
p316
aaF-0.00011698927999999999
aF-0.00010855614000000001
aF7.4199304999999991e-06
aa(lp317
S'ik_foot_anim_l'
p318
a(lp319
VtranslateX
p320
aVtranslateY
p321
aVtranslateZ
p322
aVrotateX
p323
aVrotateY
p324
aVrotateZ
p325
aVknee_twist
p326
aVstretch
p327
aVsquash
p328
aVtoeCtrlVis
p329
aVstretchBias
p330
aaF6.0483743967726085
aF-23.43508678235294
aF-8.9102549996447286e-05
aF0
aF0
aF-5.3927631744796471
aF-8.9000000000000004
aF0
aF0
aI00
aF0
aa(lp331
S'ik_foot_anim_r'
p332
a(lp333
VtranslateX
p334
aVtranslateY
p335
aVtranslateZ
p336
aVrotateX
p337
aVrotateY
p338
aVrotateZ
p339
aVknee_twist
p340
aVstretch
p341
aVsquash
p342
aVtoeCtrlVis
p343
aVstretchBias
p344
aaF1.9271915290364028
aF24.308460940787594
aF2.6387896003552715e-05
aF0.034771793576544294
aF-0.39201498829980724
aF-48.06594754150877
aF50.799999999999997
aF0
aF0
aI00
aF0
aa(lp345
S'heel_ctrl_l'
p346
a(lp347
VrotateX
p348
aVrotateY
p349
aVrotateZ
p350
aVheelPivot
p351
aVballPivot
p352
aaF0
aF0
aF0
aF0
aF0
aa(lp353
S'heel_ctrl_r'
p354
a(lp355
VrotateX
p356
aVrotateY
p357
aVrotateZ
p358
aVheelPivot
p359
aVballPivot
p360
aaF0
aF0
aF0
aF0
aF0
aa(lp361
S'toe_wiggle_ctrl_l'
p362
a(lp363
VrotateX
p364
aVrotateY
p365
aVrotateZ
p366
aaF0
aF0
aF0
aa(lp367
S'toe_wiggle_ctrl_r'
p368
a(lp369
VrotateX
p370
aVrotateY
p371
aVrotateZ
p372
aaF0
aF0
aF0
aa(lp373
S'toe_tip_ctrl_l'
p374
a(lp375
VrotateX
p376
aVrotateY
p377
aVrotateZ
p378
aaF0
aF0
aF0
aa(lp379
S'toe_tip_ctrl_r'
p380
a(lp381
VrotateX
p382
aVrotateY
p383
aVrotateZ
p384
aaF0
aF0
aF0
aa(lp385
S'master_anim'
p386
a(lp387
VtranslateX
p388
aVtranslateY
p389
aVtranslateZ
p390
aVrotateX
p391
aVrotateY
p392
aVrotateZ
p393
aaF0
aF0
aF0
aF0
aF0
aF0
aa(lp394
S'offset_anim'
p395
a(lp396
VtranslateX
p397
aVtranslateY
p398
aVtranslateZ
p399
aVrotateX
p400
aVrotateY
p401
aVrotateZ
p402
aaF0
aF0
aF0
aF0
aF0
aF0
aa(lp403
S'root_anim'
p404
a(lp405
VtranslateX
p406
aVtranslateY
p407
aVtranslateZ
p408
aVrotateX
p409
aVrotateY
p410
aVrotateZ
p411
aaF0
aF0
aF0
aF0
aF0
aF0
aa(lp412
S'upperarm_l_twist_anim'
p413
a(lp414
VtranslateX
p415
aVtranslateY
p416
aVtranslateZ
p417
aVrotateX
p418
aVrotateY
p419
aVrotateZ
p420
aVscaleX
p421
aVscaleY
p422
aVscaleZ
p423
aaF0
aF0
aF0
aF-10
aF0
aF0
aF1
aF1
aF1
aa(lp424
S'upperarm_l_twist_2_anim'
p425
a(lp426
VtranslateX
p427
aVtranslateY
p428
aVtranslateZ
p429
aVrotateX
p430
aVrotateY
p431
aVrotateZ
p432
aVscaleX
p433
aVscaleY
p434
aVscaleZ
p435
aaF0
aF0
aF0
aF-13
aF0
aF0
aF1
aF1
aF1
aa(lp436
S'upperarm_r_twist_anim'
p437
a(lp438
VtranslateX
p439
aVtranslateY
p440
aVtranslateZ
p441
aVrotateX
p442
aVrotateY
p443
aVrotateZ
p444
aVscaleX
p445
aVscaleY
p446
aVscaleZ
p447
aaF0
aF0
aF0
aF0
aF0
aF0
aF1
aF1
aF1
aa(lp448
S'upperarm_r_twist_2_anim'
p449
a(lp450
VtranslateX
p451
aVtranslateY
p452
aVtranslateZ
p453
aVrotateX
p454
aVrotateY
p455
aVrotateZ
p456
aVscaleX
p457
aVscaleY
p458
aVscaleZ
p459
aaF0
aF0
aF0
aF0
aF0
aF0
aF1
aF1
aF1
aa(lp460
S'lowerarm_l_twist_anim'
p461
a(lp462
VtranslateX
p463
aVtranslateY
p464
aVtranslateZ
p465
aVrotateX
p466
aVrotateY
p467
aVrotateZ
p468
aaF0
aF0
aF0
aF0
aF0
aF0
aa(lp469
S'lowerarm_r_twist_anim'
p470
a(lp471
VtranslateX
p472
aVtranslateY
p473
aVtranslateZ
p474
aVrotateX
p475
aVrotateY
p476
aVrotateZ
p477
aaF0
aF0
aF0
aF0
aF0
aF0
aa(lp478
S'l_thigh_twist_01_anim'
p479
a(lp480
VtranslateX
p481
aVtranslateY
p482
aVtranslateZ
p483
aVrotateX
p484
aVrotateY
p485
aVrotateZ
p486
aVscaleX
p487
aVscaleY
p488
aVscaleZ
p489
aaF0
aF0
aF0
aF0
aF0
aF0
aF1
aF1
aF1
aa(lp490
S'r_thigh_twist_01_anim'
p491
a(lp492
VtranslateX
p493
aVtranslateY
p494
aVtranslateZ
p495
aVrotateX
p496
aVrotateY
p497
aVrotateZ
p498
aVscaleX
p499
aVscaleY
p500
aVscaleZ
p501
aaF0
aF0
aF0
aF0
aF0
aF0
aF1
aF1.0000000000000002
aF1
aa(lp502
S'pinky_metacarpal_ctrl_l'
p503
a(lp504
VrotateX
p505
aVrotateY
p506
aVrotateZ
p507
aaF0
aF3.5389541484122424
aF4.8355691008188959
aa(lp508
S'pinky_metacarpal_ctrl_r'
p509
a(lp510
VrotateX
p511
aVrotateY
p512
aVrotateZ
p513
aaF0
aF2.7762002514729747
aF2.9008530718055967
aa(lp514
S'pinky_finger_fk_ctrl_1_l'
p515
a(lp516
VtranslateX
p517
aVtranslateY
p518
aVtranslateZ
p519
aVrotateX
p520
aVrotateY
p521
aVrotateZ
p522
aVsticky
p523
aaF0
aF0
aF0
aF-6.9234077681142931
aF6.282593502499493
aF61.002707392497079
aF0
aa(lp524
S'pinky_finger_fk_ctrl_1_r'
p525
a(lp526
VtranslateX
p527
aVtranslateY
p528
aVtranslateZ
p529
aVrotateX
p530
aVrotateY
p531
aVrotateZ
p532
aVsticky
p533
aaF0
aF0
aF0
aF-4.8024070613302721
aF-4.5774350051321067
aF35.216360000196701
aF0
aa(lp534
S'pinky_finger_fk_ctrl_2_l'
p535
a(lp536
VtranslateX
p537
aVtranslateY
p538
aVtranslateZ
p539
aVrotateX
p540
aVrotateY
p541
aVrotateZ
p542
aaF0
aF0
aF0
aF0
aF0
aF4.2894273200829058
aa(lp543
S'pinky_finger_fk_ctrl_2_r'
p544
a(lp545
VtranslateX
p546
aVtranslateY
p547
aVtranslateZ
p548
aVrotateX
p549
aVrotateY
p550
aVrotateZ
p551
aaF0
aF0
aF0
aF0
aF0
aF23.453260224061243
aa(lp552
S'pinky_finger_fk_ctrl_3_l'
p553
a(lp554
VtranslateX
p555
aVtranslateY
p556
aVtranslateZ
p557
aVrotateX
p558
aVrotateY
p559
aVrotateZ
p560
aaF0
aF0
aF0
aF0
aF0
aF20.099551975938844
aa(lp561
S'pinky_finger_fk_ctrl_3_r'
p562
a(lp563
VtranslateX
p564
aVtranslateY
p565
aVtranslateZ
p566
aVrotateX
p567
aVrotateY
p568
aVrotateZ
p569
aaF0
aF0
aF0
aF0
aF0
aF42.281721184969861
aa(lp570
S'ring_metacarpal_ctrl_l'
p571
a(lp572
VrotateX
p573
aVrotateY
p574
aVrotateZ
p575
aaF0
aF1.7422649760997797
aF1.4338304739964527
aa(lp576
S'ring_metacarpal_ctrl_r'
p577
a(lp578
VrotateX
p579
aVrotateY
p580
aVrotateZ
p581
aaF0
aF0.61614414424117092
aF1.4089528216041891
aa(lp582
S'ring_finger_fk_ctrl_1_l'
p583
a(lp584
VtranslateX
p585
aVtranslateY
p586
aVtranslateZ
p587
aVrotateX
p588
aVrotateY
p589
aVrotateZ
p590
aVsticky
p591
aaF0
aF0
aF0
aF-9.9045292965201615
aF2.2886316411873899
aF57.105433176090699
aF0
aa(lp592
S'ring_finger_fk_ctrl_1_r'
p593
a(lp594
VtranslateX
p595
aVtranslateY
p596
aVtranslateZ
p597
aVrotateX
p598
aVrotateY
p599
aVrotateZ
p600
aVsticky
p601
aaF0
aF0
aF0
aF-5.2835293347073211
aF-2.3376866956943481
aF48.089629729794176
aF0
aa(lp602
S'ring_finger_fk_ctrl_2_l'
p603
a(lp604
VtranslateX
p605
aVtranslateY
p606
aVtranslateZ
p607
aVrotateX
p608
aVrotateY
p609
aVrotateZ
p610
aaF0
aF0
aF0
aF0
aF0
aF20.240983164089478
aa(lp611
S'ring_finger_fk_ctrl_2_r'
p612
a(lp613
VtranslateX
p614
aVtranslateY
p615
aVtranslateZ
p616
aVrotateX
p617
aVrotateY
p618
aVrotateZ
p619
aaF0
aF0
aF0
aF0
aF0
aF39.296396875120493
aa(lp620
S'ring_finger_fk_ctrl_3_l'
p621
a(lp622
VtranslateX
p623
aVtranslateY
p624
aVtranslateZ
p625
aVrotateX
p626
aVrotateY
p627
aVrotateZ
p628
aaF0
aF0
aF0
aF0
aF0
aF26.057644698885003
aa(lp629
S'ring_finger_fk_ctrl_3_r'
p630
a(lp631
VtranslateX
p632
aVtranslateY
p633
aVtranslateZ
p634
aVrotateX
p635
aVrotateY
p636
aVrotateZ
p637
aaF0
aF0
aF0
aF0
aF0
aF21.906845707350424
aa(lp638
S'middle_metacarpal_ctrl_l'
p639
a(lp640
VrotateX
p641
aVrotateY
p642
aVrotateZ
p643
aaF0
aF-0.7323228598744056
aF0
aa(lp644
S'middle_metacarpal_ctrl_r'
p645
a(lp646
VrotateX
p647
aVrotateY
p648
aVrotateZ
p649
aaF0
aF-0.92927598448046211
aF0
aa(lp650
S'middle_finger_fk_ctrl_1_l'
p651
a(lp652
VtranslateX
p653
aVtranslateY
p654
aVtranslateZ
p655
aVrotateX
p656
aVrotateY
p657
aVrotateZ
p658
aVsticky
p659
aaF0
aF0
aF0
aF-14.157245454688681
aF1.8607786220010274
aF49.538352464923761
aF0
aa(lp660
S'middle_finger_fk_ctrl_1_r'
p661
a(lp662
VtranslateX
p663
aVtranslateY
p664
aVtranslateZ
p665
aVrotateX
p666
aVrotateY
p667
aVrotateZ
p668
aVsticky
p669
aaF0
aF0
aF0
aF-3.1314117647728241
aF-0.71462524958006313
aF52.134009619987012
aF0
aa(lp670
S'middle_finger_fk_ctrl_2_l'
p671
a(lp672
VtranslateX
p673
aVtranslateY
p674
aVtranslateZ
p675
aVrotateX
p676
aVrotateY
p677
aVrotateZ
p678
aaF0
aF0
aF0
aF0
aF0
aF21.505213621106783
aa(lp679
S'middle_finger_fk_ctrl_2_r'
p680
a(lp681
VtranslateX
p682
aVtranslateY
p683
aVtranslateZ
p684
aVrotateX
p685
aVrotateY
p686
aVrotateZ
p687
aaF0
aF0
aF0
aF0
aF0
aF43.966971509678636
aa(lp688
S'middle_finger_fk_ctrl_3_l'
p689
a(lp690
VtranslateX
p691
aVtranslateY
p692
aVtranslateZ
p693
aVrotateX
p694
aVrotateY
p695
aVrotateZ
p696
aaF0
aF0
aF0
aF0
aF0
aF22.333741318560847
aa(lp697
S'middle_finger_fk_ctrl_3_r'
p698
a(lp699
VtranslateX
p700
aVtranslateY
p701
aVtranslateZ
p702
aVrotateX
p703
aVrotateY
p704
aVrotateZ
p705
aaF0
aF0
aF0
aF0
aF0
aF5.2271604508307599
aa(lp706
S'index_metacarpal_ctrl_l'
p707
a(lp708
VrotateX
p709
aVrotateY
p710
aVrotateZ
p711
aaF0
aF-1.5103438043896817
aF0
aa(lp712
S'index_metacarpal_ctrl_r'
p713
a(lp714
VrotateX
p715
aVrotateY
p716
aVrotateZ
p717
aaF0
aF0
aF4.6799999921065236
aa(lp718
S'index_finger_fk_ctrl_1_l'
p719
a(lp720
VtranslateX
p721
aVtranslateY
p722
aVtranslateZ
p723
aVrotateX
p724
aVrotateY
p725
aVrotateZ
p726
aVsticky
p727
aaF0
aF0
aF0
aF-7.4255247388714416
aF-4.6941683560261973
aF26.932317819054571
aF0
aa(lp728
S'index_finger_fk_ctrl_1_r'
p729
a(lp730
VtranslateX
p731
aVtranslateY
p732
aVtranslateZ
p733
aVrotateX
p734
aVrotateY
p735
aVrotateZ
p736
aVsticky
p737
aaF0
aF0
aF0
aF-0.53210035440466519
aF10.201521752570402
aF23.741538181711832
aF0
aa(lp738
S'index_finger_fk_ctrl_2_l'
p739
a(lp740
VtranslateX
p741
aVtranslateY
p742
aVtranslateZ
p743
aVrotateX
p744
aVrotateY
p745
aVrotateZ
p746
aaF0
aF0
aF0
aF0
aF0
aF21.267284377074507
aa(lp747
S'index_finger_fk_ctrl_2_r'
p748
a(lp749
VtranslateX
p750
aVtranslateY
p751
aVtranslateZ
p752
aVrotateX
p753
aVrotateY
p754
aVrotateZ
p755
aaF0
aF0
aF0
aF0
aF0
aF37.150628382659519
aa(lp756
S'index_finger_fk_ctrl_3_l'
p757
a(lp758
VtranslateX
p759
aVtranslateY
p760
aVtranslateZ
p761
aVrotateX
p762
aVrotateY
p763
aVrotateZ
p764
aaF0
aF0
aF0
aF0
aF0
aF36.187335429525092
aa(lp765
S'index_finger_fk_ctrl_3_r'
p766
a(lp767
VtranslateX
p768
aVtranslateY
p769
aVtranslateZ
p770
aVrotateX
p771
aVrotateY
p772
aVrotateZ
p773
aaF0
aF0
aF0
aF0
aF0
aF28.891233594446899
aa(lp774
S'thumb_finger_fk_ctrl_1_l'
p775
a(lp776
VtranslateX
p777
aVtranslateY
p778
aVtranslateZ
p779
aVrotateX
p780
aVrotateY
p781
aVrotateZ
p782
aVsticky
p783
aaF0
aF0
aF0
aF6.3168775285444587
aF-2.4065757342184968
aF11.526526901230703
aF0
aa(lp784
S'thumb_finger_fk_ctrl_1_r'
p785
a(lp786
VtranslateX
p787
aVtranslateY
p788
aVtranslateZ
p789
aVrotateX
p790
aVrotateY
p791
aVrotateZ
p792
aVsticky
p793
aaF0
aF0
aF0
aF15.823610277184882
aF10.217100528108325
aF3.234957402054587
aF0
aa(lp794
S'thumb_finger_fk_ctrl_2_l'
p795
a(lp796
VtranslateX
p797
aVtranslateY
p798
aVtranslateZ
p799
aVrotateX
p800
aVrotateY
p801
aVrotateZ
p802
aaF0
aF0
aF0
aF5.5974108112097278
aF0
aF-32.52579965133318
aa(lp803
S'thumb_finger_fk_ctrl_2_r'
p804
a(lp805
VtranslateX
p806
aVtranslateY
p807
aVtranslateZ
p808
aVrotateX
p809
aVrotateY
p810
aVrotateZ
p811
aaF0
aF0
aF0
aF0
aF0
aF11.168956692116234
aa(lp812
S'thumb_finger_fk_ctrl_3_l'
p813
a(lp814
VtranslateX
p815
aVtranslateY
p816
aVtranslateZ
p817
aVrotateX
p818
aVrotateY
p819
aVrotateZ
p820
aaF0
aF0
aF0
aF0
aF0
aF22.254515275662129
aa(lp821
S'thumb_finger_fk_ctrl_3_r'
p822
a(lp823
VtranslateX
p824
aVtranslateY
p825
aVtranslateZ
p826
aVrotateX
p827
aVrotateY
p828
aVrotateZ
p829
aaF0
aF0
aF0
aF0
aF0
aF26.214933394860104
aa(lp830
S'index_l_ik_anim'
p831
a(lp832
VtranslateX
p833
aVtranslateY
p834
aVtranslateZ
p835
aVrotateX
p836
aVrotateY
p837
aVrotateZ
p838
aVpoleVectorVis
p839
aaF0
aF0
aF0
aF0
aF0
aF0
aF0
aa(lp840
S'index_r_ik_anim'
p841
a(lp842
VtranslateX
p843
aVtranslateY
p844
aVtranslateZ
p845
aVrotateX
p846
aVrotateY
p847
aVrotateZ
p848
aVpoleVectorVis
p849
aaF0
aF0
aF0
aF0
aF0
aF0
aF0
aa(lp850
S'middle_l_ik_anim'
p851
a(lp852
VtranslateX
p853
aVtranslateY
p854
aVtranslateZ
p855
aVrotateX
p856
aVrotateY
p857
aVrotateZ
p858
aVpoleVectorVis
p859
aaF0
aF0
aF0
aF0
aF0
aF0
aF0
aa(lp860
S'middle_r_ik_anim'
p861
a(lp862
VtranslateX
p863
aVtranslateY
p864
aVtranslateZ
p865
aVrotateX
p866
aVrotateY
p867
aVrotateZ
p868
aVpoleVectorVis
p869
aaF0
aF0
aF0
aF0
aF0
aF0
aF0
aa(lp870
S'ring_l_ik_anim'
p871
a(lp872
VtranslateX
p873
aVtranslateY
p874
aVtranslateZ
p875
aVrotateX
p876
aVrotateY
p877
aVrotateZ
p878
aVpoleVectorVis
p879
aaF0
aF0
aF0
aF0
aF0
aF0
aF0
aa(lp880
S'ring_r_ik_anim'
p881
a(lp882
VtranslateX
p883
aVtranslateY
p884
aVtranslateZ
p885
aVrotateX
p886
aVrotateY
p887
aVrotateZ
p888
aVpoleVectorVis
p889
aaF0
aF0
aF0
aF0
aF0
aF0
aF0
aa(lp890
S'pinky_l_ik_anim'
p891
a(lp892
VtranslateX
p893
aVtranslateY
p894
aVtranslateZ
p895
aVrotateX
p896
aVrotateY
p897
aVrotateZ
p898
aVpoleVectorVis
p899
aaF0
aF0
aF0
aF0
aF0
aF0
aF0
aa(lp900
S'pinky_r_ik_anim'
p901
a(lp902
VtranslateX
p903
aVtranslateY
p904
aVtranslateZ
p905
aVrotateX
p906
aVrotateY
p907
aVrotateZ
p908
aVpoleVectorVis
p909
aaF0
aF0
aF0
aF0
aF0
aF0
aF0
aa(lp910
S'thumb_l_ik_anim'
p911
a(lp912
VtranslateX
p913
aVtranslateY
p914
aVtranslateZ
p915
aVrotateX
p916
aVrotateY
p917
aVrotateZ
p918
aVpoleVectorVis
p919
aaF0
aF0
aF0
aF0
aF0
aF0
aF0
aa(lp920
S'thumb_r_ik_anim'
p921
a(lp922
VtranslateX
p923
aVtranslateY
p924
aVtranslateZ
p925
aVrotateX
p926
aVrotateY
p927
aVrotateZ
p928
aVpoleVectorVis
p929
aaF0
aF0
aF0
aF0
aF0
aF0
aF0
aa(lp930
S'index_l_poleVector'
p931
a(lp932
VtranslateX
p933
aVtranslateY
p934
aVtranslateZ
p935
aVrotateX
p936
aVrotateY
p937
aVrotateZ
p938
aaF0
aF0
aF0
aF0
aF0
aF0
aa(lp939
S'index_r_poleVector'
p940
a(lp941
VtranslateX
p942
aVtranslateY
p943
aVtranslateZ
p944
aVrotateX
p945
aVrotateY
p946
aVrotateZ
p947
aaF0
aF0
aF0
aF0
aF0
aF0
aa(lp948
S'middle_l_poleVector'
p949
a(lp950
VtranslateX
p951
aVtranslateY
p952
aVtranslateZ
p953
aVrotateX
p954
aVrotateY
p955
aVrotateZ
p956
aaF0
aF0
aF0
aF0
aF0
aF0
aa(lp957
S'middle_r_poleVector'
p958
a(lp959
VtranslateX
p960
aVtranslateY
p961
aVtranslateZ
p962
aVrotateX
p963
aVrotateY
p964
aVrotateZ
p965
aaF0
aF0
aF0
aF0
aF0
aF0
aa(lp966
S'ring_l_poleVector'
p967
a(lp968
VtranslateX
p969
aVtranslateY
p970
aVtranslateZ
p971
aVrotateX
p972
aVrotateY
p973
aVrotateZ
p974
aaF0
aF0
aF0
aF0
aF0
aF0
aa(lp975
S'ring_r_poleVector'
p976
a(lp977
VtranslateX
p978
aVtranslateY
p979
aVtranslateZ
p980
aVrotateX
p981
aVrotateY
p982
aVrotateZ
p983
aaF0
aF0
aF0
aF0
aF0
aF0
aa(lp984
S'pinky_l_poleVector'
p985
a(lp986
VtranslateX
p987
aVtranslateY
p988
aVtranslateZ
p989
aVrotateX
p990
aVrotateY
p991
aVrotateZ
p992
aaF0
aF0
aF0
aF0
aF0
aF0
aa(lp993
S'pinky_r_poleVector'
p994
a(lp995
VtranslateX
p996
aVtranslateY
p997
aVtranslateZ
p998
aVrotateX
p999
aVrotateY
p1000
aVrotateZ
p1001
aaF0
aF0
aF0
aF0
aF0
aF0
aa(lp1002
S'thumb_l_poleVector'
p1003
a(lp1004
VtranslateX
p1005
aVtranslateY
p1006
aVtranslateZ
p1007
aVrotateX
p1008
aVrotateY
p1009
aVrotateZ
p1010
aaF0
aF0
aF0
aF0
aF0
aF0
aa(lp1011
S'thumb_r_poleVector'
p1012
a(lp1013
VtranslateX
p1014
aVtranslateY
p1015
aVtranslateZ
p1016
aVrotateX
p1017
aVrotateY
p1018
aVrotateZ
p1019
aaF0
aF0
aF0
aF0
aF0
aF0
aa(lp1020
S'l_global_ik_anim'
p1021
a(lp1022
VtranslateX
p1023
aVtranslateY
p1024
aVtranslateZ
p1025
aVrotateX
p1026
aVrotateY
p1027
aVrotateZ
p1028
aaF0
aF0
aF0
aF0
aF0
aF0
aa(lp1029
S'r_global_ik_anim'
p1030
a(lp1031
VtranslateX
p1032
aVtranslateY
p1033
aVtranslateZ
p1034
aVrotateX
p1035
aVrotateY
p1036
aVrotateZ
p1037
aaF0
aF0
aF0
aF0
aF0
aF0
aa(lp1038
S'Rig_Settings'
p1039
a(lp1040
Vspine_ik
p1041
aVspine_fk
p1042
aVlLegMode
p1043
aVlThighTwistAmount
p1044
aVllegTwistCtrlVis
p1045
aVlCalfTwistAmount
p1046
aVlCalfTwist2Amount
p1047
aVrLegMode
p1048
aVrThighTwistAmount
p1049
aVrlegTwistCtrlVis
p1050
aVrCalfTwistAmount
p1051
aVrCalfTwist2Amount
p1052
aVlFkArmOrient
p1053
aVlArmMode
p1054
aVlClavMode
p1055
aVlUpperarmTwistAmount
p1056
aVlUpperarmTwist2Amount
p1057
aVltwistCtrlVis
p1058
aVltwistCtrlVisLower
p1059
aVlForearmTwistAmount
p1060
aVlForearmTwist2Amount
p1061
aVrFkArmOrient
p1062
aVrArmMode
p1063
aVrClavMode
p1064
aVrUpperarmTwistAmount
p1065
aVrUpperarmTwist2Amount
p1066
aVrtwistCtrlVis
p1067
aVrtwistCtrlVisLower
p1068
aVrForearmTwistAmount
p1069
aVrForearmTwist2Amount
p1070
aaF1
aF0
aI1
aF0.29999999999999999
aI00
aF0.75
aF0.5
aI1
aF0.29999999999999999
aI00
aF0.75
aF0.5
aI0
aI1
aI0
aF0.90000000000000002
aF0.59999999999999998
aI00
aI00
aF0.75
aF0.40000000000000002
aI0
aI1
aI0
aF0.90000000000000002
aF0.59999999999999998
aI00
aI00
aF0.75
aF0.5
aa(lp1071
S'calf_l_twist_anim'
p1072
a(lp1073
VtranslateX
p1074
aVtranslateY
p1075
aVtranslateZ
p1076
aVrotateX
p1077
aVrotateY
p1078
aVrotateZ
p1079
aaF0
aF0
aF0
aF0
aF0
aF0
aa(lp1080
S'calf_r_twist_anim'
p1081
a(lp1082
VtranslateX
p1083
aVtranslateY
p1084
aVtranslateZ
p1085
aVrotateX
p1086
aVrotateY
p1087
aVrotateZ
p1088
aaF0
aF0
aF0
aF0
aF0
aF0
aa(lp1089
S'calf_l_twist2_anim'
p1090
a(lp1091
VtranslateX
p1092
aVtranslateY
p1093
aVtranslateZ
p1094
aVrotateX
p1095
aVrotateY
p1096
aVrotateZ
p1097
aaF0
aF0
aF0
aF0
aF0
aF0
aa(lp1098
S'calf_r_twist2_anim'
p1099
a(lp1100
VtranslateX
p1101
aVtranslateY
p1102
aVtranslateZ
p1103
aVrotateX
p1104
aVrotateY
p1105
aVrotateZ
p1106
aaF0
aF0
aF0
aF0
aF0
aF0
aa(lp1107
S'lowerarm_l_twist2_anim'
p1108
a(lp1109
VtranslateX
p1110
aVtranslateY
p1111
aVtranslateZ
p1112
aVrotateX
p1113
aVrotateY
p1114
aVrotateZ
p1115
aaF0
aF0
aF0
aF0
aF0
aF0
aa(lp1116
S'lowerarm_r_twist2_anim'
p1117
a(lp1118
VtranslateX
p1119
aVtranslateY
p1120
aVtranslateZ
p1121
aVrotateX
p1122
aVrotateY
p1123
aVrotateZ
p1124
aaF0
aF0
aF0
aF0
aF0
aF0
aa(lp1125
Vweapon_l_anim
p1126
a(lp1127
VtranslateX
p1128
aVtranslateY
p1129
aVtranslateZ
p1130
aVrotateX
p1131
aVrotateY
p1132
aVrotateZ
p1133
aVscaleX
p1134
aVscaleY
p1135
aVscaleZ
p1136
aaF0
aF0
aF0
aF0
aF0
aF0
aF1
aF1
aF1
aa(lp1137
Vattach_anim
p1138
a(lp1139
VtranslateX
p1140
aVtranslateY
p1141
aVtranslateZ
p1142
aVrotateX
p1143
aVrotateY
p1144
aVrotateZ
p1145
aVscaleX
p1146
aVscaleY
p1147
aVscaleZ
p1148
aaF0
aF0
aF0
aF0
aF0
aF0
aF1
aF1
aF1
aa(lp1149
Vweapon_r_anim
p1150
a(lp1151
VtranslateX
p1152
aVtranslateY
p1153
aVtranslateZ
p1154
aVrotateX
p1155
aVrotateY
p1156
aVrotateZ
p1157
aVscaleX
p1158
aVscaleY
p1159
aVscaleZ
p1160
aaF0.40663319102667117
aF1.3372286872046431
aF-7.5555272421387514
aF2.8054161951126311
aF-32.252529021404548
aF177.14459034313748
aF1
aF1
aF1
aa(lp1161
Vattach_anim_space_switcher
p1162
a(lp1163
Vvisibility
p1164
aVtranslateX
p1165
aVtranslateY
p1166
aVtranslateZ
p1167
aVrotateX
p1168
aVrotateY
p1169
aVrotateZ
p1170
aVscaleX
p1171
aVscaleY
p1172
aVscaleZ
p1173
aVspace_world
p1174
aaI01
aF0
aF0
aF0
aF0
aF0
aF0
aF1
aF1
aF1
aF0
aa(lp1175
Vbody_anim_space_switcher
p1176
a(lp1177
Vvisibility
p1178
aVtranslateX
p1179
aVtranslateY
p1180
aVtranslateZ
p1181
aVrotateX
p1182
aVrotateY
p1183
aVrotateZ
p1184
aVscaleX
p1185
aVscaleY
p1186
aVscaleZ
p1187
aVspace_world
p1188
aaI01
aF0
aF0
aF0
aF0
aF0
aF0
aF1
aF1
aF1
aF0
aa(lp1189
Vchest_ik_anim_space_switcher
p1190
a(lp1191
Vvisibility
p1192
aVtranslateX
p1193
aVtranslateY
p1194
aVtranslateZ
p1195
aVrotateX
p1196
aVrotateY
p1197
aVrotateZ
p1198
aVscaleX
p1199
aVscaleY
p1200
aVscaleZ
p1201
aVspace_world
p1202
aVspace_chest_ik_world_aligned
p1203
aaI01
aF0
aF0
aF0
aF0
aF0
aF0
aF1
aF1
aF1
aF0
aF1
aa(lp1204
Vik_elbow_l_anim_space_switcher
p1205
a(lp1206
Vvisibility
p1207
aVtranslateX
p1208
aVtranslateY
p1209
aVtranslateZ
p1210
aVrotateX
p1211
aVrotateY
p1212
aVrotateZ
p1213
aVscaleX
p1214
aVscaleY
p1215
aVscaleZ
p1216
aVspace_world
p1217
aVspace_body_anim
p1218
aVspace_chest_ik_anim
p1219
aaI01
aF0
aF0
aF0
aF0
aF0
aF0
aF1
aF1
aF1
aF0
aF0
aF0
aa(lp1220
Vik_elbow_r_anim_space_switcher
p1221
a(lp1222
Vvisibility
p1223
aVtranslateX
p1224
aVtranslateY
p1225
aVtranslateZ
p1226
aVrotateX
p1227
aVrotateY
p1228
aVrotateZ
p1229
aVscaleX
p1230
aVscaleY
p1231
aVscaleZ
p1232
aVspace_world
p1233
aVspace_body_anim
p1234
aVspace_chest_ik_anim
p1235
aaI01
aF0
aF0
aF0
aF0
aF0
aF0
aF1
aF1
aF1
aF0
aF0
aF0
aa(lp1236
Vik_foot_anim_l_space_switcher
p1237
a(lp1238
Vvisibility
p1239
aVtranslateX
p1240
aVtranslateY
p1241
aVtranslateZ
p1242
aVrotateX
p1243
aVrotateY
p1244
aVrotateZ
p1245
aVscaleX
p1246
aVscaleY
p1247
aVscaleZ
p1248
aVspace_world
p1249
aVspace_body_anim
p1250
aaI01
aF0
aF0
aF0
aF0
aF0
aF0
aF1
aF1
aF1
aF0
aF0
aa(lp1251
Vik_foot_anim_r_space_switcher
p1252
a(lp1253
Vvisibility
p1254
aVtranslateX
p1255
aVtranslateY
p1256
aVtranslateZ
p1257
aVrotateX
p1258
aVrotateY
p1259
aVrotateZ
p1260
aVscaleX
p1261
aVscaleY
p1262
aVscaleZ
p1263
aVspace_world
p1264
aVspace_body_anim
p1265
aaI01
aF0
aF0
aF0
aF0
aF0
aF0
aF1
aF1
aF1
aF0
aF0
aa(lp1266
Vik_wrist_l_anim_space_switcher
p1267
a(lp1268
Vvisibility
p1269
aVtranslateX
p1270
aVtranslateY
p1271
aVtranslateZ
p1272
aVrotateX
p1273
aVrotateY
p1274
aVrotateZ
p1275
aVscaleX
p1276
aVscaleY
p1277
aVscaleZ
p1278
aVspace_world
p1279
aVspace_body_anim
p1280
aVspace_head_fk_anim
p1281
aVspace_chest_ik_anim
p1282
aaI01
aF0
aF0
aF0
aF0
aF0
aF0
aF1
aF1
aF1
aF0
aF0
aF0
aF0
aa(lp1283
Vik_wrist_r_anim_space_switcher
p1284
a(lp1285
Vvisibility
p1286
aVtranslateX
p1287
aVtranslateY
p1288
aVtranslateZ
p1289
aVrotateX
p1290
aVrotateY
p1291
aVrotateZ
p1292
aVscaleX
p1293
aVscaleY
p1294
aVscaleZ
p1295
aVspace_world
p1296
aVspace_body_anim
p1297
aVspace_head_fk_anim
p1298
aVspace_chest_ik_anim
p1299
aaI01
aF0
aF0
aF0
aF0
aF0
aF0
aF1
aF1
aF1
aF0
aF0
aF0
aF0
aa(lp1300
Vl_global_ik_anim_space_switcher
p1301
a(lp1302
Vvisibility
p1303
aVtranslateX
p1304
aVtranslateY
p1305
aVtranslateZ
p1306
aVrotateX
p1307
aVrotateY
p1308
aVrotateZ
p1309
aVscaleX
p1310
aVscaleY
p1311
aVscaleZ
p1312
aVspace_world
p1313
aaI01
aF0
aF0
aF0
aF0
aF0
aF0
aF1
aF1
aF1
aF0
aa(lp1314
Vmaster_anim_space_switcher
p1315
a(lp1316
Vvisibility
p1317
aVtranslateX
p1318
aVtranslateY
p1319
aVtranslateZ
p1320
aVrotateX
p1321
aVrotateY
p1322
aVrotateZ
p1323
aVscaleX
p1324
aVscaleY
p1325
aVscaleZ
p1326
aVspace_world
p1327
aaI01
aF0
aF0
aF0
aF0
aF0
aF0
aF1
aF1
aF1
aF0
aa(lp1328
Vr_global_ik_anim_space_switcher
p1329
a(lp1330
Vvisibility
p1331
aVtranslateX
p1332
aVtranslateY
p1333
aVtranslateZ
p1334
aVrotateX
p1335
aVrotateY
p1336
aVrotateZ
p1337
aVscaleX
p1338
aVscaleY
p1339
aVscaleZ
p1340
aVspace_world
p1341
aaI01
aF0
aF0
aF0
aF0
aF0
aF0
aF1
aF1
aF1
aF0
aa(lp1342
Vspine_01_space_switcher
p1343
a(lp1344
Vvisibility
p1345
aVtranslateX
p1346
aVtranslateY
p1347
aVtranslateZ
p1348
aVrotateX
p1349
aVrotateY
p1350
aVrotateZ
p1351
aVscaleX
p1352
aVscaleY
p1353
aVscaleZ
p1354
aVspace_world
p1355
aaI01
aF0
aF0
aF0
aF0
aF0
aF0
aF1
aF1
aF1
aF0
aa(lp1356
Vweapon_l_anim_space_switcher
p1357
a(lp1358
Vvisibility
p1359
aVtranslateX
p1360
aVtranslateY
p1361
aVtranslateZ
p1362
aVrotateX
p1363
aVrotateY
p1364
aVrotateZ
p1365
aVscaleX
p1366
aVscaleY
p1367
aVscaleZ
p1368
aVspace_world
p1369
aaI01
aF0
aF0
aF0
aF0
aF0
aF0
aF1
aF1
aF1
aF0
aa(lp1370
Vweapon_r_anim_space_switcher
p1371
a(lp1372
Vvisibility
p1373
aVtranslateX
p1374
aVtranslateY
p1375
aVtranslateZ
p1376
aVrotateX
p1377
aVrotateY
p1378
aVrotateZ
p1379
aVscaleX
p1380
aVscaleY
p1381
aVscaleZ
p1382
aVspace_world
p1383
aaI01
aF0
aF0
aF0
aF0
aF0
aF0
aF1
aF1
aF1
aF0
aa.