(lp1
(lp2
S'fk_clavicle_r_anim'
p3
a(lp4
VtranslateX
p5
aVtranslateY
p6
aVtranslateZ
p7
aVrotateX
p8
aVrotateY
p9
aVrotateZ
p10
aaF0
aF0
aF0
aF0.73229792892089463
aF3.4249314608360519
aF2.5494340918398479
aa(lp11
S'fk_clavicle_l_anim'
p12
a(lp13
VtranslateX
p14
aVtranslateY
p15
aVtranslateZ
p16
aVrotateX
p17
aVrotateY
p18
aVrotateZ
p19
aaF0
aF0
aF0
aF-0.18391094967620522
aF2.7096410294173556
aF1.5032932239734669
aa(lp20
S'head_fk_anim'
p21
a(lp22
VtranslateX
p23
aVtranslateY
p24
aVtranslateZ
p25
aVrotateX
p26
aVrotateY
p27
aVrotateZ
p28
aVscaleX
p29
aVscaleY
p30
aVscaleZ
p31
aVfkOrientation
p32
aaF0
aF0
aF0
aF0
aF-0.78167500069133278
aF-6.8542518271329405
aF1
aF1
aF1
aI3
aa(lp33
S'neck_01_fk_anim'
p34
a(lp35
VtranslateX
p36
aVtranslateY
p37
aVtranslateZ
p38
aVrotateX
p39
aVrotateY
p40
aVrotateZ
p41
aVscaleX
p42
aVscaleY
p43
aVscaleZ
p44
aVfkOrientation
p45
aaF0
aF0
aF0
aF-9.3585801039999996
aF-3.0369328960000002
aF-1.5695253309999999
aF1
aF1
aF1
aI2
aa(lp46
S'neck_02_fk_anim'
p47
a(lp48
VtranslateX
p49
aVtranslateY
p50
aVtranslateZ
p51
aVrotateX
p52
aVrotateY
p53
aVrotateZ
p54
aVscaleX
p55
aVscaleY
p56
aVscaleZ
p57
aaF0
aF0
aF0
aF0
aF0
aF0
aF1
aF1
aF1
aa(lp58
S'spine_01_anim'
p59
a(lp60
Vlength
p61
aVtranslateY
p62
aVtranslateZ
p63
aVrotateX
p64
aVrotateY
p65
aVrotateZ
p66
aaF0
aF0
aF0
aF-6.2301735999999996
aF5.2517510999999999
aF-11.625978
aa(lp67
S'spine_02_anim'
p68
a(lp69
Vlength
p70
aVtranslateY
p71
aVtranslateZ
p72
aVrotateX
p73
aVrotateY
p74
aVrotateZ
p75
aVspine_3_Influence
p76
aVspine_1_Influence
p77
aVdriven
p78
aaF0
aF0
aF0
aF0
aF0
aF0
aF0
aF0
aF0
aa(lp79
S'spine_03_anim'
p80
a(lp81
Vlength
p82
aVtranslateY
p83
aVtranslateZ
p84
aVrotateX
p85
aVrotateY
p86
aVrotateZ
p87
aaF0
aF0
aF0
aF-3.3202970999999999
aF-1.3888346
aF-4.3274968999999999
aa(lp88
S'spine_04_anim'
p89
a(lp90
Vlength
p91
aVtranslateY
p92
aVtranslateZ
p93
aVrotateX
p94
aVrotateY
p95
aVrotateZ
p96
aVspine_5_Influence
p97
aVspine_3_Influence
p98
aVdriven
p99
aaF0
aF0
aF0
aF0
aF0
aF0
aF0
aF0
aF0
aa(lp100
S'spine_05_anim'
p101
a(lp102
Vlength
p103
aVtranslateY
p104
aVtranslateZ
p105
aVrotateX
p106
aVrotateY
p107
aVrotateZ
p108
aaF0
aF0
aF0
aF-0.20005475
aF1.5266196999999999
aF-8.2032989999999995
aa(lp109
S'mid_ik_anim'
p110
a(lp111
VtranslateX
p112
aVtranslateY
p113
aVtranslateZ
p114
aVrotateX
p115
aVrotateY
p116
aVrotateZ
p117
aaF0
aF0
aF0
aF0
aF0
aF0
aa(lp118
S'chest_ik_anim'
p119
a(lp120
VtranslateX
p121
aVtranslateY
p122
aVtranslateZ
p123
aVrotateX
p124
aVrotateY
p125
aVrotateZ
p126
aVstretch
p127
aVsquash
p128
aVtwist_amount
p129
aVautoSpine
p130
aVrotationInfluence
p131
aaF0
aF0
aF0
aF-23.506602814510391
aF0
aF-9
aF1
aF0
aF1
aF1
aF0.5
aa(lp132
S'body_anim'
p133
a(lp134
VtranslateX
p135
aVtranslateY
p136
aVtranslateZ
p137
aVrotateX
p138
aVrotateY
p139
aVrotateZ
p140
aaF-4.0389512969947541
aF-0.58530706489756845
aF-2.1300822013092642
aF-15.530372072897556
aF0
aF-5.9793654416676896
aa(lp141
S'hip_anim'
p142
a(lp143
VtranslateX
p144
aVtranslateY
p145
aVtranslateZ
p146
aVrotateX
p147
aVrotateY
p148
aVrotateZ
p149
aVlCalfTwistCtrlVis
p150
aVrCalfTwistCtrlVis
p151
aVautoHips
p152
aaF0
aF0
aF0
aF0
aF0
aF8.512886905193227
aI00
aI00
aF0
aa(lp153
S'clavicle_l_anim'
p154
a(lp155
VtranslateX
p156
aVtranslateY
p157
aVtranslateZ
p158
aVautoShoulders
p159
aaF-0.095483512000000006
aF-3.8706206000000001
aF7.6972798999999998
aF0
aa(lp160
S'clavicle_r_anim'
p161
a(lp162
VtranslateX
p163
aVtranslateY
p164
aVtranslateZ
p165
aVautoShoulders
p166
aaF-0.40437392293661556
aF-1.9324740907310769
aF4.0550890141172022
aF0
aa(lp167
S'fk_arm_l_anim'
p168
a(lp169
VtranslateX
p170
aVtranslateY
p171
aVtranslateZ
p172
aVrotateX
p173
aVrotateY
p174
aVrotateZ
p175
aaF0
aF0
aF0
aF37.023245185771167
aF63.029430303504796
aF-9.1805710967691478
aa(lp176
S'fk_arm_r_anim'
p177
a(lp178
VtranslateX
p179
aVtranslateY
p180
aVtranslateZ
p181
aVrotateX
p182
aVrotateY
p183
aVrotateZ
p184
aaF0
aF0
aF0
aF23.253813442937307
aF63.792690844015297
aF20.10542209490162
aa(lp185
S'fk_elbow_l_anim'
p186
a(lp187
VtranslateX
p188
aVtranslateY
p189
aVtranslateZ
p190
aVrotateX
p191
aVrotateY
p192
aVrotateZ
p193
aaF0
aF0
aF0
aF0
aF1.3338661430003803e-06
aF-34.796026561259261
aa(lp194
S'fk_elbow_r_anim'
p195
a(lp196
VtranslateX
p197
aVtranslateY
p198
aVtranslateZ
p199
aVrotateX
p200
aVrotateY
p201
aVrotateZ
p202
aaF0
aF0
aF0
aF-1.0677940199169084e-05
aF-0.00011219116589673305
aF-32.943584507582457
aa(lp203
S'fk_wrist_l_anim'
p204
a(lp205
VtranslateX
p206
aVtranslateY
p207
aVtranslateZ
p208
aVrotateX
p209
aVrotateY
p210
aVrotateZ
p211
aaF0
aF0
aF0
aF-5.8634867791720087
aF-1.6886533663420389
aF-0.30348476907312094
aa(lp212
S'fk_wrist_r_anim'
p213
a(lp214
VtranslateX
p215
aVtranslateY
p216
aVtranslateZ
p217
aVrotateX
p218
aVrotateY
p219
aVrotateZ
p220
aaF0
aF0
aF0
aF-3.5878447717120618
aF4.0606272159503023
aF-2.0528239568134916
aa(lp221
S'ik_elbow_l_anim'
p222
a(lp223
VtranslateX
p224
aVtranslateY
p225
aVtranslateZ
p226
aaF-4.3990806527227306
aF-17.510946103053627
aF-28.306531293453773
aa(lp227
S'ik_elbow_r_anim'
p228
a(lp229
VtranslateX
p230
aVtranslateY
p231
aVtranslateZ
p232
aaF31.932104337022903
aF8.7545273984255925
aF-28.62095493171239
aa(lp233
S'ik_wrist_l_anim'
p234
a(lp235
VtranslateX
p236
aVtranslateY
p237
aVtranslateZ
p238
aVrotateX
p239
aVrotateY
p240
aVrotateZ
p241
aVstretch
p242
aVsquash
p243
aVstretchBias
p244
aVside
p245
aVmid_bend
p246
aVmid_swivel
p247
aVtip_pivot
p248
aVtip_swivel
p249
aaF-33.631962619908052
aF-22.78593282203871
aF-45.634911933155138
aF138.99114256709476
aF116.77186094206135
aF92.455703959297338
aF0
aF0
aF0
aF0
aF0
aF0
aF0
aF0
aa(lp250
S'ik_wrist_r_anim'
p251
a(lp252
VtranslateX
p253
aVtranslateY
p254
aVtranslateZ
p255
aVrotateX
p256
aVrotateY
p257
aVrotateZ
p258
aVstretch
p259
aVsquash
p260
aVstretchBias
p261
aVside
p262
aVmid_bend
p263
aVmid_swivel
p264
aVtip_pivot
p265
aVtip_swivel
p266
aaF40.127470235429605
aF9.7367898796177563
aF-46.554207490786524
aF-45.39443304428513
aF-60.922956854807843
aF24.831658008544526
aF0
aF0
aF0
aF0
aF0
aF0
aF0
aF0
aa(lp267
S'fk_thigh_l_anim'
p268
a(lp269
VrotateX
p270
aVrotateY
p271
aVrotateZ
p272
aaF0.075329803000000001
aF-19.026608
aF44.617207000000001
aa(lp273
S'fk_thigh_r_anim'
p274
a(lp275
VrotateX
p276
aVrotateY
p277
aVrotateZ
p278
aaF-1.9420740999999999
aF-11.519425999999999
aF20.635788000000005
aa(lp279
S'fk_calf_l_anim'
p280
a(lp281
VrotateX
p282
aVrotateY
p283
aVrotateZ
p284
aaF0.40155962000000001
aF-1.4255301
aF-26.105278000000002
aa(lp285
S'fk_calf_r_anim'
p286
a(lp287
VrotateX
p288
aVrotateY
p289
aVrotateZ
p290
aaF0.89050549000000001
aF-1.9518694999999999
aF-39.764927
aa(lp291
S'fk_foot_l_anim'
p292
a(lp293
VrotateX
p294
aVrotateY
p295
aVrotateZ
p296
aaF2.7807702999999999
aF13.956371000000001
aF-10.934742999999999
aa(lp297
S'fk_foot_r_anim'
p298
a(lp299
VrotateX
p300
aVrotateY
p301
aVrotateZ
p302
aaF19.773244999999999
aF16.872174999999999
aF27.68092
aa(lp303
S'fk_ball_l_anim'
p304
a(lp305
VrotateX
p306
aVrotateY
p307
aVrotateZ
p308
aaF2.6347818000000001e-05
aF2.2079776999999999e-05
aF2.4747790999999999e-05
aa(lp309
S'fk_ball_r_anim'
p310
a(lp311
VrotateX
p312
aVrotateY
p313
aVrotateZ
p314
aaF-0.00011698927999999999
aF-0.00010855614000000001
aF7.4199304999999991e-06
aa(lp315
S'ik_foot_anim_l'
p316
a(lp317
VtranslateX
p318
aVtranslateY
p319
aVtranslateZ
p320
aVrotateX
p321
aVrotateY
p322
aVrotateZ
p323
aVknee_twist
p324
aVstretch
p325
aVsquash
p326
aVtoeCtrlVis
p327
aVstretchBias
p328
aaF6.5092399992074359
aF-24.021372346024386
aF-8.910255e-05
aF0
aF0
aF-5.3927631739999997
aF-8.9000000000000004
aF0
aF0
aI00
aF0
aa(lp329
S'ik_foot_anim_r'
p330
a(lp331
VtranslateX
p332
aVtranslateY
p333
aVtranslateZ
p334
aVrotateX
p335
aVrotateY
p336
aVrotateZ
p337
aVknee_twist
p338
aVstretch
p339
aVsquash
p340
aVtoeCtrlVis
p341
aVstretchBias
p342
aaF0.79190871665634788
aF17.327251852746361
aF2.6387896003552715e-05
aF0
aF0
aF-41.454130222290644
aF38.799999999999997
aF0
aF0
aI00
aF0
aa(lp343
S'heel_ctrl_l'
p344
a(lp345
VrotateX
p346
aVrotateY
p347
aVrotateZ
p348
aVheelPivot
p349
aVballPivot
p350
aaF0
aF0
aF0
aF0
aF0
aa(lp351
S'heel_ctrl_r'
p352
a(lp353
VrotateX
p354
aVrotateY
p355
aVrotateZ
p356
aVheelPivot
p357
aVballPivot
p358
aaF0
aF0
aF0
aF0
aF0
aa(lp359
S'toe_wiggle_ctrl_l'
p360
a(lp361
VrotateX
p362
aVrotateY
p363
aVrotateZ
p364
aaF0
aF0
aF0
aa(lp365
S'toe_wiggle_ctrl_r'
p366
a(lp367
VrotateX
p368
aVrotateY
p369
aVrotateZ
p370
aaF0
aF0
aF0
aa(lp371
S'toe_tip_ctrl_l'
p372
a(lp373
VrotateX
p374
aVrotateY
p375
aVrotateZ
p376
aaF0
aF0
aF0
aa(lp377
S'toe_tip_ctrl_r'
p378
a(lp379
VrotateX
p380
aVrotateY
p381
aVrotateZ
p382
aaF0
aF0
aF0
aa(lp383
S'master_anim'
p384
a(lp385
VtranslateX
p386
aVtranslateY
p387
aVtranslateZ
p388
aVrotateX
p389
aVrotateY
p390
aVrotateZ
p391
aaF0
aF0
aF0
aF0
aF0
aF0
aa(lp392
S'offset_anim'
p393
a(lp394
VtranslateX
p395
aVtranslateY
p396
aVtranslateZ
p397
aVrotateX
p398
aVrotateY
p399
aVrotateZ
p400
aaF0
aF0
aF0
aF0
aF0
aF0
aa(lp401
S'root_anim'
p402
a(lp403
VtranslateX
p404
aVtranslateY
p405
aVtranslateZ
p406
aVrotateX
p407
aVrotateY
p408
aVrotateZ
p409
aaF0
aF0
aF0
aF0
aF0
aF0
aa(lp410
S'upperarm_l_twist_anim'
p411
a(lp412
VtranslateX
p413
aVtranslateY
p414
aVtranslateZ
p415
aVrotateX
p416
aVrotateY
p417
aVrotateZ
p418
aVscaleX
p419
aVscaleY
p420
aVscaleZ
p421
aaF0
aF0
aF0
aF0
aF0
aF0
aF1
aF1
aF1
aa(lp422
S'upperarm_l_twist_2_anim'
p423
a(lp424
VtranslateX
p425
aVtranslateY
p426
aVtranslateZ
p427
aVrotateX
p428
aVrotateY
p429
aVrotateZ
p430
aVscaleX
p431
aVscaleY
p432
aVscaleZ
p433
aaF0
aF0
aF0
aF0
aF0
aF0
aF1
aF1
aF1
aa(lp434
S'upperarm_r_twist_anim'
p435
a(lp436
VtranslateX
p437
aVtranslateY
p438
aVtranslateZ
p439
aVrotateX
p440
aVrotateY
p441
aVrotateZ
p442
aVscaleX
p443
aVscaleY
p444
aVscaleZ
p445
aaF0
aF0
aF0
aF0
aF0
aF0
aF1
aF1
aF1
aa(lp446
S'upperarm_r_twist_2_anim'
p447
a(lp448
VtranslateX
p449
aVtranslateY
p450
aVtranslateZ
p451
aVrotateX
p452
aVrotateY
p453
aVrotateZ
p454
aVscaleX
p455
aVscaleY
p456
aVscaleZ
p457
aaF0
aF0
aF0
aF0
aF0
aF0
aF1
aF1
aF1
aa(lp458
S'lowerarm_l_twist_anim'
p459
a(lp460
VtranslateX
p461
aVtranslateY
p462
aVtranslateZ
p463
aVrotateX
p464
aVrotateY
p465
aVrotateZ
p466
aaF0
aF0
aF0
aF0
aF0
aF0
aa(lp467
S'lowerarm_r_twist_anim'
p468
a(lp469
VtranslateX
p470
aVtranslateY
p471
aVtranslateZ
p472
aVrotateX
p473
aVrotateY
p474
aVrotateZ
p475
aaF0
aF0
aF0
aF0
aF0
aF0
aa(lp476
S'l_thigh_twist_01_anim'
p477
a(lp478
VtranslateX
p479
aVtranslateY
p480
aVtranslateZ
p481
aVrotateX
p482
aVrotateY
p483
aVrotateZ
p484
aVscaleX
p485
aVscaleY
p486
aVscaleZ
p487
aaF0
aF0
aF0
aF0
aF0
aF0
aF1
aF1
aF1
aa(lp488
S'r_thigh_twist_01_anim'
p489
a(lp490
VtranslateX
p491
aVtranslateY
p492
aVtranslateZ
p493
aVrotateX
p494
aVrotateY
p495
aVrotateZ
p496
aVscaleX
p497
aVscaleY
p498
aVscaleZ
p499
aaF0
aF0
aF0
aF0
aF0
aF0
aF1
aF1.0000000000000002
aF1
aa(lp500
S'pinky_metacarpal_ctrl_l'
p501
a(lp502
VrotateX
p503
aVrotateY
p504
aVrotateZ
p505
aaF0
aF0
aF0
aa(lp506
S'pinky_metacarpal_ctrl_r'
p507
a(lp508
VrotateX
p509
aVrotateY
p510
aVrotateZ
p511
aaF0
aF2.7762002514729747
aF2.9008530718055967
aa(lp512
S'pinky_finger_fk_ctrl_1_l'
p513
a(lp514
VtranslateX
p515
aVtranslateY
p516
aVtranslateZ
p517
aVrotateX
p518
aVrotateY
p519
aVrotateZ
p520
aVsticky
p521
aaF0
aF0
aF0
aF0
aF0
aF6.1118978008265907
aF0
aa(lp522
S'pinky_finger_fk_ctrl_1_r'
p523
a(lp524
VtranslateX
p525
aVtranslateY
p526
aVtranslateZ
p527
aVrotateX
p528
aVrotateY
p529
aVrotateZ
p530
aVsticky
p531
aaF0
aF0
aF0
aF-3.5368733311841005
aF-0.96868765679540769
aF35.061544511535374
aF0
aa(lp532
S'pinky_finger_fk_ctrl_2_l'
p533
a(lp534
VtranslateX
p535
aVtranslateY
p536
aVtranslateZ
p537
aVrotateX
p538
aVrotateY
p539
aVrotateZ
p540
aaF0
aF0
aF0
aF0
aF0
aF6.1118978008265907
aa(lp541
S'pinky_finger_fk_ctrl_2_r'
p542
a(lp543
VtranslateX
p544
aVtranslateY
p545
aVtranslateZ
p546
aVrotateX
p547
aVrotateY
p548
aVrotateZ
p549
aaF0
aF0
aF0
aF0
aF0
aF29.142804002787386
aa(lp550
S'pinky_finger_fk_ctrl_3_l'
p551
a(lp552
VtranslateX
p553
aVtranslateY
p554
aVtranslateZ
p555
aVrotateX
p556
aVrotateY
p557
aVrotateZ
p558
aaF0
aF0
aF0
aF0
aF0
aF6.1118978008265907
aa(lp559
S'pinky_finger_fk_ctrl_3_r'
p560
a(lp561
VtranslateX
p562
aVtranslateY
p563
aVtranslateZ
p564
aVrotateX
p565
aVrotateY
p566
aVrotateZ
p567
aaF0
aF0
aF0
aF0
aF0
aF40.931187350846663
aa(lp568
S'ring_metacarpal_ctrl_l'
p569
a(lp570
VrotateX
p571
aVrotateY
p572
aVrotateZ
p573
aaF0
aF0
aF0
aa(lp574
S'ring_metacarpal_ctrl_r'
p575
a(lp576
VrotateX
p577
aVrotateY
p578
aVrotateZ
p579
aaF0
aF0.61614414424117092
aF1.4089528216041891
aa(lp580
S'ring_finger_fk_ctrl_1_l'
p581
a(lp582
VtranslateX
p583
aVtranslateY
p584
aVtranslateZ
p585
aVrotateX
p586
aVrotateY
p587
aVrotateZ
p588
aVsticky
p589
aaF0
aF0
aF0
aF0
aF0
aF3.7544514153186062
aF0
aa(lp590
S'ring_finger_fk_ctrl_1_r'
p591
a(lp592
VtranslateX
p593
aVtranslateY
p594
aVtranslateZ
p595
aVrotateX
p596
aVrotateY
p597
aVrotateZ
p598
aVsticky
p599
aaF0
aF0
aF0
aF-4.805829366694252
aF-2.6537500517277457
aF33.612121318668926
aF0
aa(lp600
S'ring_finger_fk_ctrl_2_l'
p601
a(lp602
VtranslateX
p603
aVtranslateY
p604
aVtranslateZ
p605
aVrotateX
p606
aVrotateY
p607
aVrotateZ
p608
aaF0
aF0
aF0
aF0
aF0
aF3.7544514153186062
aa(lp609
S'ring_finger_fk_ctrl_2_r'
p610
a(lp611
VtranslateX
p612
aVtranslateY
p613
aVtranslateZ
p614
aVrotateX
p615
aVrotateY
p616
aVrotateZ
p617
aaF0
aF0
aF0
aF0
aF0
aF48.465930771290246
aa(lp618
S'ring_finger_fk_ctrl_3_l'
p619
a(lp620
VtranslateX
p621
aVtranslateY
p622
aVtranslateZ
p623
aVrotateX
p624
aVrotateY
p625
aVrotateZ
p626
aaF0
aF0
aF0
aF0
aF0
aF3.7544514153186062
aa(lp627
S'ring_finger_fk_ctrl_3_r'
p628
a(lp629
VtranslateX
p630
aVtranslateY
p631
aVtranslateZ
p632
aVrotateX
p633
aVrotateY
p634
aVrotateZ
p635
aaF0
aF0
aF0
aF0
aF0
aF24.426845184345154
aa(lp636
S'middle_metacarpal_ctrl_l'
p637
a(lp638
VrotateX
p639
aVrotateY
p640
aVrotateZ
p641
aaF0
aF0
aF0
aa(lp642
S'middle_metacarpal_ctrl_r'
p643
a(lp644
VrotateX
p645
aVrotateY
p646
aVrotateZ
p647
aaF0
aF-0.92927598448046211
aF0
aa(lp648
S'middle_finger_fk_ctrl_1_l'
p649
a(lp650
VtranslateX
p651
aVtranslateY
p652
aVtranslateZ
p653
aVrotateX
p654
aVrotateY
p655
aVrotateZ
p656
aVsticky
p657
aaF0
aF0
aF0
aF0
aF0
aF0
aF0
aa(lp658
S'middle_finger_fk_ctrl_1_r'
p659
a(lp660
VtranslateX
p661
aVtranslateY
p662
aVtranslateZ
p663
aVrotateX
p664
aVrotateY
p665
aVrotateZ
p666
aVsticky
p667
aaF0
aF0
aF0
aF-2.5504344833688561
aF-2.6537500517277457
aF33.612121318668926
aF0
aa(lp668
S'middle_finger_fk_ctrl_2_l'
p669
a(lp670
VtranslateX
p671
aVtranslateY
p672
aVtranslateZ
p673
aVrotateX
p674
aVrotateY
p675
aVrotateZ
p676
aaF0
aF0
aF0
aF0
aF0
aF0
aa(lp677
S'middle_finger_fk_ctrl_2_r'
p678
a(lp679
VtranslateX
p680
aVtranslateY
p681
aVtranslateZ
p682
aVrotateX
p683
aVrotateY
p684
aVrotateZ
p685
aaF0
aF0
aF0
aF0
aF0
aF41.62513041794179
aa(lp686
S'middle_finger_fk_ctrl_3_l'
p687
a(lp688
VtranslateX
p689
aVtranslateY
p690
aVtranslateZ
p691
aVrotateX
p692
aVrotateY
p693
aVrotateZ
p694
aaF0
aF0
aF0
aF0
aF0
aF0
aa(lp695
S'middle_finger_fk_ctrl_3_r'
p696
a(lp697
VtranslateX
p698
aVtranslateY
p699
aVtranslateZ
p700
aVrotateX
p701
aVrotateY
p702
aVrotateZ
p703
aaF0
aF0
aF0
aF0
aF0
aF21.397857908536764
aa(lp704
S'index_metacarpal_ctrl_l'
p705
a(lp706
VrotateX
p707
aVrotateY
p708
aVrotateZ
p709
aaF0
aF0
aF0
aa(lp710
S'index_metacarpal_ctrl_r'
p711
a(lp712
VrotateX
p713
aVrotateY
p714
aVrotateZ
p715
aaF0
aF0
aF3.9103862939154728
aa(lp716
S'index_finger_fk_ctrl_1_l'
p717
a(lp718
VtranslateX
p719
aVtranslateY
p720
aVtranslateZ
p721
aVrotateX
p722
aVrotateY
p723
aVrotateZ
p724
aVsticky
p725
aaF0
aF0
aF0
aF0
aF0
aF0
aF0
aa(lp726
S'index_finger_fk_ctrl_1_r'
p727
a(lp728
VtranslateX
p729
aVtranslateY
p730
aVtranslateZ
p731
aVrotateX
p732
aVrotateY
p733
aVrotateZ
p734
aVsticky
p735
aaF0
aF0
aF0
aF1.1992240897506454
aF3.3495038705700204
aF-8.2771419264189348
aF0
aa(lp736
S'index_finger_fk_ctrl_2_l'
p737
a(lp738
VtranslateX
p739
aVtranslateY
p740
aVtranslateZ
p741
aVrotateX
p742
aVrotateY
p743
aVrotateZ
p744
aaF0
aF0
aF0
aF0
aF0
aF0
aa(lp745
S'index_finger_fk_ctrl_2_r'
p746
a(lp747
VtranslateX
p748
aVtranslateY
p749
aVtranslateZ
p750
aVrotateX
p751
aVrotateY
p752
aVrotateZ
p753
aaF0
aF0
aF0
aF0
aF0
aF-7.1482224148319782
aa(lp754
S'index_finger_fk_ctrl_3_l'
p755
a(lp756
VtranslateX
p757
aVtranslateY
p758
aVtranslateZ
p759
aVrotateX
p760
aVrotateY
p761
aVrotateZ
p762
aaF0
aF0
aF0
aF0
aF0
aF0
aa(lp763
S'index_finger_fk_ctrl_3_r'
p764
a(lp765
VtranslateX
p766
aVtranslateY
p767
aVtranslateZ
p768
aVrotateX
p769
aVrotateY
p770
aVrotateZ
p771
aaF0
aF0
aF0
aF0
aF0
aF24.439440389582163
aa(lp772
S'thumb_finger_fk_ctrl_1_l'
p773
a(lp774
VtranslateX
p775
aVtranslateY
p776
aVtranslateZ
p777
aVrotateX
p778
aVrotateY
p779
aVrotateZ
p780
aVsticky
p781
aaF0
aF0
aF0
aF3.7611207895460042
aF-3.6731314039540042
aF8.415421805713498
aF0
aa(lp782
S'thumb_finger_fk_ctrl_1_r'
p783
a(lp784
VtranslateX
p785
aVtranslateY
p786
aVtranslateZ
p787
aVrotateX
p788
aVrotateY
p789
aVrotateZ
p790
aVsticky
p791
aaF0
aF0
aF0
aF18.66717919405616
aF-2.7397560186801284
aF10.752229483856986
aF0
aa(lp792
S'thumb_finger_fk_ctrl_2_l'
p793
a(lp794
VtranslateX
p795
aVtranslateY
p796
aVtranslateZ
p797
aVrotateX
p798
aVrotateY
p799
aVrotateZ
p800
aaF0
aF0
aF0
aF0
aF0
aF-3.5419318752379838
aa(lp801
S'thumb_finger_fk_ctrl_2_r'
p802
a(lp803
VtranslateX
p804
aVtranslateY
p805
aVtranslateZ
p806
aVrotateX
p807
aVrotateY
p808
aVrotateZ
p809
aaF0
aF0
aF0
aF0
aF0
aF-12.68204817673878
aa(lp810
S'thumb_finger_fk_ctrl_3_l'
p811
a(lp812
VtranslateX
p813
aVtranslateY
p814
aVtranslateZ
p815
aVrotateX
p816
aVrotateY
p817
aVrotateZ
p818
aaF0
aF0
aF0
aF0
aF0
aF0
aa(lp819
S'thumb_finger_fk_ctrl_3_r'
p820
a(lp821
VtranslateX
p822
aVtranslateY
p823
aVtranslateZ
p824
aVrotateX
p825
aVrotateY
p826
aVrotateZ
p827
aaF0
aF0
aF0
aF0
aF0
aF26.214933394860104
aa(lp828
S'index_l_ik_anim'
p829
a(lp830
VtranslateX
p831
aVtranslateY
p832
aVtranslateZ
p833
aVrotateX
p834
aVrotateY
p835
aVrotateZ
p836
aVpoleVectorVis
p837
aaF0
aF0
aF0
aF0
aF0
aF0
aF0
aa(lp838
S'index_r_ik_anim'
p839
a(lp840
VtranslateX
p841
aVtranslateY
p842
aVtranslateZ
p843
aVrotateX
p844
aVrotateY
p845
aVrotateZ
p846
aVpoleVectorVis
p847
aaF0
aF0
aF0
aF0
aF0
aF0
aF0
aa(lp848
S'middle_l_ik_anim'
p849
a(lp850
VtranslateX
p851
aVtranslateY
p852
aVtranslateZ
p853
aVrotateX
p854
aVrotateY
p855
aVrotateZ
p856
aVpoleVectorVis
p857
aaF0
aF0
aF0
aF0
aF0
aF0
aF0
aa(lp858
S'middle_r_ik_anim'
p859
a(lp860
VtranslateX
p861
aVtranslateY
p862
aVtranslateZ
p863
aVrotateX
p864
aVrotateY
p865
aVrotateZ
p866
aVpoleVectorVis
p867
aaF0
aF0
aF0
aF0
aF0
aF0
aF0
aa(lp868
S'ring_l_ik_anim'
p869
a(lp870
VtranslateX
p871
aVtranslateY
p872
aVtranslateZ
p873
aVrotateX
p874
aVrotateY
p875
aVrotateZ
p876
aVpoleVectorVis
p877
aaF0
aF0
aF0
aF0
aF0
aF0
aF0
aa(lp878
S'ring_r_ik_anim'
p879
a(lp880
VtranslateX
p881
aVtranslateY
p882
aVtranslateZ
p883
aVrotateX
p884
aVrotateY
p885
aVrotateZ
p886
aVpoleVectorVis
p887
aaF0
aF0
aF0
aF0
aF0
aF0
aF0
aa(lp888
S'pinky_l_ik_anim'
p889
a(lp890
VtranslateX
p891
aVtranslateY
p892
aVtranslateZ
p893
aVrotateX
p894
aVrotateY
p895
aVrotateZ
p896
aVpoleVectorVis
p897
aaF0
aF0
aF0
aF0
aF0
aF0
aF0
aa(lp898
S'pinky_r_ik_anim'
p899
a(lp900
VtranslateX
p901
aVtranslateY
p902
aVtranslateZ
p903
aVrotateX
p904
aVrotateY
p905
aVrotateZ
p906
aVpoleVectorVis
p907
aaF0
aF0
aF0
aF0
aF0
aF0
aF0
aa(lp908
S'thumb_l_ik_anim'
p909
a(lp910
VtranslateX
p911
aVtranslateY
p912
aVtranslateZ
p913
aVrotateX
p914
aVrotateY
p915
aVrotateZ
p916
aVpoleVectorVis
p917
aaF0
aF0
aF0
aF0
aF0
aF0
aF0
aa(lp918
S'thumb_r_ik_anim'
p919
a(lp920
VtranslateX
p921
aVtranslateY
p922
aVtranslateZ
p923
aVrotateX
p924
aVrotateY
p925
aVrotateZ
p926
aVpoleVectorVis
p927
aaF0
aF0
aF0
aF0
aF0
aF0
aF0
aa(lp928
S'index_l_poleVector'
p929
a(lp930
VtranslateX
p931
aVtranslateY
p932
aVtranslateZ
p933
aVrotateX
p934
aVrotateY
p935
aVrotateZ
p936
aaF0
aF0
aF0
aF0
aF0
aF0
aa(lp937
S'index_r_poleVector'
p938
a(lp939
VtranslateX
p940
aVtranslateY
p941
aVtranslateZ
p942
aVrotateX
p943
aVrotateY
p944
aVrotateZ
p945
aaF0
aF0
aF0
aF0
aF0
aF0
aa(lp946
S'middle_l_poleVector'
p947
a(lp948
VtranslateX
p949
aVtranslateY
p950
aVtranslateZ
p951
aVrotateX
p952
aVrotateY
p953
aVrotateZ
p954
aaF0
aF0
aF0
aF0
aF0
aF0
aa(lp955
S'middle_r_poleVector'
p956
a(lp957
VtranslateX
p958
aVtranslateY
p959
aVtranslateZ
p960
aVrotateX
p961
aVrotateY
p962
aVrotateZ
p963
aaF0
aF0
aF0
aF0
aF0
aF0
aa(lp964
S'ring_l_poleVector'
p965
a(lp966
VtranslateX
p967
aVtranslateY
p968
aVtranslateZ
p969
aVrotateX
p970
aVrotateY
p971
aVrotateZ
p972
aaF0
aF0
aF0
aF0
aF0
aF0
aa(lp973
S'ring_r_poleVector'
p974
a(lp975
VtranslateX
p976
aVtranslateY
p977
aVtranslateZ
p978
aVrotateX
p979
aVrotateY
p980
aVrotateZ
p981
aaF0
aF0
aF0
aF0
aF0
aF0
aa(lp982
S'pinky_l_poleVector'
p983
a(lp984
VtranslateX
p985
aVtranslateY
p986
aVtranslateZ
p987
aVrotateX
p988
aVrotateY
p989
aVrotateZ
p990
aaF0
aF0
aF0
aF0
aF0
aF0
aa(lp991
S'pinky_r_poleVector'
p992
a(lp993
VtranslateX
p994
aVtranslateY
p995
aVtranslateZ
p996
aVrotateX
p997
aVrotateY
p998
aVrotateZ
p999
aaF0
aF0
aF0
aF0
aF0
aF0
aa(lp1000
S'thumb_l_poleVector'
p1001
a(lp1002
VtranslateX
p1003
aVtranslateY
p1004
aVtranslateZ
p1005
aVrotateX
p1006
aVrotateY
p1007
aVrotateZ
p1008
aaF0
aF0
aF0
aF0
aF0
aF0
aa(lp1009
S'thumb_r_poleVector'
p1010
a(lp1011
VtranslateX
p1012
aVtranslateY
p1013
aVtranslateZ
p1014
aVrotateX
p1015
aVrotateY
p1016
aVrotateZ
p1017
aaF0
aF0
aF0
aF0
aF0
aF0
aa(lp1018
S'l_global_ik_anim'
p1019
a(lp1020
VtranslateX
p1021
aVtranslateY
p1022
aVtranslateZ
p1023
aVrotateX
p1024
aVrotateY
p1025
aVrotateZ
p1026
aaF0
aF0
aF0
aF0
aF0
aF0
aa(lp1027
S'r_global_ik_anim'
p1028
a(lp1029
VtranslateX
p1030
aVtranslateY
p1031
aVtranslateZ
p1032
aVrotateX
p1033
aVrotateY
p1034
aVrotateZ
p1035
aaF0
aF0
aF0
aF0
aF0
aF0
aa(lp1036
S'Rig_Settings'
p1037
a(lp1038
Vspine_ik
p1039
aVspine_fk
p1040
aVlLegMode
p1041
aVlThighTwistAmount
p1042
aVllegTwistCtrlVis
p1043
aVlCalfTwistAmount
p1044
aVllegTwistCtrlVisCalf
p1045
aVlCalfTwist2Amount
p1046
aVrLegMode
p1047
aVrThighTwistAmount
p1048
aVrlegTwistCtrlVis
p1049
aVrCalfTwistAmount
p1050
aVrlegTwistCtrlVisCalf
p1051
aVrCalfTwist2Amount
p1052
aVlFkArmOrient
p1053
aVlArmMode
p1054
aVlClavMode
p1055
aVlUpperarmTwistAmount
p1056
aVlUpperarmTwist2Amount
p1057
aVltwistCtrlVis
p1058
aVltwistCtrlVisLower
p1059
aVlForearmTwistAmount
p1060
aVlForearmTwist2Amount
p1061
aVrFkArmOrient
p1062
aVrArmMode
p1063
aVrClavMode
p1064
aVrUpperarmTwistAmount
p1065
aVrUpperarmTwist2Amount
p1066
aVrtwistCtrlVis
p1067
aVrtwistCtrlVisLower
p1068
aVrForearmTwistAmount
p1069
aVrForearmTwist2Amount
p1070
aaF1
aF0
aI1
aF0.29999999999999999
aI00
aF0.75
aI00
aF0.5
aI1
aF0.29999999999999999
aI00
aF0.75
aI00
aF0.5
aI2
aI1
aI0
aF0.90000000000000002
aF0.59999999999999998
aI00
aI00
aF0.75
aF0.40000000000000002
aI2
aI1
aI0
aF0.90000000000000002
aF0.59999999999999998
aI00
aI00
aF0.75
aF0.5
aa(lp1071
S'calf_l_twist_anim'
p1072
a(lp1073
VtranslateX
p1074
aVtranslateY
p1075
aVtranslateZ
p1076
aVrotateX
p1077
aVrotateY
p1078
aVrotateZ
p1079
aaF0
aF0
aF0
aF0
aF0
aF0
aa(lp1080
S'calf_r_twist_anim'
p1081
a(lp1082
VtranslateX
p1083
aVtranslateY
p1084
aVtranslateZ
p1085
aVrotateX
p1086
aVrotateY
p1087
aVrotateZ
p1088
aaF0
aF0
aF0
aF0
aF0
aF0
aa(lp1089
S'calf_l_twist2_anim'
p1090
a(lp1091
VtranslateX
p1092
aVtranslateY
p1093
aVtranslateZ
p1094
aVrotateX
p1095
aVrotateY
p1096
aVrotateZ
p1097
aaF0
aF0
aF0
aF0
aF0
aF0
aa(lp1098
S'calf_r_twist2_anim'
p1099
a(lp1100
VtranslateX
p1101
aVtranslateY
p1102
aVtranslateZ
p1103
aVrotateX
p1104
aVrotateY
p1105
aVrotateZ
p1106
aaF0
aF0
aF0
aF0
aF0
aF0
aa(lp1107
S'lowerarm_l_twist2_anim'
p1108
a(lp1109
VtranslateX
p1110
aVtranslateY
p1111
aVtranslateZ
p1112
aVrotateX
p1113
aVrotateY
p1114
aVrotateZ
p1115
aaF0
aF0
aF0
aF0
aF0
aF0
aa(lp1116
S'lowerarm_r_twist2_anim'
p1117
a(lp1118
VtranslateX
p1119
aVtranslateY
p1120
aVtranslateZ
p1121
aVrotateX
p1122
aVrotateY
p1123
aVrotateZ
p1124
aaF0
aF0
aF0
aF0
aF0
aF0
aa(lp1125
Vweapon_l_anim
p1126
a(lp1127
VtranslateX
p1128
aVtranslateY
p1129
aVtranslateZ
p1130
aVrotateX
p1131
aVrotateY
p1132
aVrotateZ
p1133
aVscaleX
p1134
aVscaleY
p1135
aVscaleZ
p1136
aaF0
aF0
aF0
aF0
aF0
aF0
aF1
aF1
aF1
aa(lp1137
Vattach_anim
p1138
a(lp1139
VtranslateX
p1140
aVtranslateY
p1141
aVtranslateZ
p1142
aVrotateX
p1143
aVrotateY
p1144
aVrotateZ
p1145
aVscaleX
p1146
aVscaleY
p1147
aVscaleZ
p1148
aaF0
aF0
aF0
aF0
aF0
aF0
aF1
aF1
aF1
aa(lp1149
Vweapon_r_anim
p1150
a(lp1151
VtranslateX
p1152
aVtranslateY
p1153
aVtranslateZ
p1154
aVrotateX
p1155
aVrotateY
p1156
aVrotateZ
p1157
aVscaleX
p1158
aVscaleY
p1159
aVscaleZ
p1160
aaF1.802175083029816
aF3.631304076287126
aF-0.58196934972725956
aF9.2668135407928496
aF2.454216378310464
aF-171.39900361623768
aF1
aF1
aF1
aa(lp1161
Vattach_anim_space_switcher
p1162
a(lp1163
Vvisibility
p1164
aVtranslateX
p1165
aVtranslateY
p1166
aVtranslateZ
p1167
aVrotateX
p1168
aVrotateY
p1169
aVrotateZ
p1170
aVscaleX
p1171
aVscaleY
p1172
aVscaleZ
p1173
aVspace_world
p1174
aaI01
aF0
aF0
aF0
aF0
aF0
aF0
aF1
aF1
aF1
aF0
aa(lp1175
Vbody_anim_space_switcher
p1176
a(lp1177
Vvisibility
p1178
aVtranslateX
p1179
aVtranslateY
p1180
aVtranslateZ
p1181
aVrotateX
p1182
aVrotateY
p1183
aVrotateZ
p1184
aVscaleX
p1185
aVscaleY
p1186
aVscaleZ
p1187
aVspace_world
p1188
aaI01
aF0
aF0
aF0
aF0
aF0
aF0
aF1
aF1
aF1
aF0
aa(lp1189
Vchest_ik_anim_space_switcher
p1190
a(lp1191
Vvisibility
p1192
aVtranslateX
p1193
aVtranslateY
p1194
aVtranslateZ
p1195
aVrotateX
p1196
aVrotateY
p1197
aVrotateZ
p1198
aVscaleX
p1199
aVscaleY
p1200
aVscaleZ
p1201
aVspace_world
p1202
aVspace_chest_ik_world_aligned
p1203
aaI01
aF0
aF0
aF0
aF0
aF0
aF0
aF1
aF1
aF1
aF0
aF1
aa(lp1204
Vik_elbow_l_anim_space_switcher
p1205
a(lp1206
Vvisibility
p1207
aVtranslateX
p1208
aVtranslateY
p1209
aVtranslateZ
p1210
aVrotateX
p1211
aVrotateY
p1212
aVrotateZ
p1213
aVscaleX
p1214
aVscaleY
p1215
aVscaleZ
p1216
aVspace_world
p1217
aVspace_body_anim
p1218
aVspace_chest_ik_anim
p1219
aaI01
aF0
aF0
aF0
aF0
aF0
aF0
aF1
aF1
aF1
aF0
aF0
aF0
aa(lp1220
Vik_elbow_r_anim_space_switcher
p1221
a(lp1222
Vvisibility
p1223
aVtranslateX
p1224
aVtranslateY
p1225
aVtranslateZ
p1226
aVrotateX
p1227
aVrotateY
p1228
aVrotateZ
p1229
aVscaleX
p1230
aVscaleY
p1231
aVscaleZ
p1232
aVspace_world
p1233
aVspace_body_anim
p1234
aVspace_chest_ik_anim
p1235
aaI01
aF0
aF0
aF0
aF0
aF0
aF0
aF1
aF1
aF1
aF0
aF0
aF0
aa(lp1236
Vik_foot_anim_l_space_switcher
p1237
a(lp1238
Vvisibility
p1239
aVtranslateX
p1240
aVtranslateY
p1241
aVtranslateZ
p1242
aVrotateX
p1243
aVrotateY
p1244
aVrotateZ
p1245
aVscaleX
p1246
aVscaleY
p1247
aVscaleZ
p1248
aVspace_world
p1249
aVspace_body_anim
p1250
aaI01
aF0
aF0
aF0
aF0
aF0
aF0
aF1
aF1
aF1
aF0
aF0
aa(lp1251
Vik_foot_anim_r_space_switcher
p1252
a(lp1253
Vvisibility
p1254
aVtranslateX
p1255
aVtranslateY
p1256
aVtranslateZ
p1257
aVrotateX
p1258
aVrotateY
p1259
aVrotateZ
p1260
aVscaleX
p1261
aVscaleY
p1262
aVscaleZ
p1263
aVspace_world
p1264
aVspace_body_anim
p1265
aaI01
aF0
aF0
aF0
aF0
aF0
aF0
aF1
aF1
aF1
aF0
aF0
aa(lp1266
Vik_wrist_l_anim_space_switcher
p1267
a(lp1268
Vvisibility
p1269
aVtranslateX
p1270
aVtranslateY
p1271
aVtranslateZ
p1272
aVrotateX
p1273
aVrotateY
p1274
aVrotateZ
p1275
aVscaleX
p1276
aVscaleY
p1277
aVscaleZ
p1278
aVspace_world
p1279
aVspace_body_anim
p1280
aVspace_head_fk_anim
p1281
aVspace_chest_ik_anim
p1282
aaI01
aF0
aF0
aF0
aF0
aF0
aF0
aF1
aF1
aF1
aF0
aF0
aF0
aF0
aa(lp1283
Vik_wrist_r_anim_space_switcher
p1284
a(lp1285
Vvisibility
p1286
aVtranslateX
p1287
aVtranslateY
p1288
aVtranslateZ
p1289
aVrotateX
p1290
aVrotateY
p1291
aVrotateZ
p1292
aVscaleX
p1293
aVscaleY
p1294
aVscaleZ
p1295
aVspace_world
p1296
aVspace_body_anim
p1297
aVspace_head_fk_anim
p1298
aVspace_chest_ik_anim
p1299
aaI01
aF0
aF0
aF0
aF0
aF0
aF0
aF1
aF1
aF1
aF0
aF0
aF0
aF0
aa(lp1300
Vl_global_ik_anim_space_switcher
p1301
a(lp1302
Vvisibility
p1303
aVtranslateX
p1304
aVtranslateY
p1305
aVtranslateZ
p1306
aVrotateX
p1307
aVrotateY
p1308
aVrotateZ
p1309
aVscaleX
p1310
aVscaleY
p1311
aVscaleZ
p1312
aVspace_world
p1313
aaI01
aF0
aF0
aF0
aF0
aF0
aF0
aF1
aF1
aF1
aF0
aa(lp1314
Vmaster_anim_space_switcher
p1315
a(lp1316
Vvisibility
p1317
aVtranslateX
p1318
aVtranslateY
p1319
aVtranslateZ
p1320
aVrotateX
p1321
aVrotateY
p1322
aVrotateZ
p1323
aVscaleX
p1324
aVscaleY
p1325
aVscaleZ
p1326
aVspace_world
p1327
aaI01
aF0
aF0
aF0
aF0
aF0
aF0
aF1
aF1
aF1
aF0
aa(lp1328
Vr_global_ik_anim_space_switcher
p1329
a(lp1330
Vvisibility
p1331
aVtranslateX
p1332
aVtranslateY
p1333
aVtranslateZ
p1334
aVrotateX
p1335
aVrotateY
p1336
aVrotateZ
p1337
aVscaleX
p1338
aVscaleY
p1339
aVscaleZ
p1340
aVspace_world
p1341
aaI01
aF0
aF0
aF0
aF0
aF0
aF0
aF1
aF1
aF1
aF0
aa(lp1342
Vspine_01_space_switcher
p1343
a(lp1344
Vvisibility
p1345
aVtranslateX
p1346
aVtranslateY
p1347
aVtranslateZ
p1348
aVrotateX
p1349
aVrotateY
p1350
aVrotateZ
p1351
aVscaleX
p1352
aVscaleY
p1353
aVscaleZ
p1354
aVspace_world
p1355
aaI01
aF0
aF0
aF0
aF0
aF0
aF0
aF1
aF1
aF1
aF0
aa(lp1356
Vweapon_l_anim_space_switcher
p1357
a(lp1358
Vvisibility
p1359
aVtranslateX
p1360
aVtranslateY
p1361
aVtranslateZ
p1362
aVrotateX
p1363
aVrotateY
p1364
aVrotateZ
p1365
aVscaleX
p1366
aVscaleY
p1367
aVscaleZ
p1368
aVspace_world
p1369
aaI01
aF0
aF0
aF0
aF0
aF0
aF0
aF1
aF1
aF1
aF0
aa(lp1370
Vweapon_r_anim_space_switcher
p1371
a(lp1372
Vvisibility
p1373
aVtranslateX
p1374
aVtranslateY
p1375
aVtranslateZ
p1376
aVrotateX
p1377
aVrotateY
p1378
aVrotateZ
p1379
aVscaleX
p1380
aVscaleY
p1381
aVscaleZ
p1382
aVspace_world
p1383
aaI01
aF0
aF0
aF0
aF0
aF0
aF0
aF1
aF1
aF1
aF0
aa.