(lp1
(lp2
S'fk_clavicle_r_anim'
p3
a(lp4
VtranslateX
p5
aVtranslateY
p6
aVtranslateZ
p7
aVrotateX
p8
aVrotateY
p9
aVrotateZ
p10
aaF9.0931513874181746e-07
aF-8.1420258142284041e-06
aF0.00011724835644599807
aF0
aF-0
aF0
aa(lp11
S'fk_clavicle_l_anim'
p12
a(lp13
VtranslateX
p14
aVtranslateY
p15
aVtranslateZ
p16
aVrotateX
p17
aVrotateY
p18
aVrotateZ
p19
aaF9.0926841167515704e-07
aF-8.1420848716540206e-06
aF0.00011724794947554074
aF0
aF-0
aF0
aa(lp20
S'head_fk_anim'
p21
a(lp22
VtranslateX
p23
aVtranslateY
p24
aVtranslateZ
p25
aVrotateX
p26
aVrotateY
p27
aVrotateZ
p28
aVscaleX
p29
aVscaleY
p30
aVscaleZ
p31
aVfkOrientation
p32
aaF0
aF0
aF0
aF17.282515438003664
aF4.0874849871634433
aF1.9929159042539651e-16
aF1
aF1
aF1
aI0
aa(lp33
S'neck_01_fk_anim'
p34
a(lp35
VtranslateX
p36
aVtranslateY
p37
aVtranslateZ
p38
aVrotateX
p39
aVrotateY
p40
aVrotateZ
p41
aVscaleX
p42
aVscaleY
p43
aVscaleZ
p44
aVfkOrientation
p45
aaF0
aF0
aF0
aF10.719279408446834
aF30.159679710383283
aF4.6616627944157498
aF0.99999999999999967
aF0.99999999999999967
aF1
aI0
aa(lp46
S'neck_02_fk_anim'
p47
a(lp48
VtranslateX
p49
aVtranslateY
p50
aVtranslateZ
p51
aVrotateX
p52
aVrotateY
p53
aVrotateZ
p54
aVscaleX
p55
aVscaleY
p56
aVscaleZ
p57
aaF0
aF0
aF0
aF6.9961954014051138
aF-21.786900114776341
aF-6.5316609765568767
aF1
aF1
aF1
aa(lp58
S'spine_01_anim'
p59
a(lp60
Vlength
p61
aVtranslateY
p62
aVtranslateZ
p63
aVrotateX
p64
aVrotateY
p65
aVrotateZ
p66
aaF0
aF0
aF0
aF-0.16720460492510958
aF1.3542398919889873
aF-21.51732770757646
aa(lp67
S'spine_02_anim'
p68
a(lp69
Vlength
p70
aVtranslateY
p71
aVtranslateZ
p72
aVrotateX
p73
aVrotateY
p74
aVrotateZ
p75
aaF0
aF0
aF0
aF-1.1524678913449726
aF1.6058765202390064
aF9.2053281968190053
aa(lp76
S'spine_03_anim'
p77
a(lp78
Vlength
p79
aVtranslateY
p80
aVtranslateZ
p81
aVrotateX
p82
aVrotateY
p83
aVrotateZ
p84
aaF0
aF0
aF0
aF-0.69663733721165333
aF1.8497621903783668
aF-2.9459378567455987
aa(lp85
S'mid_ik_anim'
p86
a(lp87
VtranslateX
p88
aVtranslateY
p89
aVtranslateZ
p90
aVrotateX
p91
aVrotateY
p92
aVrotateZ
p93
aaF0
aF0
aF0
aF-0
aF0
aF-0
aa(lp94
S'chest_ik_anim'
p95
a(lp96
VtranslateX
p97
aVtranslateY
p98
aVtranslateZ
p99
aVrotateX
p100
aVrotateY
p101
aVrotateZ
p102
aVstretch
p103
aVsquash
p104
aVtwist_amount
p105
aVautoSpine
p106
aVrotationInfluence
p107
aaF0
aF-1.2434497875801753e-14
aF-1.3555225097938717e-07
aF3.7354568054271828
aF0
aF-0
aF0
aF0
aF1
aF0
aF0.25
aa(lp108
S'body_anim'
p109
a(lp110
VtranslateX
p111
aVtranslateY
p112
aVtranslateZ
p113
aVrotateX
p114
aVrotateY
p115
aVrotateZ
p116
aaF-6.0598666322460986
aF5.4905057392432806
aF-0.5159953385632754
aF-44.750713267443821
aF4.2827115997696836
aF-8.2547910791851677
aa(lp117
S'hip_anim'
p118
a(lp119
VtranslateX
p120
aVtranslateY
p121
aVtranslateZ
p122
aVrotateX
p123
aVrotateY
p124
aVrotateZ
p125
aVlCalfTwistCtrlVis
p126
aVrCalfTwistCtrlVis
p127
aVautoHips
p128
aaF-1.4210854715202004e-14
aF2.2204460492503131e-16
aF2.2204460492503131e-16
aF-0
aF0
aF-0
aI00
aI00
aF0
aa(lp129
S'clavicle_l_anim'
p130
a(lp131
VtranslateX
p132
aVtranslateY
p133
aVtranslateZ
p134
aVautoShoulders
p135
aaF1.3333942192375547
aF-4.3205051893478146
aF1.576062405950502
aF0
aa(lp136
S'clavicle_r_anim'
p137
a(lp138
VtranslateX
p139
aVtranslateY
p140
aVtranslateZ
p141
aVautoShoulders
p142
aaF-0.0001452457412476349
aF1.8343327029768375e-05
aF-4.9992752764183024e-05
aF0
aa(lp143
S'fk_arm_l_anim'
p144
a(lp145
VtranslateX
p146
aVtranslateY
p147
aVtranslateZ
p148
aVrotateX
p149
aVrotateY
p150
aVrotateZ
p151
aaF0
aF0
aF0
aF58.186092837464997
aF37.684136496863829
aF15.439269813435642
aa(lp152
S'fk_arm_r_anim'
p153
a(lp154
VtranslateX
p155
aVtranslateY
p156
aVtranslateZ
p157
aVrotateX
p158
aVrotateY
p159
aVrotateZ
p160
aaF0
aF0
aF0
aF59.543194158340782
aF37.975292255282497
aF28.919442985513673
aa(lp161
S'fk_elbow_l_anim'
p162
a(lp163
VtranslateX
p164
aVtranslateY
p165
aVtranslateZ
p166
aVrotateX
p167
aVrotateY
p168
aVrotateZ
p169
aaF0
aF0
aF0
aF0.1076177060604137
aF-12.689524650573729
aF-52.738426208496158
aa(lp170
S'fk_elbow_r_anim'
p171
a(lp172
VtranslateX
p173
aVtranslateY
p174
aVtranslateZ
p175
aVrotateX
p176
aVrotateY
p177
aVrotateZ
p178
aaF0
aF0
aF0
aF-0.52001500129699607
aF-2.6799049377441428
aF-50.822513580322322
aa(lp179
S'fk_wrist_l_anim'
p180
a(lp181
VtranslateX
p182
aVtranslateY
p183
aVtranslateZ
p184
aVrotateX
p185
aVrotateY
p186
aVrotateZ
p187
aaF0
aF0
aF0
aF-7.1998414993286159
aF3.4250967502594025
aF2.7258188724518035
aa(lp188
S'fk_wrist_r_anim'
p189
a(lp190
VtranslateX
p191
aVtranslateY
p192
aVtranslateZ
p193
aVrotateX
p194
aVrotateY
p195
aVrotateZ
p196
aaF0
aF0
aF0
aF-32.577388763427734
aF-14.913545608520536
aF3.4786520004272576
aa(lp197
S'ik_elbow_l_anim'
p198
a(lp199
VtranslateX
p200
aVtranslateY
p201
aVtranslateZ
p202
aaF137.20629033315745
aF-53.196242442538249
aF-27.511105799137397
aa(lp203
S'ik_elbow_r_anim'
p204
a(lp205
VtranslateX
p206
aVtranslateY
p207
aVtranslateZ
p208
aaF115.68856470430285
aF105.40892420379129
aF-28.9418671432758
aa(lp209
S'ik_wrist_l_anim'
p210
a(lp211
VtranslateX
p212
aVtranslateY
p213
aVtranslateZ
p214
aVrotateX
p215
aVrotateY
p216
aVrotateZ
p217
aVstretch
p218
aVsquash
p219
aVstretchBias
p220
aVside
p221
aVmid_bend
p222
aVmid_swivel
p223
aVtip_pivot
p224
aVtip_swivel
p225
aVspace_weapon_anim
p226
aaF-72.806516536425818
aF-45.571472220033684
aF-45.464245933543793
aF6.1269702364726637
aF18.304679612207686
aF-149.38575552923709
aF0
aF0
aF0
aF0
aF0
aF0
aF0
aF0
aF0
aa(lp227
S'ik_wrist_r_anim'
p228
a(lp229
VtranslateX
p230
aVtranslateY
p231
aVtranslateZ
p232
aVrotateX
p233
aVrotateY
p234
aVrotateZ
p235
aVstretch
p236
aVsquash
p237
aVstretchBias
p238
aVside
p239
aVmid_bend
p240
aVmid_swivel
p241
aVtip_pivot
p242
aVtip_swivel
p243
aaF51.148963584032735
aF30.250572095472876
aF-55.561318019580355
aF-128.59310988727182
aF-56.017667099763358
aF-37.362675892787195
aF0
aF0
aF0
aF0
aF0
aF0
aF0
aF0
aa(lp244
S'fk_thigh_l_anim'
p245
a(lp246
VrotateX
p247
aVrotateY
p248
aVrotateZ
p249
aaF44.924471779542259
aF-26.827652507807084
aF31.965370560109118
aa(lp250
S'fk_thigh_r_anim'
p251
a(lp252
VrotateX
p253
aVrotateY
p254
aVrotateZ
p255
aaF36.479111076055453
aF-15.514999904729743
aF26.138791195574807
aa(lp256
S'fk_calf_l_anim'
p257
a(lp258
VrotateX
p259
aVrotateY
p260
aVrotateZ
p261
aaF3.3992075372220554
aF-7.7449750723876685
aF-31.052813575276257
aa(lp262
S'fk_calf_r_anim'
p263
a(lp264
VrotateX
p265
aVrotateY
p266
aVrotateZ
p267
aaF5.2170348187015296
aF-11.710833215912938
aF-34.355126074275965
aa(lp268
S'fk_foot_l_anim'
p269
a(lp270
VrotateX
p271
aVrotateY
p272
aVrotateZ
p273
aaF-29.935931965665787
aF12.740106574718752
aF-10.356473158189432
aa(lp274
S'fk_foot_r_anim'
p275
a(lp276
VrotateX
p277
aVrotateY
p278
aVrotateZ
p279
aaF-33.642365566991806
aF18.269262587545718
aF3.7966740782924524
aa(lp280
S'fk_ball_l_anim'
p281
a(lp282
VrotateX
p283
aVrotateY
p284
aVrotateZ
p285
aaF-0.042342537596927854
aF-0.32232594896886996
aF1.5189583558819511
aa(lp286
S'fk_ball_r_anim'
p287
a(lp288
VrotateX
p289
aVrotateY
p290
aVrotateZ
p291
aaF-0.020546909056666254
aF-0.33437287961280177
aF1.9769846585375677
aa(lp292
S'ik_foot_anim_l'
p293
a(lp294
VtranslateX
p295
aVtranslateY
p296
aVtranslateZ
p297
aVrotateX
p298
aVrotateY
p299
aVrotateZ
p300
aVknee_twist
p301
aVstretch
p302
aVsquash
p303
aVtoeCtrlVis
p304
aVstretchBias
p305
aaF-0.87934590006406665
aF-29.38077851056806
aF-0.00018205549900685014
aF0.024273534851981738
aF-0.082715100618102624
aF7.2250375813919891
aF-8.1000001907348391
aF0
aF0
aI00
aF0
aa(lp306
S'ik_foot_anim_r'
p307
a(lp308
VtranslateX
p309
aVtranslateY
p310
aVtranslateZ
p311
aVrotateX
p312
aVrotateY
p313
aVrotateZ
p314
aVknee_twist
p315
aVstretch
p316
aVsquash
p317
aVtoeCtrlVis
p318
aVstretchBias
p319
aaF1.0051026889028947
aF34.605263271756819
aF-0.77412130846123084
aF0.57316631729686451
aF0.80675022985213696
aF-67.69528560345799
aF53.5
aF0
aF0
aI00
aF0
aa(lp320
S'heel_ctrl_l'
p321
a(lp322
VrotateX
p323
aVrotateY
p324
aVrotateZ
p325
aVheelPivot
p326
aVballPivot
p327
aaF0
aF-0
aF0
aF0
aF0
aa(lp328
S'heel_ctrl_r'
p329
a(lp330
VrotateX
p331
aVrotateY
p332
aVrotateZ
p333
aVheelPivot
p334
aVballPivot
p335
aaF0
aF-0
aF0
aF0
aF0
aa(lp336
S'toe_wiggle_ctrl_l'
p337
a(lp338
VrotateX
p339
aVrotateY
p340
aVrotateZ
p341
aaF0
aF-0
aF0
aa(lp342
S'toe_wiggle_ctrl_r'
p343
a(lp344
VrotateX
p345
aVrotateY
p346
aVrotateZ
p347
aaF0
aF-0
aF0
aa(lp348
S'toe_tip_ctrl_l'
p349
a(lp350
VrotateX
p351
aVrotateY
p352
aVrotateZ
p353
aaF0
aF-0
aF0
aa(lp354
S'toe_tip_ctrl_r'
p355
a(lp356
VrotateX
p357
aVrotateY
p358
aVrotateZ
p359
aaF0
aF-0
aF0
aa(lp360
S'master_anim'
p361
a(lp362
VtranslateX
p363
aVtranslateY
p364
aVtranslateZ
p365
aVrotateX
p366
aVrotateY
p367
aVrotateZ
p368
aaF0
aF0
aF0
aF0
aF-0
aF0
aa(lp369
S'offset_anim'
p370
a(lp371
VtranslateX
p372
aVtranslateY
p373
aVtranslateZ
p374
aVrotateX
p375
aVrotateY
p376
aVrotateZ
p377
aaF0
aF0
aF0
aF0
aF-0
aF0
aa(lp378
S'root_anim'
p379
a(lp380
VtranslateX
p381
aVtranslateY
p382
aVtranslateZ
p383
aVrotateX
p384
aVrotateY
p385
aVrotateZ
p386
aaF0
aF0
aF0
aF0
aF-0
aF0
aa(lp387
S'upperarm_l_twist_anim'
p388
a(lp389
VtranslateX
p390
aVtranslateY
p391
aVtranslateZ
p392
aVrotateX
p393
aVrotateY
p394
aVrotateZ
p395
aVscaleX
p396
aVscaleY
p397
aVscaleZ
p398
aaF0
aF0
aF0
aF0
aF-0
aF0
aF1
aF1
aF1
aa(lp399
S'upperarm_l_twist_2_anim'
p400
a(lp401
VtranslateX
p402
aVtranslateY
p403
aVtranslateZ
p404
aVrotateX
p405
aVrotateY
p406
aVrotateZ
p407
aVscaleX
p408
aVscaleY
p409
aVscaleZ
p410
aaF0
aF0
aF0
aF0
aF-0
aF0
aF1
aF1
aF1
aa(lp411
S'upperarm_r_twist_anim'
p412
a(lp413
VtranslateX
p414
aVtranslateY
p415
aVtranslateZ
p416
aVrotateX
p417
aVrotateY
p418
aVrotateZ
p419
aVscaleX
p420
aVscaleY
p421
aVscaleZ
p422
aaF0
aF-1.7763568394002505e-15
aF2.8421709430404007e-14
aF0
aF-0
aF0
aF1
aF1
aF1
aa(lp423
S'upperarm_r_twist_2_anim'
p424
a(lp425
VtranslateX
p426
aVtranslateY
p427
aVtranslateZ
p428
aVrotateX
p429
aVrotateY
p430
aVrotateZ
p431
aVscaleX
p432
aVscaleY
p433
aVscaleZ
p434
aaF-7.1054273576010019e-15
aF-1.7763568394002505e-15
aF0
aF0
aF-0
aF0
aF1
aF1
aF1
aa(lp435
S'lowerarm_l_twist_anim'
p436
a(lp437
VtranslateX
p438
aVtranslateY
p439
aVtranslateZ
p440
aVrotateX
p441
aVrotateY
p442
aVrotateZ
p443
aaF0
aF0
aF0
aF0
aF-0
aF0
aa(lp444
S'lowerarm_r_twist_anim'
p445
a(lp446
VtranslateX
p447
aVtranslateY
p448
aVtranslateZ
p449
aVrotateX
p450
aVrotateY
p451
aVrotateZ
p452
aaF0
aF0
aF0
aF0
aF-0
aF0
aa(lp453
S'l_thigh_twist_01_anim'
p454
a(lp455
VtranslateX
p456
aVtranslateY
p457
aVtranslateZ
p458
aVrotateX
p459
aVrotateY
p460
aVrotateZ
p461
aVscaleX
p462
aVscaleY
p463
aVscaleZ
p464
aaF0
aF8.8817841970012523e-16
aF-3.5527136788005009e-15
aF0
aF-0
aF0
aF1
aF1
aF1
aa(lp465
S'r_thigh_twist_01_anim'
p466
a(lp467
VtranslateX
p468
aVtranslateY
p469
aVtranslateZ
p470
aVrotateX
p471
aVrotateY
p472
aVrotateZ
p473
aVscaleX
p474
aVscaleY
p475
aVscaleZ
p476
aaF0
aF-8.8817841970012523e-16
aF0
aF0
aF-0
aF0
aF1
aF1
aF1
aa(lp477
S'pinky_finger_fk_ctrl_1_l'
p478
a(lp479
VtranslateX
p480
aVtranslateY
p481
aVtranslateZ
p482
aVrotateX
p483
aVrotateY
p484
aVrotateZ
p485
aVsticky
p486
aaF-0.28448754866970072
aF0.19948691675394606
aF-0.88082772337635151
aF5.122677236081401
aF7.2540835970798661
aF35.376903908316763
aF0
aa(lp487
S'pinky_finger_fk_ctrl_1_r'
p488
a(lp489
VtranslateX
p490
aVtranslateY
p491
aVtranslateZ
p492
aVrotateX
p493
aVrotateY
p494
aVrotateZ
p495
aVsticky
p496
aaF0
aF0
aF0
aF-0.0013304417769890707
aF-0.00045421005030458068
aF46.123269863759724
aF0
aa(lp497
S'pinky_finger_fk_ctrl_2_l'
p498
a(lp499
VtranslateX
p500
aVtranslateY
p501
aVtranslateZ
p502
aVrotateX
p503
aVrotateY
p504
aVrotateZ
p505
aaF0
aF0
aF0
aF-1.3648337172457701e-06
aF-0
aF55.867673741451696
aa(lp506
S'pinky_finger_fk_ctrl_2_r'
p507
a(lp508
VtranslateX
p509
aVtranslateY
p510
aVtranslateZ
p511
aVrotateX
p512
aVrotateY
p513
aVrotateZ
p514
aaF0
aF0
aF0
aF0.21761157645444287
aF0.68318271528504415
aF46.974178294221609
aa(lp515
S'pinky_finger_fk_ctrl_3_l'
p516
a(lp517
VtranslateX
p518
aVtranslateY
p519
aVtranslateZ
p520
aVrotateX
p521
aVrotateY
p522
aVrotateZ
p523
aaF0
aF0
aF0
aF1.3764308046476967e-06
aF9.4787915988669323e-23
aF49.774601852955406
aa(lp524
S'pinky_finger_fk_ctrl_3_r'
p525
a(lp526
VtranslateX
p527
aVtranslateY
p528
aVtranslateZ
p529
aVrotateX
p530
aVrotateY
p531
aVrotateZ
p532
aaF0
aF0
aF0
aF0.22706965757758885
aF0.68009776684965673
aF47.769080064506362
aa(lp533
S'ring_finger_fk_ctrl_1_l'
p534
a(lp535
VtranslateX
p536
aVtranslateY
p537
aVtranslateZ
p538
aVrotateX
p539
aVrotateY
p540
aVrotateZ
p541
aVsticky
p542
aaF0
aF0
aF0
aF3.1380347045453343
aF7.9408963810831068
aF54.862468924375989
aF0
aa(lp543
S'ring_finger_fk_ctrl_1_r'
p544
a(lp545
VtranslateX
p546
aVtranslateY
p547
aVtranslateZ
p548
aVrotateX
p549
aVrotateY
p550
aVrotateZ
p551
aVsticky
p552
aaF0
aF0
aF0
aF-0.0013680467048598779
aF-0.0003917200694229481
aF54.2220868507966
aF0
aa(lp553
S'ring_finger_fk_ctrl_2_l'
p554
a(lp555
VtranslateX
p556
aVtranslateY
p557
aVtranslateZ
p558
aVrotateX
p559
aVrotateY
p560
aVrotateZ
p561
aaF0
aF0
aF0
aF0
aF-0
aF54.736663769749129
aa(lp562
S'ring_finger_fk_ctrl_2_r'
p563
a(lp564
VtranslateX
p565
aVtranslateY
p566
aVtranslateZ
p567
aVrotateX
p568
aVrotateY
p569
aVrotateZ
p570
aaF0
aF0
aF0
aF0.20133535966839183
aF0.68815492616615503
aF45.614028024812768
aa(lp571
S'ring_finger_fk_ctrl_3_l'
p572
a(lp573
VtranslateX
p574
aVtranslateY
p575
aVtranslateZ
p576
aVrotateX
p577
aVrotateY
p578
aVrotateZ
p579
aaF0
aF0
aF0
aF0
aF-0
aF57.46028619428624
aa(lp580
S'ring_finger_fk_ctrl_3_r'
p581
a(lp582
VtranslateX
p583
aVtranslateY
p584
aVtranslateZ
p585
aVrotateX
p586
aVrotateY
p587
aVrotateZ
p588
aaF0
aF0
aF0
aF0.43453147321362862
aF0.57033307419860213
aF66.609981735733584
aa(lp589
S'middle_finger_fk_ctrl_1_l'
p590
a(lp591
VtranslateX
p592
aVtranslateY
p593
aVtranslateZ
p594
aVrotateX
p595
aVrotateY
p596
aVrotateZ
p597
aVsticky
p598
aaF0
aF0
aF0
aF-9.5650813160206454e-05
aF4.632933305734154
aF61.680754160462428
aF0
aa(lp599
S'middle_finger_fk_ctrl_1_r'
p600
a(lp601
VtranslateX
p602
aVtranslateY
p603
aVtranslateZ
p604
aVrotateX
p605
aVrotateY
p606
aVrotateZ
p607
aVsticky
p608
aaF0
aF0
aF0
aF-0.0013469415864430223
aF-0.00050657322655778519
aF52.144708177639664
aF0
aa(lp609
S'middle_finger_fk_ctrl_2_l'
p610
a(lp611
VtranslateX
p612
aVtranslateY
p613
aVtranslateZ
p614
aVrotateX
p615
aVrotateY
p616
aVrotateZ
p617
aaF0
aF0
aF0
aF0
aF-0
aF47.684837521621425
aa(lp618
S'middle_finger_fk_ctrl_2_r'
p619
a(lp620
VtranslateX
p621
aVtranslateY
p622
aVtranslateZ
p623
aVrotateX
p624
aVrotateY
p625
aVrotateZ
p626
aaF0
aF0
aF0
aF0.21904383316932102
aF0.68272487160078121
aF47.094227261992337
aa(lp627
S'middle_finger_fk_ctrl_3_l'
p628
a(lp629
VtranslateX
p630
aVtranslateY
p631
aVtranslateZ
p632
aVrotateX
p633
aVrotateY
p634
aVrotateZ
p635
aaF0
aF0
aF0
aF0
aF-0
aF50.408461337602084
aa(lp636
S'middle_finger_fk_ctrl_3_r'
p637
a(lp638
VtranslateX
p639
aVtranslateY
p640
aVtranslateZ
p641
aVrotateX
p642
aVrotateY
p643
aVrotateZ
p644
aaF0
aF0
aF0
aF1.4878721381752236
aF5.3442587515926734
aF75.661403853182691
aa(lp645
S'index_finger_fk_ctrl_1_l'
p646
a(lp647
VtranslateX
p648
aVtranslateY
p649
aVtranslateZ
p650
aVrotateX
p651
aVrotateY
p652
aVrotateZ
p653
aVsticky
p654
aaF0
aF0
aF0
aF-11.520892065326395
aF7.5235378178572283
aF61.057062186694289
aF0
aa(lp655
S'index_finger_fk_ctrl_1_r'
p656
a(lp657
VtranslateX
p658
aVtranslateY
p659
aVtranslateZ
p660
aVrotateX
p661
aVrotateY
p662
aVrotateZ
p663
aVsticky
p664
aaF0
aF0
aF0
aF-13.878859974732794
aF-1.6859502617289723
aF33.430886087529217
aF0
aa(lp665
S'index_finger_fk_ctrl_2_l'
p666
a(lp667
VtranslateX
p668
aVtranslateY
p669
aVtranslateZ
p670
aVrotateX
p671
aVrotateY
p672
aVrotateZ
p673
aaF0
aF0
aF0
aF0
aF-0
aF39.586352827998283
aa(lp674
S'index_finger_fk_ctrl_2_r'
p675
a(lp676
VtranslateX
p677
aVtranslateY
p678
aVtranslateZ
p679
aVrotateX
p680
aVrotateY
p681
aVrotateZ
p682
aaF0
aF0
aF0
aF0
aF-0
aF57.497606541241502
aa(lp683
S'index_finger_fk_ctrl_3_l'
p684
a(lp685
VtranslateX
p686
aVtranslateY
p687
aVtranslateZ
p688
aVrotateX
p689
aVrotateY
p690
aVrotateZ
p691
aaF0
aF0
aF0
aF-1.4871696543175723
aF-2.6895179822327728
aF67.749002871603878
aa(lp692
S'index_finger_fk_ctrl_3_r'
p693
a(lp694
VtranslateX
p695
aVtranslateY
p696
aVtranslateZ
p697
aVrotateX
p698
aVrotateY
p699
aVrotateZ
p700
aaF0
aF0
aF0
aF0
aF-0
aF66.68407396981253
aa(lp701
S'thumb_finger_fk_ctrl_1_l'
p702
a(lp703
VtranslateX
p704
aVtranslateY
p705
aVtranslateZ
p706
aVrotateX
p707
aVrotateY
p708
aVrotateZ
p709
aVsticky
p710
aaF0
aF0
aF0
aF32.521661196515474
aF35.179252184383778
aF3.0633443790789086
aF0
aa(lp711
S'thumb_finger_fk_ctrl_1_r'
p712
a(lp713
VtranslateX
p714
aVtranslateY
p715
aVtranslateZ
p716
aVrotateX
p717
aVrotateY
p718
aVrotateZ
p719
aVsticky
p720
aaF0
aF0
aF0
aF17.289263398136782
aF14.20035009643083
aF19.126698983259676
aF0
aa(lp721
S'thumb_finger_fk_ctrl_2_l'
p722
a(lp723
VtranslateX
p724
aVtranslateY
p725
aVtranslateZ
p726
aVrotateX
p727
aVrotateY
p728
aVrotateZ
p729
aaF0
aF0
aF0
aF-8.5391079138565189
aF17.623117184942476
aF36.133792512298719
aa(lp730
S'thumb_finger_fk_ctrl_2_r'
p731
a(lp732
VtranslateX
p733
aVtranslateY
p734
aVtranslateZ
p735
aVrotateX
p736
aVrotateY
p737
aVrotateZ
p738
aaF0
aF0
aF0
aF-1.7532247795724936
aF13.723054660490316
aF6.9401104392970412
aa(lp739
S'thumb_finger_fk_ctrl_3_l'
p740
a(lp741
VtranslateX
p742
aVtranslateY
p743
aVtranslateZ
p744
aVrotateX
p745
aVrotateY
p746
aVrotateZ
p747
aaF0
aF0
aF0
aF0
aF1.8516110813238267e-06
aF62.745112692737074
aa(lp748
S'thumb_finger_fk_ctrl_3_r'
p749
a(lp750
VtranslateX
p751
aVtranslateY
p752
aVtranslateZ
p753
aVrotateX
p754
aVrotateY
p755
aVrotateZ
p756
aaF0
aF0
aF0
aF11.142151140794891
aF-23.838396404597017
aF35.077641354833695
aa(lp757
S'index_l_ik_anim'
p758
a(lp759
VtranslateX
p760
aVtranslateY
p761
aVtranslateZ
p762
aVrotateX
p763
aVrotateY
p764
aVrotateZ
p765
aVpoleVectorVis
p766
aaF0
aF0
aF0
aF0
aF-0
aF0
aF0
aa(lp767
S'index_r_ik_anim'
p768
a(lp769
VtranslateX
p770
aVtranslateY
p771
aVtranslateZ
p772
aVrotateX
p773
aVrotateY
p774
aVrotateZ
p775
aVpoleVectorVis
p776
aaF0
aF0
aF0
aF0
aF-0
aF0
aF0
aa(lp777
S'middle_l_ik_anim'
p778
a(lp779
VtranslateX
p780
aVtranslateY
p781
aVtranslateZ
p782
aVrotateX
p783
aVrotateY
p784
aVrotateZ
p785
aVpoleVectorVis
p786
aaF0
aF0
aF0
aF0
aF-0
aF0
aF0
aa(lp787
S'middle_r_ik_anim'
p788
a(lp789
VtranslateX
p790
aVtranslateY
p791
aVtranslateZ
p792
aVrotateX
p793
aVrotateY
p794
aVrotateZ
p795
aVpoleVectorVis
p796
aaF0
aF0
aF0
aF0
aF-0
aF0
aF0
aa(lp797
S'ring_l_ik_anim'
p798
a(lp799
VtranslateX
p800
aVtranslateY
p801
aVtranslateZ
p802
aVrotateX
p803
aVrotateY
p804
aVrotateZ
p805
aVpoleVectorVis
p806
aaF0
aF0
aF0
aF0
aF-0
aF0
aF0
aa(lp807
S'ring_r_ik_anim'
p808
a(lp809
VtranslateX
p810
aVtranslateY
p811
aVtranslateZ
p812
aVrotateX
p813
aVrotateY
p814
aVrotateZ
p815
aVpoleVectorVis
p816
aaF0
aF0
aF0
aF0
aF-0
aF0
aF0
aa(lp817
S'pinky_l_ik_anim'
p818
a(lp819
VtranslateX
p820
aVtranslateY
p821
aVtranslateZ
p822
aVrotateX
p823
aVrotateY
p824
aVrotateZ
p825
aVpoleVectorVis
p826
aaF0
aF0
aF0
aF0
aF-0
aF0
aF0
aa(lp827
S'pinky_r_ik_anim'
p828
a(lp829
VtranslateX
p830
aVtranslateY
p831
aVtranslateZ
p832
aVrotateX
p833
aVrotateY
p834
aVrotateZ
p835
aVpoleVectorVis
p836
aaF0
aF0
aF0
aF0
aF-0
aF0
aF0
aa(lp837
S'thumb_l_ik_anim'
p838
a(lp839
VtranslateX
p840
aVtranslateY
p841
aVtranslateZ
p842
aVrotateX
p843
aVrotateY
p844
aVrotateZ
p845
aVpoleVectorVis
p846
aaF0
aF0
aF0
aF0
aF-0
aF0
aF0
aa(lp847
S'thumb_r_ik_anim'
p848
a(lp849
VtranslateX
p850
aVtranslateY
p851
aVtranslateZ
p852
aVrotateX
p853
aVrotateY
p854
aVrotateZ
p855
aVpoleVectorVis
p856
aaF0
aF0
aF0
aF0
aF-0
aF0
aF0
aa(lp857
S'index_l_poleVector'
p858
a(lp859
VtranslateX
p860
aVtranslateY
p861
aVtranslateZ
p862
aVrotateX
p863
aVrotateY
p864
aVrotateZ
p865
aaF0
aF0
aF0
aF0
aF-0
aF0
aa(lp866
S'index_r_poleVector'
p867
a(lp868
VtranslateX
p869
aVtranslateY
p870
aVtranslateZ
p871
aVrotateX
p872
aVrotateY
p873
aVrotateZ
p874
aaF0
aF0
aF0
aF0
aF-0
aF0
aa(lp875
S'middle_l_poleVector'
p876
a(lp877
VtranslateX
p878
aVtranslateY
p879
aVtranslateZ
p880
aVrotateX
p881
aVrotateY
p882
aVrotateZ
p883
aaF0
aF0
aF0
aF0
aF-0
aF0
aa(lp884
S'middle_r_poleVector'
p885
a(lp886
VtranslateX
p887
aVtranslateY
p888
aVtranslateZ
p889
aVrotateX
p890
aVrotateY
p891
aVrotateZ
p892
aaF0
aF0
aF0
aF0
aF-0
aF0
aa(lp893
S'ring_l_poleVector'
p894
a(lp895
VtranslateX
p896
aVtranslateY
p897
aVtranslateZ
p898
aVrotateX
p899
aVrotateY
p900
aVrotateZ
p901
aaF0
aF0
aF0
aF0
aF-0
aF0
aa(lp902
S'ring_r_poleVector'
p903
a(lp904
VtranslateX
p905
aVtranslateY
p906
aVtranslateZ
p907
aVrotateX
p908
aVrotateY
p909
aVrotateZ
p910
aaF0
aF0
aF0
aF0
aF-0
aF0
aa(lp911
S'pinky_l_poleVector'
p912
a(lp913
VtranslateX
p914
aVtranslateY
p915
aVtranslateZ
p916
aVrotateX
p917
aVrotateY
p918
aVrotateZ
p919
aaF0
aF0
aF0
aF0
aF-0
aF0
aa(lp920
S'pinky_r_poleVector'
p921
a(lp922
VtranslateX
p923
aVtranslateY
p924
aVtranslateZ
p925
aVrotateX
p926
aVrotateY
p927
aVrotateZ
p928
aaF0
aF0
aF0
aF0
aF-0
aF0
aa(lp929
S'thumb_l_poleVector'
p930
a(lp931
VtranslateX
p932
aVtranslateY
p933
aVtranslateZ
p934
aVrotateX
p935
aVrotateY
p936
aVrotateZ
p937
aaF0
aF0
aF0
aF0
aF-0
aF0
aa(lp938
S'thumb_r_poleVector'
p939
a(lp940
VtranslateX
p941
aVtranslateY
p942
aVtranslateZ
p943
aVrotateX
p944
aVrotateY
p945
aVrotateZ
p946
aaF0
aF0
aF0
aF0
aF-0
aF0
aa(lp947
S'l_global_ik_anim'
p948
a(lp949
VtranslateX
p950
aVtranslateY
p951
aVtranslateZ
p952
aVrotateX
p953
aVrotateY
p954
aVrotateZ
p955
aaF0
aF0
aF0
aF0
aF-0
aF0
aa(lp956
S'r_global_ik_anim'
p957
a(lp958
VtranslateX
p959
aVtranslateY
p960
aVtranslateZ
p961
aVrotateX
p962
aVrotateY
p963
aVrotateZ
p964
aaF0
aF0
aF0
aF0
aF-0
aF0
aa(lp965
S'Rig_Settings'
p966
a(lp967
Vspine_ik
p968
aVspine_fk
p969
aVlLegMode
p970
aVlThighTwistAmount
p971
aVlThighTwist2Amount
p972
aVllegTwistCtrlVis
p973
aVlCalfTwistAmount
p974
aVrLegMode
p975
aVrThighTwistAmount
p976
aVrThighTwist2Amount
p977
aVrlegTwistCtrlVis
p978
aVrCalfTwistAmount
p979
aVlFkArmOrient
p980
aVlArmMode
p981
aVlClavMode
p982
aVlUpperarmTwistAmount
p983
aVlUpperarmTwist2Amount
p984
aVltwistCtrlVis
p985
aVltwistCtrlVisLower
p986
aVlForearmTwistAmount
p987
aVrFkArmOrient
p988
aVrArmMode
p989
aVrClavMode
p990
aVrUpperarmTwistAmount
p991
aVrUpperarmTwist2Amount
p992
aVrtwistCtrlVis
p993
aVrtwistCtrlVisLower
p994
aVrForearmTwistAmount
p995
aVback_sash_fk
p996
aVback_sash_ik
p997
aVback_sash_dynamic
p998
aVhip_eyelet_front_l_fk
p999
aVhip_eyelet_front_l_ik
p1000
aVhip_eyelet_front_l_dynamic
p1001
aVhip_eyelet_front_r_fk
p1002
aVhip_eyelet_front_r_ik
p1003
aVhip_eyelet_front_r_dynamic
p1004
aVhip_eyelet_rear_l_fk
p1005
aVhip_eyelet_rear_l_ik
p1006
aVhip_eyelet_rear_l_dynamic
p1007
aVhip_eyelet_rear_r_fk
p1008
aVhip_eyelet_rear_r_ik
p1009
aVhip_eyelet_rear_r_dynamic
p1010
aVloin_cloth_bk_fk
p1011
aVloin_cloth_bk_ik
p1012
aVloin_cloth_bk_dynamic
p1013
aVloin_cloth_fr_fk
p1014
aVloin_cloth_fr_ik
p1015
aVloin_cloth_fr_dynamic
p1016
aVpadawan_l_fk
p1017
aVpadawan_l_ik
p1018
aVpadawan_l_dynamic
p1019
aVpadawan_r_fk
p1020
aVpadawan_r_ik
p1021
aVpadawan_r_dynamic
p1022
aVponytail_fk
p1023
aVponytail_ik
p1024
aVponytail_dynamic
p1025
aVweapon_butt_fk
p1026
aVweapon_butt_ik
p1027
aVweapon_butt_dynamic
p1028
aaF1
aF0
aI1
aF1
aF0.59999999999999998
aI00
aF0.5
aI1
aF1
aF0.59999999999999998
aI00
aF0.5
aI0
aI1
aI1
aF0.90000000000000002
aF0.59999999999999998
aI00
aI00
aF0.5
aI0
aI1
aI1
aF0.90000000000000002
aF0.59999999999999998
aI00
aI00
aF0.5
aF1
aF0
aF0
aF1
aF0
aF0
aF1
aF0
aF0
aF1
aF0
aF0
aF1
aF0
aF0
aF1
aF0
aF0
aF1
aF0
aF0
aF1
aF0
aF0
aF1
aF0
aF0
aF1
aF0
aF0
aF1
aF0
aF0
aa(lp1029
S'calf_l_twist_anim'
p1030
a(lp1031
VtranslateX
p1032
aVtranslateY
p1033
aVtranslateZ
p1034
aVrotateX
p1035
aVrotateY
p1036
aVrotateZ
p1037
aaF0
aF0
aF0
aF0
aF-0
aF0
aa(lp1038
S'calf_r_twist_anim'
p1039
a(lp1040
VtranslateX
p1041
aVtranslateY
p1042
aVtranslateZ
p1043
aVrotateX
p1044
aVrotateY
p1045
aVrotateZ
p1046
aaF0
aF0
aF0
aF0
aF-0
aF0
aa(lp1047
Vback_sash_dyn_anim
p1048
a(lp1049
VtranslateX
p1050
aVtranslateY
p1051
aVtranslateZ
p1052
aVrotateX
p1053
aVrotateY
p1054
aVrotateZ
p1055
aVchainAttach
p1056
aVchainStartEnvelope
p1057
aVchainStartFrame
p1058
aVchainStiffness
p1059
aVchainDamping
p1060
aVchainGravity
p1061
aVchainIteration
p1062
aVchainCollide
p1063
aVchainWidthBase
p1064
aVchainWidthExtremity
p1065
aVchainCollideGround
p1066
aVchainCollideGroundHeight
p1067
aaF0
aF0
aF0
aF0
aF-0
aF0
aI1
aF1
aF1
aF0.10000000000000001
aF0.20000000000000001
aF1
aI1
aI00
aF1
aF1
aI00
aF0
aa(lp1068
Vback_sash_ik_2_anim
p1069
a(lp1070
VtranslateX
p1071
aVtranslateY
p1072
aVtranslateZ
p1073
aVrotateX
p1074
aVrotateY
p1075
aVrotateZ
p1076
aaF0
aF0
aF0
aF0
aF-0
aF0
aa(lp1077
Vback_sash_ik_3_anim
p1078
a(lp1079
VtranslateX
p1080
aVtranslateY
p1081
aVtranslateZ
p1082
aVrotateX
p1083
aVrotateY
p1084
aVrotateZ
p1085
aVclusterControlVis
p1086
aaF0
aF0
aF0
aF0
aF-0
aF0
aI00
aa(lp1087
Vback_sash_ik_base_anim
p1088
a(lp1089
VtranslateX
p1090
aVtranslateY
p1091
aVtranslateZ
p1092
aVrotateX
p1093
aVrotateY
p1094
aVrotateZ
p1095
aVglobal_scale
p1096
aaF0
aF0
aF0
aF0
aF-0
aF0
aF1
aa(lp1097
Vfk_back_sash_01_anim
p1098
a(lp1099
VtranslateX
p1100
aVtranslateY
p1101
aVtranslateZ
p1102
aVrotateX
p1103
aVrotateY
p1104
aVrotateZ
p1105
aVglobal_scale
p1106
aVlagMode
p1107
aaF0
aF0
aF0
aF0
aF-0
aF0
aF1
aF0
aa(lp1108
Vback_sash_cv_0_anim
p1109
a(lp1110
VtranslateX
p1111
aVtranslateY
p1112
aVtranslateZ
p1113
aaF0
aF0
aF0
aa(lp1114
Vfk_back_sash_02_anim
p1115
a(lp1116
VtranslateX
p1117
aVtranslateY
p1118
aVtranslateZ
p1119
aVrotateX
p1120
aVrotateY
p1121
aVrotateZ
p1122
aaF0
aF0
aF0
aF0
aF-0
aF0
aa(lp1123
Vback_sash_cv_1_anim
p1124
a(lp1125
VtranslateX
p1126
aVtranslateY
p1127
aVtranslateZ
p1128
aaF0
aF0
aF0
aa(lp1129
Vfk_back_sash_03_anim
p1130
a(lp1131
VtranslateX
p1132
aVtranslateY
p1133
aVtranslateZ
p1134
aVrotateX
p1135
aVrotateY
p1136
aVrotateZ
p1137
aaF0
aF0
aF0
aF0
aF-0
aF0
aa(lp1138
Vback_sash_cv_2_anim
p1139
a(lp1140
VtranslateX
p1141
aVtranslateY
p1142
aVtranslateZ
p1143
aaF0
aF0
aF0
aa(lp1144
Vbracelet_A_l_anim
p1145
a(lp1146
VtranslateX
p1147
aVtranslateY
p1148
aVtranslateZ
p1149
aVrotateX
p1150
aVrotateY
p1151
aVrotateZ
p1152
aVscaleX
p1153
aVscaleY
p1154
aVscaleZ
p1155
aaF0
aF0
aF0
aF0
aF-0
aF0
aF1
aF1
aF1
aa(lp1156
Vbracelet_B_l_anim
p1157
a(lp1158
VtranslateX
p1159
aVtranslateY
p1160
aVtranslateZ
p1161
aVrotateX
p1162
aVrotateY
p1163
aVrotateZ
p1164
aVscaleX
p1165
aVscaleY
p1166
aVscaleZ
p1167
aaF0
aF0
aF0
aF0
aF-0
aF0
aF1
aF1
aF1
aa(lp1168
Vbracelet_C_l_anim
p1169
a(lp1170
VtranslateX
p1171
aVtranslateY
p1172
aVtranslateZ
p1173
aVrotateX
p1174
aVrotateY
p1175
aVrotateZ
p1176
aVscaleX
p1177
aVscaleY
p1178
aVscaleZ
p1179
aaF0
aF0
aF0
aF0
aF-0
aF0
aF1
aF1
aF1
aa(lp1180
Veyeball_l_anim
p1181
a(lp1182
VtranslateX
p1183
aVtranslateY
p1184
aVtranslateZ
p1185
aVrotateX
p1186
aVrotateY
p1187
aVrotateZ
p1188
aVscaleX
p1189
aVscaleY
p1190
aVscaleZ
p1191
aaF0
aF0
aF0
aF0
aF-0
aF0
aF1
aF1
aF1
aa(lp1192
Veyeball_r_anim
p1193
a(lp1194
VtranslateX
p1195
aVtranslateY
p1196
aVtranslateZ
p1197
aVrotateX
p1198
aVrotateY
p1199
aVrotateZ
p1200
aVscaleX
p1201
aVscaleY
p1202
aVscaleZ
p1203
aaF0
aF0
aF0
aF0
aF-0
aF0
aF1
aF1
aF1
aa(lp1204
Veyebrow_in_l_anim
p1205
a(lp1206
VtranslateX
p1207
aVtranslateY
p1208
aVtranslateZ
p1209
aVrotateX
p1210
aVrotateY
p1211
aVrotateZ
p1212
aVscaleX
p1213
aVscaleY
p1214
aVscaleZ
p1215
aaF0
aF0
aF0
aF0
aF-0
aF0
aF1
aF1
aF0.99999999999999989
aa(lp1216
Veyebrow_in_r_anim
p1217
a(lp1218
VtranslateX
p1219
aVtranslateY
p1220
aVtranslateZ
p1221
aVrotateX
p1222
aVrotateY
p1223
aVrotateZ
p1224
aVscaleX
p1225
aVscaleY
p1226
aVscaleZ
p1227
aaF0
aF0
aF0
aF0
aF-0
aF0
aF1
aF1
aF1
aa(lp1228
Veyebrow_out_l_anim
p1229
a(lp1230
VtranslateX
p1231
aVtranslateY
p1232
aVtranslateZ
p1233
aVrotateX
p1234
aVrotateY
p1235
aVrotateZ
p1236
aVscaleX
p1237
aVscaleY
p1238
aVscaleZ
p1239
aaF0
aF0
aF0
aF0
aF-0
aF0
aF1
aF1
aF1
aa(lp1240
Veyebrow_out_r_anim
p1241
a(lp1242
VtranslateX
p1243
aVtranslateY
p1244
aVtranslateZ
p1245
aVrotateX
p1246
aVrotateY
p1247
aVrotateZ
p1248
aVscaleX
p1249
aVscaleY
p1250
aVscaleZ
p1251
aaF0
aF0
aF0
aF0
aF-0
aF0
aF1
aF1
aF1
aa(lp1252
Veyelid_bott_l_anim
p1253
a(lp1254
VtranslateX
p1255
aVtranslateY
p1256
aVtranslateZ
p1257
aVrotateX
p1258
aVrotateY
p1259
aVrotateZ
p1260
aVscaleX
p1261
aVscaleY
p1262
aVscaleZ
p1263
aaF0
aF0
aF0
aF0
aF-0
aF0
aF1
aF1
aF1
aa(lp1264
Veyelid_bott_r_anim
p1265
a(lp1266
VtranslateX
p1267
aVtranslateY
p1268
aVtranslateZ
p1269
aVrotateX
p1270
aVrotateY
p1271
aVrotateZ
p1272
aVscaleX
p1273
aVscaleY
p1274
aVscaleZ
p1275
aaF0
aF0
aF0
aF0
aF-0
aF0
aF1
aF1
aF1
aa(lp1276
Veyelid_top_l_anim
p1277
a(lp1278
VtranslateX
p1279
aVtranslateY
p1280
aVtranslateZ
p1281
aVrotateX
p1282
aVrotateY
p1283
aVrotateZ
p1284
aVscaleX
p1285
aVscaleY
p1286
aVscaleZ
p1287
aaF0
aF0
aF0
aF0
aF-0
aF0
aF1
aF1
aF1
aa(lp1288
Veyelid_top_r_anim
p1289
a(lp1290
VtranslateX
p1291
aVtranslateY
p1292
aVtranslateZ
p1293
aVrotateX
p1294
aVrotateY
p1295
aVrotateZ
p1296
aVscaleX
p1297
aVscaleY
p1298
aVscaleZ
p1299
aaF0
aF0
aF0
aF0
aF-0
aF0
aF1
aF1
aF1
aa(lp1300
Vhip_back_flaps_anim
p1301
a(lp1302
VtranslateX
p1303
aVtranslateY
p1304
aVtranslateZ
p1305
aVrotateX
p1306
aVrotateY
p1307
aVrotateZ
p1308
aVscaleX
p1309
aVscaleY
p1310
aVscaleZ
p1311
aaF0
aF0
aF0
aF0
aF0
aF0
aF1
aF1
aF1
aa(lp1312
Vhip_eyelet_front_l_dyn_anim
p1313
a(lp1314
VtranslateX
p1315
aVtranslateY
p1316
aVtranslateZ
p1317
aVrotateX
p1318
aVrotateY
p1319
aVrotateZ
p1320
aVchainAttach
p1321
aVchainStartEnvelope
p1322
aVchainStartFrame
p1323
aVchainStiffness
p1324
aVchainDamping
p1325
aVchainGravity
p1326
aVchainIteration
p1327
aVchainCollide
p1328
aVchainWidthBase
p1329
aVchainWidthExtremity
p1330
aVchainCollideGround
p1331
aVchainCollideGroundHeight
p1332
aaF-4.9588084749530026e-09
aF2.5921551127794373e-07
aF6.0684955371925753e-07
aF0
aF-0
aF0
aI1
aF1
aF1
aF0.10000000000000001
aF0.20000000000000001
aF1
aI1
aI00
aF1
aF1
aI00
aF0
aa(lp1333
Vhip_eyelet_front_l_ik_2_anim
p1334
a(lp1335
VtranslateX
p1336
aVtranslateY
p1337
aVtranslateZ
p1338
aVrotateX
p1339
aVrotateY
p1340
aVrotateZ
p1341
aaF-3.8461289264546394e-07
aF-1.0094180780129136e-06
aF4.1534319166203204e-06
aF0
aF-0
aF0
aa(lp1342
Vhip_eyelet_front_l_ik_3_anim
p1343
a(lp1344
VtranslateX
p1345
aVtranslateY
p1346
aVtranslateZ
p1347
aVrotateX
p1348
aVrotateY
p1349
aVrotateZ
p1350
aVclusterControlVis
p1351
aaF-1.9230644809908881e-07
aF-5.0470904966459784e-07
aF2.0767159725210149e-06
aF0
aF-0
aF0
aI00
aa(lp1352
Vhip_eyelet_front_l_ik_base_anim
p1353
a(lp1354
VtranslateX
p1355
aVtranslateY
p1356
aVtranslateZ
p1357
aVrotateX
p1358
aVrotateY
p1359
aVrotateZ
p1360
aVglobal_scale
p1361
aaF-4.9502997256922754e-09
aF2.691877512006613e-07
aF6.0257472966895875e-07
aF0
aF-0
aF0
aF1
aa(lp1362
Vfk_hip_eyelet_front_l_01_anim
p1363
a(lp1364
VtranslateX
p1365
aVtranslateY
p1366
aVtranslateZ
p1367
aVrotateX
p1368
aVrotateY
p1369
aVrotateZ
p1370
aVglobal_scale
p1371
aVlagMode
p1372
aaF-4.9503166010822497e-09
aF2.6918776541151601e-07
aF6.0257478651237761e-07
aF0
aF-0
aF0
aF1
aF0
aa(lp1373
Vhip_eyelet_front_l_cv_0_anim
p1374
a(lp1375
VtranslateX
p1376
aVtranslateY
p1377
aVtranslateZ
p1378
aaF0
aF0
aF0
aa(lp1379
Vfk_hip_eyelet_front_l_02_anim
p1380
a(lp1381
VtranslateX
p1382
aVtranslateY
p1383
aVtranslateZ
p1384
aVrotateX
p1385
aVrotateY
p1386
aVrotateZ
p1387
aaF-2.2579490632779198e-07
aF-3.7199177427282848e-07
aF1.3131802845123275e-06
aF0
aF-0
aF0
aa(lp1388
Vhip_eyelet_front_l_cv_1_anim
p1389
a(lp1390
VtranslateX
p1391
aVtranslateY
p1392
aVtranslateZ
p1393
aaF0
aF0
aF0
aa(lp1394
Vfk_hip_eyelet_front_l_03_anim
p1395
a(lp1396
VtranslateX
p1397
aVtranslateY
p1398
aVtranslateZ
p1399
aVrotateX
p1400
aVrotateY
p1401
aVrotateZ
p1402
aaF-9.8909598733598614e-08
aF-8.5001743599377733e-07
aF1.3050015894577882e-06
aF0
aF-0
aF0
aa(lp1403
Vhip_eyelet_front_l_cv_2_anim
p1404
a(lp1405
VtranslateX
p1406
aVtranslateY
p1407
aVtranslateZ
p1408
aaF0
aF0
aF0
aa(lp1409
Vfk_hip_eyelet_front_l_04_anim
p1410
a(lp1411
VtranslateX
p1412
aVtranslateY
p1413
aVtranslateZ
p1414
aVrotateX
p1415
aVrotateY
p1416
aVrotateZ
p1417
aaF-6.5906077484356729e-08
aF2.7460401952339453e-07
aF1.5533885928675772e-06
aF0
aF-0
aF0
aa(lp1418
Vhip_eyelet_front_l_cv_3_anim
p1419
a(lp1420
VtranslateX
p1421
aVtranslateY
p1422
aVtranslateZ
p1423
aaF0
aF0
aF0
aa(lp1424
Vhip_eyelet_front_r_dyn_anim
p1425
a(lp1426
VtranslateX
p1427
aVtranslateY
p1428
aVtranslateZ
p1429
aVrotateX
p1430
aVrotateY
p1431
aVrotateZ
p1432
aVchainAttach
p1433
aVchainStartEnvelope
p1434
aVchainStartFrame
p1435
aVchainStiffness
p1436
aVchainDamping
p1437
aVchainGravity
p1438
aVchainIteration
p1439
aVchainCollide
p1440
aVchainWidthBase
p1441
aVchainWidthExtremity
p1442
aVchainCollideGround
p1443
aVchainCollideGroundHeight
p1444
aaF-4.9587622896751782e-09
aF2.5921552548879845e-07
aF6.068495252975481e-07
aF0
aF-0
aF0
aI1
aF1
aF1
aF0.10000000000000001
aF0.20000000000000001
aF1
aI1
aI00
aF1
aF1
aI00
aF0
aa(lp1445
Vhip_eyelet_front_r_ik_2_anim
p1446
a(lp1447
VtranslateX
p1448
aVtranslateY
p1449
aVtranslateZ
p1450
aVrotateX
p1451
aVrotateY
p1452
aVrotateZ
p1453
aaF-3.8461263862643591e-07
aF-1.0094177937958193e-06
aF4.1534320445180128e-06
aF0
aF-0
aF0
aa(lp1454
Vhip_eyelet_front_r_ik_3_anim
p1455
a(lp1456
VtranslateX
p1457
aVtranslateY
p1458
aVtranslateZ
p1459
aVrotateX
p1460
aVrotateY
p1461
aVrotateZ
p1462
aVclusterControlVis
p1463
aaF-1.9230632020139637e-07
aF-5.0470895018861484e-07
aF2.0767160400225748e-06
aF0
aF-0
aF0
aI00
aa(lp1464
Vhip_eyelet_front_r_ik_base_anim
p1465
a(lp1466
VtranslateX
p1467
aVtranslateY
p1468
aVtranslateZ
p1469
aVrotateX
p1470
aVrotateY
p1471
aVrotateZ
p1472
aVglobal_scale
p1473
aaF-4.9502553167712904e-09
aF2.6918777962237073e-07
aF6.0257470124724932e-07
aF0
aF-0
aF0
aF1
aa(lp1474
Vfk_hip_eyelet_front_r_01_anim
p1475
a(lp1476
VtranslateX
p1477
aVtranslateY
p1478
aVtranslateZ
p1479
aVrotateX
p1480
aVrotateY
p1481
aVrotateZ
p1482
aVglobal_scale
p1483
aVlagMode
p1484
aaF-4.950271303982845e-09
aF2.6918776541151601e-07
aF6.0257476519609554e-07
aF0
aF-0
aF0
aF1
aF0
aa(lp1485
Vhip_eyelet_front_r_cv_0_anim
p1486
a(lp1487
VtranslateX
p1488
aVtranslateY
p1489
aVtranslateZ
p1490
aaF0
aF0
aF0
aa(lp1491
Vfk_hip_eyelet_front_r_02_anim
p1492
a(lp1493
VtranslateX
p1494
aVtranslateY
p1495
aVtranslateZ
p1496
aVrotateX
p1497
aVrotateY
p1498
aVrotateZ
p1499
aaF-2.2579483349716156e-07
aF-3.7199171742940962e-07
aF1.3131803129340369e-06
aF0
aF-0
aF0
aa(lp1500
Vhip_eyelet_front_r_cv_1_anim
p1501
a(lp1502
VtranslateX
p1503
aVtranslateY
p1504
aVtranslateZ
p1505
aaF0
aF0
aF0
aa(lp1506
Vfk_hip_eyelet_front_r_03_anim
p1507
a(lp1508
VtranslateX
p1509
aVtranslateY
p1510
aVtranslateZ
p1511
aVrotateX
p1512
aVrotateY
p1513
aVrotateZ
p1514
aaF-9.8909529455681877e-08
aF-8.5001735783407639e-07
aF1.3050016534066344e-06
aF0
aF-0
aF0
aa(lp1515
Vhip_eyelet_front_r_cv_2_anim
p1516
a(lp1517
VtranslateX
p1518
aVtranslateY
p1519
aVtranslateZ
p1520
aaF0
aF0
aF0
aa(lp1521
Vfk_hip_eyelet_front_r_04_anim
p1522
a(lp1523
VtranslateX
p1524
aVtranslateY
p1525
aVtranslateZ
p1526
aVrotateX
p1527
aVrotateY
p1528
aVrotateZ
p1529
aaF-6.5905981561087401e-08
aF2.7460410478852282e-07
aF1.5533885964202909e-06
aF0
aF-0
aF0
aa(lp1530
Vhip_eyelet_front_r_cv_3_anim
p1531
a(lp1532
VtranslateX
p1533
aVtranslateY
p1534
aVtranslateZ
p1535
aaF0
aF0
aF0
aa(lp1536
Vhip_eyelet_rear_l_dyn_anim
p1537
a(lp1538
VtranslateX
p1539
aVtranslateY
p1540
aVtranslateZ
p1541
aVrotateX
p1542
aVrotateY
p1543
aVrotateZ
p1544
aVchainAttach
p1545
aVchainStartEnvelope
p1546
aVchainStartFrame
p1547
aVchainStiffness
p1548
aVchainDamping
p1549
aVchainGravity
p1550
aVchainIteration
p1551
aVchainCollide
p1552
aVchainWidthBase
p1553
aVchainWidthExtremity
p1554
aVchainCollideGround
p1555
aVchainCollideGroundHeight
p1556
aaF-7.0606179747301212e-07
aF3.0596429212437215e-07
aF-6.6344174953769652e-07
aF0
aF-0
aF0
aI1
aF1
aF1
aF0.10000000000000001
aF0.20000000000000001
aF1
aI1
aI00
aF1
aF1
aI00
aF0
aa(lp1557
Vhip_eyelet_rear_l_ik_2_anim
p1558
a(lp1559
VtranslateX
p1560
aVtranslateY
p1561
aVtranslateZ
p1562
aVrotateX
p1563
aVrotateY
p1564
aVrotateZ
p1565
aaF4.8626582804800478e-06
aF1.1071657333161511e-06
aF-3.0055707185283609e-06
aF0
aF-0
aF0
aa(lp1566
Vhip_eyelet_rear_l_ik_3_anim
p1567
a(lp1568
VtranslateX
p1569
aVtranslateY
p1570
aVtranslateZ
p1571
aVrotateX
p1572
aVrotateY
p1573
aVrotateZ
p1574
aVclusterControlVis
p1575
aaF2.4313291486777189e-06
aF5.5358285067086399e-07
aF-1.5027853592641804e-06
aF0
aF-0
aF0
aI00
aa(lp1576
Vhip_eyelet_rear_l_ik_base_anim
p1577
a(lp1578
VtranslateX
p1579
aVtranslateY
p1580
aVtranslateZ
p1581
aVrotateX
p1582
aVrotateY
p1583
aVrotateZ
p1584
aVglobal_scale
p1585
aaF-7.0568012944249858e-07
aF3.0380621751646686e-07
aF-6.6488068029002534e-07
aF0
aF-0
aF0
aF1
aa(lp1586
Vfk_hip_eyelet_rear_l_01_anim
p1587
a(lp1588
VtranslateX
p1589
aVtranslateY
p1590
aVtranslateZ
p1591
aVrotateX
p1592
aVrotateY
p1593
aVrotateZ
p1594
aVglobal_scale
p1595
aVlagMode
p1596
aaF-7.0568014276517488e-07
aF3.0380610382962914e-07
aF-6.6488063055203384e-07
aF0
aF-0
aF0
aF1
aF0
aa(lp1597
Vhip_eyelet_rear_l_cv_0_anim
p1598
a(lp1599
VtranslateX
p1600
aVtranslateY
p1601
aVtranslateZ
p1602
aaF0
aF0
aF0
aa(lp1603
Vfk_hip_eyelet_rear_l_02_anim
p1604
a(lp1605
VtranslateX
p1606
aVtranslateY
p1607
aVtranslateZ
p1608
aVrotateX
p1609
aVrotateY
p1610
aVrotateZ
p1611
aaF1.6195680885289221e-06
aF3.8423664250331058e-07
aF-9.9642731754556735e-07
aF0
aF-0
aF0
aa(lp1612
Vhip_eyelet_rear_l_cv_1_anim
p1613
a(lp1614
VtranslateX
p1615
aVtranslateY
p1616
aVtranslateZ
p1617
aaF0
aF0
aF0
aa(lp1618
Vfk_hip_eyelet_rear_l_03_anim
p1619
a(lp1620
VtranslateX
p1621
aVtranslateY
p1622
aVtranslateZ
p1623
aVrotateX
p1624
aVrotateY
p1625
aVrotateZ
p1626
aaF1.6229865122951992e-06
aF3.6153686977513644e-07
aF-9.9642277362477216e-07
aF0
aF-0
aF0
aa(lp1627
Vhip_eyelet_rear_l_cv_2_anim
p1628
a(lp1629
VtranslateX
p1630
aVtranslateY
p1631
aVtranslateZ
p1632
aaF0
aF0
aF0
aa(lp1633
Vfk_hip_eyelet_rear_l_04_anim
p1634
a(lp1635
VtranslateX
p1636
aVtranslateY
p1637
aVtranslateZ
p1638
aVrotateX
p1639
aVrotateY
p1640
aVrotateZ
p1641
aaF1.6201036920904244e-06
aF3.4184735397957411e-07
aF-1.0204794200774359e-06
aF0
aF-0
aF0
aa(lp1642
Vhip_eyelet_rear_l_cv_3_anim
p1643
a(lp1644
VtranslateX
p1645
aVtranslateY
p1646
aVtranslateZ
p1647
aaF0
aF0
aF0
aa(lp1648
Vhip_eyelet_rear_r_dyn_anim
p1649
a(lp1650
VtranslateX
p1651
aVtranslateY
p1652
aVtranslateZ
p1653
aVrotateX
p1654
aVrotateY
p1655
aVrotateZ
p1656
aVchainAttach
p1657
aVchainStartEnvelope
p1658
aVchainStartFrame
p1659
aVchainStiffness
p1660
aVchainDamping
p1661
aVchainGravity
p1662
aVchainIteration
p1663
aVchainCollide
p1664
aVchainWidthBase
p1665
aVchainWidthExtremity
p1666
aVchainCollideGround
p1667
aVchainCollideGroundHeight
p1668
aaF-7.0606180724297474e-07
aF3.0596426370266272e-07
aF-6.6344176019583756e-07
aF0
aF-0
aF0
aI1
aF1
aF1
aF0.10000000000000001
aF0.20000000000000001
aF1
aI1
aI00
aF1
aF1
aI00
aF0
aa(lp1669
Vhip_eyelet_rear_r_ik_2_anim
p1670
a(lp1671
VtranslateX
p1672
aVtranslateY
p1673
aVtranslateZ
p1674
aVrotateX
p1675
aVrotateY
p1676
aVrotateZ
p1677
aaF4.8626582529465168e-06
aF1.1071662164852114e-06
aF-3.0055707185283609e-06
aF0
aF-0
aF0
aa(lp1678
Vhip_eyelet_rear_r_ik_3_anim
p1679
a(lp1680
VtranslateX
p1681
aVtranslateY
p1682
aVtranslateZ
p1683
aVrotateX
p1684
aVrotateY
p1685
aVrotateZ
p1686
aVclusterControlVis
p1687
aaF2.4313291309141505e-06
aF5.5358309225539415e-07
aF-1.5027853450533257e-06
aF0
aF-0
aF0
aI00
aa(lp1688
Vhip_eyelet_rear_r_ik_base_anim
p1689
a(lp1690
VtranslateX
p1691
aVtranslateY
p1692
aVtranslateZ
p1693
aVrotateX
p1694
aVrotateY
p1695
aVrotateZ
p1696
aVglobal_scale
p1697
aaF-7.0568014276517488e-07
aF3.0380618909475743e-07
aF-6.6488071581716213e-07
aF0
aF-0
aF0
aF1.0000000000000002
aa(lp1698
Vfk_hip_eyelet_rear_r_01_anim
p1699
a(lp1700
VtranslateX
p1701
aVtranslateY
p1702
aVtranslateZ
p1703
aVrotateX
p1704
aVrotateY
p1705
aVrotateZ
p1706
aVglobal_scale
p1707
aVlagMode
p1708
aaF-7.0568014987060224e-07
aF3.0380611804048385e-07
aF-6.6488065542102959e-07
aF0
aF-0
aF0
aF0.99999999999999978
aF0
aa(lp1709
Vhip_eyelet_rear_r_cv_0_anim
p1710
a(lp1711
VtranslateX
p1712
aVtranslateY
p1713
aVtranslateZ
p1714
aaF0
aF0
aF0
aa(lp1715
Vfk_hip_eyelet_rear_r_02_anim
p1716
a(lp1717
VtranslateX
p1718
aVtranslateY
p1719
aVtranslateZ
p1720
aVrotateX
p1721
aVrotateY
p1722
aVrotateZ
p1723
aaF1.6195680698771753e-06
aF3.8423674197929358e-07
aF-9.9642728912385792e-07
aF0
aF-0
aF0
aa(lp1724
Vhip_eyelet_rear_r_cv_1_anim
p1725
a(lp1726
VtranslateX
p1727
aVtranslateY
p1728
aVtranslateZ
p1729
aaF0
aF0
aF0
aa(lp1730
Vfk_hip_eyelet_rear_r_03_anim
p1731
a(lp1732
VtranslateX
p1733
aVtranslateY
p1734
aVtranslateZ
p1735
aVrotateX
p1736
aVrotateY
p1737
aVrotateZ
p1738
aaF1.6229865114070208e-06
aF3.6153706162167509e-07
aF-9.964227665193448e-07
aF0
aF-0
aF0
aa(lp1739
Vhip_eyelet_rear_r_cv_2_anim
p1740
a(lp1741
VtranslateX
p1742
aVtranslateY
p1743
aVtranslateZ
p1744
aaF0
aF0
aF0
aa(lp1745
Vfk_hip_eyelet_rear_r_04_anim
p1746
a(lp1747
VtranslateX
p1748
aVtranslateY
p1749
aVtranslateZ
p1750
aVrotateX
p1751
aVrotateY
p1752
aVrotateZ
p1753
aaF1.6201036867613539e-06
aF3.4184753516797173e-07
aF-1.0204793809975854e-06
aF0
aF-0
aF0
aa(lp1754
Vhip_eyelet_rear_r_cv_3_anim
p1755
a(lp1756
VtranslateX
p1757
aVtranslateY
p1758
aVtranslateZ
p1759
aaF0
aF0
aF0
aa(lp1760
Vjaw_anim
p1761
a(lp1762
VtranslateX
p1763
aVtranslateY
p1764
aVtranslateZ
p1765
aVrotateX
p1766
aVrotateY
p1767
aVrotateZ
p1768
aVscaleX
p1769
aVscaleY
p1770
aVscaleZ
p1771
aaF0
aF0
aF2.0406787371030077e-11
aF-0.82522174478021915
aF0
aF0
aF1
aF1
aF1
aa(lp1772
Vleg_shieldPad_A_l_anim
p1773
a(lp1774
VtranslateX
p1775
aVtranslateY
p1776
aVtranslateZ
p1777
aVrotateX
p1778
aVrotateY
p1779
aVrotateZ
p1780
aVchainAttach
p1781
aVchainStartEnvelope
p1782
aVchainStartFrame
p1783
aVchainStiffness
p1784
aVchainDamping
p1785
aVchainGravity
p1786
aVchainIteration
p1787
aVchainCollide
p1788
aVchainWidthBase
p1789
aVchainWidthExtremity
p1790
aVchainCollideGround
p1791
aVchainCollideGroundHeight
p1792
aaF0
aF0
aF0
aF0
aF-0
aF0
aI1
aF0
aF1
aF0.10000000000000001
aF0.20000000000000001
aF1
aI1
aI00
aF1
aF1
aI00
aF0
aa(lp1793
Vleg_shieldPad_A_r_anim
p1794
a(lp1795
VtranslateX
p1796
aVtranslateY
p1797
aVtranslateZ
p1798
aVrotateX
p1799
aVrotateY
p1800
aVrotateZ
p1801
aVchainAttach
p1802
aVchainStartEnvelope
p1803
aVchainStartFrame
p1804
aVchainStiffness
p1805
aVchainDamping
p1806
aVchainGravity
p1807
aVchainIteration
p1808
aVchainCollide
p1809
aVchainWidthBase
p1810
aVchainWidthExtremity
p1811
aVchainCollideGround
p1812
aVchainCollideGroundHeight
p1813
aaF0
aF0
aF0
aF0
aF-0
aF0
aI1
aF0
aF1
aF0.10000000000000001
aF0.20000000000000001
aF1
aI1
aI00
aF1
aF1
aI00
aF0
aa(lp1814
Vleg_shieldPad_B_l_anim
p1815
a(lp1816
VtranslateX
p1817
aVtranslateY
p1818
aVtranslateZ
p1819
aVrotateX
p1820
aVrotateY
p1821
aVrotateZ
p1822
aVchainAttach
p1823
aVchainStartEnvelope
p1824
aVchainStartFrame
p1825
aVchainStiffness
p1826
aVchainDamping
p1827
aVchainGravity
p1828
aVchainIteration
p1829
aVchainCollide
p1830
aVchainWidthBase
p1831
aVchainWidthExtremity
p1832
aVchainCollideGround
p1833
aVchainCollideGroundHeight
p1834
aaF0
aF0
aF0
aF0
aF-0
aF0
aI1
aF0
aF1
aF0.10000000000000001
aF0.20000000000000001
aF1
aI1
aI00
aF1
aF1
aI00
aF0
aa(lp1835
Vleg_shieldPad_B_r_anim
p1836
a(lp1837
VtranslateX
p1838
aVtranslateY
p1839
aVtranslateZ
p1840
aVrotateX
p1841
aVrotateY
p1842
aVrotateZ
p1843
aVchainAttach
p1844
aVchainStartEnvelope
p1845
aVchainStartFrame
p1846
aVchainStiffness
p1847
aVchainDamping
p1848
aVchainGravity
p1849
aVchainIteration
p1850
aVchainCollide
p1851
aVchainWidthBase
p1852
aVchainWidthExtremity
p1853
aVchainCollideGround
p1854
aVchainCollideGroundHeight
p1855
aaF0
aF0
aF0
aF0
aF-0
aF0
aI1
aF0
aF1
aF0.10000000000000001
aF0.20000000000000001
aF1
aI1
aI00
aF1
aF1
aI00
aF0
aa(lp1856
Vloin_cloth_bk_dyn_anim
p1857
a(lp1858
VtranslateX
p1859
aVtranslateY
p1860
aVtranslateZ
p1861
aVrotateX
p1862
aVrotateY
p1863
aVrotateZ
p1864
aVchainAttach
p1865
aVchainStartEnvelope
p1866
aVchainStartFrame
p1867
aVchainStiffness
p1868
aVchainDamping
p1869
aVchainGravity
p1870
aVchainIteration
p1871
aVchainCollide
p1872
aVchainWidthBase
p1873
aVchainWidthExtremity
p1874
aVchainCollideGround
p1875
aVchainCollideGroundHeight
p1876
aaF-1.2212453270876722e-14
aF0
aF1.4210854715202004e-14
aF0
aF-0
aF0
aI1
aF1
aF1
aF0.10000000000000001
aF0.20000000000000001
aF1
aI1
aI00
aF1
aF1
aI00
aF0
aa(lp1877
Vloin_cloth_bk_ik_2_anim
p1878
a(lp1879
VtranslateX
p1880
aVtranslateY
p1881
aVtranslateZ
p1882
aVrotateX
p1883
aVrotateY
p1884
aVrotateZ
p1885
aaF-4.4408920985006262e-16
aF-1.4210854715202004e-14
aF1.4210854715202004e-14
aF0
aF-0
aF0
aa(lp1886
Vloin_cloth_bk_ik_3_anim
p1887
a(lp1888
VtranslateX
p1889
aVtranslateY
p1890
aVtranslateZ
p1891
aVrotateX
p1892
aVrotateY
p1893
aVrotateZ
p1894
aVclusterControlVis
p1895
aaF2.886579864025407e-15
aF1.4210854715202004e-14
aF1.4210854715202004e-14
aF0
aF-0
aF0
aI00
aa(lp1896
Vloin_cloth_bk_ik_base_anim
p1897
a(lp1898
VtranslateX
p1899
aVtranslateY
p1900
aVtranslateZ
p1901
aVrotateX
p1902
aVrotateY
p1903
aVrotateZ
p1904
aVglobal_scale
p1905
aaF-9.1038288019262836e-15
aF-1.4210854715202004e-14
aF1.4210854715202004e-14
aF0
aF-0
aF0
aF1
aa(lp1906
Vfk_loin_cloth_bk_01_anim
p1907
a(lp1908
VtranslateX
p1909
aVtranslateY
p1910
aVtranslateZ
p1911
aVrotateX
p1912
aVrotateY
p1913
aVrotateZ
p1914
aVglobal_scale
p1915
aVlagMode
p1916
aaF-9.5479180117763462e-15
aF0
aF7.1054273576010019e-15
aF0
aF-0
aF0
aF1
aF0
aa(lp1917
Vloin_cloth_bk_cv_0_anim
p1918
a(lp1919
VtranslateX
p1920
aVtranslateY
p1921
aVtranslateZ
p1922
aaF0
aF0
aF0
aa(lp1923
Vfk_loin_cloth_bk_02_anim
p1924
a(lp1925
VtranslateX
p1926
aVtranslateY
p1927
aVtranslateZ
p1928
aVrotateX
p1929
aVrotateY
p1930
aVrotateZ
p1931
aaF-4.2188474935755949e-15
aF-1.4210854715202004e-14
aF7.1054273576010019e-15
aF0
aF-0
aF0
aa(lp1932
Vloin_cloth_bk_cv_1_anim
p1933
a(lp1934
VtranslateX
p1935
aVtranslateY
p1936
aVtranslateZ
p1937
aaF0
aF0
aF0
aa(lp1938
Vloin_cloth_fr_dyn_anim
p1939
a(lp1940
VtranslateX
p1941
aVtranslateY
p1942
aVtranslateZ
p1943
aVrotateX
p1944
aVrotateY
p1945
aVrotateZ
p1946
aVchainAttach
p1947
aVchainStartEnvelope
p1948
aVchainStartFrame
p1949
aVchainStiffness
p1950
aVchainDamping
p1951
aVchainGravity
p1952
aVchainIteration
p1953
aVchainCollide
p1954
aVchainWidthBase
p1955
aVchainWidthExtremity
p1956
aVchainCollideGround
p1957
aVchainCollideGroundHeight
p1958
aaF1.3766765505351941e-14
aF0
aF8.8817841970012523e-15
aF0
aF-0
aF0
aI1
aF1
aF1
aF0.10000000000000001
aF0.20000000000000001
aF1
aI1
aI00
aF1
aF1
aI00
aF0
aa(lp1959
Vloin_cloth_fr_ik_2_anim
p1960
a(lp1961
VtranslateX
p1962
aVtranslateY
p1963
aVtranslateZ
p1964
aVrotateX
p1965
aVrotateY
p1966
aVrotateZ
p1967
aaF-3.5527136788005009e-15
aF1.4210854715202004e-14
aF1.9539925233402755e-14
aF0
aF-0
aF0
aa(lp1968
Vloin_cloth_fr_ik_3_anim
p1969
a(lp1970
VtranslateX
p1971
aVtranslateY
p1972
aVtranslateZ
p1973
aVrotateX
p1974
aVrotateY
p1975
aVrotateZ
p1976
aVclusterControlVis
p1977
aaF1.3322676295501878e-15
aF0
aF1.0658141036401503e-14
aF0
aF-0
aF0
aI00
aa(lp1978
Vloin_cloth_fr_ik_base_anim
p1979
a(lp1980
VtranslateX
p1981
aVtranslateY
p1982
aVtranslateZ
p1983
aVrotateX
p1984
aVrotateY
p1985
aVrotateZ
p1986
aVglobal_scale
p1987
aaF1.4210854715202004e-14
aF1.4210854715202004e-14
aF3.5527136788005009e-15
aF0
aF-0
aF0
aF1
aa(lp1988
Vfk_loin_cloth_fr_01_anim
p1989
a(lp1990
VtranslateX
p1991
aVtranslateY
p1992
aVtranslateZ
p1993
aVrotateX
p1994
aVrotateY
p1995
aVrotateZ
p1996
aVglobal_scale
p1997
aVlagMode
p1998
aaF1.3322676295501878e-14
aF1.4210854715202004e-14
aF7.1054273576010019e-15
aF0
aF-0
aF0
aF1
aF0
aa(lp1999
Vloin_cloth_fr_cv_0_anim
p2000
a(lp2001
VtranslateX
p2002
aVtranslateY
p2003
aVtranslateZ
p2004
aaF0
aF0
aF0
aa(lp2005
Vfk_loin_cloth_fr_02_anim
p2006
a(lp2007
VtranslateX
p2008
aVtranslateY
p2009
aVtranslateZ
p2010
aVrotateX
p2011
aVrotateY
p2012
aVrotateZ
p2013
aaF-8.8817841970012523e-15
aF1.4210854715202004e-14
aF1.2434497875801753e-14
aF0
aF-0
aF0
aa(lp2014
Vloin_cloth_fr_cv_1_anim
p2015
a(lp2016
VtranslateX
p2017
aVtranslateY
p2018
aVtranslateZ
p2019
aaF0
aF0
aF0
aa(lp2020
Vpadawan_l_dyn_anim
p2021
a(lp2022
VtranslateX
p2023
aVtranslateY
p2024
aVtranslateZ
p2025
aVrotateX
p2026
aVrotateY
p2027
aVrotateZ
p2028
aVchainAttach
p2029
aVchainStartEnvelope
p2030
aVchainStartFrame
p2031
aVchainStiffness
p2032
aVchainDamping
p2033
aVchainGravity
p2034
aVchainIteration
p2035
aVchainCollide
p2036
aVchainWidthBase
p2037
aVchainWidthExtremity
p2038
aVchainCollideGround
p2039
aVchainCollideGroundHeight
p2040
aaF5.6692137206937332e-07
aF-2.0772964148818573e-07
aF-2.7077916797679791e-07
aF0
aF-0
aF0
aI1
aF1
aF1
aF0.10000000000000001
aF0.20000000000000001
aF1
aI1
aI00
aF1
aF1
aI00
aF0
aa(lp2041
Vpadawan_l_ik_2_anim
p2042
a(lp2043
VtranslateX
p2044
aVtranslateY
p2045
aVtranslateZ
p2046
aVrotateX
p2047
aVrotateY
p2048
aVrotateZ
p2049
aaF9.8929811898074149e-07
aF3.4911221291622496e-07
aF2.7295460824916518e-07
aF0
aF-0
aF0
aa(lp2050
Vpadawan_l_ik_3_anim
p2051
a(lp2052
VtranslateX
p2053
aVtranslateY
p2054
aVtranslateZ
p2055
aVrotateX
p2056
aVrotateY
p2057
aVrotateZ
p2058
aVclusterControlVis
p2059
aaF5.363469295360801e-07
aF1.4553987170984328e-07
aF9.1610289132404432e-08
aF0
aF-0
aF0
aI00
aa(lp2060
Vpadawan_l_ik_base_anim
p2061
a(lp2062
VtranslateX
p2063
aVtranslateY
p2064
aVtranslateZ
p2065
aVrotateX
p2066
aVrotateY
p2067
aVrotateZ
p2068
aVglobal_scale
p2069
aaF5.641167426517768e-07
aF-2.1178587417125527e-07
aF-2.7349295805834117e-07
aF0
aF-0
aF0
aF1
aa(lp2070
Vfk_padawan_l_01_anim
p2071
a(lp2072
VtranslateX
p2073
aVtranslateY
p2074
aVtranslateZ
p2075
aVrotateX
p2076
aVrotateY
p2077
aVrotateZ
p2078
aVglobal_scale
p2079
aVlagMode
p2080
aaF5.6411675686263152e-07
aF-2.1178595943638356e-07
aF-2.7349290121492231e-07
aF0
aF-0
aF0
aF1
aF0
aa(lp2081
Vpadawan_l_cv_0_anim
p2082
a(lp2083
VtranslateX
p2084
aVtranslateY
p2085
aVtranslateZ
p2086
aaF0
aF0
aF0
aa(lp2087
Vfk_padawan_l_02_anim
p2088
a(lp2089
VtranslateX
p2090
aVtranslateY
p2091
aVtranslateZ
p2092
aVrotateX
p2093
aVrotateY
p2094
aVrotateZ
p2095
aaF4.4171868474052189e-07
aF3.3581369507373893e-07
aF2.0699327762940811e-07
aF0
aF-0
aF0
aa(lp2096
Vpadawan_l_cv_1_anim
p2097
a(lp2098
VtranslateX
p2099
aVtranslateY
p2100
aVtranslateZ
p2101
aaF0
aF0
aF0
aa(lp2102
Vfk_padawan_l_03_anim
p2103
a(lp2104
VtranslateX
p2105
aVtranslateY
p2106
aVtranslateZ
p2107
aVrotateX
p2108
aVrotateY
p2109
aVrotateZ
p2110
aaF4.6418361598909996e-07
aF7.1331214712699875e-08
aF1.5569537481496809e-07
aF0
aF-0
aF0
aa(lp2111
Vpadawan_l_cv_2_anim
p2112
a(lp2113
VtranslateX
p2114
aVtranslateY
p2115
aVtranslateZ
p2116
aaF0
aF0
aF0
aa(lp2117
Vpadawan_r_dyn_anim
p2118
a(lp2119
VtranslateX
p2120
aVtranslateY
p2121
aVtranslateZ
p2122
aVrotateX
p2123
aVrotateY
p2124
aVrotateZ
p2125
aVchainAttach
p2126
aVchainStartEnvelope
p2127
aVchainStartFrame
p2128
aVchainStiffness
p2129
aVchainDamping
p2130
aVchainGravity
p2131
aVchainIteration
p2132
aVchainCollide
p2133
aVchainWidthBase
p2134
aVchainWidthExtremity
p2135
aVchainCollideGround
p2136
aVchainCollideGroundHeight
p2137
aaF6.5734752041635147e-07
aF-7.4608664135666913e-08
aF-1.3938219467490853e-08
aF0
aF-0
aF0
aI1
aF1
aF1
aF0.10000000000000001
aF0.20000000000000001
aF1
aI1
aI00
aF1
aF1
aI00
aF0
aa(lp2138
Vpadawan_r_ik_2_anim
p2139
a(lp2140
VtranslateX
p2141
aVtranslateY
p2142
aVtranslateZ
p2143
aVrotateX
p2144
aVrotateY
p2145
aVrotateZ
p2146
aaF1.0333995508204907e-06
aF4.2689447354860022e-07
aF4.0427315184388135e-07
aF0
aF-0
aF0
aa(lp2147
Vpadawan_r_ik_3_anim
p2148
a(lp2149
VtranslateX
p2150
aVtranslateY
p2151
aVtranslateZ
p2152
aVrotateX
p2153
aVrotateY
p2154
aVrotateZ
p2155
aVclusterControlVis
p2156
aaF5.8044837558668405e-07
aF2.2332196181196196e-07
aF2.2292874746199232e-07
aF0
aF-0
aF0
aI00
aa(lp2157
Vpadawan_r_ik_base_anim
p2158
a(lp2159
VtranslateX
p2160
aVtranslateY
p2161
aVtranslateZ
p2162
aVrotateX
p2163
aVrotateY
p2164
aVrotateZ
p2165
aVglobal_scale
p2166
aaF6.5629663126287596e-07
aF-8.3225103253425914e-08
aF-1.4957976190999034e-08
aF0
aF-0
aF0
aF1
aa(lp2167
Vfk_padawan_r_01_anim
p2168
a(lp2169
VtranslateX
p2170
aVtranslateY
p2171
aVtranslateZ
p2172
aVrotateX
p2173
aVrotateY
p2174
aVrotateZ
p2175
aVglobal_scale
p2176
aVlagMode
p2177
aaF0
aF0
aF0
aF0
aF-0
aF0
aF1
aF0
aa(lp2178
Vpadawan_r_cv_0_anim
p2179
a(lp2180
VtranslateX
p2181
aVtranslateY
p2182
aVtranslateZ
p2183
aaF0
aF0
aF0
aa(lp2184
Vfk_padawan_r_02_anim
p2185
a(lp2186
VtranslateX
p2187
aVtranslateY
p2188
aVtranslateZ
p2189
aVrotateX
p2190
aVrotateY
p2191
aVrotateZ
p2192
aaF4.4171864921338511e-07
aF3.3581375191715779e-07
aF2.0699330605111754e-07
aF0
aF-0
aF0
aa(lp2193
Vpadawan_r_cv_1_anim
p2194
a(lp2195
VtranslateX
p2196
aVtranslateY
p2197
aVtranslateZ
p2198
aaF0
aF0
aF0
aa(lp2199
Vfk_padawan_r_03_anim
p2200
a(lp2201
VtranslateX
p2202
aVtranslateY
p2203
aVtranslateZ
p2204
aVrotateX
p2205
aVrotateY
p2206
aVrotateZ
p2207
aaF4.6418361421274312e-07
aF7.1331214712699875e-08
aF1.5569546008009638e-07
aF0
aF-0
aF0
aa(lp2208
Vpadawan_r_cv_2_anim
p2209
a(lp2210
VtranslateX
p2211
aVtranslateY
p2212
aVtranslateZ
p2213
aaF0
aF0
aF0
aa(lp2214
Vpipe_anim
p2215
a(lp2216
VtranslateX
p2217
aVtranslateY
p2218
aVtranslateZ
p2219
aVrotateX
p2220
aVrotateY
p2221
aVrotateZ
p2222
aVscaleX
p2223
aVscaleY
p2224
aVscaleZ
p2225
aaF0
aF0
aF0
aF-1.2933620261157111e-07
aF-3.3538530267978628e-08
aF-7.9214437030667315e-05
aF1
aF1
aF1
aa(lp2226
Vponytail_dyn_anim
p2227
a(lp2228
VtranslateX
p2229
aVtranslateY
p2230
aVtranslateZ
p2231
aVrotateX
p2232
aVrotateY
p2233
aVrotateZ
p2234
aVchainAttach
p2235
aVchainStartEnvelope
p2236
aVchainStartFrame
p2237
aVchainStiffness
p2238
aVchainDamping
p2239
aVchainGravity
p2240
aVchainIteration
p2241
aVchainCollide
p2242
aVchainWidthBase
p2243
aVchainWidthExtremity
p2244
aVchainCollideGround
p2245
aVchainCollideGroundHeight
p2246
aaF-2.246236600056406e-07
aF1.143462213804014e-07
aF9.9454837254597805e-08
aF0
aF-0
aF0
aI1
aF1
aF1
aF0.10000000000000001
aF0.20000000000000001
aF1
aI1
aI00
aF1
aF1
aI00
aF0
aa(lp2247
Vponytail_ik_2_anim
p2248
a(lp2249
VtranslateX
p2250
aVtranslateY
p2251
aVtranslateZ
p2252
aVrotateX
p2253
aVrotateY
p2254
aVrotateZ
p2255
aaF-1.0984045117901076e-07
aF6.0196214235475054e-08
aF5.1829516678481014e-08
aF0
aF-0
aF0
aa(lp2256
Vponytail_ik_3_anim
p2257
a(lp2258
VtranslateX
p2259
aVtranslateY
p2260
aVtranslateZ
p2261
aVrotateX
p2262
aVrotateY
p2263
aVrotateZ
p2264
aVclusterControlVis
p2265
aaF-1.0984051701523612e-07
aF6.0196185813765624e-08
aF5.1829545100190444e-08
aF0
aF-0
aF0
aI00
aa(lp2266
Vponytail_ik_base_anim
p2267
a(lp2268
VtranslateX
p2269
aVtranslateY
p2270
aVtranslateZ
p2271
aVrotateX
p2272
aVrotateY
p2273
aVrotateZ
p2274
aVglobal_scale
p2275
aaF-2.246236600056406e-07
aF1.1402694610751496e-07
aF9.9820766763514257e-08
aF0
aF-0
aF0
aF1
aa(lp2276
Vfk_ponytail_01_anim
p2277
a(lp2278
VtranslateX
p2279
aVtranslateY
p2280
aVtranslateZ
p2281
aVrotateX
p2282
aVrotateY
p2283
aVrotateZ
p2284
aVglobal_scale
p2285
aVlagMode
p2286
aaF-2.2462365911746218e-07
aF1.1402693189666024e-07
aF9.9820795185223687e-08
aF0
aF-0
aF0
aF1
aF0
aa(lp2287
Vponytail_cv_0_anim
p2288
a(lp2289
VtranslateX
p2290
aVtranslateY
p2291
aVtranslateZ
p2292
aaF0
aF0
aF0
aa(lp2293
Vfk_ponytail_02_anim
p2294
a(lp2295
VtranslateX
p2296
aVtranslateY
p2297
aVtranslateZ
p2298
aVrotateX
p2299
aVrotateY
p2300
aVrotateZ
p2301
aaF6.5281113847959104e-14
aF0
aF2.8421709430404007e-14
aF0
aF-0
aF0
aa(lp2302
Vponytail_cv_1_anim
p2303
a(lp2304
VtranslateX
p2305
aVtranslateY
p2306
aVtranslateZ
p2307
aaF0
aF0
aF0
aa(lp2308
Vfk_ponytail_03_anim
p2309
a(lp2310
VtranslateX
p2311
aVtranslateY
p2312
aVtranslateZ
p2313
aVrotateX
p2314
aVrotateY
p2315
aVrotateZ
p2316
aaF6.8389738316909542e-14
aF-2.8421709430404007e-14
aF-2.8421709430404007e-14
aF0
aF-0
aF0
aa(lp2317
Vponytail_cv_2_anim
p2318
a(lp2319
VtranslateX
p2320
aVtranslateY
p2321
aVtranslateZ
p2322
aaF0
aF0
aF0
aa(lp2323
Vshoulder_blade_in_r_anim
p2324
a(lp2325
VtranslateX
p2326
aVtranslateY
p2327
aVtranslateZ
p2328
aVrotateX
p2329
aVrotateY
p2330
aVrotateZ
p2331
aVscaleX
p2332
aVscaleY
p2333
aVscaleZ
p2334
aaF0
aF0
aF0
aF0
aF-0
aF0
aF1
aF1.0000000000000002
aF1.0000000000000004
aa(lp2335
Vshoulder_blade_mid_r_anim
p2336
a(lp2337
VtranslateX
p2338
aVtranslateY
p2339
aVtranslateZ
p2340
aVrotateX
p2341
aVrotateY
p2342
aVrotateZ
p2343
aVscaleX
p2344
aVscaleY
p2345
aVscaleZ
p2346
aaF0
aF0
aF0
aF0
aF-0
aF0
aF1
aF1.0000000000000002
aF1.0000000000000004
aa(lp2347
Vshoulder_blade_out_r_anim
p2348
a(lp2349
VtranslateX
p2350
aVtranslateY
p2351
aVtranslateZ
p2352
aVrotateX
p2353
aVrotateY
p2354
aVrotateZ
p2355
aVscaleX
p2356
aVscaleY
p2357
aVscaleZ
p2358
aaF0
aF0
aF0
aF0
aF-0
aF0
aF1
aF1.0000000000000002
aF1.0000000000000004
aa(lp2359
Vshoulder_cloth_01_l_anim
p2360
a(lp2361
VtranslateX
p2362
aVtranslateY
p2363
aVtranslateZ
p2364
aVrotateX
p2365
aVrotateY
p2366
aVrotateZ
p2367
aVscaleX
p2368
aVscaleY
p2369
aVscaleZ
p2370
aaF0
aF0
aF0
aF0
aF-0
aF0
aF1
aF1
aF1
aa(lp2371
Vshoulder_cloth_02_l_anim
p2372
a(lp2373
VtranslateX
p2374
aVtranslateY
p2375
aVtranslateZ
p2376
aVrotateX
p2377
aVrotateY
p2378
aVrotateZ
p2379
aVscaleX
p2380
aVscaleY
p2381
aVscaleZ
p2382
aaF0
aF0
aF0
aF0
aF-0
aF0
aF1
aF1
aF1
aa(lp2383
Vshoulder_pad_r_anim
p2384
a(lp2385
VtranslateX
p2386
aVtranslateY
p2387
aVtranslateZ
p2388
aVrotateX
p2389
aVrotateY
p2390
aVrotateZ
p2391
aVscaleX
p2392
aVscaleY
p2393
aVscaleZ
p2394
aaF0
aF0
aF0
aF0
aF-0
aF0
aF1
aF1
aF1
aa(lp2395
Vweapon_anim
p2396
a(lp2397
VtranslateX
p2398
aVtranslateY
p2399
aVtranslateZ
p2400
aVrotateX
p2401
aVrotateY
p2402
aVrotateZ
p2403
aVscaleX
p2404
aVscaleY
p2405
aVscaleZ
p2406
aVspace_ik_wrist_r_anim
p2407
aaF-102.25030587198324
aF25.085127448320769
aF-5.9504893284027247
aF152.397896839384
aF-77.962983370862631
aF52.25900883694144
aF1
aF1
aF1
aF1
aa(lp2408
Vweapon_bladeA_01_anim
p2409
a(lp2410
VtranslateX
p2411
aVtranslateY
p2412
aVtranslateZ
p2413
aVrotateX
p2414
aVrotateY
p2415
aVrotateZ
p2416
aVscaleX
p2417
aVscaleY
p2418
aVscaleZ
p2419
aaF0
aF0
aF0
aF0
aF-0
aF0
aF1
aF1
aF1
aa(lp2420
Vweapon_bladeA_02_anim
p2421
a(lp2422
VtranslateX
p2423
aVtranslateY
p2424
aVtranslateZ
p2425
aVrotateX
p2426
aVrotateY
p2427
aVrotateZ
p2428
aVscaleX
p2429
aVscaleY
p2430
aVscaleZ
p2431
aaF0
aF0
aF0
aF0
aF-0
aF0
aF1
aF1
aF1
aa(lp2432
Vweapon_bladeA_03_anim
p2433
a(lp2434
VtranslateX
p2435
aVtranslateY
p2436
aVtranslateZ
p2437
aVrotateX
p2438
aVrotateY
p2439
aVrotateZ
p2440
aVscaleX
p2441
aVscaleY
p2442
aVscaleZ
p2443
aaF0
aF0
aF0
aF0
aF-0
aF0
aF1
aF1
aF1
aa(lp2444
Vweapon_bladeA_04_anim
p2445
a(lp2446
VtranslateX
p2447
aVtranslateY
p2448
aVtranslateZ
p2449
aVrotateX
p2450
aVrotateY
p2451
aVrotateZ
p2452
aVscaleX
p2453
aVscaleY
p2454
aVscaleZ
p2455
aaF0
aF0
aF0
aF0
aF-0
aF0
aF1
aF1
aF1
aa(lp2456
Vweapon_bladeA_05_anim
p2457
a(lp2458
VtranslateX
p2459
aVtranslateY
p2460
aVtranslateZ
p2461
aVrotateX
p2462
aVrotateY
p2463
aVrotateZ
p2464
aVscaleX
p2465
aVscaleY
p2466
aVscaleZ
p2467
aaF0
aF0
aF0
aF0
aF-0
aF0
aF1
aF1
aF1
aa(lp2468
Vweapon_bladeB_01_anim
p2469
a(lp2470
VtranslateX
p2471
aVtranslateY
p2472
aVtranslateZ
p2473
aVrotateX
p2474
aVrotateY
p2475
aVrotateZ
p2476
aVscaleX
p2477
aVscaleY
p2478
aVscaleZ
p2479
aaF0
aF0
aF0
aF0
aF-0
aF0
aF1
aF1
aF1
aa(lp2480
Vweapon_bladeB_02_anim
p2481
a(lp2482
VtranslateX
p2483
aVtranslateY
p2484
aVtranslateZ
p2485
aVrotateX
p2486
aVrotateY
p2487
aVrotateZ
p2488
aVscaleX
p2489
aVscaleY
p2490
aVscaleZ
p2491
aaF0
aF0
aF0
aF0
aF-0
aF0
aF1
aF1
aF1
aa(lp2492
Vweapon_bladeB_03_anim
p2493
a(lp2494
VtranslateX
p2495
aVtranslateY
p2496
aVtranslateZ
p2497
aVrotateX
p2498
aVrotateY
p2499
aVrotateZ
p2500
aVscaleX
p2501
aVscaleY
p2502
aVscaleZ
p2503
aaF0
aF0
aF0
aF0
aF-0
aF0
aF1
aF1
aF1
aa(lp2504
Vweapon_bladeB_04_anim
p2505
a(lp2506
VtranslateX
p2507
aVtranslateY
p2508
aVtranslateZ
p2509
aVrotateX
p2510
aVrotateY
p2511
aVrotateZ
p2512
aVscaleX
p2513
aVscaleY
p2514
aVscaleZ
p2515
aaF0
aF0
aF0
aF0
aF-0
aF0
aF1
aF1
aF1
aa(lp2516
Vweapon_bladeB_05_anim
p2517
a(lp2518
VtranslateX
p2519
aVtranslateY
p2520
aVtranslateZ
p2521
aVrotateX
p2522
aVrotateY
p2523
aVrotateZ
p2524
aVscaleX
p2525
aVscaleY
p2526
aVscaleZ
p2527
aaF0
aF0
aF0
aF0
aF-0
aF0
aF1
aF1
aF1
aa(lp2528
Vweapon_bladeC_01_anim
p2529
a(lp2530
VtranslateX
p2531
aVtranslateY
p2532
aVtranslateZ
p2533
aVrotateX
p2534
aVrotateY
p2535
aVrotateZ
p2536
aVscaleX
p2537
aVscaleY
p2538
aVscaleZ
p2539
aaF0
aF0
aF0
aF0
aF-0
aF0
aF1
aF1
aF1
aa(lp2540
Vweapon_bladeC_02_anim
p2541
a(lp2542
VtranslateX
p2543
aVtranslateY
p2544
aVtranslateZ
p2545
aVrotateX
p2546
aVrotateY
p2547
aVrotateZ
p2548
aVscaleX
p2549
aVscaleY
p2550
aVscaleZ
p2551
aaF0
aF0
aF0
aF0
aF-0
aF0
aF1
aF1
aF1
aa(lp2552
Vweapon_bladeC_03_anim
p2553
a(lp2554
VtranslateX
p2555
aVtranslateY
p2556
aVtranslateZ
p2557
aVrotateX
p2558
aVrotateY
p2559
aVrotateZ
p2560
aVscaleX
p2561
aVscaleY
p2562
aVscaleZ
p2563
aaF0
aF0
aF0
aF0
aF-0
aF0
aF1
aF1
aF1
aa(lp2564
Vweapon_bladeD_01_anim
p2565
a(lp2566
VtranslateX
p2567
aVtranslateY
p2568
aVtranslateZ
p2569
aVrotateX
p2570
aVrotateY
p2571
aVrotateZ
p2572
aVscaleX
p2573
aVscaleY
p2574
aVscaleZ
p2575
aaF0
aF0
aF0
aF0
aF-0
aF0
aF1
aF1
aF1
aa(lp2576
Vweapon_butt_dyn_anim
p2577
a(lp2578
VtranslateX
p2579
aVtranslateY
p2580
aVtranslateZ
p2581
aVrotateX
p2582
aVrotateY
p2583
aVrotateZ
p2584
aVchainAttach
p2585
aVchainStartEnvelope
p2586
aVchainStartFrame
p2587
aVchainStiffness
p2588
aVchainDamping
p2589
aVchainGravity
p2590
aVchainIteration
p2591
aVchainCollide
p2592
aVchainWidthBase
p2593
aVchainWidthExtremity
p2594
aVchainCollideGround
p2595
aVchainCollideGroundHeight
p2596
aaF0
aF0
aF0
aF0
aF-0
aF0
aI1
aF1
aF1
aF0.10000000000000001
aF0.20000000000000001
aF1
aI1
aI00
aF1
aF1
aI00
aF0
aa(lp2597
Vweapon_butt_ik_2_anim
p2598
a(lp2599
VtranslateX
p2600
aVtranslateY
p2601
aVtranslateZ
p2602
aVrotateX
p2603
aVrotateY
p2604
aVrotateZ
p2605
aaF0
aF0
aF0
aF0
aF-0
aF0
aa(lp2606
Vweapon_butt_ik_3_anim
p2607
a(lp2608
VtranslateX
p2609
aVtranslateY
p2610
aVtranslateZ
p2611
aVrotateX
p2612
aVrotateY
p2613
aVrotateZ
p2614
aaF0
aF0
aF0
aF0
aF-0
aF0
aa(lp2615
Vweapon_butt_ik_4_anim
p2616
a(lp2617
VtranslateX
p2618
aVtranslateY
p2619
aVtranslateZ
p2620
aVrotateX
p2621
aVrotateY
p2622
aVrotateZ
p2623
aVclusterControlVis
p2624
aaF0
aF0
aF0
aF0
aF-0
aF0
aI00
aa(lp2625
Vweapon_butt_ik_base_anim
p2626
a(lp2627
VtranslateX
p2628
aVtranslateY
p2629
aVtranslateZ
p2630
aVrotateX
p2631
aVrotateY
p2632
aVrotateZ
p2633
aVglobal_scale
p2634
aaF0
aF0
aF0
aF0
aF-0
aF0
aF0.99999999999999978
aa(lp2635
Vfk_weapon_butt_01_anim
p2636
a(lp2637
VtranslateX
p2638
aVtranslateY
p2639
aVtranslateZ
p2640
aVrotateX
p2641
aVrotateY
p2642
aVrotateZ
p2643
aVglobal_scale
p2644
aVlagMode
p2645
aaF0
aF0
aF0
aF0
aF-0
aF0
aF1.0000000000000002
aF0
aa(lp2646
Vweapon_butt_cv_0_anim
p2647
a(lp2648
VtranslateX
p2649
aVtranslateY
p2650
aVtranslateZ
p2651
aaF0
aF0
aF0
aa(lp2652
Vfk_weapon_butt_02_anim
p2653
a(lp2654
VtranslateX
p2655
aVtranslateY
p2656
aVtranslateZ
p2657
aVrotateX
p2658
aVrotateY
p2659
aVrotateZ
p2660
aaF0
aF0
aF0
aF0
aF-0
aF0
aa(lp2661
Vweapon_butt_cv_1_anim
p2662
a(lp2663
VtranslateX
p2664
aVtranslateY
p2665
aVtranslateZ
p2666
aaF0
aF0
aF0
aa(lp2667
Vfk_weapon_butt_03_anim
p2668
a(lp2669
VtranslateX
p2670
aVtranslateY
p2671
aVtranslateZ
p2672
aVrotateX
p2673
aVrotateY
p2674
aVrotateZ
p2675
aaF0
aF0
aF0
aF0
aF-0
aF0
aa(lp2676
Vweapon_butt_cv_2_anim
p2677
a(lp2678
VtranslateX
p2679
aVtranslateY
p2680
aVtranslateZ
p2681
aaF0
aF0
aF0
aa(lp2682
Vfk_weapon_butt_04_anim
p2683
a(lp2684
VtranslateX
p2685
aVtranslateY
p2686
aVtranslateZ
p2687
aVrotateX
p2688
aVrotateY
p2689
aVrotateZ
p2690
aaF0
aF0
aF0
aF0
aF-0
aF0
aa(lp2691
Vweapon_butt_cv_3_anim
p2692
a(lp2693
VtranslateX
p2694
aVtranslateY
p2695
aVtranslateZ
p2696
aaF0
aF0
aF0
aa(lp2697
Vfk_weapon_butt_05_anim
p2698
a(lp2699
VtranslateX
p2700
aVtranslateY
p2701
aVtranslateZ
p2702
aVrotateX
p2703
aVrotateY
p2704
aVrotateZ
p2705
aaF0
aF0
aF0
aF0
aF-0
aF0
aa(lp2706
Vweapon_butt_cv_4_anim
p2707
a(lp2708
VtranslateX
p2709
aVtranslateY
p2710
aVtranslateZ
p2711
aaF0
aF0
aF0
aa(lp2712
Vfk_weapon_butt_06_anim
p2713
a(lp2714
VtranslateX
p2715
aVtranslateY
p2716
aVtranslateZ
p2717
aVrotateX
p2718
aVrotateY
p2719
aVrotateZ
p2720
aaF0
aF0
aF0
aF0
aF-0
aF0
aa(lp2721
Vweapon_butt_cv_5_anim
p2722
a(lp2723
VtranslateX
p2724
aVtranslateY
p2725
aVtranslateZ
p2726
aaF0
aF0
aF0
aa(lp2727
Vfk_weapon_butt_07_anim
p2728
a(lp2729
VtranslateX
p2730
aVtranslateY
p2731
aVtranslateZ
p2732
aVrotateX
p2733
aVrotateY
p2734
aVrotateZ
p2735
aaF0
aF0
aF0
aF0
aF-0
aF0
aa(lp2736
Vweapon_butt_cv_6_anim
p2737
a(lp2738
VtranslateX
p2739
aVtranslateY
p2740
aVtranslateZ
p2741
aaF0
aF0
aF0
aa(lp2742
Vfk_weapon_butt_08_anim
p2743
a(lp2744
VtranslateX
p2745
aVtranslateY
p2746
aVtranslateZ
p2747
aVrotateX
p2748
aVrotateY
p2749
aVrotateZ
p2750
aaF0
aF0
aF0
aF0
aF-0
aF0
aa(lp2751
Vweapon_butt_cv_7_anim
p2752
a(lp2753
VtranslateX
p2754
aVtranslateY
p2755
aVtranslateZ
p2756
aaF0
aF0
aF0
aa(lp2757
Vfk_weapon_butt_09_anim
p2758
a(lp2759
VtranslateX
p2760
aVtranslateY
p2761
aVtranslateZ
p2762
aVrotateX
p2763
aVrotateY
p2764
aVrotateZ
p2765
aaF0
aF0
aF0
aF0
aF-0
aF0
aa(lp2766
Vweapon_butt_cv_8_anim
p2767
a(lp2768
VtranslateX
p2769
aVtranslateY
p2770
aVtranslateZ
p2771
aaF0
aF0
aF0
aa(lp2772
Vwrist_plate_r_anim
p2773
a(lp2774
VtranslateX
p2775
aVtranslateY
p2776
aVtranslateZ
p2777
aVrotateX
p2778
aVrotateY
p2779
aVrotateZ
p2780
aVscaleX
p2781
aVscaleY
p2782
aVscaleZ
p2783
aaF0
aF0
aF0
aF0
aF-0
aF0
aF1
aF1
aF1
aa(lp2784
Vbody_anim_space_switcher
p2785
a(lp2786
Vvisibility
p2787
aVtranslateX
p2788
aVtranslateY
p2789
aVtranslateZ
p2790
aVrotateX
p2791
aVrotateY
p2792
aVrotateZ
p2793
aVscaleX
p2794
aVscaleY
p2795
aVscaleZ
p2796
aVspace_world
p2797
aaI01
aF0
aF0
aF5.856452433224257e-15
aF0
aF0
aF0
aF1
aF1
aF1
aF0
aa(lp2798
Vbracelet_A_l_anim_space_switcher
p2799
a(lp2800
Vvisibility
p2801
aVtranslateX
p2802
aVtranslateY
p2803
aVtranslateZ
p2804
aVrotateX
p2805
aVrotateY
p2806
aVrotateZ
p2807
aVscaleX
p2808
aVscaleY
p2809
aVscaleZ
p2810
aVspace_world
p2811
aaI01
aF1.4210854715202004e-14
aF0
aF0
aF3.1805546814635168e-15
aF1.5902773407317584e-15
aF-7.9513867036587919e-16
aF1
aF1
aF0.99999999999999989
aF0
aa(lp2812
Vbracelet_B_l_anim_space_switcher
p2813
a(lp2814
Vvisibility
p2815
aVtranslateX
p2816
aVtranslateY
p2817
aVtranslateZ
p2818
aVrotateX
p2819
aVrotateY
p2820
aVrotateZ
p2821
aVscaleX
p2822
aVscaleY
p2823
aVscaleZ
p2824
aVspace_world
p2825
aaI01
aF0
aF-1.4210854715202004e-14
aF0
aF-3.1805546814635168e-15
aF-0
aF-1.5902773407317584e-15
aF1
aF1
aF1
aF0
aa(lp2826
Vbracelet_C_l_anim_space_switcher
p2827
a(lp2828
Vvisibility
p2829
aVtranslateX
p2830
aVtranslateY
p2831
aVtranslateZ
p2832
aVrotateX
p2833
aVrotateY
p2834
aVrotateZ
p2835
aVscaleX
p2836
aVscaleY
p2837
aVscaleZ
p2838
aVspace_world
p2839
aaI01
aF1.4210854715202004e-14
aF1.4210854715202004e-14
aF2.8421709430404007e-14
aF3.180554681463516e-15
aF-3.180554681463516e-15
aF0
aF1.0000000000000002
aF1.0000000000000002
aF1.0000000000000002
aF0
aa(lp2840
Vchest_ik_anim_space_switcher
p2841
a(lp2842
Vvisibility
p2843
aVtranslateX
p2844
aVtranslateY
p2845
aVtranslateZ
p2846
aVrotateX
p2847
aVrotateY
p2848
aVrotateZ
p2849
aVscaleX
p2850
aVscaleY
p2851
aVscaleZ
p2852
aVspace_world
p2853
aVspace_chest_ik_world_aligned
p2854
aaI01
aF0
aF-8.8817841970012523e-15
aF-1.3555225542027927e-07
aF3.5311250384401269e-31
aF2.8249000307521015e-30
aF0
aF1
aF1
aF1
aF0
aF0
aa(lp2855
Veyeball_l_anim_space_switcher
p2856
a(lp2857
Vvisibility
p2858
aVtranslateX
p2859
aVtranslateY
p2860
aVtranslateZ
p2861
aVrotateX
p2862
aVrotateY
p2863
aVrotateZ
p2864
aVscaleX
p2865
aVscaleY
p2866
aVscaleZ
p2867
aVspace_world
p2868
aaI01
aF0
aF0
aF0
aF0
aF0
aF0
aF1
aF1
aF1
aF0
aa(lp2869
Veyeball_r_anim_space_switcher
p2870
a(lp2871
Vvisibility
p2872
aVtranslateX
p2873
aVtranslateY
p2874
aVtranslateZ
p2875
aVrotateX
p2876
aVrotateY
p2877
aVrotateZ
p2878
aVscaleX
p2879
aVscaleY
p2880
aVscaleZ
p2881
aVspace_world
p2882
aaI01
aF4.4408920985006262e-16
aF0
aF0
aF0
aF0
aF0
aF1
aF1
aF1
aF0
aa(lp2883
Veyebrow_in_l_anim_space_switcher
p2884
a(lp2885
Vvisibility
p2886
aVtranslateX
p2887
aVtranslateY
p2888
aVtranslateZ
p2889
aVrotateX
p2890
aVrotateY
p2891
aVrotateZ
p2892
aVscaleX
p2893
aVscaleY
p2894
aVscaleZ
p2895
aVspace_world
p2896
aaI01
aF0
aF-3.5527136788005009e-15
aF-2.8421709430404007e-14
aF0
aF9.9392333795734899e-17
aF-3.975693351829396e-16
aF1
aF1
aF1.0000000000000002
aF0
aa(lp2897
Veyebrow_in_r_anim_space_switcher
p2898
a(lp2899
Vvisibility
p2900
aVtranslateX
p2901
aVtranslateY
p2902
aVtranslateZ
p2903
aVrotateX
p2904
aVrotateY
p2905
aVrotateZ
p2906
aVscaleX
p2907
aVscaleY
p2908
aVscaleZ
p2909
aVspace_world
p2910
aaI01
aF-4.4408920985006262e-16
aF0
aF0
aF7.9513867036587919e-16
aF-9.9392333795734874e-17
aF4.5968954380527377e-16
aF1.0000000000000002
aF1
aF1.0000000000000002
aF0
aa(lp2911
Veyebrow_out_l_anim_space_switcher
p2912
a(lp2913
Vvisibility
p2914
aVtranslateX
p2915
aVtranslateY
p2916
aVtranslateZ
p2917
aVrotateX
p2918
aVrotateY
p2919
aVrotateZ
p2920
aVscaleX
p2921
aVscaleY
p2922
aVscaleZ
p2923
aVspace_world
p2924
aaI01
aF-1.4210854715202004e-14
aF0
aF0
aF0
aF1.5902773407317584e-15
aF-2.3854160110976376e-15
aF1
aF0.99999999999999989
aF1
aF0
aa(lp2925
Veyebrow_out_r_anim_space_switcher
p2926
a(lp2927
Vvisibility
p2928
aVtranslateX
p2929
aVtranslateY
p2930
aVtranslateZ
p2931
aVrotateX
p2932
aVrotateY
p2933
aVrotateZ
p2934
aVscaleX
p2935
aVscaleY
p2936
aVscaleZ
p2937
aVspace_world
p2938
aaI01
aF-7.1054273576010019e-15
aF0
aF-2.8421709430404007e-14
aF0
aF1.590277340731758e-15
aF7.9513867036587899e-16
aF1.0000000000000002
aF1
aF1
aF0
aa(lp2939
Veyelid_bott_l_anim_space_switcher
p2940
a(lp2941
Vvisibility
p2942
aVtranslateX
p2943
aVtranslateY
p2944
aVtranslateZ
p2945
aVrotateX
p2946
aVrotateY
p2947
aVrotateZ
p2948
aVscaleX
p2949
aVscaleY
p2950
aVscaleZ
p2951
aVspace_world
p2952
aaI01
aF0
aF0
aF0
aF0
aF0
aF0
aF1
aF1
aF1
aF0
aa(lp2953
Veyelid_bott_r_anim_space_switcher
p2954
a(lp2955
Vvisibility
p2956
aVtranslateX
p2957
aVtranslateY
p2958
aVtranslateZ
p2959
aVrotateX
p2960
aVrotateY
p2961
aVrotateZ
p2962
aVscaleX
p2963
aVscaleY
p2964
aVscaleZ
p2965
aVspace_world
p2966
aaI01
aF4.4408920985006262e-16
aF0
aF0
aF0
aF0
aF0
aF1
aF1
aF1
aF0
aa(lp2967
Veyelid_top_l_anim_space_switcher
p2968
a(lp2969
Vvisibility
p2970
aVtranslateX
p2971
aVtranslateY
p2972
aVtranslateZ
p2973
aVrotateX
p2974
aVrotateY
p2975
aVrotateZ
p2976
aVscaleX
p2977
aVscaleY
p2978
aVscaleZ
p2979
aVspace_world
p2980
aaI01
aF0
aF0
aF0
aF0
aF0
aF0
aF1
aF1
aF1
aF0
aa(lp2981
Veyelid_top_r_anim_space_switcher
p2982
a(lp2983
Vvisibility
p2984
aVtranslateX
p2985
aVtranslateY
p2986
aVtranslateZ
p2987
aVrotateX
p2988
aVrotateY
p2989
aVrotateZ
p2990
aVscaleX
p2991
aVscaleY
p2992
aVscaleZ
p2993
aVspace_world
p2994
aaI01
aF4.4408920985006262e-16
aF0
aF0
aF0
aF0
aF0
aF1
aF1
aF1
aF0
aa(lp2995
Vhip_back_flaps_anim_space_switcher
p2996
a(lp2997
Vvisibility
p2998
aVtranslateX
p2999
aVtranslateY
p3000
aVtranslateZ
p3001
aVrotateX
p3002
aVrotateY
p3003
aVrotateZ
p3004
aVscaleX
p3005
aVscaleY
p3006
aVscaleZ
p3007
aVspace_world
p3008
aaI01
aF0
aF0
aF0
aF0
aF0
aF0
aF1
aF1
aF1
aF0
aa(lp3009
Vik_elbow_l_anim_space_switcher
p3010
a(lp3011
Vvisibility
p3012
aVtranslateX
p3013
aVtranslateY
p3014
aVtranslateZ
p3015
aVrotateX
p3016
aVrotateY
p3017
aVrotateZ
p3018
aVscaleX
p3019
aVscaleY
p3020
aVscaleZ
p3021
aVspace_world
p3022
aVspace_body_anim
p3023
aVspace_chest_ik_anim
p3024
aaI01
aF-5.5530346187993018e-06
aF-8.2796614577773653e-06
aF0.00010569494523338108
aF0
aF0
aF0
aF1
aF1
aF1
aF0
aF0
aF0
aa(lp3025
Vik_elbow_r_anim_space_switcher
p3026
a(lp3027
Vvisibility
p3028
aVtranslateX
p3029
aVtranslateY
p3030
aVtranslateZ
p3031
aVrotateX
p3032
aVrotateY
p3033
aVrotateZ
p3034
aVscaleX
p3035
aVscaleY
p3036
aVscaleZ
p3037
aVspace_world
p3038
aVspace_body_anim
p3039
aVspace_chest_ik_anim
p3040
aaI01
aF-5.5530346187993018e-06
aF8.2796614577773653e-06
aF-0.00010569494523338108
aF0
aF0
aF0
aF1
aF1
aF1
aF0
aF0
aF0
aa(lp3041
Vik_foot_anim_l_space_switcher
p3042
a(lp3043
Vvisibility
p3044
aVtranslateX
p3045
aVtranslateY
p3046
aVtranslateZ
p3047
aVrotateX
p3048
aVrotateY
p3049
aVrotateZ
p3050
aVscaleX
p3051
aVscaleY
p3052
aVscaleZ
p3053
aVspace_world
p3054
aVspace_body_anim
p3055
aaI01
aF1.7795704437162385e-05
aF1.7388318187983032e-05
aF-0.00018205549879724003
aF0
aF-0
aF-0
aF1
aF1
aF1
aF0
aF0
aa(lp3056
Vik_foot_anim_r_space_switcher
p3057
a(lp3058
Vvisibility
p3059
aVtranslateX
p3060
aVtranslateY
p3061
aVtranslateZ
p3062
aVrotateX
p3063
aVrotateY
p3064
aVrotateZ
p3065
aVscaleX
p3066
aVscaleY
p3067
aVscaleZ
p3068
aVspace_world
p3069
aVspace_body_anim
p3070
aaI01
aF1.7795704437162385e-05
aF-1.7388318187983032e-05
aF0.00018205549879724003
aF0
aF-0
aF-0
aF1
aF1
aF1
aF0
aF0
aa(lp3071
Vik_wrist_l_anim_space_switcher
p3072
a(lp3073
Vvisibility
p3074
aVtranslateX
p3075
aVtranslateY
p3076
aVtranslateZ
p3077
aVrotateX
p3078
aVrotateY
p3079
aVrotateZ
p3080
aVscaleX
p3081
aVscaleY
p3082
aVscaleZ
p3083
aVspace_world
p3084
aVspace_body_anim
p3085
aVspace_head_fk_anim
p3086
aVspace_chest_ik_anim
p3087
aaI01
aF0
aF0
aF0
aF0
aF-0
aF-0
aF1
aF1
aF1
aF0
aF0
aF0
aF0
aa(lp3088
Vik_wrist_r_anim_space_switcher
p3089
a(lp3090
Vvisibility
p3091
aVtranslateX
p3092
aVtranslateY
p3093
aVtranslateZ
p3094
aVrotateX
p3095
aVrotateY
p3096
aVrotateZ
p3097
aVscaleX
p3098
aVscaleY
p3099
aVscaleZ
p3100
aVspace_world
p3101
aVspace_body_anim
p3102
aVspace_head_fk_anim
p3103
aVspace_chest_ik_anim
p3104
aaI01
aF0.00010365223528197021
aF1.4836969924658661e-05
aF-5.4660423444374828e-05
aF0
aF-0
aF-0
aF1
aF1
aF1
aF0
aF0
aF0
aF0
aa(lp3105
Vjaw_anim_space_switcher
p3106
a(lp3107
Vvisibility
p3108
aVtranslateX
p3109
aVtranslateY
p3110
aVtranslateZ
p3111
aVrotateX
p3112
aVrotateY
p3113
aVrotateZ
p3114
aVscaleX
p3115
aVscaleY
p3116
aVscaleZ
p3117
aVspace_world
p3118
aaI01
aF0
aF0
aF0
aF0
aF0
aF0
aF1
aF1
aF1
aF0
aa(lp3119
Vl_global_ik_anim_space_switcher
p3120
a(lp3121
Vvisibility
p3122
aVtranslateX
p3123
aVtranslateY
p3124
aVtranslateZ
p3125
aVrotateX
p3126
aVrotateY
p3127
aVrotateZ
p3128
aVscaleX
p3129
aVscaleY
p3130
aVscaleZ
p3131
aVspace_world
p3132
aaI01
aF0
aF0
aF0
aF0
aF0
aF0
aF1
aF1
aF1
aF0
aa(lp3133
Vmaster_anim_space_switcher
p3134
a(lp3135
Vvisibility
p3136
aVtranslateX
p3137
aVtranslateY
p3138
aVtranslateZ
p3139
aVrotateX
p3140
aVrotateY
p3141
aVrotateZ
p3142
aVscaleX
p3143
aVscaleY
p3144
aVscaleZ
p3145
aVspace_world
p3146
aaI01
aF0
aF0
aF0
aF0
aF0
aF0
aF1
aF1
aF1
aF0
aa(lp3147
Vpipe_anim_space_switcher
p3148
a(lp3149
Vvisibility
p3150
aVtranslateX
p3151
aVtranslateY
p3152
aVtranslateZ
p3153
aVrotateX
p3154
aVrotateY
p3155
aVrotateZ
p3156
aVscaleX
p3157
aVscaleY
p3158
aVscaleZ
p3159
aVspace_world
p3160
aaI01
aF0
aF0
aF0
aF0
aF0
aF0
aF1
aF1
aF1
aF0
aa(lp3161
Vr_global_ik_anim_space_switcher
p3162
a(lp3163
Vvisibility
p3164
aVtranslateX
p3165
aVtranslateY
p3166
aVtranslateZ
p3167
aVrotateX
p3168
aVrotateY
p3169
aVrotateZ
p3170
aVscaleX
p3171
aVscaleY
p3172
aVscaleZ
p3173
aVspace_world
p3174
aaI01
aF0
aF0
aF0
aF0
aF0
aF0
aF1
aF1
aF1
aF0
aa(lp3175
Vshoulder_blade_in_r_anim_space_switcher
p3176
a(lp3177
Vvisibility
p3178
aVtranslateX
p3179
aVtranslateY
p3180
aVtranslateZ
p3181
aVrotateX
p3182
aVrotateY
p3183
aVrotateZ
p3184
aVscaleX
p3185
aVscaleY
p3186
aVscaleZ
p3187
aVspace_world
p3188
aaI01
aF-3.5527136788005009e-15
aF3.5527136788005009e-15
aF0
aF0
aF-0
aF7.4544250346801174e-17
aF1
aF1
aF1.0000000000000002
aF0
aa(lp3189
Vshoulder_blade_mid_r_anim_space_switcher
p3190
a(lp3191
Vvisibility
p3192
aVtranslateX
p3193
aVtranslateY
p3194
aVtranslateZ
p3195
aVrotateX
p3196
aVrotateY
p3197
aVrotateZ
p3198
aVscaleX
p3199
aVscaleY
p3200
aVscaleZ
p3201
aVspace_world
p3202
aaI01
aF3.5527136788005009e-15
aF0
aF0
aF0
aF-0
aF7.4544250346801174e-17
aF1
aF1
aF1.0000000000000002
aF0
aa(lp3203
Vshoulder_blade_out_r_anim_space_switcher
p3204
a(lp3205
Vvisibility
p3206
aVtranslateX
p3207
aVtranslateY
p3208
aVtranslateZ
p3209
aVrotateX
p3210
aVrotateY
p3211
aVrotateZ
p3212
aVscaleX
p3213
aVscaleY
p3214
aVscaleZ
p3215
aVspace_world
p3216
aaI01
aF-3.5527136788005009e-15
aF0
aF0
aF0
aF-0
aF7.4544250346801174e-17
aF1
aF1
aF1.0000000000000002
aF0
aa(lp3217
Vshoulder_cloth_01_l_anim_space_switcher
p3218
a(lp3219
Vvisibility
p3220
aVtranslateX
p3221
aVtranslateY
p3222
aVtranslateZ
p3223
aVrotateX
p3224
aVrotateY
p3225
aVrotateZ
p3226
aVscaleX
p3227
aVscaleY
p3228
aVscaleZ
p3229
aVspace_world
p3230
aaI01
aF0
aF1.4210854715202004e-14
aF-2.8421709430404007e-14
aF0
aF-3.180554681463516e-15
aF0
aF1.0000000000000002
aF1.0000000000000002
aF1.0000000000000002
aF0
aa(lp3231
Vshoulder_cloth_02_l_anim_space_switcher
p3232
a(lp3233
Vvisibility
p3234
aVtranslateX
p3235
aVtranslateY
p3236
aVtranslateZ
p3237
aVrotateX
p3238
aVrotateY
p3239
aVrotateZ
p3240
aVscaleX
p3241
aVscaleY
p3242
aVscaleZ
p3243
aVspace_world
p3244
aaI01
aF-1.4210854715202004e-14
aF0
aF2.8421709430404007e-14
aF0
aF-6.3611093629270335e-15
aF1.5902773407317584e-15
aF1
aF1
aF1
aF0
aa(lp3245
Vshoulder_pad_r_anim_space_switcher
p3246
a(lp3247
Vvisibility
p3248
aVtranslateX
p3249
aVtranslateY
p3250
aVtranslateZ
p3251
aVrotateX
p3252
aVrotateY
p3253
aVrotateZ
p3254
aVscaleX
p3255
aVscaleY
p3256
aVscaleZ
p3257
aVspace_world
p3258
aaI01
aF0
aF-3.5527136788005009e-15
aF0
aF9.9392333795734899e-17
aF-1.987846675914698e-16
aF-7.765026077791789e-18
aF1
aF1
aF1
aF0
aa(lp3259
Vspine_01_space_switcher
p3260
a(lp3261
Vvisibility
p3262
aVtranslateX
p3263
aVtranslateY
p3264
aVtranslateZ
p3265
aVrotateX
p3266
aVrotateY
p3267
aVrotateZ
p3268
aVscaleX
p3269
aVscaleY
p3270
aVscaleZ
p3271
aVspace_world
p3272
aaI01
aF0
aF3.5527136788005009e-15
aF1.0097419586828951e-28
aF0
aF0
aF0
aF0.99999999999999989
aF0.99999999999999989
aF1
aF0
aa(lp3273
Vweapon_anim_space_switcher
p3274
a(lp3275
Vvisibility
p3276
aVtranslateX
p3277
aVtranslateY
p3278
aVtranslateZ
p3279
aVrotateX
p3280
aVrotateY
p3281
aVrotateZ
p3282
aVscaleX
p3283
aVscaleY
p3284
aVscaleZ
p3285
aVspace_world
p3286
aaI01
aF-2.8421709430404007e-14
aF0
aF-2.8421709430404007e-14
aF2.3854160110976376e-15
aF3.1805546814635168e-15
aF-1.1927080055488188e-15
aF1
aF1
aF1
aF0
aa(lp3287
Vweapon_bladeA_01_anim_space_switcher
p3288
a(lp3289
Vvisibility
p3290
aVtranslateX
p3291
aVtranslateY
p3292
aVtranslateZ
p3293
aVrotateX
p3294
aVrotateY
p3295
aVrotateZ
p3296
aVscaleX
p3297
aVscaleY
p3298
aVscaleZ
p3299
aVspace_world
p3300
aaI01
aF2.8421709430404007e-14
aF0
aF-2.8421709430404007e-14
aF7.9513867036587919e-16
aF-0
aF-1.5902773407317584e-15
aF1
aF1
aF0.99999999999999978
aF0
aa(lp3301
Vweapon_bladeA_02_anim_space_switcher
p3302
a(lp3303
Vvisibility
p3304
aVtranslateX
p3305
aVtranslateY
p3306
aVtranslateZ
p3307
aVrotateX
p3308
aVrotateY
p3309
aVrotateZ
p3310
aVscaleX
p3311
aVscaleY
p3312
aVscaleZ
p3313
aVspace_world
p3314
aaI01
aF0
aF-2.8421709430404007e-14
aF-4.2632564145606011e-14
aF7.9513867036587919e-16
aF-0
aF-1.5902773407317584e-15
aF1
aF1
aF0.99999999999999978
aF0
aa(lp3315
Vweapon_bladeA_03_anim_space_switcher
p3316
a(lp3317
Vvisibility
p3318
aVtranslateX
p3319
aVtranslateY
p3320
aVtranslateZ
p3321
aVrotateX
p3322
aVrotateY
p3323
aVrotateZ
p3324
aVscaleX
p3325
aVscaleY
p3326
aVscaleZ
p3327
aVspace_world
p3328
aaI01
aF-2.8421709430404007e-14
aF0
aF-4.2632564145606011e-14
aF7.9513867036587919e-16
aF-0
aF-1.5902773407317584e-15
aF1
aF1
aF0.99999999999999978
aF0
aa(lp3329
Vweapon_bladeA_04_anim_space_switcher
p3330
a(lp3331
Vvisibility
p3332
aVtranslateX
p3333
aVtranslateY
p3334
aVtranslateZ
p3335
aVrotateX
p3336
aVrotateY
p3337
aVrotateZ
p3338
aVscaleX
p3339
aVscaleY
p3340
aVscaleZ
p3341
aVspace_world
p3342
aaI01
aF0
aF0
aF-2.8421709430404007e-14
aF7.9513867036587919e-16
aF-0
aF-1.5902773407317584e-15
aF1
aF1
aF0.99999999999999978
aF0
aa(lp3343
Vweapon_bladeA_05_anim_space_switcher
p3344
a(lp3345
Vvisibility
p3346
aVtranslateX
p3347
aVtranslateY
p3348
aVtranslateZ
p3349
aVrotateX
p3350
aVrotateY
p3351
aVrotateZ
p3352
aVscaleX
p3353
aVscaleY
p3354
aVscaleZ
p3355
aVspace_world
p3356
aaI01
aF0
aF0
aF-4.2632564145606011e-14
aF7.9513867036587919e-16
aF-0
aF-1.5902773407317584e-15
aF1
aF1
aF0.99999999999999978
aF0
aa(lp3357
Vweapon_bladeB_01_anim_space_switcher
p3358
a(lp3359
Vvisibility
p3360
aVtranslateX
p3361
aVtranslateY
p3362
aVtranslateZ
p3363
aVrotateX
p3364
aVrotateY
p3365
aVrotateZ
p3366
aVscaleX
p3367
aVscaleY
p3368
aVscaleZ
p3369
aVspace_world
p3370
aaI01
aF2.8421709430404007e-14
aF0
aF-2.8421709430404007e-14
aF7.9513867036587919e-16
aF-0
aF-1.5902773407317584e-15
aF1
aF1
aF0.99999999999999978
aF0
aa(lp3371
Vweapon_bladeB_02_anim_space_switcher
p3372
a(lp3373
Vvisibility
p3374
aVtranslateX
p3375
aVtranslateY
p3376
aVtranslateZ
p3377
aVrotateX
p3378
aVrotateY
p3379
aVrotateZ
p3380
aVscaleX
p3381
aVscaleY
p3382
aVscaleZ
p3383
aVspace_world
p3384
aaI01
aF2.8421709430404007e-14
aF-2.1316282072803006e-14
aF0
aF3.1805546814635168e-15
aF3.1805546814635168e-15
aF-3.1805546814635168e-15
aF1
aF1
aF1
aF0
aa(lp3385
Vweapon_bladeB_03_anim_space_switcher
p3386
a(lp3387
Vvisibility
p3388
aVtranslateX
p3389
aVtranslateY
p3390
aVtranslateZ
p3391
aVrotateX
p3392
aVrotateY
p3393
aVrotateZ
p3394
aVscaleX
p3395
aVscaleY
p3396
aVscaleZ
p3397
aVspace_world
p3398
aaI01
aF2.8421709430404007e-14
aF0
aF0
aF-1.987846675914698e-15
aF-0
aF1.987846675914698e-15
aF1
aF1
aF1
aF0
aa(lp3399
Vweapon_bladeB_04_anim_space_switcher
p3400
a(lp3401
Vvisibility
p3402
aVtranslateX
p3403
aVtranslateY
p3404
aVtranslateZ
p3405
aVrotateX
p3406
aVrotateY
p3407
aVrotateZ
p3408
aVscaleX
p3409
aVscaleY
p3410
aVscaleZ
p3411
aVspace_world
p3412
aaI01
aF2.8421709430404007e-14
aF-2.8421709430404007e-14
aF1.4210854715202004e-14
aF-7.9513867036587919e-16
aF-0
aF0
aF1
aF1
aF1
aF0
aa(lp3413
Vweapon_bladeB_05_anim_space_switcher
p3414
a(lp3415
Vvisibility
p3416
aVtranslateX
p3417
aVtranslateY
p3418
aVtranslateZ
p3419
aVrotateX
p3420
aVrotateY
p3421
aVrotateZ
p3422
aVscaleX
p3423
aVscaleY
p3424
aVscaleZ
p3425
aVspace_world
p3426
aaI01
aF0
aF2.8421709430404007e-14
aF1.4210854715202004e-14
aF-7.9513867036587919e-16
aF-0
aF0
aF1
aF1
aF1
aF0
aa(lp3427
Vweapon_bladeC_01_anim_space_switcher
p3428
a(lp3429
Vvisibility
p3430
aVtranslateX
p3431
aVtranslateY
p3432
aVtranslateZ
p3433
aVrotateX
p3434
aVrotateY
p3435
aVrotateZ
p3436
aVscaleX
p3437
aVscaleY
p3438
aVscaleZ
p3439
aVspace_world
p3440
aaI01
aF2.8421709430404007e-14
aF0
aF-2.8421709430404007e-14
aF7.9513867036587919e-16
aF-0
aF-1.5902773407317584e-15
aF1
aF1
aF0.99999999999999978
aF0
aa(lp3441
Vweapon_bladeC_02_anim_space_switcher
p3442
a(lp3443
Vvisibility
p3444
aVtranslateX
p3445
aVtranslateY
p3446
aVtranslateZ
p3447
aVrotateX
p3448
aVrotateY
p3449
aVrotateZ
p3450
aVscaleX
p3451
aVscaleY
p3452
aVscaleZ
p3453
aVspace_world
p3454
aaI01
aF2.8421709430404007e-14
aF-2.8421709430404007e-14
aF0
aF7.9513867036587919e-16
aF-0
aF-1.5902773407317584e-15
aF1
aF1
aF0.99999999999999978
aF0
aa(lp3455
Vweapon_bladeC_03_anim_space_switcher
p3456
a(lp3457
Vvisibility
p3458
aVtranslateX
p3459
aVtranslateY
p3460
aVtranslateZ
p3461
aVrotateX
p3462
aVrotateY
p3463
aVrotateZ
p3464
aVscaleX
p3465
aVscaleY
p3466
aVscaleZ
p3467
aVspace_world
p3468
aaI01
aF0
aF0
aF-1.4210854715202004e-14
aF7.9513867036587919e-16
aF-0
aF-1.5902773407317584e-15
aF1
aF1
aF0.99999999999999978
aF0
aa(lp3469
Vweapon_bladeD_01_anim_space_switcher
p3470
a(lp3471
Vvisibility
p3472
aVtranslateX
p3473
aVtranslateY
p3474
aVtranslateZ
p3475
aVrotateX
p3476
aVrotateY
p3477
aVrotateZ
p3478
aVscaleX
p3479
aVscaleY
p3480
aVscaleZ
p3481
aVspace_world
p3482
aaI01
aF0
aF-2.8421709430404007e-14
aF-4.2632564145606011e-14
aF7.9513867036587919e-16
aF-0
aF-1.5902773407317584e-15
aF1
aF1
aF0.99999999999999978
aF0
aa(lp3483
Vwrist_plate_r_anim_space_switcher
p3484
a(lp3485
Vvisibility
p3486
aVtranslateX
p3487
aVtranslateY
p3488
aVtranslateZ
p3489
aVrotateX
p3490
aVrotateY
p3491
aVrotateZ
p3492
aVscaleX
p3493
aVscaleY
p3494
aVscaleZ
p3495
aVspace_world
p3496
aaI01
aF0
aF0
aF-5.6843418860808015e-14
aF0
aF-0
aF9.9392333795734899e-17
aF1
aF1
aF1
aF0
aa.