(lp1
(lp2
S'fk_clavicle_r_anim'
p3
a(lp4
VtranslateX
p5
aVtranslateY
p6
aVtranslateZ
p7
aVrotateX
p8
aVrotateY
p9
aVrotateZ
p10
aaF9.0931500000000001e-07
aF-8.1420299999999997e-06
aF0.000117248
aF0
aF0
aF0
aa(lp11
S'fk_clavicle_l_anim'
p12
a(lp13
VtranslateX
p14
aVtranslateY
p15
aVtranslateZ
p16
aVrotateX
p17
aVrotateY
p18
aVrotateZ
p19
aaF9.0926799999999999e-07
aF-8.1420799999999998e-06
aF0.000117248
aF0
aF0
aF0
aa(lp20
S'head_fk_anim'
p21
a(lp22
VtranslateX
p23
aVtranslateY
p24
aVtranslateZ
p25
aVrotateX
p26
aVrotateY
p27
aVrotateZ
p28
aVscaleX
p29
aVscaleY
p30
aVscaleZ
p31
aVfkOrientation
p32
aaF0
aF0
aF0
aF10.740883708041375
aF4.7606641336821767
aF29.822666054920838
aF1
aF1
aF1
aI0
aa(lp33
S'neck_01_fk_anim'
p34
a(lp35
VtranslateX
p36
aVtranslateY
p37
aVtranslateZ
p38
aVrotateX
p39
aVrotateY
p40
aVrotateZ
p41
aVscaleX
p42
aVscaleY
p43
aVscaleZ
p44
aVfkOrientation
p45
aaF0
aF0
aF0
aF-19.264732827499813
aF20.830428352310097
aF5.6859321043516005
aF0.99999999999999967
aF0.99999999999999967
aF1
aI2
aa(lp46
S'neck_02_fk_anim'
p47
a(lp48
VtranslateX
p49
aVtranslateY
p50
aVtranslateZ
p51
aVrotateX
p52
aVrotateY
p53
aVrotateZ
p54
aVscaleX
p55
aVscaleY
p56
aVscaleZ
p57
aaF0
aF0
aF0
aF1.9697502739564217
aF-15.839250856185352
aF-46.361089370693257
aF1
aF1
aF1
aa(lp58
S'spine_01_anim'
p59
a(lp60
Vlength
p61
aVtranslateY
p62
aVtranslateZ
p63
aVrotateX
p64
aVrotateY
p65
aVrotateZ
p66
aaF0
aF0
aF0
aF-2.8645823848273446
aF3.4043455039764146
aF-8.9047847810322747
aa(lp67
S'spine_02_anim'
p68
a(lp69
Vlength
p70
aVtranslateY
p71
aVtranslateZ
p72
aVrotateX
p73
aVrotateY
p74
aVrotateZ
p75
aaF0
aF0
aF0
aF-11.016906856808765
aF1.4471045956401312
aF-2.5579365148973103
aa(lp76
S'spine_03_anim'
p77
a(lp78
Vlength
p79
aVtranslateY
p80
aVtranslateZ
p81
aVrotateX
p82
aVrotateY
p83
aVrotateZ
p84
aaF0
aF0
aF0
aF-10.921502734622154
aF0.85887937605029308
aF-2.9517195710192334
aa(lp85
S'mid_ik_anim'
p86
a(lp87
VtranslateX
p88
aVtranslateY
p89
aVtranslateZ
p90
aVrotateX
p91
aVrotateY
p92
aVrotateZ
p93
aaF0.034335881256940586
aF-0.053555982025743479
aF0.43010097445679468
aF-0.50878046995188841
aF-1.5462371412403058
aF-0.24202189499667093
aa(lp94
S'chest_ik_anim'
p95
a(lp96
VtranslateX
p97
aVtranslateY
p98
aVtranslateZ
p99
aVrotateX
p100
aVrotateY
p101
aVrotateZ
p102
aVstretch
p103
aVsquash
p104
aVtwist_amount
p105
aVautoSpine
p106
aVrotationInfluence
p107
aaF-0.34891195777228634
aF-0.04679378016690075
aF1.9053246295235184
aF-0.84350841541389576
aF-3.2886602259845259
aF-15.003415944141548
aF1.3999999999999999
aF1.3999999999999999
aF1
aF0
aF0.25
aa(lp108
S'body_anim'
p109
a(lp110
VtranslateX
p111
aVtranslateY
p112
aVtranslateZ
p113
aVrotateX
p114
aVrotateY
p115
aVrotateZ
p116
aaF-13.283182760169272
aF-1.7301736101816978
aF-5.5968259386617447
aF-31.532376691704744
aF16.877295424543131
aF-20.410231954159066
aa(lp117
S'hip_anim'
p118
a(lp119
VtranslateX
p120
aVtranslateY
p121
aVtranslateZ
p122
aVrotateX
p123
aVrotateY
p124
aVrotateZ
p125
aVlCalfTwistCtrlVis
p126
aVrCalfTwistCtrlVis
p127
aVautoHips
p128
aaF0
aF0
aF0
aF-0
aF-1.0179154767421179
aF14.135965423024897
aI00
aI00
aF0
aa(lp129
S'clavicle_l_anim'
p130
a(lp131
VtranslateX
p132
aVtranslateY
p133
aVtranslateZ
p134
aVautoShoulders
p135
aaF1.4207360696467173
aF-4.7067145671295547
aF0.28802412893251472
aF0
aa(lp136
S'clavicle_r_anim'
p137
a(lp138
VtranslateX
p139
aVtranslateY
p140
aVtranslateZ
p141
aVautoShoulders
p142
aaF-5.2766059588030352
aF10.514558942872149
aF-11.188661973559299
aF0.20000000000000001
aa(lp143
S'fk_arm_l_anim'
p144
a(lp145
VtranslateX
p146
aVtranslateY
p147
aVtranslateZ
p148
aVrotateX
p149
aVrotateY
p150
aVrotateZ
p151
aaF0
aF0
aF0
aF57.634108987162826
aF37.367093834882816
aF15.899168054337922
aa(lp152
S'fk_arm_r_anim'
p153
a(lp154
VtranslateX
p155
aVtranslateY
p156
aVtranslateZ
p157
aVrotateX
p158
aVrotateY
p159
aVrotateZ
p160
aaF0
aF0
aF0
aF58.477864453773222
aF38.748422723132997
aF28.171672985400452
aa(lp161
S'fk_elbow_l_anim'
p162
a(lp163
VtranslateX
p164
aVtranslateY
p165
aVtranslateZ
p166
aVrotateX
p167
aVrotateY
p168
aVrotateZ
p169
aaF0
aF0
aF0
aF0.098543634370746272
aF-12.68455247493446
aF-52.590294549564618
aa(lp170
S'fk_elbow_r_anim'
p171
a(lp172
VtranslateX
p173
aVtranslateY
p174
aVtranslateZ
p175
aVrotateX
p176
aVrotateY
p177
aVrotateZ
p178
aaF0
aF0
aF0
aF-0.52588024302490266
aF-2.6614201973991678
aF-51.776411130171034
aa(lp179
S'fk_wrist_l_anim'
p180
a(lp181
VtranslateX
p182
aVtranslateY
p183
aVtranslateZ
p184
aVrotateX
p185
aVrotateY
p186
aVrotateZ
p187
aaF0
aF0
aF0
aF-8.8492815014959376
aF5.0842017885019306
aF3.0441348725127937
aa(lp188
S'fk_wrist_r_anim'
p189
a(lp190
VtranslateX
p191
aVtranslateY
p192
aVtranslateZ
p193
aVrotateX
p194
aVrotateY
p195
aVrotateZ
p196
aaF0
aF0
aF0
aF-32.013238781316176
aF-15.034117222774677
aF3.0175756452272124
aa(lp197
S'ik_elbow_l_anim'
p198
a(lp199
VtranslateX
p200
aVtranslateY
p201
aVtranslateZ
p202
aaF136.0946162901343
aF-53.760526740236898
aF-24.828782577888603
aa(lp203
S'ik_elbow_r_anim'
p204
a(lp205
VtranslateX
p206
aVtranslateY
p207
aVtranslateZ
p208
aaF116.25444360939805
aF104.52151647198204
aF-27.203979352931356
aa(lp209
S'ik_wrist_l_anim'
p210
a(lp211
VtranslateX
p212
aVtranslateY
p213
aVtranslateZ
p214
aVrotateX
p215
aVrotateY
p216
aVrotateZ
p217
aVstretch
p218
aVsquash
p219
aVstretchBias
p220
aVside
p221
aVmid_bend
p222
aVmid_swivel
p223
aVtip_pivot
p224
aVtip_swivel
p225
aaF-76.045822613361182
aF-69.907548142261362
aF-46.027284770482773
aF8.575464274336575
aF22.78191477579049
aF-155.32382494398018
aF0
aF0
aF0
aF0
aF-28.900000000000002
aF16.5
aF0
aF0
aa(lp226
S'ik_wrist_r_anim'
p227
a(lp228
VtranslateX
p229
aVtranslateY
p230
aVtranslateZ
p231
aVrotateX
p232
aVrotateY
p233
aVrotateZ
p234
aVstretch
p235
aVsquash
p236
aVstretchBias
p237
aVside
p238
aVmid_bend
p239
aVmid_swivel
p240
aVtip_pivot
p241
aVtip_swivel
p242
aVspace_weapon_anim
p243
aaF58.187786293432367
aF10.109153747261638
aF-59.162707441470928
aF-122.02225031140357
aF-59.637285321028592
aF-49.727125854239219
aF0
aF0
aF0
aF0
aF0
aF12.000000000000002
aF0
aF0
aF0
aa(lp244
S'fk_thigh_l_anim'
p245
a(lp246
VrotateX
p247
aVrotateY
p248
aVrotateZ
p249
aaF14.438680195253344
aF5.0025094283725027
aF12.976457632862695
aa(lp250
S'fk_thigh_r_anim'
p251
a(lp252
VrotateX
p253
aVrotateY
p254
aVrotateZ
p255
aaF-11.295354465577681
aF10.069182139355124
aF45.137357227232464
aa(lp256
S'fk_calf_l_anim'
p257
a(lp258
VrotateX
p259
aVrotateY
p260
aVrotateZ
p261
aaF1.3972491025924691
aF-1.0469222068786619
aF-45.485118865966761
aa(lp262
S'fk_calf_r_anim'
p263
a(lp264
VrotateX
p265
aVrotateY
p266
aVrotateZ
p267
aaF-5.6322007179260316
aF5.3777179718017543
aF-95.62690734863277
aa(lp268
S'fk_foot_l_anim'
p269
a(lp270
VrotateX
p271
aVrotateY
p272
aVrotateZ
p273
aaF3.0213792324066016
aF-15.67122650146486
aF32.430351257324162
aa(lp274
S'fk_foot_r_anim'
p275
a(lp276
VrotateX
p277
aVrotateY
p278
aVrotateZ
p279
aaF10.468253135681184
aF2.3498136997222647
aF-0.031366981565946854
aa(lp280
S'fk_ball_l_anim'
p281
a(lp282
VrotateX
p283
aVrotateY
p284
aVrotateZ
p285
aaF-0.03421025350688963
aF0.0088456906378298495
aF0.35286229848863049
aa(lp286
S'fk_ball_r_anim'
p287
a(lp288
VrotateX
p289
aVrotateY
p290
aVrotateZ
p291
aaF-0.041066609323021044
aF-0.0080804741009812917
aF0.75858652591699216
aa(lp292
S'ik_foot_anim_l'
p293
a(lp294
VtranslateX
p295
aVtranslateY
p296
aVtranslateZ
p297
aVrotateX
p298
aVrotateY
p299
aVrotateZ
p300
aVknee_twist
p301
aVstretch
p302
aVsquash
p303
aVtoeCtrlVis
p304
aVstretchBias
p305
aaF-10.506740704607724
aF-0.82705268480810901
aF0.28762786505675919
aF1.5808534017725597
aF-2.8292212742672738
aF-5.7172326943832266
aF-11.858959509307256
aF0
aF0
aI00
aF0
aa(lp306
S'ik_foot_anim_r'
p307
a(lp308
VtranslateX
p309
aVtranslateY
p310
aVtranslateZ
p311
aVrotateX
p312
aVrotateY
p313
aVrotateZ
p314
aVknee_twist
p315
aVstretch
p316
aVsquash
p317
aVtoeCtrlVis
p318
aVstretchBias
p319
aaF10.942463088885575
aF10.102003511745584
aF26.711550498263541
aF54.650845218325252
aF6.9110561536760553
aF-25.148379127846535
aF18.072816634710062
aF0
aF0
aI00
aF0
aa(lp320
S'heel_ctrl_l'
p321
a(lp322
VrotateX
p323
aVrotateY
p324
aVrotateZ
p325
aVheelPivot
p326
aVballPivot
p327
aaF0
aF-0
aF0
aF0
aF0
aa(lp328
S'heel_ctrl_r'
p329
a(lp330
VrotateX
p331
aVrotateY
p332
aVrotateZ
p333
aVheelPivot
p334
aVballPivot
p335
aaF0
aF-0
aF0
aF0
aF0
aa(lp336
S'toe_wiggle_ctrl_l'
p337
a(lp338
VrotateX
p339
aVrotateY
p340
aVrotateZ
p341
aaF0
aF-0
aF0
aa(lp342
S'toe_wiggle_ctrl_r'
p343
a(lp344
VrotateX
p345
aVrotateY
p346
aVrotateZ
p347
aaF0
aF-0
aF0
aa(lp348
S'toe_tip_ctrl_l'
p349
a(lp350
VrotateX
p351
aVrotateY
p352
aVrotateZ
p353
aaF0
aF-0
aF0
aa(lp354
S'toe_tip_ctrl_r'
p355
a(lp356
VrotateX
p357
aVrotateY
p358
aVrotateZ
p359
aaF0
aF-0
aF0
aa(lp360
S'master_anim'
p361
a(lp362
VtranslateX
p363
aVtranslateY
p364
aVtranslateZ
p365
aVrotateX
p366
aVrotateY
p367
aVrotateZ
p368
aaF0
aF0
aF0
aF0
aF0
aF0
aa(lp369
S'offset_anim'
p370
a(lp371
VtranslateX
p372
aVtranslateY
p373
aVtranslateZ
p374
aVrotateX
p375
aVrotateY
p376
aVrotateZ
p377
aaF0
aF0
aF0
aF0
aF0
aF0
aa(lp378
S'root_anim'
p379
a(lp380
VtranslateX
p381
aVtranslateY
p382
aVtranslateZ
p383
aVrotateX
p384
aVrotateY
p385
aVrotateZ
p386
aaF0
aF0
aF0
aF0
aF0
aF0
aa(lp387
S'upperarm_l_twist_anim'
p388
a(lp389
VtranslateX
p390
aVtranslateY
p391
aVtranslateZ
p392
aVrotateX
p393
aVrotateY
p394
aVrotateZ
p395
aVscaleX
p396
aVscaleY
p397
aVscaleZ
p398
aaF0
aF0
aF0
aF0
aF0
aF0
aF1
aF1
aF1
aa(lp399
S'upperarm_l_twist_2_anim'
p400
a(lp401
VtranslateX
p402
aVtranslateY
p403
aVtranslateZ
p404
aVrotateX
p405
aVrotateY
p406
aVrotateZ
p407
aVscaleX
p408
aVscaleY
p409
aVscaleZ
p410
aaF0
aF0
aF0
aF0
aF0
aF0
aF1
aF1
aF1
aa(lp411
S'upperarm_r_twist_anim'
p412
a(lp413
VtranslateX
p414
aVtranslateY
p415
aVtranslateZ
p416
aVrotateX
p417
aVrotateY
p418
aVrotateZ
p419
aVscaleX
p420
aVscaleY
p421
aVscaleZ
p422
aaF0
aF0
aF0
aF0
aF0
aF0
aF1
aF1
aF1
aa(lp423
S'upperarm_r_twist_2_anim'
p424
a(lp425
VtranslateX
p426
aVtranslateY
p427
aVtranslateZ
p428
aVrotateX
p429
aVrotateY
p430
aVrotateZ
p431
aVscaleX
p432
aVscaleY
p433
aVscaleZ
p434
aaF0
aF0
aF0
aF0
aF0
aF0
aF1
aF1
aF1
aa(lp435
S'lowerarm_l_twist_anim'
p436
a(lp437
VtranslateX
p438
aVtranslateY
p439
aVtranslateZ
p440
aVrotateX
p441
aVrotateY
p442
aVrotateZ
p443
aaF0
aF0
aF0
aF0
aF0
aF0
aa(lp444
S'lowerarm_r_twist_anim'
p445
a(lp446
VtranslateX
p447
aVtranslateY
p448
aVtranslateZ
p449
aVrotateX
p450
aVrotateY
p451
aVrotateZ
p452
aaF0
aF0
aF0
aF0
aF0
aF0
aa(lp453
S'l_thigh_twist_01_anim'
p454
a(lp455
VtranslateX
p456
aVtranslateY
p457
aVtranslateZ
p458
aVrotateX
p459
aVrotateY
p460
aVrotateZ
p461
aVscaleX
p462
aVscaleY
p463
aVscaleZ
p464
aaF0
aF0
aF0
aF0
aF0
aF0
aF1
aF1
aF1
aa(lp465
S'r_thigh_twist_01_anim'
p466
a(lp467
VtranslateX
p468
aVtranslateY
p469
aVtranslateZ
p470
aVrotateX
p471
aVrotateY
p472
aVrotateZ
p473
aVscaleX
p474
aVscaleY
p475
aVscaleZ
p476
aaF0
aF0
aF0
aF0
aF0
aF0
aF1
aF1
aF1
aa(lp477
S'pinky_finger_fk_ctrl_1_l'
p478
a(lp479
VtranslateX
p480
aVtranslateY
p481
aVtranslateZ
p482
aVrotateX
p483
aVrotateY
p484
aVrotateZ
p485
aVsticky
p486
aaF-0.28448754866970072
aF0.19948691675394606
aF-0.88082772337635151
aF5.1226960351085253
aF7.2541098605639025
aF35.37687897956765
aF0
aa(lp487
S'pinky_finger_fk_ctrl_1_r'
p488
a(lp489
VtranslateX
p490
aVtranslateY
p491
aVtranslateZ
p492
aVrotateX
p493
aVrotateY
p494
aVrotateZ
p495
aVsticky
p496
aaF0
aF0
aF0
aF-0.00090275242206164371
aF-0.00034601266314745078
aF46.123447479862087
aF0
aa(lp497
S'pinky_finger_fk_ctrl_2_l'
p498
a(lp499
VtranslateX
p500
aVtranslateY
p501
aVtranslateZ
p502
aVrotateX
p503
aVrotateY
p504
aVrotateZ
p505
aaF0
aF0
aF0
aF-1.3648337172457701e-06
aF-0
aF55.867673741451696
aa(lp506
S'pinky_finger_fk_ctrl_2_r'
p507
a(lp508
VtranslateX
p509
aVtranslateY
p510
aVtranslateZ
p511
aVrotateX
p512
aVrotateY
p513
aVrotateZ
p514
aaF0
aF0
aF0
aF0.21761157645444287
aF0.68318271528504415
aF46.974178294221609
aa(lp515
S'pinky_finger_fk_ctrl_3_l'
p516
a(lp517
VtranslateX
p518
aVtranslateY
p519
aVtranslateZ
p520
aVrotateX
p521
aVrotateY
p522
aVrotateZ
p523
aaF0
aF0
aF0
aF1.3764308046476986e-06
aF-0
aF49.774601852955406
aa(lp524
S'pinky_finger_fk_ctrl_3_r'
p525
a(lp526
VtranslateX
p527
aVtranslateY
p528
aVtranslateZ
p529
aVrotateX
p530
aVrotateY
p531
aVrotateZ
p532
aaF0
aF0
aF0
aF0.22706965757758873
aF0.68009776684965695
aF47.769080064506369
aa(lp533
S'ring_finger_fk_ctrl_1_l'
p534
a(lp535
VtranslateX
p536
aVtranslateY
p537
aVtranslateZ
p538
aVrotateX
p539
aVrotateY
p540
aVrotateZ
p541
aVsticky
p542
aaF0
aF0
aF0
aF3.1380588390929418
aF7.9409132038808723
aF54.862441483724368
aF0
aa(lp543
S'ring_finger_fk_ctrl_1_r'
p544
a(lp545
VtranslateX
p546
aVtranslateY
p547
aVtranslateZ
p548
aVrotateX
p549
aVrotateY
p550
aVrotateZ
p551
aVsticky
p552
aaF0
aF0
aF0
aF-0.00092871374929657689
aF-0.00029198886448126931
aF54.222239208408332
aF0
aa(lp553
S'ring_finger_fk_ctrl_2_l'
p554
a(lp555
VtranslateX
p556
aVtranslateY
p557
aVtranslateZ
p558
aVrotateX
p559
aVrotateY
p560
aVrotateZ
p561
aaF0
aF0
aF0
aF0
aF-0
aF54.736663769749136
aa(lp562
S'ring_finger_fk_ctrl_2_r'
p563
a(lp564
VtranslateX
p565
aVtranslateY
p566
aVtranslateZ
p567
aVrotateX
p568
aVrotateY
p569
aVrotateZ
p570
aaF0
aF0
aF0
aF0.20133535966839161
aF0.6881549261661557
aF45.614028024812761
aa(lp571
S'ring_finger_fk_ctrl_3_l'
p572
a(lp573
VtranslateX
p574
aVtranslateY
p575
aVtranslateZ
p576
aVrotateX
p577
aVrotateY
p578
aVrotateZ
p579
aaF0
aF0
aF0
aF0
aF-0
aF57.460288002717334
aa(lp580
S'ring_finger_fk_ctrl_3_r'
p581
a(lp582
VtranslateX
p583
aVtranslateY
p584
aVtranslateZ
p585
aVrotateX
p586
aVrotateY
p587
aVrotateZ
p588
aaF0
aF0
aF0
aF0.43453147321362862
aF0.57033307419860213
aF66.609981735733584
aa(lp589
S'middle_finger_fk_ctrl_1_l'
p590
a(lp591
VtranslateX
p592
aVtranslateY
p593
aVtranslateZ
p594
aVrotateX
p595
aVrotateY
p596
aVrotateZ
p597
aVsticky
p598
aaF0
aF0
aF0
aF-7.4569072651081965e-05
aF4.6329446290978149
aF61.6807217945125
aF0
aa(lp599
S'middle_finger_fk_ctrl_1_r'
p600
a(lp601
VtranslateX
p602
aVtranslateY
p603
aVtranslateZ
p604
aVrotateX
p605
aVrotateY
p606
aVrotateZ
p607
aVsticky
p608
aaF0
aF0
aF0
aF-0.00090528111114396867
aF-0.00035800425267554524
aF52.144803235783499
aF0
aa(lp609
S'middle_finger_fk_ctrl_2_l'
p610
a(lp611
VtranslateX
p612
aVtranslateY
p613
aVtranslateZ
p614
aVrotateX
p615
aVrotateY
p616
aVrotateZ
p617
aaF0
aF0
aF0
aF-9.4787915988669346e-23
aF-1.2737988445605897e-06
aF47.684837521621446
aa(lp618
S'middle_finger_fk_ctrl_2_r'
p619
a(lp620
VtranslateX
p621
aVtranslateY
p622
aVtranslateZ
p623
aVrotateX
p624
aVrotateY
p625
aVrotateZ
p626
aaF0
aF0
aF0
aF0.21904383316932102
aF0.68272487160078132
aF47.094227261992337
aa(lp627
S'middle_finger_fk_ctrl_3_l'
p628
a(lp629
VtranslateX
p630
aVtranslateY
p631
aVtranslateZ
p632
aVrotateX
p633
aVrotateY
p634
aVrotateZ
p635
aaF0
aF0
aF0
aF0
aF-0
aF50.408461337602084
aa(lp636
S'middle_finger_fk_ctrl_3_r'
p637
a(lp638
VtranslateX
p639
aVtranslateY
p640
aVtranslateZ
p641
aVrotateX
p642
aVrotateY
p643
aVrotateZ
p644
aaF0
aF0
aF0
aF1.4878721381752247
aF5.3442587515926698
aF75.661403853182691
aa(lp645
S'index_finger_fk_ctrl_1_l'
p646
a(lp647
VtranslateX
p648
aVtranslateY
p649
aVtranslateZ
p650
aVrotateX
p651
aVrotateY
p652
aVrotateZ
p653
aVsticky
p654
aaF0
aF0
aF0
aF-11.520876420209527
aF7.5235388100044629
aF61.057025598441449
aF0
aa(lp655
S'index_finger_fk_ctrl_1_r'
p656
a(lp657
VtranslateX
p658
aVtranslateY
p659
aVtranslateZ
p660
aVrotateX
p661
aVrotateY
p662
aVrotateZ
p663
aVsticky
p664
aaF0
aF0
aF0
aF-13.878455289139831
aF-1.6857001723257301
aF33.430875395116495
aF0
aa(lp665
S'index_finger_fk_ctrl_2_l'
p666
a(lp667
VtranslateX
p668
aVtranslateY
p669
aVtranslateZ
p670
aVrotateX
p671
aVrotateY
p672
aVrotateZ
p673
aaF0
aF0
aF0
aF0
aF-0
aF39.586352827998283
aa(lp674
S'index_finger_fk_ctrl_2_r'
p675
a(lp676
VtranslateX
p677
aVtranslateY
p678
aVtranslateZ
p679
aVrotateX
p680
aVrotateY
p681
aVrotateZ
p682
aaF0
aF0
aF0
aF0
aF-0
aF57.497606541241502
aa(lp683
S'index_finger_fk_ctrl_3_l'
p684
a(lp685
VtranslateX
p686
aVtranslateY
p687
aVtranslateZ
p688
aVrotateX
p689
aVrotateY
p690
aVrotateZ
p691
aaF0
aF0
aF0
aF-1.4871696543175723
aF-2.6895179822327706
aF67.749002871603878
aa(lp692
S'index_finger_fk_ctrl_3_r'
p693
a(lp694
VtranslateX
p695
aVtranslateY
p696
aVtranslateZ
p697
aVrotateX
p698
aVrotateY
p699
aVrotateZ
p700
aaF0
aF0
aF0
aF0
aF-0
aF66.684072769228194
aa(lp701
S'thumb_finger_fk_ctrl_1_l'
p702
a(lp703
VtranslateX
p704
aVtranslateY
p705
aVtranslateZ
p706
aVrotateX
p707
aVrotateY
p708
aVrotateZ
p709
aVsticky
p710
aaF0
aF0
aF0
aF32.52169383120868
aF35.179225546730002
aF3.0633457352428866
aF0
aa(lp711
S'thumb_finger_fk_ctrl_1_r'
p712
a(lp713
VtranslateX
p714
aVtranslateY
p715
aVtranslateZ
p716
aVrotateX
p717
aVrotateY
p718
aVrotateZ
p719
aVsticky
p720
aaF0
aF0
aF0
aF17.289450077260746
aF14.200454336850267
aF19.126317513245805
aF0
aa(lp721
S'thumb_finger_fk_ctrl_2_l'
p722
a(lp723
VtranslateX
p724
aVtranslateY
p725
aVtranslateZ
p726
aVrotateX
p727
aVrotateY
p728
aVrotateZ
p729
aaF0
aF0
aF0
aF-8.5391078496684703
aF17.623117115413969
aF36.133792541211697
aa(lp730
S'thumb_finger_fk_ctrl_2_r'
p731
a(lp732
VtranslateX
p733
aVtranslateY
p734
aVtranslateZ
p735
aVrotateX
p736
aVrotateY
p737
aVrotateZ
p738
aaF0
aF0
aF0
aF-1.7532247795725175
aF13.723054660490325
aF6.9401104392970483
aa(lp739
S'thumb_finger_fk_ctrl_3_l'
p740
a(lp741
VtranslateX
p742
aVtranslateY
p743
aVtranslateZ
p744
aVrotateX
p745
aVrotateY
p746
aVrotateZ
p747
aaF0
aF0
aF0
aF-9.4787915988669358e-23
aF1.8516110786409371e-06
aF62.745112692737024
aa(lp748
S'thumb_finger_fk_ctrl_3_r'
p749
a(lp750
VtranslateX
p751
aVtranslateY
p752
aVtranslateZ
p753
aVrotateX
p754
aVrotateY
p755
aVrotateZ
p756
aaF0
aF0
aF0
aF11.142151140794899
aF-23.838396404597013
aF35.077641354833681
aa(lp757
S'index_l_ik_anim'
p758
a(lp759
VtranslateX
p760
aVtranslateY
p761
aVtranslateZ
p762
aVrotateX
p763
aVrotateY
p764
aVrotateZ
p765
aVpoleVectorVis
p766
aaF0
aF0
aF0
aF0
aF0
aF0
aF0
aa(lp767
S'index_r_ik_anim'
p768
a(lp769
VtranslateX
p770
aVtranslateY
p771
aVtranslateZ
p772
aVrotateX
p773
aVrotateY
p774
aVrotateZ
p775
aVpoleVectorVis
p776
aaF0
aF0
aF0
aF0
aF0
aF0
aF0
aa(lp777
S'middle_l_ik_anim'
p778
a(lp779
VtranslateX
p780
aVtranslateY
p781
aVtranslateZ
p782
aVrotateX
p783
aVrotateY
p784
aVrotateZ
p785
aVpoleVectorVis
p786
aaF0
aF0
aF0
aF0
aF0
aF0
aF0
aa(lp787
S'middle_r_ik_anim'
p788
a(lp789
VtranslateX
p790
aVtranslateY
p791
aVtranslateZ
p792
aVrotateX
p793
aVrotateY
p794
aVrotateZ
p795
aVpoleVectorVis
p796
aaF0
aF0
aF0
aF0
aF0
aF0
aF0
aa(lp797
S'ring_l_ik_anim'
p798
a(lp799
VtranslateX
p800
aVtranslateY
p801
aVtranslateZ
p802
aVrotateX
p803
aVrotateY
p804
aVrotateZ
p805
aVpoleVectorVis
p806
aaF0
aF0
aF0
aF0
aF0
aF0
aF0
aa(lp807
S'ring_r_ik_anim'
p808
a(lp809
VtranslateX
p810
aVtranslateY
p811
aVtranslateZ
p812
aVrotateX
p813
aVrotateY
p814
aVrotateZ
p815
aVpoleVectorVis
p816
aaF0
aF0
aF0
aF0
aF0
aF0
aF0
aa(lp817
S'pinky_l_ik_anim'
p818
a(lp819
VtranslateX
p820
aVtranslateY
p821
aVtranslateZ
p822
aVrotateX
p823
aVrotateY
p824
aVrotateZ
p825
aVpoleVectorVis
p826
aaF0
aF0
aF0
aF0
aF0
aF0
aF0
aa(lp827
S'pinky_r_ik_anim'
p828
a(lp829
VtranslateX
p830
aVtranslateY
p831
aVtranslateZ
p832
aVrotateX
p833
aVrotateY
p834
aVrotateZ
p835
aVpoleVectorVis
p836
aaF0
aF0
aF0
aF0
aF0
aF0
aF0
aa(lp837
S'thumb_l_ik_anim'
p838
a(lp839
VtranslateX
p840
aVtranslateY
p841
aVtranslateZ
p842
aVrotateX
p843
aVrotateY
p844
aVrotateZ
p845
aVpoleVectorVis
p846
aaF0
aF0
aF0
aF0
aF0
aF0
aF0
aa(lp847
S'thumb_r_ik_anim'
p848
a(lp849
VtranslateX
p850
aVtranslateY
p851
aVtranslateZ
p852
aVrotateX
p853
aVrotateY
p854
aVrotateZ
p855
aVpoleVectorVis
p856
aaF0
aF0
aF0
aF0
aF0
aF0
aF0
aa(lp857
S'index_l_poleVector'
p858
a(lp859
VtranslateX
p860
aVtranslateY
p861
aVtranslateZ
p862
aVrotateX
p863
aVrotateY
p864
aVrotateZ
p865
aaF0
aF0
aF0
aF0
aF0
aF0
aa(lp866
S'index_r_poleVector'
p867
a(lp868
VtranslateX
p869
aVtranslateY
p870
aVtranslateZ
p871
aVrotateX
p872
aVrotateY
p873
aVrotateZ
p874
aaF0
aF0
aF0
aF0
aF0
aF0
aa(lp875
S'middle_l_poleVector'
p876
a(lp877
VtranslateX
p878
aVtranslateY
p879
aVtranslateZ
p880
aVrotateX
p881
aVrotateY
p882
aVrotateZ
p883
aaF0
aF0
aF0
aF0
aF0
aF0
aa(lp884
S'middle_r_poleVector'
p885
a(lp886
VtranslateX
p887
aVtranslateY
p888
aVtranslateZ
p889
aVrotateX
p890
aVrotateY
p891
aVrotateZ
p892
aaF0
aF0
aF0
aF0
aF0
aF0
aa(lp893
S'ring_l_poleVector'
p894
a(lp895
VtranslateX
p896
aVtranslateY
p897
aVtranslateZ
p898
aVrotateX
p899
aVrotateY
p900
aVrotateZ
p901
aaF0
aF0
aF0
aF0
aF0
aF0
aa(lp902
S'ring_r_poleVector'
p903
a(lp904
VtranslateX
p905
aVtranslateY
p906
aVtranslateZ
p907
aVrotateX
p908
aVrotateY
p909
aVrotateZ
p910
aaF0
aF0
aF0
aF0
aF0
aF0
aa(lp911
S'pinky_l_poleVector'
p912
a(lp913
VtranslateX
p914
aVtranslateY
p915
aVtranslateZ
p916
aVrotateX
p917
aVrotateY
p918
aVrotateZ
p919
aaF0
aF0
aF0
aF0
aF0
aF0
aa(lp920
S'pinky_r_poleVector'
p921
a(lp922
VtranslateX
p923
aVtranslateY
p924
aVtranslateZ
p925
aVrotateX
p926
aVrotateY
p927
aVrotateZ
p928
aaF0
aF0
aF0
aF0
aF0
aF0
aa(lp929
S'thumb_l_poleVector'
p930
a(lp931
VtranslateX
p932
aVtranslateY
p933
aVtranslateZ
p934
aVrotateX
p935
aVrotateY
p936
aVrotateZ
p937
aaF0
aF0
aF0
aF0
aF0
aF0
aa(lp938
S'thumb_r_poleVector'
p939
a(lp940
VtranslateX
p941
aVtranslateY
p942
aVtranslateZ
p943
aVrotateX
p944
aVrotateY
p945
aVrotateZ
p946
aaF0
aF0
aF0
aF0
aF0
aF0
aa(lp947
S'l_global_ik_anim'
p948
a(lp949
VtranslateX
p950
aVtranslateY
p951
aVtranslateZ
p952
aVrotateX
p953
aVrotateY
p954
aVrotateZ
p955
aaF0
aF0
aF0
aF0
aF0
aF0
aa(lp956
S'r_global_ik_anim'
p957
a(lp958
VtranslateX
p959
aVtranslateY
p960
aVtranslateZ
p961
aVrotateX
p962
aVrotateY
p963
aVrotateZ
p964
aaF0
aF0
aF0
aF0
aF0
aF0
aa(lp965
S'Rig_Settings'
p966
a(lp967
Vspine_ik
p968
aVspine_fk
p969
aVlLegMode
p970
aVlThighTwistAmount
p971
aVlThighTwist2Amount
p972
aVllegTwistCtrlVis
p973
aVlCalfTwistAmount
p974
aVllegTwistCtrlVisCalf
p975
aVrLegMode
p976
aVrThighTwistAmount
p977
aVrThighTwist2Amount
p978
aVrlegTwistCtrlVis
p979
aVrCalfTwistAmount
p980
aVrlegTwistCtrlVisCalf
p981
aVlFkArmOrient
p982
aVlArmMode
p983
aVlClavMode
p984
aVlUpperarmTwistAmount
p985
aVlUpperarmTwist2Amount
p986
aVltwistCtrlVis
p987
aVltwistCtrlVisLower
p988
aVlForearmTwistAmount
p989
aVrFkArmOrient
p990
aVrArmMode
p991
aVrClavMode
p992
aVrUpperarmTwistAmount
p993
aVrUpperarmTwist2Amount
p994
aVrtwistCtrlVis
p995
aVrtwistCtrlVisLower
p996
aVrForearmTwistAmount
p997
aVback_sash_fk
p998
aVback_sash_ik
p999
aVback_sash_dynamic
p1000
aVhip_eyelet_front_l_fk
p1001
aVhip_eyelet_front_l_ik
p1002
aVhip_eyelet_front_l_dynamic
p1003
aVhip_eyelet_front_r_fk
p1004
aVhip_eyelet_front_r_ik
p1005
aVhip_eyelet_front_r_dynamic
p1006
aVhip_eyelet_rear_l_fk
p1007
aVhip_eyelet_rear_l_ik
p1008
aVhip_eyelet_rear_l_dynamic
p1009
aVhip_eyelet_rear_r_fk
p1010
aVhip_eyelet_rear_r_ik
p1011
aVhip_eyelet_rear_r_dynamic
p1012
aVloin_cloth_bk_fk
p1013
aVloin_cloth_bk_ik
p1014
aVloin_cloth_bk_dynamic
p1015
aVloin_cloth_fr_fk
p1016
aVloin_cloth_fr_ik
p1017
aVloin_cloth_fr_dynamic
p1018
aVpadawan_l_fk
p1019
aVpadawan_l_ik
p1020
aVpadawan_l_dynamic
p1021
aVpadawan_r_fk
p1022
aVpadawan_r_ik
p1023
aVpadawan_r_dynamic
p1024
aVponytail_fk
p1025
aVponytail_ik
p1026
aVponytail_dynamic
p1027
aVweapon_butt_fk
p1028
aVweapon_butt_ik
p1029
aVweapon_butt_dynamic
p1030
aaF1
aF0
aI1
aF1
aF0.59999999999999998
aI00
aF0.5
aI00
aI1
aF1
aF0.59999999999999998
aI00
aF0.5
aI00
aI0
aI1
aI1
aF0.90000000000000002
aF0.59999999999999998
aI00
aI00
aF0.5
aI0
aI1
aI1
aF0.90000000000000002
aF0.59999999999999998
aI00
aI00
aF0.5
aF1
aF0
aF0
aF1
aF0
aF0
aF1
aF0
aF0
aF1
aF0
aF0
aF1
aF0
aF0
aF1
aF0
aF0
aF1
aF0
aF0
aF1
aF0
aF0
aF1
aF0
aF0
aF1
aF0
aF0
aF1
aF0
aF0
aa(lp1031
S'calf_l_twist_anim'
p1032
a(lp1033
VtranslateX
p1034
aVtranslateY
p1035
aVtranslateZ
p1036
aVrotateX
p1037
aVrotateY
p1038
aVrotateZ
p1039
aaF0
aF0
aF0
aF0
aF0
aF0
aa(lp1040
S'calf_r_twist_anim'
p1041
a(lp1042
VtranslateX
p1043
aVtranslateY
p1044
aVtranslateZ
p1045
aVrotateX
p1046
aVrotateY
p1047
aVrotateZ
p1048
aaF0
aF0
aF0
aF0
aF0
aF0
aa(lp1049
Vback_sash_dyn_anim
p1050
a(lp1051
VtranslateX
p1052
aVtranslateY
p1053
aVtranslateZ
p1054
aVrotateX
p1055
aVrotateY
p1056
aVrotateZ
p1057
aVchainAttach
p1058
aVchainStartFrame
p1059
aVchainStiffness
p1060
aVchainDamping
p1061
aVchainGravity
p1062
aVchainIteration
p1063
aVchainCollide
p1064
aVchainWidthBase
p1065
aVchainWidthExtremity
p1066
aVchainCollideGround
p1067
aVchainCollideGroundHeight
p1068
aaF0
aF0
aF0
aF0
aF0
aF0
aI1
aF1
aF0.10000000000000001
aF0.20000000000000001
aF1
aI1
aI00
aF1
aF1
aI00
aF0
aa(lp1069
Vback_sash_ik_2_anim
p1070
a(lp1071
VtranslateX
p1072
aVtranslateY
p1073
aVtranslateZ
p1074
aVrotateX
p1075
aVrotateY
p1076
aVrotateZ
p1077
aaF0
aF0
aF0
aF0
aF0
aF0
aa(lp1078
Vback_sash_ik_3_anim
p1079
a(lp1080
VtranslateX
p1081
aVtranslateY
p1082
aVtranslateZ
p1083
aVrotateX
p1084
aVrotateY
p1085
aVrotateZ
p1086
aVclusterControlVis
p1087
aaF0
aF0
aF0
aF0
aF0
aF0
aI00
aa(lp1088
Vback_sash_ik_base_anim
p1089
a(lp1090
VtranslateX
p1091
aVtranslateY
p1092
aVtranslateZ
p1093
aVrotateX
p1094
aVrotateY
p1095
aVrotateZ
p1096
aVglobal_scale
p1097
aaF0
aF0
aF0
aF0
aF0
aF0
aF1
aa(lp1098
Vfk_back_sash_01_anim
p1099
a(lp1100
VtranslateX
p1101
aVtranslateY
p1102
aVtranslateZ
p1103
aVrotateX
p1104
aVrotateY
p1105
aVrotateZ
p1106
aVglobal_scale
p1107
aVlagMode
p1108
aaF0
aF0
aF0
aF0
aF0
aF0
aF1
aF0
aa(lp1109
Vback_sash_cv_0_anim
p1110
a(lp1111
VtranslateX
p1112
aVtranslateY
p1113
aVtranslateZ
p1114
aaF0
aF0
aF0
aa(lp1115
Vfk_back_sash_02_anim
p1116
a(lp1117
VtranslateX
p1118
aVtranslateY
p1119
aVtranslateZ
p1120
aVrotateX
p1121
aVrotateY
p1122
aVrotateZ
p1123
aaF0
aF0
aF0
aF0
aF0
aF0
aa(lp1124
Vback_sash_cv_1_anim
p1125
a(lp1126
VtranslateX
p1127
aVtranslateY
p1128
aVtranslateZ
p1129
aaF0
aF0
aF0
aa(lp1130
Vfk_back_sash_03_anim
p1131
a(lp1132
VtranslateX
p1133
aVtranslateY
p1134
aVtranslateZ
p1135
aVrotateX
p1136
aVrotateY
p1137
aVrotateZ
p1138
aaF0
aF0
aF0
aF0
aF0
aF0
aa(lp1139
Vback_sash_cv_2_anim
p1140
a(lp1141
VtranslateX
p1142
aVtranslateY
p1143
aVtranslateZ
p1144
aaF0
aF0
aF0
aa(lp1145
Vbracelet_A_l_anim
p1146
a(lp1147
VtranslateX
p1148
aVtranslateY
p1149
aVtranslateZ
p1150
aVrotateX
p1151
aVrotateY
p1152
aVrotateZ
p1153
aVscaleX
p1154
aVscaleY
p1155
aVscaleZ
p1156
aaF0
aF0
aF0
aF0
aF0
aF0
aF1
aF1
aF1
aa(lp1157
Vbracelet_B_l_anim
p1158
a(lp1159
VtranslateX
p1160
aVtranslateY
p1161
aVtranslateZ
p1162
aVrotateX
p1163
aVrotateY
p1164
aVrotateZ
p1165
aVscaleX
p1166
aVscaleY
p1167
aVscaleZ
p1168
aaF0
aF0
aF0
aF0
aF0
aF0
aF1
aF1
aF1
aa(lp1169
Vbracelet_C_l_anim
p1170
a(lp1171
VtranslateX
p1172
aVtranslateY
p1173
aVtranslateZ
p1174
aVrotateX
p1175
aVrotateY
p1176
aVrotateZ
p1177
aVscaleX
p1178
aVscaleY
p1179
aVscaleZ
p1180
aaF0
aF0
aF0
aF0
aF0
aF0
aF1
aF1
aF1
aa(lp1181
Veyeball_l_anim
p1182
a(lp1183
VtranslateX
p1184
aVtranslateY
p1185
aVtranslateZ
p1186
aVrotateX
p1187
aVrotateY
p1188
aVrotateZ
p1189
aVscaleX
p1190
aVscaleY
p1191
aVscaleZ
p1192
aaF0
aF0
aF0
aF0
aF0
aF0
aF1
aF1
aF1
aa(lp1193
Veyeball_r_anim
p1194
a(lp1195
VtranslateX
p1196
aVtranslateY
p1197
aVtranslateZ
p1198
aVrotateX
p1199
aVrotateY
p1200
aVrotateZ
p1201
aVscaleX
p1202
aVscaleY
p1203
aVscaleZ
p1204
aaF0
aF0
aF0
aF0
aF0
aF0
aF1
aF1
aF1
aa(lp1205
Veyebrow_in_l_anim
p1206
a(lp1207
VtranslateX
p1208
aVtranslateY
p1209
aVtranslateZ
p1210
aVrotateX
p1211
aVrotateY
p1212
aVrotateZ
p1213
aVscaleX
p1214
aVscaleY
p1215
aVscaleZ
p1216
aaF0
aF0
aF0
aF0
aF0
aF0
aF1
aF1
aF1
aa(lp1217
Veyebrow_in_r_anim
p1218
a(lp1219
VtranslateX
p1220
aVtranslateY
p1221
aVtranslateZ
p1222
aVrotateX
p1223
aVrotateY
p1224
aVrotateZ
p1225
aVscaleX
p1226
aVscaleY
p1227
aVscaleZ
p1228
aaF0
aF0
aF0
aF0
aF0
aF0
aF1
aF1
aF1
aa(lp1229
Veyebrow_out_l_anim
p1230
a(lp1231
VtranslateX
p1232
aVtranslateY
p1233
aVtranslateZ
p1234
aVrotateX
p1235
aVrotateY
p1236
aVrotateZ
p1237
aVscaleX
p1238
aVscaleY
p1239
aVscaleZ
p1240
aaF0
aF0
aF0
aF0
aF0
aF0
aF1
aF1
aF1
aa(lp1241
Veyebrow_out_r_anim
p1242
a(lp1243
VtranslateX
p1244
aVtranslateY
p1245
aVtranslateZ
p1246
aVrotateX
p1247
aVrotateY
p1248
aVrotateZ
p1249
aVscaleX
p1250
aVscaleY
p1251
aVscaleZ
p1252
aaF0
aF0
aF0
aF0
aF0
aF0
aF1
aF1
aF1
aa(lp1253
Veyelid_bott_l_anim
p1254
a(lp1255
VtranslateX
p1256
aVtranslateY
p1257
aVtranslateZ
p1258
aVrotateX
p1259
aVrotateY
p1260
aVrotateZ
p1261
aVscaleX
p1262
aVscaleY
p1263
aVscaleZ
p1264
aaF0
aF0
aF0
aF0
aF0
aF0
aF1
aF1
aF1
aa(lp1265
Veyelid_bott_r_anim
p1266
a(lp1267
VtranslateX
p1268
aVtranslateY
p1269
aVtranslateZ
p1270
aVrotateX
p1271
aVrotateY
p1272
aVrotateZ
p1273
aVscaleX
p1274
aVscaleY
p1275
aVscaleZ
p1276
aaF0
aF0
aF0
aF0
aF0
aF0
aF1
aF1
aF1
aa(lp1277
Veyelid_top_l_anim
p1278
a(lp1279
VtranslateX
p1280
aVtranslateY
p1281
aVtranslateZ
p1282
aVrotateX
p1283
aVrotateY
p1284
aVrotateZ
p1285
aVscaleX
p1286
aVscaleY
p1287
aVscaleZ
p1288
aaF0
aF0
aF0
aF0
aF0
aF0
aF1
aF1
aF1
aa(lp1289
Veyelid_top_r_anim
p1290
a(lp1291
VtranslateX
p1292
aVtranslateY
p1293
aVtranslateZ
p1294
aVrotateX
p1295
aVrotateY
p1296
aVrotateZ
p1297
aVscaleX
p1298
aVscaleY
p1299
aVscaleZ
p1300
aaF0
aF0
aF0
aF0
aF0
aF0
aF1
aF1
aF1
aa(lp1301
Vhip_back_flaps_anim
p1302
a(lp1303
VtranslateX
p1304
aVtranslateY
p1305
aVtranslateZ
p1306
aVrotateX
p1307
aVrotateY
p1308
aVrotateZ
p1309
aVscaleX
p1310
aVscaleY
p1311
aVscaleZ
p1312
aaF3.5527136788005009e-15
aF-0.0040149279208065991
aF-0.060754214318222921
aF-0.20827987371630702
aF0
aF0
aF1
aF1
aF1
aa(lp1313
Vhip_eyelet_front_l_dyn_anim
p1314
a(lp1315
VtranslateX
p1316
aVtranslateY
p1317
aVtranslateZ
p1318
aVrotateX
p1319
aVrotateY
p1320
aVrotateZ
p1321
aVchainAttach
p1322
aVchainStartFrame
p1323
aVchainStiffness
p1324
aVchainDamping
p1325
aVchainGravity
p1326
aVchainIteration
p1327
aVchainCollide
p1328
aVchainWidthBase
p1329
aVchainWidthExtremity
p1330
aVchainCollideGround
p1331
aVchainCollideGroundHeight
p1332
aaF-4.9588099999999998e-09
aF2.5921599999999996e-07
aF6.0685000000000006e-07
aF0
aF0
aF0
aI1
aF1
aF0.10000000000000001
aF0.20000000000000001
aF1
aI1
aI00
aF1
aF1
aI00
aF0
aa(lp1333
Vhip_eyelet_front_l_ik_2_anim
p1334
a(lp1335
VtranslateX
p1336
aVtranslateY
p1337
aVtranslateZ
p1338
aVrotateX
p1339
aVrotateY
p1340
aVrotateZ
p1341
aaF-3.8461300000000003e-07
aF-1.0094199999999999e-06
aF4.1534300000000003e-06
aF0
aF0
aF0
aa(lp1342
Vhip_eyelet_front_l_ik_3_anim
p1343
a(lp1344
VtranslateX
p1345
aVtranslateY
p1346
aVtranslateZ
p1347
aVrotateX
p1348
aVrotateY
p1349
aVrotateZ
p1350
aVclusterControlVis
p1351
aaF-1.92306e-07
aF-5.0470899999999994e-07
aF2.0767200000000001e-06
aF0
aF0
aF0
aI00
aa(lp1352
Vhip_eyelet_front_l_ik_base_anim
p1353
a(lp1354
VtranslateX
p1355
aVtranslateY
p1356
aVtranslateZ
p1357
aVrotateX
p1358
aVrotateY
p1359
aVrotateZ
p1360
aVglobal_scale
p1361
aaF-4.9503000000000002e-09
aF2.6918799999999999e-07
aF6.0257500000000001e-07
aF0
aF0
aF0
aF1
aa(lp1362
Vfk_hip_eyelet_front_l_01_anim
p1363
a(lp1364
VtranslateX
p1365
aVtranslateY
p1366
aVtranslateZ
p1367
aVrotateX
p1368
aVrotateY
p1369
aVrotateZ
p1370
aVglobal_scale
p1371
aVlagMode
p1372
aaF-4.9503199999999999e-09
aF2.6918799999999999e-07
aF6.0257500000000001e-07
aF0
aF0
aF0
aF1
aF0
aa(lp1373
Vhip_eyelet_front_l_cv_0_anim
p1374
a(lp1375
VtranslateX
p1376
aVtranslateY
p1377
aVtranslateZ
p1378
aaF0
aF0
aF0
aa(lp1379
Vfk_hip_eyelet_front_l_02_anim
p1380
a(lp1381
VtranslateX
p1382
aVtranslateY
p1383
aVtranslateZ
p1384
aVrotateX
p1385
aVrotateY
p1386
aVrotateZ
p1387
aaF-2.2579500000000002e-07
aF-3.7199199999999999e-07
aF1.3131800000000001e-06
aF0
aF0
aF0
aa(lp1388
Vhip_eyelet_front_l_cv_1_anim
p1389
a(lp1390
VtranslateX
p1391
aVtranslateY
p1392
aVtranslateZ
p1393
aaF0
aF0
aF0
aa(lp1394
Vfk_hip_eyelet_front_l_03_anim
p1395
a(lp1396
VtranslateX
p1397
aVtranslateY
p1398
aVtranslateZ
p1399
aVrotateX
p1400
aVrotateY
p1401
aVrotateZ
p1402
aaF-9.8909599999999995e-08
aF-8.5001700000000006e-07
aF1.305e-06
aF0
aF0
aF0
aa(lp1403
Vhip_eyelet_front_l_cv_2_anim
p1404
a(lp1405
VtranslateX
p1406
aVtranslateY
p1407
aVtranslateZ
p1408
aaF0
aF0
aF0
aa(lp1409
Vfk_hip_eyelet_front_l_04_anim
p1410
a(lp1411
VtranslateX
p1412
aVtranslateY
p1413
aVtranslateZ
p1414
aVrotateX
p1415
aVrotateY
p1416
aVrotateZ
p1417
aaF-6.59061e-08
aF2.7460399999999999e-07
aF1.55339e-06
aF0
aF0
aF0
aa(lp1418
Vhip_eyelet_front_l_cv_3_anim
p1419
a(lp1420
VtranslateX
p1421
aVtranslateY
p1422
aVtranslateZ
p1423
aaF0
aF0
aF0
aa(lp1424
Vhip_eyelet_front_r_dyn_anim
p1425
a(lp1426
VtranslateX
p1427
aVtranslateY
p1428
aVtranslateZ
p1429
aVrotateX
p1430
aVrotateY
p1431
aVrotateZ
p1432
aVchainAttach
p1433
aVchainStartFrame
p1434
aVchainStiffness
p1435
aVchainDamping
p1436
aVchainGravity
p1437
aVchainIteration
p1438
aVchainCollide
p1439
aVchainWidthBase
p1440
aVchainWidthExtremity
p1441
aVchainCollideGround
p1442
aVchainCollideGroundHeight
p1443
aaF-4.9587599999999995e-09
aF2.5921599999999996e-07
aF6.0685000000000006e-07
aF0
aF0
aF0
aI1
aF1
aF0.10000000000000001
aF0.20000000000000001
aF1
aI1
aI00
aF1
aF1
aI00
aF0
aa(lp1444
Vhip_eyelet_front_r_ik_2_anim
p1445
a(lp1446
VtranslateX
p1447
aVtranslateY
p1448
aVtranslateZ
p1449
aVrotateX
p1450
aVrotateY
p1451
aVrotateZ
p1452
aaF-3.8461300000000003e-07
aF-1.0094199999999999e-06
aF4.1534300000000003e-06
aF0
aF0
aF0
aa(lp1453
Vhip_eyelet_front_r_ik_3_anim
p1454
a(lp1455
VtranslateX
p1456
aVtranslateY
p1457
aVtranslateZ
p1458
aVrotateX
p1459
aVrotateY
p1460
aVrotateZ
p1461
aVclusterControlVis
p1462
aaF-1.92306e-07
aF-5.0470899999999994e-07
aF2.0767200000000001e-06
aF0
aF0
aF0
aI00
aa(lp1463
Vhip_eyelet_front_r_ik_base_anim
p1464
a(lp1465
VtranslateX
p1466
aVtranslateY
p1467
aVtranslateZ
p1468
aVrotateX
p1469
aVrotateY
p1470
aVrotateZ
p1471
aVglobal_scale
p1472
aaF-4.9502599999999998e-09
aF2.6918799999999999e-07
aF6.0257500000000001e-07
aF0
aF0
aF0
aF1
aa(lp1473
Vfk_hip_eyelet_front_r_01_anim
p1474
a(lp1475
VtranslateX
p1476
aVtranslateY
p1477
aVtranslateZ
p1478
aVrotateX
p1479
aVrotateY
p1480
aVrotateZ
p1481
aVglobal_scale
p1482
aVlagMode
p1483
aaF-4.9502699999999997e-09
aF2.6918799999999999e-07
aF6.0257500000000001e-07
aF0
aF0
aF0
aF1
aF0
aa(lp1484
Vhip_eyelet_front_r_cv_0_anim
p1485
a(lp1486
VtranslateX
p1487
aVtranslateY
p1488
aVtranslateZ
p1489
aaF0
aF0
aF0
aa(lp1490
Vfk_hip_eyelet_front_r_02_anim
p1491
a(lp1492
VtranslateX
p1493
aVtranslateY
p1494
aVtranslateZ
p1495
aVrotateX
p1496
aVrotateY
p1497
aVrotateZ
p1498
aaF-2.2579500000000002e-07
aF-3.7199199999999999e-07
aF1.3131800000000001e-06
aF0
aF0
aF0
aa(lp1499
Vhip_eyelet_front_r_cv_1_anim
p1500
a(lp1501
VtranslateX
p1502
aVtranslateY
p1503
aVtranslateZ
p1504
aaF0
aF0
aF0
aa(lp1505
Vfk_hip_eyelet_front_r_03_anim
p1506
a(lp1507
VtranslateX
p1508
aVtranslateY
p1509
aVtranslateZ
p1510
aVrotateX
p1511
aVrotateY
p1512
aVrotateZ
p1513
aaF-9.8909500000000003e-08
aF-8.5001700000000006e-07
aF1.305e-06
aF0
aF0
aF0
aa(lp1514
Vhip_eyelet_front_r_cv_2_anim
p1515
a(lp1516
VtranslateX
p1517
aVtranslateY
p1518
aVtranslateZ
p1519
aaF0
aF0
aF0
aa(lp1520
Vfk_hip_eyelet_front_r_04_anim
p1521
a(lp1522
VtranslateX
p1523
aVtranslateY
p1524
aVtranslateZ
p1525
aVrotateX
p1526
aVrotateY
p1527
aVrotateZ
p1528
aaF-6.5906000000000008e-08
aF2.7460399999999999e-07
aF1.55339e-06
aF0
aF0
aF0
aa(lp1529
Vhip_eyelet_front_r_cv_3_anim
p1530
a(lp1531
VtranslateX
p1532
aVtranslateY
p1533
aVtranslateZ
p1534
aaF0
aF0
aF0
aa(lp1535
Vhip_eyelet_rear_l_dyn_anim
p1536
a(lp1537
VtranslateX
p1538
aVtranslateY
p1539
aVtranslateZ
p1540
aVrotateX
p1541
aVrotateY
p1542
aVrotateZ
p1543
aVchainAttach
p1544
aVchainStartFrame
p1545
aVchainStiffness
p1546
aVchainDamping
p1547
aVchainGravity
p1548
aVchainIteration
p1549
aVchainCollide
p1550
aVchainWidthBase
p1551
aVchainWidthExtremity
p1552
aVchainCollideGround
p1553
aVchainCollideGroundHeight
p1554
aaF-7.0606200000000001e-07
aF3.0596399999999997e-07
aF-6.6344200000000007e-07
aF0
aF0
aF0
aI1
aF1
aF0.10000000000000001
aF0.20000000000000001
aF1
aI1
aI00
aF1
aF1
aI00
aF0
aa(lp1555
Vhip_eyelet_rear_l_ik_2_anim
p1556
a(lp1557
VtranslateX
p1558
aVtranslateY
p1559
aVtranslateZ
p1560
aVrotateX
p1561
aVrotateY
p1562
aVrotateZ
p1563
aaF4.8626599999999998e-06
aF1.10717e-06
aF-3.0055700000000001e-06
aF0
aF0
aF0
aa(lp1564
Vhip_eyelet_rear_l_ik_3_anim
p1565
a(lp1566
VtranslateX
p1567
aVtranslateY
p1568
aVtranslateZ
p1569
aVrotateX
p1570
aVrotateY
p1571
aVrotateZ
p1572
aVclusterControlVis
p1573
aaF2.4313299999999999e-06
aF5.5358299999999994e-07
aF-1.50279e-06
aF0
aF0
aF0
aI00
aa(lp1574
Vhip_eyelet_rear_l_ik_base_anim
p1575
a(lp1576
VtranslateX
p1577
aVtranslateY
p1578
aVtranslateZ
p1579
aVrotateX
p1580
aVrotateY
p1581
aVrotateZ
p1582
aVglobal_scale
p1583
aaF-7.0567999999999995e-07
aF3.0380600000000001e-07
aF-6.6488099999999998e-07
aF0
aF0
aF0
aF1
aa(lp1584
Vfk_hip_eyelet_rear_l_01_anim
p1585
a(lp1586
VtranslateX
p1587
aVtranslateY
p1588
aVtranslateZ
p1589
aVrotateX
p1590
aVrotateY
p1591
aVrotateZ
p1592
aVglobal_scale
p1593
aVlagMode
p1594
aaF-7.0567999999999995e-07
aF3.0380600000000001e-07
aF-6.6488099999999998e-07
aF0
aF0
aF0
aF1
aF0
aa(lp1595
Vhip_eyelet_rear_l_cv_0_anim
p1596
a(lp1597
VtranslateX
p1598
aVtranslateY
p1599
aVtranslateZ
p1600
aaF0
aF0
aF0
aa(lp1601
Vfk_hip_eyelet_rear_l_02_anim
p1602
a(lp1603
VtranslateX
p1604
aVtranslateY
p1605
aVtranslateZ
p1606
aVrotateX
p1607
aVrotateY
p1608
aVrotateZ
p1609
aaF1.6195699999999999e-06
aF3.8423699999999998e-07
aF-9.9642700000000001e-07
aF0
aF0
aF0
aa(lp1610
Vhip_eyelet_rear_l_cv_1_anim
p1611
a(lp1612
VtranslateX
p1613
aVtranslateY
p1614
aVtranslateZ
p1615
aaF0
aF0
aF0
aa(lp1616
Vfk_hip_eyelet_rear_l_03_anim
p1617
a(lp1618
VtranslateX
p1619
aVtranslateY
p1620
aVtranslateZ
p1621
aVrotateX
p1622
aVrotateY
p1623
aVrotateZ
p1624
aaF1.6229899999999999e-06
aF3.6153700000000002e-07
aF-9.9642300000000011e-07
aF0
aF0
aF0
aa(lp1625
Vhip_eyelet_rear_l_cv_2_anim
p1626
a(lp1627
VtranslateX
p1628
aVtranslateY
p1629
aVtranslateZ
p1630
aaF0
aF0
aF0
aa(lp1631
Vfk_hip_eyelet_rear_l_04_anim
p1632
a(lp1633
VtranslateX
p1634
aVtranslateY
p1635
aVtranslateZ
p1636
aVrotateX
p1637
aVrotateY
p1638
aVrotateZ
p1639
aaF1.6201000000000002e-06
aF3.4184700000000003e-07
aF-1.0204800000000001e-06
aF0
aF0
aF0
aa(lp1640
Vhip_eyelet_rear_l_cv_3_anim
p1641
a(lp1642
VtranslateX
p1643
aVtranslateY
p1644
aVtranslateZ
p1645
aaF0
aF0
aF0
aa(lp1646
Vhip_eyelet_rear_r_dyn_anim
p1647
a(lp1648
VtranslateX
p1649
aVtranslateY
p1650
aVtranslateZ
p1651
aVrotateX
p1652
aVrotateY
p1653
aVrotateZ
p1654
aVchainAttach
p1655
aVchainStartFrame
p1656
aVchainStiffness
p1657
aVchainDamping
p1658
aVchainGravity
p1659
aVchainIteration
p1660
aVchainCollide
p1661
aVchainWidthBase
p1662
aVchainWidthExtremity
p1663
aVchainCollideGround
p1664
aVchainCollideGroundHeight
p1665
aaF-7.0606200000000001e-07
aF3.0596399999999997e-07
aF-6.6344200000000007e-07
aF0
aF0
aF0
aI1
aF1
aF0.10000000000000001
aF0.20000000000000001
aF1
aI1
aI00
aF1
aF1
aI00
aF0
aa(lp1666
Vhip_eyelet_rear_r_ik_2_anim
p1667
a(lp1668
VtranslateX
p1669
aVtranslateY
p1670
aVtranslateZ
p1671
aVrotateX
p1672
aVrotateY
p1673
aVrotateZ
p1674
aaF4.8626599999999998e-06
aF1.10717e-06
aF-3.0055700000000001e-06
aF0
aF0
aF0
aa(lp1675
Vhip_eyelet_rear_r_ik_3_anim
p1676
a(lp1677
VtranslateX
p1678
aVtranslateY
p1679
aVtranslateZ
p1680
aVrotateX
p1681
aVrotateY
p1682
aVrotateZ
p1683
aVclusterControlVis
p1684
aaF2.4313299999999999e-06
aF5.5358299999999994e-07
aF-1.50279e-06
aF0
aF0
aF0
aI00
aa(lp1685
Vhip_eyelet_rear_r_ik_base_anim
p1686
a(lp1687
VtranslateX
p1688
aVtranslateY
p1689
aVtranslateZ
p1690
aVrotateX
p1691
aVrotateY
p1692
aVrotateZ
p1693
aVglobal_scale
p1694
aaF-7.0567999999999995e-07
aF3.0380600000000001e-07
aF-6.6488099999999998e-07
aF0
aF0
aF0
aF1
aa(lp1695
Vfk_hip_eyelet_rear_r_01_anim
p1696
a(lp1697
VtranslateX
p1698
aVtranslateY
p1699
aVtranslateZ
p1700
aVrotateX
p1701
aVrotateY
p1702
aVrotateZ
p1703
aVglobal_scale
p1704
aVlagMode
p1705
aaF-7.0567999999999995e-07
aF3.0380600000000001e-07
aF-6.6488099999999998e-07
aF0
aF0
aF0
aF1
aF0
aa(lp1706
Vhip_eyelet_rear_r_cv_0_anim
p1707
a(lp1708
VtranslateX
p1709
aVtranslateY
p1710
aVtranslateZ
p1711
aaF0
aF0
aF0
aa(lp1712
Vfk_hip_eyelet_rear_r_02_anim
p1713
a(lp1714
VtranslateX
p1715
aVtranslateY
p1716
aVtranslateZ
p1717
aVrotateX
p1718
aVrotateY
p1719
aVrotateZ
p1720
aaF1.6195699999999999e-06
aF3.8423699999999998e-07
aF-9.9642700000000001e-07
aF0
aF0
aF0
aa(lp1721
Vhip_eyelet_rear_r_cv_1_anim
p1722
a(lp1723
VtranslateX
p1724
aVtranslateY
p1725
aVtranslateZ
p1726
aaF0
aF0
aF0
aa(lp1727
Vfk_hip_eyelet_rear_r_03_anim
p1728
a(lp1729
VtranslateX
p1730
aVtranslateY
p1731
aVtranslateZ
p1732
aVrotateX
p1733
aVrotateY
p1734
aVrotateZ
p1735
aaF1.6229899999999999e-06
aF3.6153700000000002e-07
aF-9.9642300000000011e-07
aF0
aF0
aF0
aa(lp1736
Vhip_eyelet_rear_r_cv_2_anim
p1737
a(lp1738
VtranslateX
p1739
aVtranslateY
p1740
aVtranslateZ
p1741
aaF0
aF0
aF0
aa(lp1742
Vfk_hip_eyelet_rear_r_04_anim
p1743
a(lp1744
VtranslateX
p1745
aVtranslateY
p1746
aVtranslateZ
p1747
aVrotateX
p1748
aVrotateY
p1749
aVrotateZ
p1750
aaF1.6201000000000002e-06
aF3.41848e-07
aF-1.0204800000000001e-06
aF0
aF0
aF0
aa(lp1751
Vhip_eyelet_rear_r_cv_3_anim
p1752
a(lp1753
VtranslateX
p1754
aVtranslateY
p1755
aVtranslateZ
p1756
aaF0
aF0
aF0
aa(lp1757
Vjaw_anim
p1758
a(lp1759
VtranslateX
p1760
aVtranslateY
p1761
aVtranslateZ
p1762
aVrotateX
p1763
aVrotateY
p1764
aVrotateZ
p1765
aVscaleX
p1766
aVscaleY
p1767
aVscaleZ
p1768
aaF0
aF0
aF0
aF-0.82522200000000001
aF0
aF0
aF1
aF1
aF1
aa(lp1769
Vleg_shieldPad_A_l_anim
p1770
a(lp1771
VtranslateX
p1772
aVtranslateY
p1773
aVtranslateZ
p1774
aVrotateX
p1775
aVrotateY
p1776
aVrotateZ
p1777
aVchainAttach
p1778
aVchainStartFrame
p1779
aVchainStiffness
p1780
aVchainDamping
p1781
aVchainGravity
p1782
aVchainIteration
p1783
aVchainCollide
p1784
aVchainWidthBase
p1785
aVchainWidthExtremity
p1786
aVchainCollideGround
p1787
aVchainCollideGroundHeight
p1788
aaF0
aF0
aF0
aF0
aF0
aF0
aI1
aF1
aF0.10000000000000001
aF0.20000000000000001
aF1
aI1
aI00
aF1
aF1
aI00
aF0
aa(lp1789
Vleg_shieldPad_A_r_anim
p1790
a(lp1791
VtranslateX
p1792
aVtranslateY
p1793
aVtranslateZ
p1794
aVrotateX
p1795
aVrotateY
p1796
aVrotateZ
p1797
aVchainAttach
p1798
aVchainStartFrame
p1799
aVchainStiffness
p1800
aVchainDamping
p1801
aVchainGravity
p1802
aVchainIteration
p1803
aVchainCollide
p1804
aVchainWidthBase
p1805
aVchainWidthExtremity
p1806
aVchainCollideGround
p1807
aVchainCollideGroundHeight
p1808
aaF0
aF0
aF0
aF0
aF0
aF0
aI1
aF1
aF0.10000000000000001
aF0.20000000000000001
aF1
aI1
aI00
aF1
aF1
aI00
aF0
aa(lp1809
Vleg_shieldPad_B_l_anim
p1810
a(lp1811
VtranslateX
p1812
aVtranslateY
p1813
aVtranslateZ
p1814
aVrotateX
p1815
aVrotateY
p1816
aVrotateZ
p1817
aVchainAttach
p1818
aVchainStartFrame
p1819
aVchainStiffness
p1820
aVchainDamping
p1821
aVchainGravity
p1822
aVchainIteration
p1823
aVchainCollide
p1824
aVchainWidthBase
p1825
aVchainWidthExtremity
p1826
aVchainCollideGround
p1827
aVchainCollideGroundHeight
p1828
aaF0
aF0
aF0
aF0
aF0
aF0
aI1
aF1
aF0.10000000000000001
aF0.20000000000000001
aF1
aI1
aI00
aF1
aF1
aI00
aF0
aa(lp1829
Vleg_shieldPad_B_r_anim
p1830
a(lp1831
VtranslateX
p1832
aVtranslateY
p1833
aVtranslateZ
p1834
aVrotateX
p1835
aVrotateY
p1836
aVrotateZ
p1837
aVchainAttach
p1838
aVchainStartFrame
p1839
aVchainStiffness
p1840
aVchainDamping
p1841
aVchainGravity
p1842
aVchainIteration
p1843
aVchainCollide
p1844
aVchainWidthBase
p1845
aVchainWidthExtremity
p1846
aVchainCollideGround
p1847
aVchainCollideGroundHeight
p1848
aaF0
aF0
aF0
aF0
aF0
aF0
aI1
aF1
aF0.10000000000000001
aF0.20000000000000001
aF1
aI1
aI00
aF1
aF1
aI00
aF0
aa(lp1849
Vloin_cloth_bk_dyn_anim
p1850
a(lp1851
VtranslateX
p1852
aVtranslateY
p1853
aVtranslateZ
p1854
aVrotateX
p1855
aVrotateY
p1856
aVrotateZ
p1857
aVchainAttach
p1858
aVchainStartFrame
p1859
aVchainStiffness
p1860
aVchainDamping
p1861
aVchainGravity
p1862
aVchainIteration
p1863
aVchainCollide
p1864
aVchainWidthBase
p1865
aVchainWidthExtremity
p1866
aVchainCollideGround
p1867
aVchainCollideGroundHeight
p1868
aaF0
aF0
aF0
aF0
aF0
aF0
aI1
aF1
aF0.10000000000000001
aF0.20000000000000001
aF1
aI1
aI00
aF1
aF1
aI00
aF0
aa(lp1869
Vloin_cloth_bk_ik_2_anim
p1870
a(lp1871
VtranslateX
p1872
aVtranslateY
p1873
aVtranslateZ
p1874
aVrotateX
p1875
aVrotateY
p1876
aVrotateZ
p1877
aaF0
aF0
aF0
aF0
aF0
aF0
aa(lp1878
Vloin_cloth_bk_ik_3_anim
p1879
a(lp1880
VtranslateX
p1881
aVtranslateY
p1882
aVtranslateZ
p1883
aVrotateX
p1884
aVrotateY
p1885
aVrotateZ
p1886
aVclusterControlVis
p1887
aaF0
aF0
aF0
aF0
aF0
aF0
aI00
aa(lp1888
Vloin_cloth_bk_ik_base_anim
p1889
a(lp1890
VtranslateX
p1891
aVtranslateY
p1892
aVtranslateZ
p1893
aVrotateX
p1894
aVrotateY
p1895
aVrotateZ
p1896
aVglobal_scale
p1897
aaF0
aF0
aF0
aF0
aF0
aF0
aF1
aa(lp1898
Vfk_loin_cloth_bk_01_anim
p1899
a(lp1900
VtranslateX
p1901
aVtranslateY
p1902
aVtranslateZ
p1903
aVrotateX
p1904
aVrotateY
p1905
aVrotateZ
p1906
aVglobal_scale
p1907
aVlagMode
p1908
aaF0
aF0
aF0
aF0
aF0
aF0
aF1
aF0
aa(lp1909
Vloin_cloth_bk_cv_0_anim
p1910
a(lp1911
VtranslateX
p1912
aVtranslateY
p1913
aVtranslateZ
p1914
aaF0
aF0
aF0
aa(lp1915
Vfk_loin_cloth_bk_02_anim
p1916
a(lp1917
VtranslateX
p1918
aVtranslateY
p1919
aVtranslateZ
p1920
aVrotateX
p1921
aVrotateY
p1922
aVrotateZ
p1923
aaF0
aF0
aF0
aF0
aF0
aF0
aa(lp1924
Vloin_cloth_bk_cv_1_anim
p1925
a(lp1926
VtranslateX
p1927
aVtranslateY
p1928
aVtranslateZ
p1929
aaF0
aF0
aF0
aa(lp1930
Vloin_cloth_fr_dyn_anim
p1931
a(lp1932
VtranslateX
p1933
aVtranslateY
p1934
aVtranslateZ
p1935
aVrotateX
p1936
aVrotateY
p1937
aVrotateZ
p1938
aVchainAttach
p1939
aVchainStartFrame
p1940
aVchainStiffness
p1941
aVchainDamping
p1942
aVchainGravity
p1943
aVchainIteration
p1944
aVchainCollide
p1945
aVchainWidthBase
p1946
aVchainWidthExtremity
p1947
aVchainCollideGround
p1948
aVchainCollideGroundHeight
p1949
aaF0
aF0
aF0
aF0
aF0
aF0
aI1
aF1
aF0.10000000000000001
aF0.20000000000000001
aF1
aI1
aI00
aF1
aF1
aI00
aF0
aa(lp1950
Vloin_cloth_fr_ik_2_anim
p1951
a(lp1952
VtranslateX
p1953
aVtranslateY
p1954
aVtranslateZ
p1955
aVrotateX
p1956
aVrotateY
p1957
aVrotateZ
p1958
aaF0
aF0
aF0
aF0
aF0
aF0
aa(lp1959
Vloin_cloth_fr_ik_3_anim
p1960
a(lp1961
VtranslateX
p1962
aVtranslateY
p1963
aVtranslateZ
p1964
aVrotateX
p1965
aVrotateY
p1966
aVrotateZ
p1967
aVclusterControlVis
p1968
aaF0
aF0
aF0
aF0
aF0
aF0
aI00
aa(lp1969
Vloin_cloth_fr_ik_base_anim
p1970
a(lp1971
VtranslateX
p1972
aVtranslateY
p1973
aVtranslateZ
p1974
aVrotateX
p1975
aVrotateY
p1976
aVrotateZ
p1977
aVglobal_scale
p1978
aaF0
aF0
aF0
aF0
aF0
aF0
aF1
aa(lp1979
Vfk_loin_cloth_fr_01_anim
p1980
a(lp1981
VtranslateX
p1982
aVtranslateY
p1983
aVtranslateZ
p1984
aVrotateX
p1985
aVrotateY
p1986
aVrotateZ
p1987
aVglobal_scale
p1988
aVlagMode
p1989
aaF0
aF0
aF0
aF0
aF0
aF0
aF1
aF0
aa(lp1990
Vloin_cloth_fr_cv_0_anim
p1991
a(lp1992
VtranslateX
p1993
aVtranslateY
p1994
aVtranslateZ
p1995
aaF0
aF0
aF0
aa(lp1996
Vfk_loin_cloth_fr_02_anim
p1997
a(lp1998
VtranslateX
p1999
aVtranslateY
p2000
aVtranslateZ
p2001
aVrotateX
p2002
aVrotateY
p2003
aVrotateZ
p2004
aaF0
aF0
aF0
aF0
aF0
aF0
aa(lp2005
Vloin_cloth_fr_cv_1_anim
p2006
a(lp2007
VtranslateX
p2008
aVtranslateY
p2009
aVtranslateZ
p2010
aaF0
aF0
aF0
aa(lp2011
Vpadawan_l_dyn_anim
p2012
a(lp2013
VtranslateX
p2014
aVtranslateY
p2015
aVtranslateZ
p2016
aVrotateX
p2017
aVrotateY
p2018
aVrotateZ
p2019
aVchainAttach
p2020
aVchainStartFrame
p2021
aVchainStiffness
p2022
aVchainDamping
p2023
aVchainGravity
p2024
aVchainIteration
p2025
aVchainCollide
p2026
aVchainWidthBase
p2027
aVchainWidthExtremity
p2028
aVchainCollideGround
p2029
aVchainCollideGroundHeight
p2030
aaF5.6692099999999997e-07
aF-2.0773000000000002e-07
aF-2.7077900000000002e-07
aF0
aF0
aF0
aI1
aF1
aF0.10000000000000001
aF0.20000000000000001
aF1
aI1
aI00
aF1
aF1
aI00
aF0
aa(lp2031
Vpadawan_l_ik_2_anim
p2032
a(lp2033
VtranslateX
p2034
aVtranslateY
p2035
aVtranslateZ
p2036
aVrotateX
p2037
aVrotateY
p2038
aVrotateZ
p2039
aaF9.8929799999999994e-07
aF3.4911199999999998e-07
aF2.72955e-07
aF0
aF0
aF0
aa(lp2040
Vpadawan_l_ik_3_anim
p2041
a(lp2042
VtranslateX
p2043
aVtranslateY
p2044
aVtranslateZ
p2045
aVrotateX
p2046
aVrotateY
p2047
aVrotateZ
p2048
aVclusterControlVis
p2049
aaF5.3634700000000008e-07
aF1.4553999999999999e-07
aF9.1610300000000001e-08
aF0
aF0
aF0
aI00
aa(lp2050
Vpadawan_l_ik_base_anim
p2051
a(lp2052
VtranslateX
p2053
aVtranslateY
p2054
aVtranslateZ
p2055
aVrotateX
p2056
aVrotateY
p2057
aVrotateZ
p2058
aVglobal_scale
p2059
aaF5.6411699999999997e-07
aF-2.1178599999999999e-07
aF-2.7349299999999997e-07
aF0
aF0
aF0
aF1
aa(lp2060
Vfk_padawan_l_01_anim
p2061
a(lp2062
VtranslateX
p2063
aVtranslateY
p2064
aVtranslateZ
p2065
aVrotateX
p2066
aVrotateY
p2067
aVrotateZ
p2068
aVglobal_scale
p2069
aVlagMode
p2070
aaF5.6411699999999997e-07
aF-2.1178599999999999e-07
aF-2.7349299999999997e-07
aF0
aF0
aF0
aF1
aF0
aa(lp2071
Vpadawan_l_cv_0_anim
p2072
a(lp2073
VtranslateX
p2074
aVtranslateY
p2075
aVtranslateZ
p2076
aaF0
aF0
aF0
aa(lp2077
Vfk_padawan_l_02_anim
p2078
a(lp2079
VtranslateX
p2080
aVtranslateY
p2081
aVtranslateZ
p2082
aVrotateX
p2083
aVrotateY
p2084
aVrotateZ
p2085
aaF4.4171899999999999e-07
aF3.3581399999999999e-07
aF2.0699299999999998e-07
aF0
aF0
aF0
aa(lp2086
Vpadawan_l_cv_1_anim
p2087
a(lp2088
VtranslateX
p2089
aVtranslateY
p2090
aVtranslateZ
p2091
aaF0
aF0
aF0
aa(lp2092
Vfk_padawan_l_03_anim
p2093
a(lp2094
VtranslateX
p2095
aVtranslateY
p2096
aVtranslateZ
p2097
aVrotateX
p2098
aVrotateY
p2099
aVrotateZ
p2100
aaF4.6418400000000002e-07
aF7.1331200000000003e-08
aF1.5569500000000002e-07
aF0
aF0
aF0
aa(lp2101
Vpadawan_l_cv_2_anim
p2102
a(lp2103
VtranslateX
p2104
aVtranslateY
p2105
aVtranslateZ
p2106
aaF0
aF0
aF0
aa(lp2107
Vpadawan_r_dyn_anim
p2108
a(lp2109
VtranslateX
p2110
aVtranslateY
p2111
aVtranslateZ
p2112
aVrotateX
p2113
aVrotateY
p2114
aVrotateZ
p2115
aVchainAttach
p2116
aVchainStartFrame
p2117
aVchainStiffness
p2118
aVchainDamping
p2119
aVchainGravity
p2120
aVchainIteration
p2121
aVchainCollide
p2122
aVchainWidthBase
p2123
aVchainWidthExtremity
p2124
aVchainCollideGround
p2125
aVchainCollideGroundHeight
p2126
aaF6.5734799999999999e-07
aF-7.46087e-08
aF-1.3938200000000001e-08
aF0
aF0
aF0
aI1
aF1
aF0.10000000000000001
aF0.20000000000000001
aF1
aI1
aI00
aF1
aF1
aI00
aF0
aa(lp2127
Vpadawan_r_ik_2_anim
p2128
a(lp2129
VtranslateX
p2130
aVtranslateY
p2131
aVtranslateZ
p2132
aVrotateX
p2133
aVrotateY
p2134
aVrotateZ
p2135
aaF1.0334000000000001e-06
aF4.2689399999999998e-07
aF4.0427299999999998e-07
aF0
aF0
aF0
aa(lp2136
Vpadawan_r_ik_3_anim
p2137
a(lp2138
VtranslateX
p2139
aVtranslateY
p2140
aVtranslateZ
p2141
aVrotateX
p2142
aVrotateY
p2143
aVrotateZ
p2144
aVclusterControlVis
p2145
aaF5.8044800000000004e-07
aF2.2332200000000002e-07
aF2.2292900000000002e-07
aF0
aF0
aF0
aI00
aa(lp2146
Vpadawan_r_ik_base_anim
p2147
a(lp2148
VtranslateX
p2149
aVtranslateY
p2150
aVtranslateZ
p2151
aVrotateX
p2152
aVrotateY
p2153
aVrotateZ
p2154
aVglobal_scale
p2155
aaF6.5629699999999999e-07
aF-8.3225099999999998e-08
aF-1.4958000000000001e-08
aF0
aF0
aF0
aF1
aa(lp2156
Vfk_padawan_r_01_anim
p2157
a(lp2158
VtranslateX
p2159
aVtranslateY
p2160
aVtranslateZ
p2161
aVrotateX
p2162
aVrotateY
p2163
aVrotateZ
p2164
aVglobal_scale
p2165
aVlagMode
p2166
aaF0
aF0
aF0
aF0
aF0
aF0
aF1
aF0
aa(lp2167
Vpadawan_r_cv_0_anim
p2168
a(lp2169
VtranslateX
p2170
aVtranslateY
p2171
aVtranslateZ
p2172
aaF0
aF0
aF0
aa(lp2173
Vfk_padawan_r_02_anim
p2174
a(lp2175
VtranslateX
p2176
aVtranslateY
p2177
aVtranslateZ
p2178
aVrotateX
p2179
aVrotateY
p2180
aVrotateZ
p2181
aaF4.4171899999999999e-07
aF3.3581399999999999e-07
aF2.0699299999999998e-07
aF0
aF0
aF0
aa(lp2182
Vpadawan_r_cv_1_anim
p2183
a(lp2184
VtranslateX
p2185
aVtranslateY
p2186
aVtranslateZ
p2187
aaF0
aF0
aF0
aa(lp2188
Vfk_padawan_r_03_anim
p2189
a(lp2190
VtranslateX
p2191
aVtranslateY
p2192
aVtranslateZ
p2193
aVrotateX
p2194
aVrotateY
p2195
aVrotateZ
p2196
aaF4.6418400000000002e-07
aF7.1331200000000003e-08
aF1.5569500000000002e-07
aF0
aF0
aF0
aa(lp2197
Vpadawan_r_cv_2_anim
p2198
a(lp2199
VtranslateX
p2200
aVtranslateY
p2201
aVtranslateZ
p2202
aaF0
aF0
aF0
aa(lp2203
Vpipe_anim
p2204
a(lp2205
VtranslateX
p2206
aVtranslateY
p2207
aVtranslateZ
p2208
aVrotateX
p2209
aVrotateY
p2210
aVrotateZ
p2211
aVscaleX
p2212
aVscaleY
p2213
aVscaleZ
p2214
aaF0
aF0
aF0
aF0
aF0
aF-7.9214437030667315e-05
aF1
aF1
aF1
aa(lp2215
Vponytail_dyn_anim
p2216
a(lp2217
VtranslateX
p2218
aVtranslateY
p2219
aVtranslateZ
p2220
aVrotateX
p2221
aVrotateY
p2222
aVrotateZ
p2223
aVchainAttach
p2224
aVchainStartFrame
p2225
aVchainStiffness
p2226
aVchainDamping
p2227
aVchainGravity
p2228
aVchainIteration
p2229
aVchainCollide
p2230
aVchainWidthBase
p2231
aVchainWidthExtremity
p2232
aVchainCollideGround
p2233
aVchainCollideGroundHeight
p2234
aaF-2.2462399999999999e-07
aF1.14346e-07
aF9.9454800000000002e-08
aF0
aF0
aF0
aI1
aF1
aF0.10000000000000001
aF0.20000000000000001
aF1
aI1
aI00
aF1
aF1
aI00
aF0
aa(lp2235
Vponytail_ik_2_anim
p2236
a(lp2237
VtranslateX
p2238
aVtranslateY
p2239
aVtranslateZ
p2240
aVrotateX
p2241
aVrotateY
p2242
aVrotateZ
p2243
aaF-1.0984000000000001e-07
aF6.0196200000000003e-08
aF5.1829500000000001e-08
aF0
aF0
aF0
aa(lp2244
Vponytail_ik_3_anim
p2245
a(lp2246
VtranslateX
p2247
aVtranslateY
p2248
aVtranslateZ
p2249
aVrotateX
p2250
aVrotateY
p2251
aVrotateZ
p2252
aVclusterControlVis
p2253
aaF-1.0984100000000001e-07
aF6.0196200000000003e-08
aF5.1829500000000001e-08
aF0
aF0
aF0
aI00
aa(lp2254
Vponytail_ik_base_anim
p2255
a(lp2256
VtranslateX
p2257
aVtranslateY
p2258
aVtranslateZ
p2259
aVrotateX
p2260
aVrotateY
p2261
aVrotateZ
p2262
aVglobal_scale
p2263
aaF-2.2462399999999999e-07
aF1.1402699999999999e-07
aF9.9820799999999993e-08
aF0
aF0
aF0
aF1
aa(lp2264
Vfk_ponytail_01_anim
p2265
a(lp2266
VtranslateX
p2267
aVtranslateY
p2268
aVtranslateZ
p2269
aVrotateX
p2270
aVrotateY
p2271
aVrotateZ
p2272
aVglobal_scale
p2273
aVlagMode
p2274
aaF-2.2462399999999999e-07
aF1.1402699999999999e-07
aF9.9820799999999993e-08
aF0
aF0
aF0
aF1
aF0
aa(lp2275
Vponytail_cv_0_anim
p2276
a(lp2277
VtranslateX
p2278
aVtranslateY
p2279
aVtranslateZ
p2280
aaF0
aF0
aF0
aa(lp2281
Vfk_ponytail_02_anim
p2282
a(lp2283
VtranslateX
p2284
aVtranslateY
p2285
aVtranslateZ
p2286
aVrotateX
p2287
aVrotateY
p2288
aVrotateZ
p2289
aaF0
aF0
aF0
aF0
aF0
aF0
aa(lp2290
Vponytail_cv_1_anim
p2291
a(lp2292
VtranslateX
p2293
aVtranslateY
p2294
aVtranslateZ
p2295
aaF0
aF0
aF0
aa(lp2296
Vfk_ponytail_03_anim
p2297
a(lp2298
VtranslateX
p2299
aVtranslateY
p2300
aVtranslateZ
p2301
aVrotateX
p2302
aVrotateY
p2303
aVrotateZ
p2304
aaF0
aF0
aF0
aF0
aF0
aF0
aa(lp2305
Vponytail_cv_2_anim
p2306
a(lp2307
VtranslateX
p2308
aVtranslateY
p2309
aVtranslateZ
p2310
aaF0
aF0
aF0
aa(lp2311
Vshoulder_blade_in_r_anim
p2312
a(lp2313
VtranslateX
p2314
aVtranslateY
p2315
aVtranslateZ
p2316
aVrotateX
p2317
aVrotateY
p2318
aVrotateZ
p2319
aVscaleX
p2320
aVscaleY
p2321
aVscaleZ
p2322
aaF0
aF0
aF0
aF0
aF0
aF0
aF1
aF1
aF1
aa(lp2323
Vshoulder_blade_mid_r_anim
p2324
a(lp2325
VtranslateX
p2326
aVtranslateY
p2327
aVtranslateZ
p2328
aVrotateX
p2329
aVrotateY
p2330
aVrotateZ
p2331
aVscaleX
p2332
aVscaleY
p2333
aVscaleZ
p2334
aaF0
aF0
aF0
aF0
aF0
aF0
aF1
aF1
aF1
aa(lp2335
Vshoulder_blade_out_r_anim
p2336
a(lp2337
VtranslateX
p2338
aVtranslateY
p2339
aVtranslateZ
p2340
aVrotateX
p2341
aVrotateY
p2342
aVrotateZ
p2343
aVscaleX
p2344
aVscaleY
p2345
aVscaleZ
p2346
aaF0
aF0
aF0
aF0
aF0
aF0
aF1
aF1
aF1
aa(lp2347
Vshoulder_cloth_01_l_anim
p2348
a(lp2349
VtranslateX
p2350
aVtranslateY
p2351
aVtranslateZ
p2352
aVrotateX
p2353
aVrotateY
p2354
aVrotateZ
p2355
aVscaleX
p2356
aVscaleY
p2357
aVscaleZ
p2358
aaF0
aF0
aF0
aF0
aF0
aF0
aF1
aF1
aF1
aa(lp2359
Vshoulder_cloth_02_l_anim
p2360
a(lp2361
VtranslateX
p2362
aVtranslateY
p2363
aVtranslateZ
p2364
aVrotateX
p2365
aVrotateY
p2366
aVrotateZ
p2367
aVscaleX
p2368
aVscaleY
p2369
aVscaleZ
p2370
aaF0
aF0
aF0
aF0
aF0
aF0
aF1
aF1
aF1
aa(lp2371
Vshoulder_pad_r_anim
p2372
a(lp2373
VtranslateX
p2374
aVtranslateY
p2375
aVtranslateZ
p2376
aVrotateX
p2377
aVrotateY
p2378
aVrotateZ
p2379
aVscaleX
p2380
aVscaleY
p2381
aVscaleZ
p2382
aaF0
aF0
aF0
aF0
aF-13.734283276005097
aF0
aF1
aF1
aF1
aa(lp2383
Vweapon_anim
p2384
a(lp2385
VtranslateX
p2386
aVtranslateY
p2387
aVtranslateZ
p2388
aVrotateX
p2389
aVrotateY
p2390
aVrotateZ
p2391
aVscaleX
p2392
aVscaleY
p2393
aVscaleZ
p2394
aVspace_ik_wrist_l_anim
p2395
aaF-97.056768225452444
aF5.5365034576295979
aF-10.0033324802274
aF128.91196378421037
aF-80.539826389021428
aF68.5516605000238
aF1
aF1
aF1
aF0
aa(lp2396
Vweapon_bladeA_01_anim
p2397
a(lp2398
VtranslateX
p2399
aVtranslateY
p2400
aVtranslateZ
p2401
aVrotateX
p2402
aVrotateY
p2403
aVrotateZ
p2404
aVscaleX
p2405
aVscaleY
p2406
aVscaleZ
p2407
aaF0
aF0
aF0
aF0
aF0
aF0
aF1
aF1
aF1
aa(lp2408
Vweapon_bladeA_02_anim
p2409
a(lp2410
VtranslateZ
p2411
aVscaleX
p2412
aVscaleY
p2413
aVscaleZ
p2414
aaF0
aF1
aF1
aF1
aa(lp2415
Vweapon_bladeA_03_anim
p2416
a(lp2417
VtranslateX
p2418
aVtranslateY
p2419
aVtranslateZ
p2420
aVrotateX
p2421
aVrotateY
p2422
aVrotateZ
p2423
aVscaleX
p2424
aVscaleY
p2425
aVscaleZ
p2426
aaF0
aF0
aF0
aF0
aF0
aF0
aF1
aF1
aF1
aa(lp2427
Vweapon_bladeA_04_anim
p2428
a(lp2429
VtranslateX
p2430
aVtranslateY
p2431
aVtranslateZ
p2432
aVrotateX
p2433
aVrotateY
p2434
aVrotateZ
p2435
aVscaleX
p2436
aVscaleY
p2437
aVscaleZ
p2438
aaF0
aF0
aF0
aF0
aF0
aF0
aF1
aF1
aF1
aa(lp2439
Vweapon_bladeA_05_anim
p2440
a(lp2441
VtranslateX
p2442
aVtranslateY
p2443
aVtranslateZ
p2444
aVrotateX
p2445
aVrotateY
p2446
aVrotateZ
p2447
aVscaleX
p2448
aVscaleY
p2449
aVscaleZ
p2450
aaF0
aF0
aF0
aF0
aF0
aF0
aF1
aF1
aF1
aa(lp2451
Vweapon_bladeB_01_anim
p2452
a(lp2453
VtranslateX
p2454
aVtranslateY
p2455
aVtranslateZ
p2456
aVrotateX
p2457
aVrotateY
p2458
aVrotateZ
p2459
aVscaleX
p2460
aVscaleY
p2461
aVscaleZ
p2462
aaF0
aF0
aF0
aF0
aF0
aF0
aF1
aF1
aF1
aa(lp2463
Vweapon_bladeB_02_anim
p2464
a(lp2465
VtranslateZ
p2466
aVscaleX
p2467
aVscaleY
p2468
aVscaleZ
p2469
aaF0
aF1
aF1
aF1
aa(lp2470
Vweapon_bladeB_03_anim
p2471
a(lp2472
VtranslateX
p2473
aVtranslateY
p2474
aVtranslateZ
p2475
aVrotateX
p2476
aVrotateY
p2477
aVrotateZ
p2478
aVscaleX
p2479
aVscaleY
p2480
aVscaleZ
p2481
aaF0
aF0
aF0
aF0
aF0
aF0
aF1
aF1
aF1
aa(lp2482
Vweapon_bladeB_04_anim
p2483
a(lp2484
VtranslateX
p2485
aVtranslateY
p2486
aVtranslateZ
p2487
aVrotateX
p2488
aVrotateY
p2489
aVrotateZ
p2490
aVscaleX
p2491
aVscaleY
p2492
aVscaleZ
p2493
aaF0
aF0
aF0
aF0
aF0
aF0
aF1
aF1
aF1
aa(lp2494
Vweapon_bladeB_05_anim
p2495
a(lp2496
VtranslateX
p2497
aVtranslateY
p2498
aVtranslateZ
p2499
aVrotateX
p2500
aVrotateY
p2501
aVrotateZ
p2502
aVscaleX
p2503
aVscaleY
p2504
aVscaleZ
p2505
aaF0
aF0
aF0
aF0
aF0
aF0
aF1
aF1
aF1
aa(lp2506
Vweapon_bladeC_01_anim
p2507
a(lp2508
VtranslateX
p2509
aVtranslateY
p2510
aVtranslateZ
p2511
aVrotateX
p2512
aVrotateY
p2513
aVrotateZ
p2514
aVscaleX
p2515
aVscaleY
p2516
aVscaleZ
p2517
aaF0
aF0
aF0
aF0
aF0
aF0
aF1
aF1
aF1
aa(lp2518
Vweapon_bladeC_02_anim
p2519
a(lp2520
VtranslateY
p2521
aVscaleX
p2522
aVscaleY
p2523
aVscaleZ
p2524
aaF0
aF1
aF1
aF1
aa(lp2525
Vweapon_bladeC_03_anim
p2526
a(lp2527
VtranslateX
p2528
aVtranslateY
p2529
aVtranslateZ
p2530
aVrotateX
p2531
aVrotateY
p2532
aVrotateZ
p2533
aVscaleX
p2534
aVscaleY
p2535
aVscaleZ
p2536
aaF0
aF0
aF0
aF0
aF0
aF0
aF1
aF1
aF1
aa(lp2537
Vweapon_bladeD_01_anim
p2538
a(lp2539
VtranslateX
p2540
aVtranslateY
p2541
aVtranslateZ
p2542
aVrotateX
p2543
aVrotateY
p2544
aVrotateZ
p2545
aVscaleX
p2546
aVscaleY
p2547
aVscaleZ
p2548
aaF0
aF0
aF0
aF0
aF0
aF0
aF1
aF1
aF1
aa(lp2549
Vweapon_bladeE_01_anim
p2550
a(lp2551
VtranslateX
p2552
aVtranslateY
p2553
aVtranslateZ
p2554
aVrotateX
p2555
aVrotateY
p2556
aVrotateZ
p2557
aVscaleX
p2558
aVscaleY
p2559
aVscaleZ
p2560
aaF0
aF0
aF0
aF0
aF0
aF0
aF1
aF1
aF1
aa(lp2561
Vweapon_butt_dyn_anim
p2562
a(lp2563
VtranslateX
p2564
aVtranslateY
p2565
aVtranslateZ
p2566
aVrotateX
p2567
aVrotateY
p2568
aVrotateZ
p2569
aVchainAttach
p2570
aVchainStartFrame
p2571
aVchainStiffness
p2572
aVchainDamping
p2573
aVchainGravity
p2574
aVchainIteration
p2575
aVchainCollide
p2576
aVchainWidthBase
p2577
aVchainWidthExtremity
p2578
aVchainCollideGround
p2579
aVchainCollideGroundHeight
p2580
aaF0
aF0
aF0
aF0
aF0
aF0
aI1
aF1
aF0.10000000000000001
aF0.20000000000000001
aF1
aI1
aI00
aF1
aF1
aI00
aF0
aa(lp2581
Vweapon_butt_ik_2_anim
p2582
a(lp2583
VtranslateX
p2584
aVtranslateY
p2585
aVtranslateZ
p2586
aVrotateX
p2587
aVrotateY
p2588
aVrotateZ
p2589
aaF0
aF0
aF0
aF0
aF0
aF0
aa(lp2590
Vweapon_butt_ik_3_anim
p2591
a(lp2592
VtranslateX
p2593
aVtranslateY
p2594
aVtranslateZ
p2595
aVrotateX
p2596
aVrotateY
p2597
aVrotateZ
p2598
aaF0
aF0
aF0
aF0
aF0
aF0
aa(lp2599
Vweapon_butt_ik_4_anim
p2600
a(lp2601
VtranslateX
p2602
aVtranslateY
p2603
aVtranslateZ
p2604
aVrotateX
p2605
aVrotateY
p2606
aVrotateZ
p2607
aVclusterControlVis
p2608
aaF0
aF0
aF0
aF0
aF0
aF0
aI00
aa(lp2609
Vweapon_butt_ik_base_anim
p2610
a(lp2611
VtranslateX
p2612
aVtranslateY
p2613
aVtranslateZ
p2614
aVrotateX
p2615
aVrotateY
p2616
aVrotateZ
p2617
aVglobal_scale
p2618
aaF0
aF0
aF0
aF0
aF0
aF0
aF1
aa(lp2619
Vfk_weapon_butt_01_anim
p2620
a(lp2621
VtranslateX
p2622
aVtranslateY
p2623
aVtranslateZ
p2624
aVrotateX
p2625
aVrotateY
p2626
aVrotateZ
p2627
aVglobal_scale
p2628
aVlagMode
p2629
aaF0
aF0
aF0
aF0
aF0
aF0
aF1
aF0
aa(lp2630
Vweapon_butt_cv_0_anim
p2631
a(lp2632
VtranslateX
p2633
aVtranslateY
p2634
aVtranslateZ
p2635
aaF0
aF0
aF0
aa(lp2636
Vfk_weapon_butt_02_anim
p2637
a(lp2638
VtranslateX
p2639
aVtranslateY
p2640
aVtranslateZ
p2641
aVrotateX
p2642
aVrotateY
p2643
aVrotateZ
p2644
aaF0
aF0
aF0
aF0
aF0
aF0
aa(lp2645
Vweapon_butt_cv_1_anim
p2646
a(lp2647
VtranslateX
p2648
aVtranslateY
p2649
aVtranslateZ
p2650
aaF0
aF0
aF0
aa(lp2651
Vfk_weapon_butt_03_anim
p2652
a(lp2653
VtranslateX
p2654
aVtranslateY
p2655
aVtranslateZ
p2656
aVrotateX
p2657
aVrotateY
p2658
aVrotateZ
p2659
aaF0
aF0
aF0
aF0
aF0
aF0
aa(lp2660
Vweapon_butt_cv_2_anim
p2661
a(lp2662
VtranslateX
p2663
aVtranslateY
p2664
aVtranslateZ
p2665
aaF0
aF0
aF0
aa(lp2666
Vfk_weapon_butt_04_anim
p2667
a(lp2668
VtranslateX
p2669
aVtranslateY
p2670
aVtranslateZ
p2671
aVrotateX
p2672
aVrotateY
p2673
aVrotateZ
p2674
aaF0
aF0
aF0
aF0
aF0
aF0
aa(lp2675
Vweapon_butt_cv_3_anim
p2676
a(lp2677
VtranslateX
p2678
aVtranslateY
p2679
aVtranslateZ
p2680
aaF0
aF0
aF0
aa(lp2681
Vfk_weapon_butt_05_anim
p2682
a(lp2683
VtranslateX
p2684
aVtranslateY
p2685
aVtranslateZ
p2686
aVrotateX
p2687
aVrotateY
p2688
aVrotateZ
p2689
aaF0
aF0
aF0
aF0
aF0
aF0
aa(lp2690
Vweapon_butt_cv_4_anim
p2691
a(lp2692
VtranslateX
p2693
aVtranslateY
p2694
aVtranslateZ
p2695
aaF0
aF0
aF0
aa(lp2696
Vfk_weapon_butt_06_anim
p2697
a(lp2698
VtranslateX
p2699
aVtranslateY
p2700
aVtranslateZ
p2701
aVrotateX
p2702
aVrotateY
p2703
aVrotateZ
p2704
aaF0
aF0
aF0
aF0
aF0
aF0
aa(lp2705
Vweapon_butt_cv_5_anim
p2706
a(lp2707
VtranslateX
p2708
aVtranslateY
p2709
aVtranslateZ
p2710
aaF0
aF0
aF0
aa(lp2711
Vfk_weapon_butt_07_anim
p2712
a(lp2713
VtranslateX
p2714
aVtranslateY
p2715
aVtranslateZ
p2716
aVrotateX
p2717
aVrotateY
p2718
aVrotateZ
p2719
aaF0
aF0
aF0
aF0
aF0
aF0
aa(lp2720
Vweapon_butt_cv_6_anim
p2721
a(lp2722
VtranslateX
p2723
aVtranslateY
p2724
aVtranslateZ
p2725
aaF0
aF0
aF0
aa(lp2726
Vfk_weapon_butt_08_anim
p2727
a(lp2728
VtranslateX
p2729
aVtranslateY
p2730
aVtranslateZ
p2731
aVrotateX
p2732
aVrotateY
p2733
aVrotateZ
p2734
aaF0
aF0
aF0
aF0
aF0
aF0
aa(lp2735
Vweapon_butt_cv_7_anim
p2736
a(lp2737
VtranslateX
p2738
aVtranslateY
p2739
aVtranslateZ
p2740
aaF0
aF0
aF0
aa(lp2741
Vfk_weapon_butt_09_anim
p2742
a(lp2743
VtranslateX
p2744
aVtranslateY
p2745
aVtranslateZ
p2746
aVrotateX
p2747
aVrotateY
p2748
aVrotateZ
p2749
aaF0
aF0
aF0
aF0
aF0
aF0
aa(lp2750
Vweapon_butt_cv_8_anim
p2751
a(lp2752
VtranslateX
p2753
aVtranslateY
p2754
aVtranslateZ
p2755
aaF0
aF0
aF0
aa(lp2756
Vwrist_plate_r_anim
p2757
a(lp2758
VtranslateX
p2759
aVtranslateY
p2760
aVtranslateZ
p2761
aVrotateX
p2762
aVrotateY
p2763
aVrotateZ
p2764
aVscaleX
p2765
aVscaleY
p2766
aVscaleZ
p2767
aaF0
aF0
aF0
aF0
aF0
aF0
aF1
aF1
aF1
aa(lp2768
Vweapon_bladeD_02_anim
p2769
a(lp2770
VtranslateX
p2771
aVtranslateY
p2772
aVtranslateZ
p2773
aVrotateX
p2774
aVrotateY
p2775
aVrotateZ
p2776
aVscaleX
p2777
aVscaleY
p2778
aVscaleZ
p2779
aaF0
aF0
aF0
aF0
aF0
aF0
aF1
aF1
aF1
aa(lp2780
Vbody_anim_space_switcher
p2781
a(lp2782
Vvisibility
p2783
aVtranslateX
p2784
aVtranslateY
p2785
aVtranslateZ
p2786
aVrotateX
p2787
aVrotateY
p2788
aVrotateZ
p2789
aVscaleX
p2790
aVscaleY
p2791
aVscaleZ
p2792
aVspace_world
p2793
aaI01
aF0
aF0
aF0
aF0
aF0
aF0
aF1
aF1
aF1
aF0
aa(lp2794
Vbracelet_A_l_anim_space_switcher
p2795
a(lp2796
Vvisibility
p2797
aVtranslateX
p2798
aVtranslateY
p2799
aVtranslateZ
p2800
aVrotateX
p2801
aVrotateY
p2802
aVrotateZ
p2803
aVscaleX
p2804
aVscaleY
p2805
aVscaleZ
p2806
aVspace_world
p2807
aaI01
aF0
aF0
aF0
aF0
aF0
aF0
aF1
aF1
aF1
aF0
aa(lp2808
Vbracelet_B_l_anim_space_switcher
p2809
a(lp2810
Vvisibility
p2811
aVtranslateX
p2812
aVtranslateY
p2813
aVtranslateZ
p2814
aVrotateX
p2815
aVrotateY
p2816
aVrotateZ
p2817
aVscaleX
p2818
aVscaleY
p2819
aVscaleZ
p2820
aVspace_world
p2821
aaI01
aF0
aF0
aF0
aF0
aF0
aF0
aF1
aF1
aF1
aF0
aa(lp2822
Vbracelet_C_l_anim_space_switcher
p2823
a(lp2824
Vvisibility
p2825
aVtranslateX
p2826
aVtranslateY
p2827
aVtranslateZ
p2828
aVrotateX
p2829
aVrotateY
p2830
aVrotateZ
p2831
aVscaleX
p2832
aVscaleY
p2833
aVscaleZ
p2834
aVspace_world
p2835
aaI01
aF0
aF0
aF0
aF0
aF0
aF0
aF1
aF1
aF1
aF0
aa(lp2836
Vchest_ik_anim_space_switcher
p2837
a(lp2838
Vvisibility
p2839
aVtranslateX
p2840
aVtranslateY
p2841
aVtranslateZ
p2842
aVrotateX
p2843
aVrotateY
p2844
aVrotateZ
p2845
aVscaleX
p2846
aVscaleY
p2847
aVscaleZ
p2848
aVspace_world
p2849
aVspace_chest_ik_world_aligned
p2850
aaI01
aF0
aF0
aF-1.35552e-07
aF0
aF0
aF0
aF1
aF1
aF1
aF0
aF0
aa(lp2851
Veyeball_l_anim_space_switcher
p2852
a(lp2853
Vvisibility
p2854
aVtranslateX
p2855
aVtranslateY
p2856
aVtranslateZ
p2857
aVrotateX
p2858
aVrotateY
p2859
aVrotateZ
p2860
aVscaleX
p2861
aVscaleY
p2862
aVscaleZ
p2863
aVspace_world
p2864
aaI01
aF0
aF0
aF0
aF0
aF0
aF0
aF1
aF1
aF1
aF0
aa(lp2865
Veyeball_r_anim_space_switcher
p2866
a(lp2867
Vvisibility
p2868
aVtranslateX
p2869
aVtranslateY
p2870
aVtranslateZ
p2871
aVrotateX
p2872
aVrotateY
p2873
aVrotateZ
p2874
aVscaleX
p2875
aVscaleY
p2876
aVscaleZ
p2877
aVspace_world
p2878
aaI01
aF0
aF0
aF0
aF0
aF0
aF0
aF1
aF1
aF1
aF0
aa(lp2879
Veyebrow_in_l_anim_space_switcher
p2880
a(lp2881
Vvisibility
p2882
aVtranslateX
p2883
aVtranslateY
p2884
aVtranslateZ
p2885
aVrotateX
p2886
aVrotateY
p2887
aVrotateZ
p2888
aVscaleX
p2889
aVscaleY
p2890
aVscaleZ
p2891
aVspace_world
p2892
aaI01
aF0
aF0
aF0
aF0
aF0
aF0
aF1
aF1
aF1
aF0
aa(lp2893
Veyebrow_in_r_anim_space_switcher
p2894
a(lp2895
Vvisibility
p2896
aVtranslateX
p2897
aVtranslateY
p2898
aVtranslateZ
p2899
aVrotateX
p2900
aVrotateY
p2901
aVrotateZ
p2902
aVscaleX
p2903
aVscaleY
p2904
aVscaleZ
p2905
aVspace_world
p2906
aaI01
aF0
aF0
aF0
aF0
aF0
aF0
aF1
aF1
aF1
aF0
aa(lp2907
Veyebrow_out_l_anim_space_switcher
p2908
a(lp2909
Vvisibility
p2910
aVtranslateX
p2911
aVtranslateY
p2912
aVtranslateZ
p2913
aVrotateX
p2914
aVrotateY
p2915
aVrotateZ
p2916
aVscaleX
p2917
aVscaleY
p2918
aVscaleZ
p2919
aVspace_world
p2920
aaI01
aF0
aF0
aF0
aF0
aF0
aF0
aF1
aF1
aF1
aF0
aa(lp2921
Veyebrow_out_r_anim_space_switcher
p2922
a(lp2923
Vvisibility
p2924
aVtranslateX
p2925
aVtranslateY
p2926
aVtranslateZ
p2927
aVrotateX
p2928
aVrotateY
p2929
aVrotateZ
p2930
aVscaleX
p2931
aVscaleY
p2932
aVscaleZ
p2933
aVspace_world
p2934
aaI01
aF0
aF0
aF0
aF0
aF0
aF0
aF1
aF1
aF1
aF0
aa(lp2935
Veyelid_bott_l_anim_space_switcher
p2936
a(lp2937
Vvisibility
p2938
aVtranslateX
p2939
aVtranslateY
p2940
aVtranslateZ
p2941
aVrotateX
p2942
aVrotateY
p2943
aVrotateZ
p2944
aVscaleX
p2945
aVscaleY
p2946
aVscaleZ
p2947
aVspace_world
p2948
aaI01
aF0
aF0
aF0
aF0
aF0
aF0
aF1
aF1
aF1
aF0
aa(lp2949
Veyelid_bott_r_anim_space_switcher
p2950
a(lp2951
Vvisibility
p2952
aVtranslateX
p2953
aVtranslateY
p2954
aVtranslateZ
p2955
aVrotateX
p2956
aVrotateY
p2957
aVrotateZ
p2958
aVscaleX
p2959
aVscaleY
p2960
aVscaleZ
p2961
aVspace_world
p2962
aaI01
aF0
aF0
aF0
aF0
aF0
aF0
aF1
aF1
aF1
aF0
aa(lp2963
Veyelid_top_l_anim_space_switcher
p2964
a(lp2965
Vvisibility
p2966
aVtranslateX
p2967
aVtranslateY
p2968
aVtranslateZ
p2969
aVrotateX
p2970
aVrotateY
p2971
aVrotateZ
p2972
aVscaleX
p2973
aVscaleY
p2974
aVscaleZ
p2975
aVspace_world
p2976
aaI01
aF0
aF0
aF0
aF0
aF0
aF0
aF1
aF1
aF1
aF0
aa(lp2977
Veyelid_top_r_anim_space_switcher
p2978
a(lp2979
Vvisibility
p2980
aVtranslateX
p2981
aVtranslateY
p2982
aVtranslateZ
p2983
aVrotateX
p2984
aVrotateY
p2985
aVrotateZ
p2986
aVscaleX
p2987
aVscaleY
p2988
aVscaleZ
p2989
aVspace_world
p2990
aaI01
aF0
aF0
aF0
aF0
aF0
aF0
aF1
aF1
aF1
aF0
aa(lp2991
Vhip_back_flaps_anim_space_switcher
p2992
a(lp2993
Vvisibility
p2994
aVtranslateX
p2995
aVtranslateY
p2996
aVtranslateZ
p2997
aVrotateX
p2998
aVrotateY
p2999
aVrotateZ
p3000
aVscaleX
p3001
aVscaleY
p3002
aVscaleZ
p3003
aVspace_world
p3004
aaI01
aF0
aF0
aF0
aF0
aF0
aF0
aF1
aF1
aF1
aF0
aa(lp3005
Vik_elbow_l_anim_space_switcher
p3006
a(lp3007
Vvisibility
p3008
aVtranslateX
p3009
aVtranslateY
p3010
aVtranslateZ
p3011
aVrotateX
p3012
aVrotateY
p3013
aVrotateZ
p3014
aVscaleX
p3015
aVscaleY
p3016
aVscaleZ
p3017
aVspace_world
p3018
aVspace_body_anim
p3019
aVspace_chest_ik_anim
p3020
aaI01
aF-5.5530299999999996e-06
aF-8.2796600000000003e-06
aF0.000105695
aF0
aF0
aF0
aF1
aF1
aF1
aF0
aF0
aF0
aa(lp3021
Vik_elbow_r_anim_space_switcher
p3022
a(lp3023
Vvisibility
p3024
aVtranslateX
p3025
aVtranslateY
p3026
aVtranslateZ
p3027
aVrotateX
p3028
aVrotateY
p3029
aVrotateZ
p3030
aVscaleX
p3031
aVscaleY
p3032
aVscaleZ
p3033
aVspace_world
p3034
aVspace_body_anim
p3035
aVspace_chest_ik_anim
p3036
aaI01
aF-5.5530299999999996e-06
aF8.2796600000000003e-06
aF-0.000105695
aF0
aF0
aF0
aF1
aF1
aF1
aF0
aF0
aF0
aa(lp3037
Vik_foot_anim_l_space_switcher
p3038
a(lp3039
Vvisibility
p3040
aVtranslateX
p3041
aVtranslateY
p3042
aVtranslateZ
p3043
aVrotateX
p3044
aVrotateY
p3045
aVrotateZ
p3046
aVscaleX
p3047
aVscaleY
p3048
aVscaleZ
p3049
aVspace_world
p3050
aVspace_body_anim
p3051
aaI01
aF1.77957e-05
aF1.7388300000000001e-05
aF-0.000182055
aF0
aF0
aF0
aF1
aF1
aF1
aF0
aF0
aa(lp3052
Vik_foot_anim_r_space_switcher
p3053
a(lp3054
Vvisibility
p3055
aVtranslateX
p3056
aVtranslateY
p3057
aVtranslateZ
p3058
aVrotateX
p3059
aVrotateY
p3060
aVrotateZ
p3061
aVscaleX
p3062
aVscaleY
p3063
aVscaleZ
p3064
aVspace_world
p3065
aVspace_body_anim
p3066
aaI01
aF1.77957e-05
aF-1.7388300000000001e-05
aF0.000182055
aF0
aF0
aF0
aF1
aF1
aF1
aF0
aF0
aa(lp3067
Vik_wrist_l_anim_space_switcher
p3068
a(lp3069
Vvisibility
p3070
aVtranslateX
p3071
aVtranslateY
p3072
aVtranslateZ
p3073
aVrotateX
p3074
aVrotateY
p3075
aVrotateZ
p3076
aVscaleX
p3077
aVscaleY
p3078
aVscaleZ
p3079
aVspace_world
p3080
aVspace_body_anim
p3081
aVspace_head_fk_anim
p3082
aVspace_chest_ik_anim
p3083
aaI01
aF0
aF0
aF0
aF0
aF0
aF0
aF1
aF1
aF1
aF0
aF0
aF0
aF0
aa(lp3084
Vik_wrist_r_anim_space_switcher
p3085
a(lp3086
Vvisibility
p3087
aVtranslateX
p3088
aVtranslateY
p3089
aVtranslateZ
p3090
aVrotateX
p3091
aVrotateY
p3092
aVrotateZ
p3093
aVscaleX
p3094
aVscaleY
p3095
aVscaleZ
p3096
aVspace_world
p3097
aVspace_body_anim
p3098
aVspace_head_fk_anim
p3099
aVspace_chest_ik_anim
p3100
aaI01
aF0
aF0
aF0
aF0
aF0
aF0
aF1
aF1
aF1
aF0
aF0
aF0
aF0
aa(lp3101
Vjaw_anim_space_switcher
p3102
a(lp3103
Vvisibility
p3104
aVtranslateX
p3105
aVtranslateY
p3106
aVtranslateZ
p3107
aVrotateX
p3108
aVrotateY
p3109
aVrotateZ
p3110
aVscaleX
p3111
aVscaleY
p3112
aVscaleZ
p3113
aVspace_world
p3114
aaI01
aF0
aF0
aF0
aF0
aF0
aF0
aF1
aF1
aF1
aF0
aa(lp3115
Vl_global_ik_anim_space_switcher
p3116
a(lp3117
Vvisibility
p3118
aVtranslateX
p3119
aVtranslateY
p3120
aVtranslateZ
p3121
aVrotateX
p3122
aVrotateY
p3123
aVrotateZ
p3124
aVscaleX
p3125
aVscaleY
p3126
aVscaleZ
p3127
aVspace_world
p3128
aaI01
aF0
aF0
aF0
aF0
aF0
aF0
aF1
aF1
aF1
aF0
aa(lp3129
Vmaster_anim_space_switcher
p3130
a(lp3131
Vvisibility
p3132
aVtranslateX
p3133
aVtranslateY
p3134
aVtranslateZ
p3135
aVrotateX
p3136
aVrotateY
p3137
aVrotateZ
p3138
aVscaleX
p3139
aVscaleY
p3140
aVscaleZ
p3141
aVspace_world
p3142
aaI01
aF0
aF0
aF0
aF0
aF0
aF0
aF1
aF1
aF1
aF0
aa(lp3143
Vpipe_anim_space_switcher
p3144
a(lp3145
Vvisibility
p3146
aVtranslateX
p3147
aVtranslateY
p3148
aVtranslateZ
p3149
aVrotateX
p3150
aVrotateY
p3151
aVrotateZ
p3152
aVscaleX
p3153
aVscaleY
p3154
aVscaleZ
p3155
aVspace_world
p3156
aaI01
aF0
aF0
aF0
aF0
aF0
aF0
aF1
aF1
aF1
aF0
aa(lp3157
Vr_global_ik_anim_space_switcher
p3158
a(lp3159
Vvisibility
p3160
aVtranslateX
p3161
aVtranslateY
p3162
aVtranslateZ
p3163
aVrotateX
p3164
aVrotateY
p3165
aVrotateZ
p3166
aVscaleX
p3167
aVscaleY
p3168
aVscaleZ
p3169
aVspace_world
p3170
aaI01
aF0
aF0
aF0
aF0
aF0
aF0
aF1
aF1
aF1
aF0
aa(lp3171
Vshoulder_blade_in_r_anim_space_switcher
p3172
a(lp3173
Vvisibility
p3174
aVtranslateX
p3175
aVtranslateY
p3176
aVtranslateZ
p3177
aVrotateX
p3178
aVrotateY
p3179
aVrotateZ
p3180
aVscaleX
p3181
aVscaleY
p3182
aVscaleZ
p3183
aVspace_world
p3184
aaI01
aF0
aF0
aF0
aF0
aF0
aF0
aF1
aF1
aF1
aF0
aa(lp3185
Vshoulder_blade_mid_r_anim_space_switcher
p3186
a(lp3187
Vvisibility
p3188
aVtranslateX
p3189
aVtranslateY
p3190
aVtranslateZ
p3191
aVrotateX
p3192
aVrotateY
p3193
aVrotateZ
p3194
aVscaleX
p3195
aVscaleY
p3196
aVscaleZ
p3197
aVspace_world
p3198
aaI01
aF0
aF0
aF0
aF0
aF0
aF0
aF1
aF1
aF1
aF0
aa(lp3199
Vshoulder_blade_out_r_anim_space_switcher
p3200
a(lp3201
Vvisibility
p3202
aVtranslateX
p3203
aVtranslateY
p3204
aVtranslateZ
p3205
aVrotateX
p3206
aVrotateY
p3207
aVrotateZ
p3208
aVscaleX
p3209
aVscaleY
p3210
aVscaleZ
p3211
aVspace_world
p3212
aaI01
aF0
aF0
aF0
aF0
aF0
aF0
aF1
aF1
aF1
aF0
aa(lp3213
Vshoulder_cloth_01_l_anim_space_switcher
p3214
a(lp3215
Vvisibility
p3216
aVtranslateX
p3217
aVtranslateY
p3218
aVtranslateZ
p3219
aVrotateX
p3220
aVrotateY
p3221
aVrotateZ
p3222
aVscaleX
p3223
aVscaleY
p3224
aVscaleZ
p3225
aVspace_world
p3226
aaI01
aF0
aF0
aF0
aF0
aF0
aF0
aF1
aF1
aF1
aF0
aa(lp3227
Vshoulder_cloth_02_l_anim_space_switcher
p3228
a(lp3229
Vvisibility
p3230
aVtranslateX
p3231
aVtranslateY
p3232
aVtranslateZ
p3233
aVrotateX
p3234
aVrotateY
p3235
aVrotateZ
p3236
aVscaleX
p3237
aVscaleY
p3238
aVscaleZ
p3239
aVspace_world
p3240
aaI01
aF0
aF0
aF0
aF0
aF0
aF0
aF1
aF1
aF1
aF0
aa(lp3241
Vshoulder_pad_r_anim_space_switcher
p3242
a(lp3243
Vvisibility
p3244
aVtranslateX
p3245
aVtranslateY
p3246
aVtranslateZ
p3247
aVrotateX
p3248
aVrotateY
p3249
aVrotateZ
p3250
aVscaleX
p3251
aVscaleY
p3252
aVscaleZ
p3253
aVspace_world
p3254
aaI01
aF0
aF0
aF0
aF0
aF0
aF0
aF1
aF1
aF1
aF0
aa(lp3255
Vspine_01_space_switcher
p3256
a(lp3257
Vvisibility
p3258
aVtranslateX
p3259
aVtranslateY
p3260
aVtranslateZ
p3261
aVrotateX
p3262
aVrotateY
p3263
aVrotateZ
p3264
aVscaleX
p3265
aVscaleY
p3266
aVscaleZ
p3267
aVspace_world
p3268
aaI01
aF0
aF0
aF0
aF0
aF0
aF0
aF1
aF1
aF1
aF0
aa(lp3269
Vweapon_anim_space_switcher
p3270
a(lp3271
Vvisibility
p3272
aVtranslateX
p3273
aVtranslateY
p3274
aVtranslateZ
p3275
aVrotateX
p3276
aVrotateY
p3277
aVrotateZ
p3278
aVscaleX
p3279
aVscaleY
p3280
aVscaleZ
p3281
aVspace_world
p3282
aaI01
aF0
aF0
aF0
aF0
aF0
aF0
aF1
aF1
aF1
aF0
aa(lp3283
Vweapon_bladeA_01_anim_space_switcher
p3284
a(lp3285
Vvisibility
p3286
aVtranslateX
p3287
aVtranslateY
p3288
aVtranslateZ
p3289
aVrotateX
p3290
aVrotateY
p3291
aVrotateZ
p3292
aVscaleX
p3293
aVscaleY
p3294
aVscaleZ
p3295
aVspace_world
p3296
aVspace_weapon_blades_master_anim
p3297
aaI01
aF0
aF0
aF0
aF0
aF0
aF0
aF1
aF1
aF1
aF0
aF1
aa(lp3298
Vweapon_bladeA_02_anim_space_switcher
p3299
a(lp3300
Vvisibility
p3301
aVtranslateX
p3302
aVtranslateY
p3303
aVtranslateZ
p3304
aVrotateX
p3305
aVrotateY
p3306
aVrotateZ
p3307
aVscaleX
p3308
aVscaleY
p3309
aVscaleZ
p3310
aVspace_world
p3311
aaI01
aF0
aF0
aF0
aF0
aF0
aF0
aF1
aF1
aF1
aF0
aa(lp3312
Vweapon_bladeA_03_anim_space_switcher
p3313
a(lp3314
Vvisibility
p3315
aVtranslateX
p3316
aVtranslateY
p3317
aVtranslateZ
p3318
aVrotateX
p3319
aVrotateY
p3320
aVrotateZ
p3321
aVscaleX
p3322
aVscaleY
p3323
aVscaleZ
p3324
aVspace_world
p3325
aaI01
aF0
aF0
aF0
aF0
aF0
aF0
aF1
aF1
aF1
aF0
aa(lp3326
Vweapon_bladeA_04_anim_space_switcher
p3327
a(lp3328
Vvisibility
p3329
aVtranslateX
p3330
aVtranslateY
p3331
aVtranslateZ
p3332
aVrotateX
p3333
aVrotateY
p3334
aVrotateZ
p3335
aVscaleX
p3336
aVscaleY
p3337
aVscaleZ
p3338
aVspace_world
p3339
aaI01
aF0
aF0
aF0
aF0
aF0
aF0
aF1
aF1
aF1
aF0
aa(lp3340
Vweapon_bladeA_05_anim_space_switcher
p3341
a(lp3342
Vvisibility
p3343
aVtranslateX
p3344
aVtranslateY
p3345
aVtranslateZ
p3346
aVrotateX
p3347
aVrotateY
p3348
aVrotateZ
p3349
aVscaleX
p3350
aVscaleY
p3351
aVscaleZ
p3352
aVspace_world
p3353
aaI01
aF0
aF0
aF0
aF0
aF0
aF0
aF1
aF1
aF1
aF0
aa(lp3354
Vweapon_bladeB_01_anim_space_switcher
p3355
a(lp3356
Vvisibility
p3357
aVtranslateX
p3358
aVtranslateY
p3359
aVtranslateZ
p3360
aVrotateX
p3361
aVrotateY
p3362
aVrotateZ
p3363
aVscaleX
p3364
aVscaleY
p3365
aVscaleZ
p3366
aVspace_world
p3367
aVspace_weapon_blades_master_anim
p3368
aaI01
aF0
aF0
aF0
aF0
aF0
aF0
aF1
aF1
aF1
aF0
aF1
aa(lp3369
Vweapon_bladeB_02_anim_space_switcher
p3370
a(lp3371
Vvisibility
p3372
aVtranslateX
p3373
aVtranslateY
p3374
aVtranslateZ
p3375
aVrotateX
p3376
aVrotateY
p3377
aVrotateZ
p3378
aVscaleX
p3379
aVscaleY
p3380
aVscaleZ
p3381
aVspace_world
p3382
aaI01
aF0
aF0
aF0
aF0
aF0
aF0
aF1
aF1
aF1
aF0
aa(lp3383
Vweapon_bladeB_03_anim_space_switcher
p3384
a(lp3385
Vvisibility
p3386
aVtranslateX
p3387
aVtranslateY
p3388
aVtranslateZ
p3389
aVrotateX
p3390
aVrotateY
p3391
aVrotateZ
p3392
aVscaleX
p3393
aVscaleY
p3394
aVscaleZ
p3395
aVspace_world
p3396
aaI01
aF0
aF0
aF0
aF0
aF0
aF0
aF1
aF1
aF1
aF0
aa(lp3397
Vweapon_bladeB_04_anim_space_switcher
p3398
a(lp3399
Vvisibility
p3400
aVtranslateX
p3401
aVtranslateY
p3402
aVtranslateZ
p3403
aVrotateX
p3404
aVrotateY
p3405
aVrotateZ
p3406
aVscaleX
p3407
aVscaleY
p3408
aVscaleZ
p3409
aVspace_world
p3410
aaI01
aF0
aF0
aF0
aF0
aF0
aF0
aF1
aF1
aF1
aF0
aa(lp3411
Vweapon_bladeB_05_anim_space_switcher
p3412
a(lp3413
Vvisibility
p3414
aVtranslateX
p3415
aVtranslateY
p3416
aVtranslateZ
p3417
aVrotateX
p3418
aVrotateY
p3419
aVrotateZ
p3420
aVscaleX
p3421
aVscaleY
p3422
aVscaleZ
p3423
aVspace_world
p3424
aaI01
aF0
aF0
aF0
aF0
aF0
aF0
aF1
aF1
aF1
aF0
aa(lp3425
Vweapon_bladeC_01_anim_space_switcher
p3426
a(lp3427
Vvisibility
p3428
aVtranslateX
p3429
aVtranslateY
p3430
aVtranslateZ
p3431
aVrotateX
p3432
aVrotateY
p3433
aVrotateZ
p3434
aVscaleX
p3435
aVscaleY
p3436
aVscaleZ
p3437
aVspace_world
p3438
aVspace_weapon_blades_master_anim
p3439
aaI01
aF0
aF0
aF0
aF0
aF0
aF0
aF1
aF1
aF1
aF0
aF1
aa(lp3440
Vweapon_bladeC_02_anim_space_switcher
p3441
a(lp3442
Vvisibility
p3443
aVtranslateX
p3444
aVtranslateY
p3445
aVtranslateZ
p3446
aVrotateX
p3447
aVrotateY
p3448
aVrotateZ
p3449
aVscaleX
p3450
aVscaleY
p3451
aVscaleZ
p3452
aVspace_world
p3453
aaI01
aF0
aF0
aF0
aF0
aF0
aF0
aF1
aF1
aF1
aF0
aa(lp3454
Vweapon_bladeC_03_anim_space_switcher
p3455
a(lp3456
Vvisibility
p3457
aVtranslateX
p3458
aVtranslateY
p3459
aVtranslateZ
p3460
aVrotateX
p3461
aVrotateY
p3462
aVrotateZ
p3463
aVscaleX
p3464
aVscaleY
p3465
aVscaleZ
p3466
aVspace_world
p3467
aaI01
aF0
aF0
aF0
aF0
aF0
aF0
aF1
aF1
aF1
aF0
aa(lp3468
Vweapon_bladeD_01_anim_space_switcher
p3469
a(lp3470
Vvisibility
p3471
aVtranslateX
p3472
aVtranslateY
p3473
aVtranslateZ
p3474
aVrotateX
p3475
aVrotateY
p3476
aVrotateZ
p3477
aVscaleX
p3478
aVscaleY
p3479
aVscaleZ
p3480
aVspace_world
p3481
aVspace_weapon_blades_master_anim
p3482
aaI01
aF0
aF0
aF0
aF0
aF0
aF0
aF1
aF1
aF1
aF0
aF1
aa(lp3483
Vweapon_bladeD_02_anim_space_switcher
p3484
a(lp3485
Vvisibility
p3486
aVtranslateX
p3487
aVtranslateY
p3488
aVtranslateZ
p3489
aVrotateX
p3490
aVrotateY
p3491
aVrotateZ
p3492
aVscaleX
p3493
aVscaleY
p3494
aVscaleZ
p3495
aVspace_world
p3496
aaI01
aF0
aF0
aF0
aF0
aF0
aF0
aF1
aF1
aF1
aF0
aa(lp3497
Vweapon_bladeE_01_anim_space_switcher
p3498
a(lp3499
Vvisibility
p3500
aVtranslateX
p3501
aVtranslateY
p3502
aVtranslateZ
p3503
aVrotateX
p3504
aVrotateY
p3505
aVrotateZ
p3506
aVscaleX
p3507
aVscaleY
p3508
aVscaleZ
p3509
aVspace_world
p3510
aaI01
aF0
aF0
aF0
aF0
aF0
aF0
aF1
aF1
aF1
aF0
aa(lp3511
Vwrist_plate_r_anim_space_switcher
p3512
a(lp3513
Vvisibility
p3514
aVtranslateX
p3515
aVtranslateY
p3516
aVtranslateZ
p3517
aVrotateX
p3518
aVrotateY
p3519
aVrotateZ
p3520
aVscaleX
p3521
aVscaleY
p3522
aVscaleZ
p3523
aVspace_world
p3524
aaI01
aF0
aF0
aF0
aF0
aF0
aF0
aF1
aF1
aF1
aF0
aa.