(lp1
(lp2
S'fk_clavicle_r_anim'
p3
a(lp4
VtranslateX
p5
aVtranslateY
p6
aVtranslateZ
p7
aVrotateX
p8
aVrotateY
p9
aVrotateZ
p10
aaF9.0931500000000001e-07
aF-8.1420299999999997e-06
aF0.000117248
aF0
aF0
aF0
aa(lp11
S'fk_clavicle_l_anim'
p12
a(lp13
VtranslateX
p14
aVtranslateY
p15
aVtranslateZ
p16
aVrotateX
p17
aVrotateY
p18
aVrotateZ
p19
aaF9.0926799999999999e-07
aF-8.1420799999999998e-06
aF0.000117248
aF0
aF0
aF0
aa(lp20
S'head_fk_anim'
p21
a(lp22
VtranslateX
p23
aVtranslateY
p24
aVtranslateZ
p25
aVrotateX
p26
aVrotateY
p27
aVrotateZ
p28
aVscaleX
p29
aVscaleY
p30
aVscaleZ
p31
aVfkOrientation
p32
aaF0
aF0
aF0
aF12.287417167452142
aF3.2877172214528416
aF0.16827012311745129
aF1
aF1
aF1
aI0
aa(lp33
S'neck_01_fk_anim'
p34
a(lp35
VtranslateX
p36
aVtranslateY
p37
aVtranslateZ
p38
aVrotateX
p39
aVrotateY
p40
aVrotateZ
p41
aVscaleX
p42
aVscaleY
p43
aVscaleZ
p44
aVfkOrientation
p45
aaF0
aF0
aF0
aF5.6520706061398913
aF22.767383596894053
aF7.4953482266940634
aF0.99999999999999967
aF0.99999999999999967
aF1
aI0
aa(lp46
S'neck_02_fk_anim'
p47
a(lp48
VtranslateX
p49
aVtranslateY
p50
aVtranslateZ
p51
aVrotateX
p52
aVrotateY
p53
aVrotateZ
p54
aVscaleX
p55
aVscaleY
p56
aVscaleZ
p57
aaF0
aF0
aF0
aF0.30576034002177782
aF-19.393211225106626
aF-8.5052520287883304
aF1
aF1
aF1
aa(lp58
S'spine_01_anim'
p59
a(lp60
Vlength
p61
aVtranslateY
p62
aVtranslateZ
p63
aVrotateX
p64
aVrotateY
p65
aVrotateZ
p66
aaF0
aF0
aF0
aF-2.8645823848273446
aF3.4043455039764146
aF-8.9047847810322747
aa(lp67
S'spine_02_anim'
p68
a(lp69
Vlength
p70
aVtranslateY
p71
aVtranslateZ
p72
aVrotateX
p73
aVrotateY
p74
aVrotateZ
p75
aaF0
aF0
aF0
aF-11.016906856808765
aF1.4471045956401312
aF-2.5579365148973103
aa(lp76
S'spine_03_anim'
p77
a(lp78
Vlength
p79
aVtranslateY
p80
aVtranslateZ
p81
aVrotateX
p82
aVrotateY
p83
aVrotateZ
p84
aaF0
aF0
aF0
aF-10.921502734622154
aF0.85887937605029308
aF-2.9517195710192334
aa(lp85
S'mid_ik_anim'
p86
a(lp87
VtranslateX
p88
aVtranslateY
p89
aVtranslateZ
p90
aVrotateX
p91
aVrotateY
p92
aVrotateZ
p93
aaF0.034335881256940586
aF-0.053555982025743479
aF0.43010097445679468
aF-0.50878046995188841
aF-1.5462371412403058
aF-0.24202189499667093
aa(lp94
S'chest_ik_anim'
p95
a(lp96
VtranslateX
p97
aVtranslateY
p98
aVtranslateZ
p99
aVrotateX
p100
aVrotateY
p101
aVrotateZ
p102
aVstretch
p103
aVsquash
p104
aVtwist_amount
p105
aVautoSpine
p106
aVrotationInfluence
p107
aaF0.14203508641426879
aF-0.26632706627828284
aF1.7815329842876997
aF1.9333050828727183
aF-6.6768455960383823
aF-0.17679423154806845
aF0
aF0
aF1
aF0
aF0.25
aa(lp108
S'body_anim'
p109
a(lp110
VtranslateX
p111
aVtranslateY
p112
aVtranslateZ
p113
aVrotateX
p114
aVrotateY
p115
aVrotateZ
p116
aaF-12.471395521947608
aF-3.3647914597890969
aF-4.2999999999999998
aF-26.322531711674159
aF10.488038956228234
aF-12.837595609785343
aa(lp117
S'hip_anim'
p118
a(lp119
VtranslateX
p120
aVtranslateY
p121
aVtranslateZ
p122
aVrotateX
p123
aVrotateY
p124
aVrotateZ
p125
aVlCalfTwistCtrlVis
p126
aVrCalfTwistCtrlVis
p127
aVautoHips
p128
aaF0
aF0
aF0
aF0
aF-3.0452818422079848
aF0
aI00
aI00
aF0
aa(lp129
S'clavicle_l_anim'
p130
a(lp131
VtranslateX
p132
aVtranslateY
p133
aVtranslateZ
p134
aVautoShoulders
p135
aaF1.3717902214636164
aF-4.3892569391492113
aF1.4663218395123536
aF0
aa(lp136
S'clavicle_r_anim'
p137
a(lp138
VtranslateX
p139
aVtranslateY
p140
aVtranslateZ
p141
aVautoShoulders
p142
aaF-7.2794894443726106
aF15.222289746524954
aF-3.8768261475853181
aF0.20000000000000001
aa(lp143
S'fk_arm_l_anim'
p144
a(lp145
VtranslateX
p146
aVtranslateY
p147
aVtranslateZ
p148
aVrotateX
p149
aVrotateY
p150
aVrotateZ
p151
aaF0
aF0
aF0
aF57.634108987162826
aF37.367093834882816
aF15.899168054337922
aa(lp152
S'fk_arm_r_anim'
p153
a(lp154
VtranslateX
p155
aVtranslateY
p156
aVtranslateZ
p157
aVrotateX
p158
aVrotateY
p159
aVrotateZ
p160
aaF0
aF0
aF0
aF58.477864453773222
aF38.748422723132997
aF28.171672985400452
aa(lp161
S'fk_elbow_l_anim'
p162
a(lp163
VtranslateX
p164
aVtranslateY
p165
aVtranslateZ
p166
aVrotateX
p167
aVrotateY
p168
aVrotateZ
p169
aaF0
aF0
aF0
aF0.098543634370746272
aF-12.68455247493446
aF-52.590294549564618
aa(lp170
S'fk_elbow_r_anim'
p171
a(lp172
VtranslateX
p173
aVtranslateY
p174
aVtranslateZ
p175
aVrotateX
p176
aVrotateY
p177
aVrotateZ
p178
aaF0
aF0
aF0
aF-0.52588024302490266
aF-2.6614201973991678
aF-51.776411130171034
aa(lp179
S'fk_wrist_l_anim'
p180
a(lp181
VtranslateX
p182
aVtranslateY
p183
aVtranslateZ
p184
aVrotateX
p185
aVrotateY
p186
aVrotateZ
p187
aaF0
aF0
aF0
aF-8.8492815014959376
aF5.0842017885019306
aF3.0441348725127937
aa(lp188
S'fk_wrist_r_anim'
p189
a(lp190
VtranslateX
p191
aVtranslateY
p192
aVtranslateZ
p193
aVrotateX
p194
aVrotateY
p195
aVrotateZ
p196
aaF0
aF0
aF0
aF-32.013238781316176
aF-15.034117222774677
aF3.0175756452272124
aa(lp197
S'ik_elbow_l_anim'
p198
a(lp199
VtranslateX
p200
aVtranslateY
p201
aVtranslateZ
p202
aaF136.0946162901343
aF-53.760526740236898
aF-24.828782577888603
aa(lp203
S'ik_elbow_r_anim'
p204
a(lp205
VtranslateX
p206
aVtranslateY
p207
aVtranslateZ
p208
aaF116.25444360939805
aF104.52151647198204
aF-27.203979352931356
aa(lp209
S'ik_wrist_l_anim'
p210
a(lp211
VtranslateX
p212
aVtranslateY
p213
aVtranslateZ
p214
aVrotateX
p215
aVrotateY
p216
aVrotateZ
p217
aVstretch
p218
aVsquash
p219
aVstretchBias
p220
aVside
p221
aVmid_bend
p222
aVmid_swivel
p223
aVtip_pivot
p224
aVtip_swivel
p225
aaF-73.338688573697993
aF-57.864037516940222
aF-45.41972169924415
aF6.3102765965063075
aF22.961292498604802
aF-149.53483518018771
aF0
aF0
aF0
aF0
aF0
aF0
aF0
aF0
aa(lp226
S'ik_wrist_r_anim'
p227
a(lp228
VtranslateX
p229
aVtranslateY
p230
aVtranslateZ
p231
aVrotateX
p232
aVrotateY
p233
aVrotateZ
p234
aVstretch
p235
aVsquash
p236
aVstretchBias
p237
aVside
p238
aVmid_bend
p239
aVmid_swivel
p240
aVtip_pivot
p241
aVtip_swivel
p242
aVspace_weapon_anim
p243
aaF51.619898661629264
aF18.496079352487563
aF-55.422320486895174
aF-120.62187261072673
aF-57.673134472836146
aF-44.253820955571584
aF0
aF0
aF0
aF0
aF0
aF0
aF0
aF0
aF0
aa(lp244
S'fk_thigh_l_anim'
p245
a(lp246
VrotateX
p247
aVrotateY
p248
aVrotateZ
p249
aaF14.438680195253344
aF5.0025094283725027
aF12.976457632862695
aa(lp250
S'fk_thigh_r_anim'
p251
a(lp252
VrotateX
p253
aVrotateY
p254
aVrotateZ
p255
aaF-11.295354465577681
aF10.069182139355124
aF45.137357227232464
aa(lp256
S'fk_calf_l_anim'
p257
a(lp258
VrotateX
p259
aVrotateY
p260
aVrotateZ
p261
aaF1.3972491025924691
aF-1.0469222068786619
aF-45.485118865966761
aa(lp262
S'fk_calf_r_anim'
p263
a(lp264
VrotateX
p265
aVrotateY
p266
aVrotateZ
p267
aaF-5.6322007179260316
aF5.3777179718017543
aF-95.62690734863277
aa(lp268
S'fk_foot_l_anim'
p269
a(lp270
VrotateX
p271
aVrotateY
p272
aVrotateZ
p273
aaF3.0213792324066016
aF-15.67122650146486
aF32.430351257324162
aa(lp274
S'fk_foot_r_anim'
p275
a(lp276
VrotateX
p277
aVrotateY
p278
aVrotateZ
p279
aaF10.468253135681184
aF2.3498136997222647
aF-0.031366981565946854
aa(lp280
S'fk_ball_l_anim'
p281
a(lp282
VrotateX
p283
aVrotateY
p284
aVrotateZ
p285
aaF-0.03421025350688963
aF0.0088456906378298495
aF0.35286229848863049
aa(lp286
S'fk_ball_r_anim'
p287
a(lp288
VrotateX
p289
aVrotateY
p290
aVrotateZ
p291
aaF-0.041066609323021044
aF-0.0080804741009812917
aF0.75858652591699216
aa(lp292
S'ik_foot_anim_l'
p293
a(lp294
VtranslateX
p295
aVtranslateY
p296
aVtranslateZ
p297
aVrotateX
p298
aVrotateY
p299
aVrotateZ
p300
aVknee_twist
p301
aVstretch
p302
aVsquash
p303
aVtoeCtrlVis
p304
aVstretchBias
p305
aaF-10.506740704607724
aF-0.82705268480810901
aF0.28762786505675919
aF1.5808534017725597
aF-2.8292212742672738
aF-5.7172326943832266
aF-11.858959509307256
aF0
aF0
aI00
aF0
aa(lp306
S'ik_foot_anim_r'
p307
a(lp308
VtranslateX
p309
aVtranslateY
p310
aVtranslateZ
p311
aVrotateX
p312
aVrotateY
p313
aVrotateZ
p314
aVknee_twist
p315
aVstretch
p316
aVsquash
p317
aVtoeCtrlVis
p318
aVstretchBias
p319
aaF10.942463088885575
aF10.102003511745584
aF26.711550498263541
aF54.650845218325252
aF6.9110561536760553
aF-25.148379127846535
aF18.072816634710062
aF0
aF0
aI00
aF0
aa(lp320
S'heel_ctrl_l'
p321
a(lp322
VrotateX
p323
aVrotateY
p324
aVrotateZ
p325
aVheelPivot
p326
aVballPivot
p327
aaF0
aF-0
aF0
aF0
aF0
aa(lp328
S'heel_ctrl_r'
p329
a(lp330
VrotateX
p331
aVrotateY
p332
aVrotateZ
p333
aVheelPivot
p334
aVballPivot
p335
aaF0
aF-0
aF0
aF0
aF0
aa(lp336
S'toe_wiggle_ctrl_l'
p337
a(lp338
VrotateX
p339
aVrotateY
p340
aVrotateZ
p341
aaF0
aF-0
aF0
aa(lp342
S'toe_wiggle_ctrl_r'
p343
a(lp344
VrotateX
p345
aVrotateY
p346
aVrotateZ
p347
aaF0
aF-0
aF0
aa(lp348
S'toe_tip_ctrl_l'
p349
a(lp350
VrotateX
p351
aVrotateY
p352
aVrotateZ
p353
aaF0
aF-0
aF0
aa(lp354
S'toe_tip_ctrl_r'
p355
a(lp356
VrotateX
p357
aVrotateY
p358
aVrotateZ
p359
aaF0
aF-0
aF0
aa(lp360
S'master_anim'
p361
a(lp362
VtranslateX
p363
aVtranslateY
p364
aVtranslateZ
p365
aVrotateX
p366
aVrotateY
p367
aVrotateZ
p368
aaF0
aF0
aF0
aF0
aF0
aF0
aa(lp369
S'offset_anim'
p370
a(lp371
VtranslateX
p372
aVtranslateY
p373
aVtranslateZ
p374
aVrotateX
p375
aVrotateY
p376
aVrotateZ
p377
aaF0
aF0
aF0
aF0
aF0
aF0
aa(lp378
S'root_anim'
p379
a(lp380
VtranslateX
p381
aVtranslateY
p382
aVtranslateZ
p383
aVrotateX
p384
aVrotateY
p385
aVrotateZ
p386
aaF0
aF0
aF0
aF0
aF0
aF0
aa(lp387
S'upperarm_l_twist_anim'
p388
a(lp389
VtranslateX
p390
aVtranslateY
p391
aVtranslateZ
p392
aVrotateX
p393
aVrotateY
p394
aVrotateZ
p395
aVscaleX
p396
aVscaleY
p397
aVscaleZ
p398
aaF0
aF0
aF0
aF0
aF0
aF0
aF1
aF1
aF1
aa(lp399
S'upperarm_l_twist_2_anim'
p400
a(lp401
VtranslateX
p402
aVtranslateY
p403
aVtranslateZ
p404
aVrotateX
p405
aVrotateY
p406
aVrotateZ
p407
aVscaleX
p408
aVscaleY
p409
aVscaleZ
p410
aaF0
aF0
aF0
aF0
aF0
aF0
aF1
aF1
aF1
aa(lp411
S'upperarm_r_twist_anim'
p412
a(lp413
VtranslateX
p414
aVtranslateY
p415
aVtranslateZ
p416
aVrotateX
p417
aVrotateY
p418
aVrotateZ
p419
aVscaleX
p420
aVscaleY
p421
aVscaleZ
p422
aaF0
aF0
aF0
aF0
aF0
aF0
aF1
aF1
aF1
aa(lp423
S'upperarm_r_twist_2_anim'
p424
a(lp425
VtranslateX
p426
aVtranslateY
p427
aVtranslateZ
p428
aVrotateX
p429
aVrotateY
p430
aVrotateZ
p431
aVscaleX
p432
aVscaleY
p433
aVscaleZ
p434
aaF0
aF0
aF0
aF0
aF0
aF0
aF1
aF1
aF1
aa(lp435
S'lowerarm_l_twist_anim'
p436
a(lp437
VtranslateX
p438
aVtranslateY
p439
aVtranslateZ
p440
aVrotateX
p441
aVrotateY
p442
aVrotateZ
p443
aaF0
aF0
aF0
aF0
aF0
aF0
aa(lp444
S'lowerarm_r_twist_anim'
p445
a(lp446
VtranslateX
p447
aVtranslateY
p448
aVtranslateZ
p449
aVrotateX
p450
aVrotateY
p451
aVrotateZ
p452
aaF0
aF0
aF0
aF0
aF0
aF0
aa(lp453
S'l_thigh_twist_01_anim'
p454
a(lp455
VtranslateX
p456
aVtranslateY
p457
aVtranslateZ
p458
aVrotateX
p459
aVrotateY
p460
aVrotateZ
p461
aVscaleX
p462
aVscaleY
p463
aVscaleZ
p464
aaF0
aF0
aF0
aF0
aF0
aF0
aF1
aF1
aF1
aa(lp465
S'r_thigh_twist_01_anim'
p466
a(lp467
VtranslateX
p468
aVtranslateY
p469
aVtranslateZ
p470
aVrotateX
p471
aVrotateY
p472
aVrotateZ
p473
aVscaleX
p474
aVscaleY
p475
aVscaleZ
p476
aaF0
aF0
aF0
aF0
aF0
aF0
aF1
aF1
aF1
aa(lp477
S'pinky_finger_fk_ctrl_1_l'
p478
a(lp479
VtranslateX
p480
aVtranslateY
p481
aVtranslateZ
p482
aVrotateX
p483
aVrotateY
p484
aVrotateZ
p485
aVsticky
p486
aaF-0.28448754866970072
aF0.19948691675394606
aF-0.88082772337635151
aF5.1226960351085253
aF7.2541098605639025
aF35.37687897956765
aF0
aa(lp487
S'pinky_finger_fk_ctrl_1_r'
p488
a(lp489
VtranslateX
p490
aVtranslateY
p491
aVtranslateZ
p492
aVrotateX
p493
aVrotateY
p494
aVrotateZ
p495
aVsticky
p496
aaF0
aF0
aF0
aF-0.00090275242206164371
aF-0.00034601266314745078
aF46.123447479862087
aF0
aa(lp497
S'pinky_finger_fk_ctrl_2_l'
p498
a(lp499
VtranslateX
p500
aVtranslateY
p501
aVtranslateZ
p502
aVrotateX
p503
aVrotateY
p504
aVrotateZ
p505
aaF0
aF0
aF0
aF-1.3648337172457701e-06
aF-0
aF55.867673741451696
aa(lp506
S'pinky_finger_fk_ctrl_2_r'
p507
a(lp508
VtranslateX
p509
aVtranslateY
p510
aVtranslateZ
p511
aVrotateX
p512
aVrotateY
p513
aVrotateZ
p514
aaF0
aF0
aF0
aF0.21761157645444287
aF0.68318271528504415
aF46.974178294221609
aa(lp515
S'pinky_finger_fk_ctrl_3_l'
p516
a(lp517
VtranslateX
p518
aVtranslateY
p519
aVtranslateZ
p520
aVrotateX
p521
aVrotateY
p522
aVrotateZ
p523
aaF0
aF0
aF0
aF1.3764308046476986e-06
aF-0
aF49.774601852955406
aa(lp524
S'pinky_finger_fk_ctrl_3_r'
p525
a(lp526
VtranslateX
p527
aVtranslateY
p528
aVtranslateZ
p529
aVrotateX
p530
aVrotateY
p531
aVrotateZ
p532
aaF0
aF0
aF0
aF0.22706965757758873
aF0.68009776684965695
aF47.769080064506369
aa(lp533
S'ring_finger_fk_ctrl_1_l'
p534
a(lp535
VtranslateX
p536
aVtranslateY
p537
aVtranslateZ
p538
aVrotateX
p539
aVrotateY
p540
aVrotateZ
p541
aVsticky
p542
aaF0
aF0
aF0
aF3.1380588390929418
aF7.9409132038808723
aF54.862441483724368
aF0
aa(lp543
S'ring_finger_fk_ctrl_1_r'
p544
a(lp545
VtranslateX
p546
aVtranslateY
p547
aVtranslateZ
p548
aVrotateX
p549
aVrotateY
p550
aVrotateZ
p551
aVsticky
p552
aaF0
aF0
aF0
aF-0.00092871374929657689
aF-0.00029198886448126931
aF54.222239208408332
aF0
aa(lp553
S'ring_finger_fk_ctrl_2_l'
p554
a(lp555
VtranslateX
p556
aVtranslateY
p557
aVtranslateZ
p558
aVrotateX
p559
aVrotateY
p560
aVrotateZ
p561
aaF0
aF0
aF0
aF0
aF-0
aF54.736663769749136
aa(lp562
S'ring_finger_fk_ctrl_2_r'
p563
a(lp564
VtranslateX
p565
aVtranslateY
p566
aVtranslateZ
p567
aVrotateX
p568
aVrotateY
p569
aVrotateZ
p570
aaF0
aF0
aF0
aF0.20133535966839161
aF0.6881549261661557
aF45.614028024812761
aa(lp571
S'ring_finger_fk_ctrl_3_l'
p572
a(lp573
VtranslateX
p574
aVtranslateY
p575
aVtranslateZ
p576
aVrotateX
p577
aVrotateY
p578
aVrotateZ
p579
aaF0
aF0
aF0
aF0
aF-0
aF57.460288002717334
aa(lp580
S'ring_finger_fk_ctrl_3_r'
p581
a(lp582
VtranslateX
p583
aVtranslateY
p584
aVtranslateZ
p585
aVrotateX
p586
aVrotateY
p587
aVrotateZ
p588
aaF0
aF0
aF0
aF0.43453147321362862
aF0.57033307419860213
aF66.609981735733584
aa(lp589
S'middle_finger_fk_ctrl_1_l'
p590
a(lp591
VtranslateX
p592
aVtranslateY
p593
aVtranslateZ
p594
aVrotateX
p595
aVrotateY
p596
aVrotateZ
p597
aVsticky
p598
aaF0
aF0
aF0
aF-7.4569072651081965e-05
aF4.6329446290978149
aF61.6807217945125
aF0
aa(lp599
S'middle_finger_fk_ctrl_1_r'
p600
a(lp601
VtranslateX
p602
aVtranslateY
p603
aVtranslateZ
p604
aVrotateX
p605
aVrotateY
p606
aVrotateZ
p607
aVsticky
p608
aaF0
aF0
aF0
aF-0.00090528111114396867
aF-0.00035800425267554524
aF52.144803235783499
aF0
aa(lp609
S'middle_finger_fk_ctrl_2_l'
p610
a(lp611
VtranslateX
p612
aVtranslateY
p613
aVtranslateZ
p614
aVrotateX
p615
aVrotateY
p616
aVrotateZ
p617
aaF0
aF0
aF0
aF-9.4787915988669346e-23
aF-1.2737988445605897e-06
aF47.684837521621446
aa(lp618
S'middle_finger_fk_ctrl_2_r'
p619
a(lp620
VtranslateX
p621
aVtranslateY
p622
aVtranslateZ
p623
aVrotateX
p624
aVrotateY
p625
aVrotateZ
p626
aaF0
aF0
aF0
aF0.21904383316932102
aF0.68272487160078132
aF47.094227261992337
aa(lp627
S'middle_finger_fk_ctrl_3_l'
p628
a(lp629
VtranslateX
p630
aVtranslateY
p631
aVtranslateZ
p632
aVrotateX
p633
aVrotateY
p634
aVrotateZ
p635
aaF0
aF0
aF0
aF0
aF-0
aF50.408461337602084
aa(lp636
S'middle_finger_fk_ctrl_3_r'
p637
a(lp638
VtranslateX
p639
aVtranslateY
p640
aVtranslateZ
p641
aVrotateX
p642
aVrotateY
p643
aVrotateZ
p644
aaF0
aF0
aF0
aF1.4878721381752247
aF5.3442587515926698
aF75.661403853182691
aa(lp645
S'index_finger_fk_ctrl_1_l'
p646
a(lp647
VtranslateX
p648
aVtranslateY
p649
aVtranslateZ
p650
aVrotateX
p651
aVrotateY
p652
aVrotateZ
p653
aVsticky
p654
aaF0
aF0
aF0
aF-11.520876420209527
aF7.5235388100044629
aF61.057025598441449
aF0
aa(lp655
S'index_finger_fk_ctrl_1_r'
p656
a(lp657
VtranslateX
p658
aVtranslateY
p659
aVtranslateZ
p660
aVrotateX
p661
aVrotateY
p662
aVrotateZ
p663
aVsticky
p664
aaF0
aF0
aF0
aF-13.878455289139831
aF-1.6857001723257301
aF33.430875395116495
aF0
aa(lp665
S'index_finger_fk_ctrl_2_l'
p666
a(lp667
VtranslateX
p668
aVtranslateY
p669
aVtranslateZ
p670
aVrotateX
p671
aVrotateY
p672
aVrotateZ
p673
aaF0
aF0
aF0
aF0
aF-0
aF39.586352827998283
aa(lp674
S'index_finger_fk_ctrl_2_r'
p675
a(lp676
VtranslateX
p677
aVtranslateY
p678
aVtranslateZ
p679
aVrotateX
p680
aVrotateY
p681
aVrotateZ
p682
aaF0
aF0
aF0
aF0
aF-0
aF57.497606541241502
aa(lp683
S'index_finger_fk_ctrl_3_l'
p684
a(lp685
VtranslateX
p686
aVtranslateY
p687
aVtranslateZ
p688
aVrotateX
p689
aVrotateY
p690
aVrotateZ
p691
aaF0
aF0
aF0
aF-1.4871696543175723
aF-2.6895179822327706
aF67.749002871603878
aa(lp692
S'index_finger_fk_ctrl_3_r'
p693
a(lp694
VtranslateX
p695
aVtranslateY
p696
aVtranslateZ
p697
aVrotateX
p698
aVrotateY
p699
aVrotateZ
p700
aaF0
aF0
aF0
aF0
aF-0
aF66.684072769228194
aa(lp701
S'thumb_finger_fk_ctrl_1_l'
p702
a(lp703
VtranslateX
p704
aVtranslateY
p705
aVtranslateZ
p706
aVrotateX
p707
aVrotateY
p708
aVrotateZ
p709
aVsticky
p710
aaF0
aF0
aF0
aF32.52169383120868
aF35.179225546730002
aF3.0633457352428866
aF0
aa(lp711
S'thumb_finger_fk_ctrl_1_r'
p712
a(lp713
VtranslateX
p714
aVtranslateY
p715
aVtranslateZ
p716
aVrotateX
p717
aVrotateY
p718
aVrotateZ
p719
aVsticky
p720
aaF0
aF0
aF0
aF17.289450077260746
aF14.200454336850267
aF19.126317513245805
aF0
aa(lp721
S'thumb_finger_fk_ctrl_2_l'
p722
a(lp723
VtranslateX
p724
aVtranslateY
p725
aVtranslateZ
p726
aVrotateX
p727
aVrotateY
p728
aVrotateZ
p729
aaF0
aF0
aF0
aF-8.5391078496684703
aF17.623117115413969
aF36.133792541211697
aa(lp730
S'thumb_finger_fk_ctrl_2_r'
p731
a(lp732
VtranslateX
p733
aVtranslateY
p734
aVtranslateZ
p735
aVrotateX
p736
aVrotateY
p737
aVrotateZ
p738
aaF0
aF0
aF0
aF-1.7532247795725175
aF13.723054660490325
aF6.9401104392970483
aa(lp739
S'thumb_finger_fk_ctrl_3_l'
p740
a(lp741
VtranslateX
p742
aVtranslateY
p743
aVtranslateZ
p744
aVrotateX
p745
aVrotateY
p746
aVrotateZ
p747
aaF0
aF0
aF0
aF-9.4787915988669358e-23
aF1.8516110786409371e-06
aF62.745112692737024
aa(lp748
S'thumb_finger_fk_ctrl_3_r'
p749
a(lp750
VtranslateX
p751
aVtranslateY
p752
aVtranslateZ
p753
aVrotateX
p754
aVrotateY
p755
aVrotateZ
p756
aaF0
aF0
aF0
aF11.142151140794899
aF-23.838396404597013
aF35.077641354833681
aa(lp757
S'index_l_ik_anim'
p758
a(lp759
VtranslateX
p760
aVtranslateY
p761
aVtranslateZ
p762
aVrotateX
p763
aVrotateY
p764
aVrotateZ
p765
aVpoleVectorVis
p766
aaF0
aF0
aF0
aF0
aF0
aF0
aF0
aa(lp767
S'index_r_ik_anim'
p768
a(lp769
VtranslateX
p770
aVtranslateY
p771
aVtranslateZ
p772
aVrotateX
p773
aVrotateY
p774
aVrotateZ
p775
aVpoleVectorVis
p776
aaF0
aF0
aF0
aF0
aF0
aF0
aF0
aa(lp777
S'middle_l_ik_anim'
p778
a(lp779
VtranslateX
p780
aVtranslateY
p781
aVtranslateZ
p782
aVrotateX
p783
aVrotateY
p784
aVrotateZ
p785
aVpoleVectorVis
p786
aaF0
aF0
aF0
aF0
aF0
aF0
aF0
aa(lp787
S'middle_r_ik_anim'
p788
a(lp789
VtranslateX
p790
aVtranslateY
p791
aVtranslateZ
p792
aVrotateX
p793
aVrotateY
p794
aVrotateZ
p795
aVpoleVectorVis
p796
aaF0
aF0
aF0
aF0
aF0
aF0
aF0
aa(lp797
S'ring_l_ik_anim'
p798
a(lp799
VtranslateX
p800
aVtranslateY
p801
aVtranslateZ
p802
aVrotateX
p803
aVrotateY
p804
aVrotateZ
p805
aVpoleVectorVis
p806
aaF0
aF0
aF0
aF0
aF0
aF0
aF0
aa(lp807
S'ring_r_ik_anim'
p808
a(lp809
VtranslateX
p810
aVtranslateY
p811
aVtranslateZ
p812
aVrotateX
p813
aVrotateY
p814
aVrotateZ
p815
aVpoleVectorVis
p816
aaF0
aF0
aF0
aF0
aF0
aF0
aF0
aa(lp817
S'pinky_l_ik_anim'
p818
a(lp819
VtranslateX
p820
aVtranslateY
p821
aVtranslateZ
p822
aVrotateX
p823
aVrotateY
p824
aVrotateZ
p825
aVpoleVectorVis
p826
aaF0
aF0
aF0
aF0
aF0
aF0
aF0
aa(lp827
S'pinky_r_ik_anim'
p828
a(lp829
VtranslateX
p830
aVtranslateY
p831
aVtranslateZ
p832
aVrotateX
p833
aVrotateY
p834
aVrotateZ
p835
aVpoleVectorVis
p836
aaF0
aF0
aF0
aF0
aF0
aF0
aF0
aa(lp837
S'thumb_l_ik_anim'
p838
a(lp839
VtranslateX
p840
aVtranslateY
p841
aVtranslateZ
p842
aVrotateX
p843
aVrotateY
p844
aVrotateZ
p845
aVpoleVectorVis
p846
aaF0
aF0
aF0
aF0
aF0
aF0
aF0
aa(lp847
S'thumb_r_ik_anim'
p848
a(lp849
VtranslateX
p850
aVtranslateY
p851
aVtranslateZ
p852
aVrotateX
p853
aVrotateY
p854
aVrotateZ
p855
aVpoleVectorVis
p856
aaF0
aF0
aF0
aF0
aF0
aF0
aF0
aa(lp857
S'index_l_poleVector'
p858
a(lp859
VtranslateX
p860
aVtranslateY
p861
aVtranslateZ
p862
aVrotateX
p863
aVrotateY
p864
aVrotateZ
p865
aaF0
aF0
aF0
aF0
aF0
aF0
aa(lp866
S'index_r_poleVector'
p867
a(lp868
VtranslateX
p869
aVtranslateY
p870
aVtranslateZ
p871
aVrotateX
p872
aVrotateY
p873
aVrotateZ
p874
aaF0
aF0
aF0
aF0
aF0
aF0
aa(lp875
S'middle_l_poleVector'
p876
a(lp877
VtranslateX
p878
aVtranslateY
p879
aVtranslateZ
p880
aVrotateX
p881
aVrotateY
p882
aVrotateZ
p883
aaF0
aF0
aF0
aF0
aF0
aF0
aa(lp884
S'middle_r_poleVector'
p885
a(lp886
VtranslateX
p887
aVtranslateY
p888
aVtranslateZ
p889
aVrotateX
p890
aVrotateY
p891
aVrotateZ
p892
aaF0
aF0
aF0
aF0
aF0
aF0
aa(lp893
S'ring_l_poleVector'
p894
a(lp895
VtranslateX
p896
aVtranslateY
p897
aVtranslateZ
p898
aVrotateX
p899
aVrotateY
p900
aVrotateZ
p901
aaF0
aF0
aF0
aF0
aF0
aF0
aa(lp902
S'ring_r_poleVector'
p903
a(lp904
VtranslateX
p905
aVtranslateY
p906
aVtranslateZ
p907
aVrotateX
p908
aVrotateY
p909
aVrotateZ
p910
aaF0
aF0
aF0
aF0
aF0
aF0
aa(lp911
S'pinky_l_poleVector'
p912
a(lp913
VtranslateX
p914
aVtranslateY
p915
aVtranslateZ
p916
aVrotateX
p917
aVrotateY
p918
aVrotateZ
p919
aaF0
aF0
aF0
aF0
aF0
aF0
aa(lp920
S'pinky_r_poleVector'
p921
a(lp922
VtranslateX
p923
aVtranslateY
p924
aVtranslateZ
p925
aVrotateX
p926
aVrotateY
p927
aVrotateZ
p928
aaF0
aF0
aF0
aF0
aF0
aF0
aa(lp929
S'thumb_l_poleVector'
p930
a(lp931
VtranslateX
p932
aVtranslateY
p933
aVtranslateZ
p934
aVrotateX
p935
aVrotateY
p936
aVrotateZ
p937
aaF0
aF0
aF0
aF0
aF0
aF0
aa(lp938
S'thumb_r_poleVector'
p939
a(lp940
VtranslateX
p941
aVtranslateY
p942
aVtranslateZ
p943
aVrotateX
p944
aVrotateY
p945
aVrotateZ
p946
aaF0
aF0
aF0
aF0
aF0
aF0
aa(lp947
S'l_global_ik_anim'
p948
a(lp949
VtranslateX
p950
aVtranslateY
p951
aVtranslateZ
p952
aVrotateX
p953
aVrotateY
p954
aVrotateZ
p955
aaF0
aF0
aF0
aF0
aF0
aF0
aa(lp956
S'r_global_ik_anim'
p957
a(lp958
VtranslateX
p959
aVtranslateY
p960
aVtranslateZ
p961
aVrotateX
p962
aVrotateY
p963
aVrotateZ
p964
aaF0
aF0
aF0
aF0
aF0
aF0
aa(lp965
S'Rig_Settings'
p966
a(lp967
Vspine_ik
p968
aVspine_fk
p969
aVlLegMode
p970
aVlThighTwistAmount
p971
aVlThighTwist2Amount
p972
aVllegTwistCtrlVis
p973
aVlCalfTwistAmount
p974
aVllegTwistCtrlVisCalf
p975
aVrLegMode
p976
aVrThighTwistAmount
p977
aVrThighTwist2Amount
p978
aVrlegTwistCtrlVis
p979
aVrCalfTwistAmount
p980
aVrlegTwistCtrlVisCalf
p981
aVlFkArmOrient
p982
aVlArmMode
p983
aVlClavMode
p984
aVlUpperarmTwistAmount
p985
aVlUpperarmTwist2Amount
p986
aVltwistCtrlVis
p987
aVltwistCtrlVisLower
p988
aVlForearmTwistAmount
p989
aVrFkArmOrient
p990
aVrArmMode
p991
aVrClavMode
p992
aVrUpperarmTwistAmount
p993
aVrUpperarmTwist2Amount
p994
aVrtwistCtrlVis
p995
aVrtwistCtrlVisLower
p996
aVrForearmTwistAmount
p997
aVback_sash_fk
p998
aVback_sash_ik
p999
aVback_sash_dynamic
p1000
aVhip_eyelet_front_l_fk
p1001
aVhip_eyelet_front_l_ik
p1002
aVhip_eyelet_front_l_dynamic
p1003
aVhip_eyelet_front_r_fk
p1004
aVhip_eyelet_front_r_ik
p1005
aVhip_eyelet_front_r_dynamic
p1006
aVhip_eyelet_rear_l_fk
p1007
aVhip_eyelet_rear_l_ik
p1008
aVhip_eyelet_rear_l_dynamic
p1009
aVhip_eyelet_rear_r_fk
p1010
aVhip_eyelet_rear_r_ik
p1011
aVhip_eyelet_rear_r_dynamic
p1012
aVloin_cloth_bk_fk
p1013
aVloin_cloth_bk_ik
p1014
aVloin_cloth_bk_dynamic
p1015
aVloin_cloth_fr_fk
p1016
aVloin_cloth_fr_ik
p1017
aVloin_cloth_fr_dynamic
p1018
aVpadawan_l_fk
p1019
aVpadawan_l_ik
p1020
aVpadawan_l_dynamic
p1021
aVpadawan_r_fk
p1022
aVpadawan_r_ik
p1023
aVpadawan_r_dynamic
p1024
aVponytail_fk
p1025
aVponytail_ik
p1026
aVponytail_dynamic
p1027
aVweapon_butt_fk
p1028
aVweapon_butt_ik
p1029
aVweapon_butt_dynamic
p1030
aaF1
aF0
aI1
aF1
aF0.59999999999999998
aI00
aF0.5
aI00
aI1
aF1
aF0.59999999999999998
aI00
aF0.5
aI00
aI0
aI1
aI1
aF0.90000000000000002
aF0.59999999999999998
aI00
aI00
aF0.5
aI0
aI1
aI1
aF0.90000000000000002
aF0.59999999999999998
aI00
aI00
aF0.5
aF1
aF0
aF0
aF1
aF0
aF0
aF1
aF0
aF0
aF1
aF0
aF0
aF1
aF0
aF0
aF1
aF0
aF0
aF1
aF0
aF0
aF1
aF0
aF0
aF1
aF0
aF0
aF1
aF0
aF0
aF1
aF0
aF0
aa(lp1031
S'calf_l_twist_anim'
p1032
a(lp1033
VtranslateX
p1034
aVtranslateY
p1035
aVtranslateZ
p1036
aVrotateX
p1037
aVrotateY
p1038
aVrotateZ
p1039
aaF0
aF0
aF0
aF0
aF0
aF0
aa(lp1040
S'calf_r_twist_anim'
p1041
a(lp1042
VtranslateX
p1043
aVtranslateY
p1044
aVtranslateZ
p1045
aVrotateX
p1046
aVrotateY
p1047
aVrotateZ
p1048
aaF0
aF0
aF0
aF0
aF0
aF0
aa(lp1049
Vback_sash_dyn_anim
p1050
a(lp1051
VtranslateX
p1052
aVtranslateY
p1053
aVtranslateZ
p1054
aVrotateX
p1055
aVrotateY
p1056
aVrotateZ
p1057
aVchainAttach
p1058
aVchainStartEnvelope
p1059
aVchainStartFrame
p1060
aVchainStiffness
p1061
aVchainDamping
p1062
aVchainGravity
p1063
aVchainIteration
p1064
aVchainCollide
p1065
aVchainWidthBase
p1066
aVchainWidthExtremity
p1067
aVchainCollideGround
p1068
aVchainCollideGroundHeight
p1069
aaF0
aF0
aF0
aF0
aF0
aF0
aI1
aF1
aF1
aF0.10000000000000001
aF0.20000000000000001
aF1
aI1
aI00
aF1
aF1
aI00
aF0
aa(lp1070
Vback_sash_ik_2_anim
p1071
a(lp1072
VtranslateX
p1073
aVtranslateY
p1074
aVtranslateZ
p1075
aVrotateX
p1076
aVrotateY
p1077
aVrotateZ
p1078
aaF0
aF0
aF0
aF0
aF0
aF0
aa(lp1079
Vback_sash_ik_3_anim
p1080
a(lp1081
VtranslateX
p1082
aVtranslateY
p1083
aVtranslateZ
p1084
aVrotateX
p1085
aVrotateY
p1086
aVrotateZ
p1087
aVclusterControlVis
p1088
aaF0
aF0
aF0
aF0
aF0
aF0
aI00
aa(lp1089
Vback_sash_ik_base_anim
p1090
a(lp1091
VtranslateX
p1092
aVtranslateY
p1093
aVtranslateZ
p1094
aVrotateX
p1095
aVrotateY
p1096
aVrotateZ
p1097
aVglobal_scale
p1098
aaF0
aF0
aF0
aF0
aF0
aF0
aF1
aa(lp1099
Vfk_back_sash_01_anim
p1100
a(lp1101
VtranslateX
p1102
aVtranslateY
p1103
aVtranslateZ
p1104
aVrotateX
p1105
aVrotateY
p1106
aVrotateZ
p1107
aVglobal_scale
p1108
aVlagMode
p1109
aaF0
aF0
aF0
aF0
aF0
aF0
aF1
aF0
aa(lp1110
Vback_sash_cv_0_anim
p1111
a(lp1112
VtranslateX
p1113
aVtranslateY
p1114
aVtranslateZ
p1115
aaF0
aF0
aF0
aa(lp1116
Vfk_back_sash_02_anim
p1117
a(lp1118
VtranslateX
p1119
aVtranslateY
p1120
aVtranslateZ
p1121
aVrotateX
p1122
aVrotateY
p1123
aVrotateZ
p1124
aaF0
aF0
aF0
aF0
aF0
aF0
aa(lp1125
Vback_sash_cv_1_anim
p1126
a(lp1127
VtranslateX
p1128
aVtranslateY
p1129
aVtranslateZ
p1130
aaF0
aF0
aF0
aa(lp1131
Vfk_back_sash_03_anim
p1132
a(lp1133
VtranslateX
p1134
aVtranslateY
p1135
aVtranslateZ
p1136
aVrotateX
p1137
aVrotateY
p1138
aVrotateZ
p1139
aaF0
aF0
aF0
aF0
aF0
aF0
aa(lp1140
Vback_sash_cv_2_anim
p1141
a(lp1142
VtranslateX
p1143
aVtranslateY
p1144
aVtranslateZ
p1145
aaF0
aF0
aF0
aa(lp1146
Vbracelet_A_l_anim
p1147
a(lp1148
VtranslateX
p1149
aVtranslateY
p1150
aVtranslateZ
p1151
aVrotateX
p1152
aVrotateY
p1153
aVrotateZ
p1154
aVscaleX
p1155
aVscaleY
p1156
aVscaleZ
p1157
aaF0
aF0
aF0
aF0
aF0
aF0
aF1
aF1
aF1
aa(lp1158
Vbracelet_B_l_anim
p1159
a(lp1160
VtranslateX
p1161
aVtranslateY
p1162
aVtranslateZ
p1163
aVrotateX
p1164
aVrotateY
p1165
aVrotateZ
p1166
aVscaleX
p1167
aVscaleY
p1168
aVscaleZ
p1169
aaF0
aF0
aF0
aF0
aF0
aF0
aF1
aF1
aF1
aa(lp1170
Vbracelet_C_l_anim
p1171
a(lp1172
VtranslateX
p1173
aVtranslateY
p1174
aVtranslateZ
p1175
aVrotateX
p1176
aVrotateY
p1177
aVrotateZ
p1178
aVscaleX
p1179
aVscaleY
p1180
aVscaleZ
p1181
aaF0
aF0
aF0
aF0
aF0
aF0
aF1
aF1
aF1
aa(lp1182
Veyeball_l_anim
p1183
a(lp1184
VtranslateX
p1185
aVtranslateY
p1186
aVtranslateZ
p1187
aVrotateX
p1188
aVrotateY
p1189
aVrotateZ
p1190
aVscaleX
p1191
aVscaleY
p1192
aVscaleZ
p1193
aaF0
aF0
aF0
aF0
aF0
aF0
aF1
aF1
aF1
aa(lp1194
Veyeball_r_anim
p1195
a(lp1196
VtranslateX
p1197
aVtranslateY
p1198
aVtranslateZ
p1199
aVrotateX
p1200
aVrotateY
p1201
aVrotateZ
p1202
aVscaleX
p1203
aVscaleY
p1204
aVscaleZ
p1205
aaF0
aF0
aF0
aF0
aF0
aF0
aF1
aF1
aF1
aa(lp1206
Veyebrow_in_l_anim
p1207
a(lp1208
VtranslateX
p1209
aVtranslateY
p1210
aVtranslateZ
p1211
aVrotateX
p1212
aVrotateY
p1213
aVrotateZ
p1214
aVscaleX
p1215
aVscaleY
p1216
aVscaleZ
p1217
aaF0
aF0
aF0
aF0
aF0
aF0
aF1
aF1
aF1
aa(lp1218
Veyebrow_in_r_anim
p1219
a(lp1220
VtranslateX
p1221
aVtranslateY
p1222
aVtranslateZ
p1223
aVrotateX
p1224
aVrotateY
p1225
aVrotateZ
p1226
aVscaleX
p1227
aVscaleY
p1228
aVscaleZ
p1229
aaF0
aF0
aF0
aF0
aF0
aF0
aF1
aF1
aF1
aa(lp1230
Veyebrow_out_l_anim
p1231
a(lp1232
VtranslateX
p1233
aVtranslateY
p1234
aVtranslateZ
p1235
aVrotateX
p1236
aVrotateY
p1237
aVrotateZ
p1238
aVscaleX
p1239
aVscaleY
p1240
aVscaleZ
p1241
aaF0
aF0
aF0
aF0
aF0
aF0
aF1
aF1
aF1
aa(lp1242
Veyebrow_out_r_anim
p1243
a(lp1244
VtranslateX
p1245
aVtranslateY
p1246
aVtranslateZ
p1247
aVrotateX
p1248
aVrotateY
p1249
aVrotateZ
p1250
aVscaleX
p1251
aVscaleY
p1252
aVscaleZ
p1253
aaF0
aF0
aF0
aF0
aF0
aF0
aF1
aF1
aF1
aa(lp1254
Veyelid_bott_l_anim
p1255
a(lp1256
VtranslateX
p1257
aVtranslateY
p1258
aVtranslateZ
p1259
aVrotateX
p1260
aVrotateY
p1261
aVrotateZ
p1262
aVscaleX
p1263
aVscaleY
p1264
aVscaleZ
p1265
aaF0
aF0
aF0
aF0
aF0
aF0
aF1
aF1
aF1
aa(lp1266
Veyelid_bott_r_anim
p1267
a(lp1268
VtranslateX
p1269
aVtranslateY
p1270
aVtranslateZ
p1271
aVrotateX
p1272
aVrotateY
p1273
aVrotateZ
p1274
aVscaleX
p1275
aVscaleY
p1276
aVscaleZ
p1277
aaF0
aF0
aF0
aF0
aF0
aF0
aF1
aF1
aF1
aa(lp1278
Veyelid_top_l_anim
p1279
a(lp1280
VtranslateX
p1281
aVtranslateY
p1282
aVtranslateZ
p1283
aVrotateX
p1284
aVrotateY
p1285
aVrotateZ
p1286
aVscaleX
p1287
aVscaleY
p1288
aVscaleZ
p1289
aaF0
aF0
aF0
aF0
aF0
aF0
aF1
aF1
aF1
aa(lp1290
Veyelid_top_r_anim
p1291
a(lp1292
VtranslateX
p1293
aVtranslateY
p1294
aVtranslateZ
p1295
aVrotateX
p1296
aVrotateY
p1297
aVrotateZ
p1298
aVscaleX
p1299
aVscaleY
p1300
aVscaleZ
p1301
aaF0
aF0
aF0
aF0
aF0
aF0
aF1
aF1
aF1
aa(lp1302
Vhip_back_flaps_anim
p1303
a(lp1304
VtranslateX
p1305
aVtranslateY
p1306
aVtranslateZ
p1307
aVrotateX
p1308
aVrotateY
p1309
aVrotateZ
p1310
aVscaleX
p1311
aVscaleY
p1312
aVscaleZ
p1313
aaF3.5527136788005009e-15
aF-0.0040149279208065991
aF-0.060754214318222921
aF-0.20827987371630702
aF0
aF0
aF1
aF1
aF1
aa(lp1314
Vhip_eyelet_front_l_dyn_anim
p1315
a(lp1316
VtranslateX
p1317
aVtranslateY
p1318
aVtranslateZ
p1319
aVrotateX
p1320
aVrotateY
p1321
aVrotateZ
p1322
aVchainAttach
p1323
aVchainStartEnvelope
p1324
aVchainStartFrame
p1325
aVchainStiffness
p1326
aVchainDamping
p1327
aVchainGravity
p1328
aVchainIteration
p1329
aVchainCollide
p1330
aVchainWidthBase
p1331
aVchainWidthExtremity
p1332
aVchainCollideGround
p1333
aVchainCollideGroundHeight
p1334
aaF-4.9588099999999998e-09
aF2.5921599999999996e-07
aF6.0685000000000006e-07
aF0
aF0
aF0
aI1
aF1
aF1
aF0.10000000000000001
aF0.20000000000000001
aF1
aI1
aI00
aF1
aF1
aI00
aF0
aa(lp1335
Vhip_eyelet_front_l_ik_2_anim
p1336
a(lp1337
VtranslateX
p1338
aVtranslateY
p1339
aVtranslateZ
p1340
aVrotateX
p1341
aVrotateY
p1342
aVrotateZ
p1343
aaF-3.8461300000000003e-07
aF-1.0094199999999999e-06
aF4.1534300000000003e-06
aF0
aF0
aF0
aa(lp1344
Vhip_eyelet_front_l_ik_3_anim
p1345
a(lp1346
VtranslateX
p1347
aVtranslateY
p1348
aVtranslateZ
p1349
aVrotateX
p1350
aVrotateY
p1351
aVrotateZ
p1352
aVclusterControlVis
p1353
aaF-1.92306e-07
aF-5.0470899999999994e-07
aF2.0767200000000001e-06
aF0
aF0
aF0
aI00
aa(lp1354
Vhip_eyelet_front_l_ik_base_anim
p1355
a(lp1356
VtranslateX
p1357
aVtranslateY
p1358
aVtranslateZ
p1359
aVrotateX
p1360
aVrotateY
p1361
aVrotateZ
p1362
aVglobal_scale
p1363
aaF-4.9503000000000002e-09
aF2.6918799999999999e-07
aF6.0257500000000001e-07
aF0
aF0
aF0
aF1
aa(lp1364
Vfk_hip_eyelet_front_l_01_anim
p1365
a(lp1366
VtranslateX
p1367
aVtranslateY
p1368
aVtranslateZ
p1369
aVrotateX
p1370
aVrotateY
p1371
aVrotateZ
p1372
aVglobal_scale
p1373
aVlagMode
p1374
aaF-4.9503199999999999e-09
aF2.6918799999999999e-07
aF6.0257500000000001e-07
aF0
aF0
aF0
aF1
aF0
aa(lp1375
Vhip_eyelet_front_l_cv_0_anim
p1376
a(lp1377
VtranslateX
p1378
aVtranslateY
p1379
aVtranslateZ
p1380
aaF0
aF0
aF0
aa(lp1381
Vfk_hip_eyelet_front_l_02_anim
p1382
a(lp1383
VtranslateX
p1384
aVtranslateY
p1385
aVtranslateZ
p1386
aVrotateX
p1387
aVrotateY
p1388
aVrotateZ
p1389
aaF-2.2579500000000002e-07
aF-3.7199199999999999e-07
aF1.3131800000000001e-06
aF0
aF0
aF0
aa(lp1390
Vhip_eyelet_front_l_cv_1_anim
p1391
a(lp1392
VtranslateX
p1393
aVtranslateY
p1394
aVtranslateZ
p1395
aaF0
aF0
aF0
aa(lp1396
Vfk_hip_eyelet_front_l_03_anim
p1397
a(lp1398
VtranslateX
p1399
aVtranslateY
p1400
aVtranslateZ
p1401
aVrotateX
p1402
aVrotateY
p1403
aVrotateZ
p1404
aaF-9.8909599999999995e-08
aF-8.5001700000000006e-07
aF1.305e-06
aF0
aF0
aF0
aa(lp1405
Vhip_eyelet_front_l_cv_2_anim
p1406
a(lp1407
VtranslateX
p1408
aVtranslateY
p1409
aVtranslateZ
p1410
aaF0
aF0
aF0
aa(lp1411
Vfk_hip_eyelet_front_l_04_anim
p1412
a(lp1413
VtranslateX
p1414
aVtranslateY
p1415
aVtranslateZ
p1416
aVrotateX
p1417
aVrotateY
p1418
aVrotateZ
p1419
aaF-6.59061e-08
aF2.7460399999999999e-07
aF1.55339e-06
aF0
aF0
aF0
aa(lp1420
Vhip_eyelet_front_l_cv_3_anim
p1421
a(lp1422
VtranslateX
p1423
aVtranslateY
p1424
aVtranslateZ
p1425
aaF0
aF0
aF0
aa(lp1426
Vhip_eyelet_front_r_dyn_anim
p1427
a(lp1428
VtranslateX
p1429
aVtranslateY
p1430
aVtranslateZ
p1431
aVrotateX
p1432
aVrotateY
p1433
aVrotateZ
p1434
aVchainAttach
p1435
aVchainStartEnvelope
p1436
aVchainStartFrame
p1437
aVchainStiffness
p1438
aVchainDamping
p1439
aVchainGravity
p1440
aVchainIteration
p1441
aVchainCollide
p1442
aVchainWidthBase
p1443
aVchainWidthExtremity
p1444
aVchainCollideGround
p1445
aVchainCollideGroundHeight
p1446
aaF-4.9587599999999995e-09
aF2.5921599999999996e-07
aF6.0685000000000006e-07
aF0
aF0
aF0
aI1
aF1
aF1
aF0.10000000000000001
aF0.20000000000000001
aF1
aI1
aI00
aF1
aF1
aI00
aF0
aa(lp1447
Vhip_eyelet_front_r_ik_2_anim
p1448
a(lp1449
VtranslateX
p1450
aVtranslateY
p1451
aVtranslateZ
p1452
aVrotateX
p1453
aVrotateY
p1454
aVrotateZ
p1455
aaF-3.8461300000000003e-07
aF-1.0094199999999999e-06
aF4.1534300000000003e-06
aF0
aF0
aF0
aa(lp1456
Vhip_eyelet_front_r_ik_3_anim
p1457
a(lp1458
VtranslateX
p1459
aVtranslateY
p1460
aVtranslateZ
p1461
aVrotateX
p1462
aVrotateY
p1463
aVrotateZ
p1464
aVclusterControlVis
p1465
aaF-1.92306e-07
aF-5.0470899999999994e-07
aF2.0767200000000001e-06
aF0
aF0
aF0
aI00
aa(lp1466
Vhip_eyelet_front_r_ik_base_anim
p1467
a(lp1468
VtranslateX
p1469
aVtranslateY
p1470
aVtranslateZ
p1471
aVrotateX
p1472
aVrotateY
p1473
aVrotateZ
p1474
aVglobal_scale
p1475
aaF-4.9502599999999998e-09
aF2.6918799999999999e-07
aF6.0257500000000001e-07
aF0
aF0
aF0
aF1
aa(lp1476
Vfk_hip_eyelet_front_r_01_anim
p1477
a(lp1478
VtranslateX
p1479
aVtranslateY
p1480
aVtranslateZ
p1481
aVrotateX
p1482
aVrotateY
p1483
aVrotateZ
p1484
aVglobal_scale
p1485
aVlagMode
p1486
aaF-4.9502699999999997e-09
aF2.6918799999999999e-07
aF6.0257500000000001e-07
aF0
aF0
aF0
aF1
aF0
aa(lp1487
Vhip_eyelet_front_r_cv_0_anim
p1488
a(lp1489
VtranslateX
p1490
aVtranslateY
p1491
aVtranslateZ
p1492
aaF0
aF0
aF0
aa(lp1493
Vfk_hip_eyelet_front_r_02_anim
p1494
a(lp1495
VtranslateX
p1496
aVtranslateY
p1497
aVtranslateZ
p1498
aVrotateX
p1499
aVrotateY
p1500
aVrotateZ
p1501
aaF-2.2579500000000002e-07
aF-3.7199199999999999e-07
aF1.3131800000000001e-06
aF0
aF0
aF0
aa(lp1502
Vhip_eyelet_front_r_cv_1_anim
p1503
a(lp1504
VtranslateX
p1505
aVtranslateY
p1506
aVtranslateZ
p1507
aaF0
aF0
aF0
aa(lp1508
Vfk_hip_eyelet_front_r_03_anim
p1509
a(lp1510
VtranslateX
p1511
aVtranslateY
p1512
aVtranslateZ
p1513
aVrotateX
p1514
aVrotateY
p1515
aVrotateZ
p1516
aaF-9.8909500000000003e-08
aF-8.5001700000000006e-07
aF1.305e-06
aF0
aF0
aF0
aa(lp1517
Vhip_eyelet_front_r_cv_2_anim
p1518
a(lp1519
VtranslateX
p1520
aVtranslateY
p1521
aVtranslateZ
p1522
aaF0
aF0
aF0
aa(lp1523
Vfk_hip_eyelet_front_r_04_anim
p1524
a(lp1525
VtranslateX
p1526
aVtranslateY
p1527
aVtranslateZ
p1528
aVrotateX
p1529
aVrotateY
p1530
aVrotateZ
p1531
aaF-6.5906000000000008e-08
aF2.7460399999999999e-07
aF1.55339e-06
aF0
aF0
aF0
aa(lp1532
Vhip_eyelet_front_r_cv_3_anim
p1533
a(lp1534
VtranslateX
p1535
aVtranslateY
p1536
aVtranslateZ
p1537
aaF0
aF0
aF0
aa(lp1538
Vhip_eyelet_rear_l_dyn_anim
p1539
a(lp1540
VtranslateX
p1541
aVtranslateY
p1542
aVtranslateZ
p1543
aVrotateX
p1544
aVrotateY
p1545
aVrotateZ
p1546
aVchainAttach
p1547
aVchainStartEnvelope
p1548
aVchainStartFrame
p1549
aVchainStiffness
p1550
aVchainDamping
p1551
aVchainGravity
p1552
aVchainIteration
p1553
aVchainCollide
p1554
aVchainWidthBase
p1555
aVchainWidthExtremity
p1556
aVchainCollideGround
p1557
aVchainCollideGroundHeight
p1558
aaF-7.0606200000000001e-07
aF3.0596399999999997e-07
aF-6.6344200000000007e-07
aF0
aF0
aF0
aI1
aF1
aF1
aF0.10000000000000001
aF0.20000000000000001
aF1
aI1
aI00
aF1
aF1
aI00
aF0
aa(lp1559
Vhip_eyelet_rear_l_ik_2_anim
p1560
a(lp1561
VtranslateX
p1562
aVtranslateY
p1563
aVtranslateZ
p1564
aVrotateX
p1565
aVrotateY
p1566
aVrotateZ
p1567
aaF4.8626599999999998e-06
aF1.10717e-06
aF-3.0055700000000001e-06
aF0
aF0
aF0
aa(lp1568
Vhip_eyelet_rear_l_ik_3_anim
p1569
a(lp1570
VtranslateX
p1571
aVtranslateY
p1572
aVtranslateZ
p1573
aVrotateX
p1574
aVrotateY
p1575
aVrotateZ
p1576
aVclusterControlVis
p1577
aaF2.4313299999999999e-06
aF5.5358299999999994e-07
aF-1.50279e-06
aF0
aF0
aF0
aI00
aa(lp1578
Vhip_eyelet_rear_l_ik_base_anim
p1579
a(lp1580
VtranslateX
p1581
aVtranslateY
p1582
aVtranslateZ
p1583
aVrotateX
p1584
aVrotateY
p1585
aVrotateZ
p1586
aVglobal_scale
p1587
aaF-7.0567999999999995e-07
aF3.0380600000000001e-07
aF-6.6488099999999998e-07
aF0
aF0
aF0
aF1
aa(lp1588
Vfk_hip_eyelet_rear_l_01_anim
p1589
a(lp1590
VtranslateX
p1591
aVtranslateY
p1592
aVtranslateZ
p1593
aVrotateX
p1594
aVrotateY
p1595
aVrotateZ
p1596
aVglobal_scale
p1597
aVlagMode
p1598
aaF-7.0567999999999995e-07
aF3.0380600000000001e-07
aF-6.6488099999999998e-07
aF0
aF0
aF0
aF1
aF0
aa(lp1599
Vhip_eyelet_rear_l_cv_0_anim
p1600
a(lp1601
VtranslateX
p1602
aVtranslateY
p1603
aVtranslateZ
p1604
aaF0
aF0
aF0
aa(lp1605
Vfk_hip_eyelet_rear_l_02_anim
p1606
a(lp1607
VtranslateX
p1608
aVtranslateY
p1609
aVtranslateZ
p1610
aVrotateX
p1611
aVrotateY
p1612
aVrotateZ
p1613
aaF1.6195699999999999e-06
aF3.8423699999999998e-07
aF-9.9642700000000001e-07
aF0
aF0
aF0
aa(lp1614
Vhip_eyelet_rear_l_cv_1_anim
p1615
a(lp1616
VtranslateX
p1617
aVtranslateY
p1618
aVtranslateZ
p1619
aaF0
aF0
aF0
aa(lp1620
Vfk_hip_eyelet_rear_l_03_anim
p1621
a(lp1622
VtranslateX
p1623
aVtranslateY
p1624
aVtranslateZ
p1625
aVrotateX
p1626
aVrotateY
p1627
aVrotateZ
p1628
aaF1.6229899999999999e-06
aF3.6153700000000002e-07
aF-9.9642300000000011e-07
aF0
aF0
aF0
aa(lp1629
Vhip_eyelet_rear_l_cv_2_anim
p1630
a(lp1631
VtranslateX
p1632
aVtranslateY
p1633
aVtranslateZ
p1634
aaF0
aF0
aF0
aa(lp1635
Vfk_hip_eyelet_rear_l_04_anim
p1636
a(lp1637
VtranslateX
p1638
aVtranslateY
p1639
aVtranslateZ
p1640
aVrotateX
p1641
aVrotateY
p1642
aVrotateZ
p1643
aaF1.6201000000000002e-06
aF3.4184700000000003e-07
aF-1.0204800000000001e-06
aF0
aF0
aF0
aa(lp1644
Vhip_eyelet_rear_l_cv_3_anim
p1645
a(lp1646
VtranslateX
p1647
aVtranslateY
p1648
aVtranslateZ
p1649
aaF0
aF0
aF0
aa(lp1650
Vhip_eyelet_rear_r_dyn_anim
p1651
a(lp1652
VtranslateX
p1653
aVtranslateY
p1654
aVtranslateZ
p1655
aVrotateX
p1656
aVrotateY
p1657
aVrotateZ
p1658
aVchainAttach
p1659
aVchainStartEnvelope
p1660
aVchainStartFrame
p1661
aVchainStiffness
p1662
aVchainDamping
p1663
aVchainGravity
p1664
aVchainIteration
p1665
aVchainCollide
p1666
aVchainWidthBase
p1667
aVchainWidthExtremity
p1668
aVchainCollideGround
p1669
aVchainCollideGroundHeight
p1670
aaF-7.0606200000000001e-07
aF3.0596399999999997e-07
aF-6.6344200000000007e-07
aF0
aF0
aF0
aI1
aF1
aF1
aF0.10000000000000001
aF0.20000000000000001
aF1
aI1
aI00
aF1
aF1
aI00
aF0
aa(lp1671
Vhip_eyelet_rear_r_ik_2_anim
p1672
a(lp1673
VtranslateX
p1674
aVtranslateY
p1675
aVtranslateZ
p1676
aVrotateX
p1677
aVrotateY
p1678
aVrotateZ
p1679
aaF4.8626599999999998e-06
aF1.10717e-06
aF-3.0055700000000001e-06
aF0
aF0
aF0
aa(lp1680
Vhip_eyelet_rear_r_ik_3_anim
p1681
a(lp1682
VtranslateX
p1683
aVtranslateY
p1684
aVtranslateZ
p1685
aVrotateX
p1686
aVrotateY
p1687
aVrotateZ
p1688
aVclusterControlVis
p1689
aaF2.4313299999999999e-06
aF5.5358299999999994e-07
aF-1.50279e-06
aF0
aF0
aF0
aI00
aa(lp1690
Vhip_eyelet_rear_r_ik_base_anim
p1691
a(lp1692
VtranslateX
p1693
aVtranslateY
p1694
aVtranslateZ
p1695
aVrotateX
p1696
aVrotateY
p1697
aVrotateZ
p1698
aVglobal_scale
p1699
aaF-7.0567999999999995e-07
aF3.0380600000000001e-07
aF-6.6488099999999998e-07
aF0
aF0
aF0
aF1
aa(lp1700
Vfk_hip_eyelet_rear_r_01_anim
p1701
a(lp1702
VtranslateX
p1703
aVtranslateY
p1704
aVtranslateZ
p1705
aVrotateX
p1706
aVrotateY
p1707
aVrotateZ
p1708
aVglobal_scale
p1709
aVlagMode
p1710
aaF-7.0567999999999995e-07
aF3.0380600000000001e-07
aF-6.6488099999999998e-07
aF0
aF0
aF0
aF1
aF0
aa(lp1711
Vhip_eyelet_rear_r_cv_0_anim
p1712
a(lp1713
VtranslateX
p1714
aVtranslateY
p1715
aVtranslateZ
p1716
aaF0
aF0
aF0
aa(lp1717
Vfk_hip_eyelet_rear_r_02_anim
p1718
a(lp1719
VtranslateX
p1720
aVtranslateY
p1721
aVtranslateZ
p1722
aVrotateX
p1723
aVrotateY
p1724
aVrotateZ
p1725
aaF1.6195699999999999e-06
aF3.8423699999999998e-07
aF-9.9642700000000001e-07
aF0
aF0
aF0
aa(lp1726
Vhip_eyelet_rear_r_cv_1_anim
p1727
a(lp1728
VtranslateX
p1729
aVtranslateY
p1730
aVtranslateZ
p1731
aaF0
aF0
aF0
aa(lp1732
Vfk_hip_eyelet_rear_r_03_anim
p1733
a(lp1734
VtranslateX
p1735
aVtranslateY
p1736
aVtranslateZ
p1737
aVrotateX
p1738
aVrotateY
p1739
aVrotateZ
p1740
aaF1.6229899999999999e-06
aF3.6153700000000002e-07
aF-9.9642300000000011e-07
aF0
aF0
aF0
aa(lp1741
Vhip_eyelet_rear_r_cv_2_anim
p1742
a(lp1743
VtranslateX
p1744
aVtranslateY
p1745
aVtranslateZ
p1746
aaF0
aF0
aF0
aa(lp1747
Vfk_hip_eyelet_rear_r_04_anim
p1748
a(lp1749
VtranslateX
p1750
aVtranslateY
p1751
aVtranslateZ
p1752
aVrotateX
p1753
aVrotateY
p1754
aVrotateZ
p1755
aaF1.6201000000000002e-06
aF3.41848e-07
aF-1.0204800000000001e-06
aF0
aF0
aF0
aa(lp1756
Vhip_eyelet_rear_r_cv_3_anim
p1757
a(lp1758
VtranslateX
p1759
aVtranslateY
p1760
aVtranslateZ
p1761
aaF0
aF0
aF0
aa(lp1762
Vjaw_anim
p1763
a(lp1764
VtranslateX
p1765
aVtranslateY
p1766
aVtranslateZ
p1767
aVrotateX
p1768
aVrotateY
p1769
aVrotateZ
p1770
aVscaleX
p1771
aVscaleY
p1772
aVscaleZ
p1773
aaF0
aF0
aF0
aF-0.82522200000000001
aF0
aF0
aF1
aF1
aF1
aa(lp1774
Vleg_shieldPad_A_l_anim
p1775
a(lp1776
VtranslateX
p1777
aVtranslateY
p1778
aVtranslateZ
p1779
aVrotateX
p1780
aVrotateY
p1781
aVrotateZ
p1782
aVchainAttach
p1783
aVchainStartEnvelope
p1784
aVchainStartFrame
p1785
aVchainStiffness
p1786
aVchainDamping
p1787
aVchainGravity
p1788
aVchainIteration
p1789
aVchainCollide
p1790
aVchainWidthBase
p1791
aVchainWidthExtremity
p1792
aVchainCollideGround
p1793
aVchainCollideGroundHeight
p1794
aaF0
aF0
aF0
aF0
aF0
aF0
aI1
aF0
aF1
aF0.10000000000000001
aF0.20000000000000001
aF1
aI1
aI00
aF1
aF1
aI00
aF0
aa(lp1795
Vleg_shieldPad_A_r_anim
p1796
a(lp1797
VtranslateX
p1798
aVtranslateY
p1799
aVtranslateZ
p1800
aVrotateX
p1801
aVrotateY
p1802
aVrotateZ
p1803
aVchainAttach
p1804
aVchainStartEnvelope
p1805
aVchainStartFrame
p1806
aVchainStiffness
p1807
aVchainDamping
p1808
aVchainGravity
p1809
aVchainIteration
p1810
aVchainCollide
p1811
aVchainWidthBase
p1812
aVchainWidthExtremity
p1813
aVchainCollideGround
p1814
aVchainCollideGroundHeight
p1815
aaF0
aF0
aF0
aF0
aF0
aF0
aI1
aF0
aF1
aF0.10000000000000001
aF0.20000000000000001
aF1
aI1
aI00
aF1
aF1
aI00
aF0
aa(lp1816
Vleg_shieldPad_B_l_anim
p1817
a(lp1818
VtranslateX
p1819
aVtranslateY
p1820
aVtranslateZ
p1821
aVrotateX
p1822
aVrotateY
p1823
aVrotateZ
p1824
aVchainAttach
p1825
aVchainStartEnvelope
p1826
aVchainStartFrame
p1827
aVchainStiffness
p1828
aVchainDamping
p1829
aVchainGravity
p1830
aVchainIteration
p1831
aVchainCollide
p1832
aVchainWidthBase
p1833
aVchainWidthExtremity
p1834
aVchainCollideGround
p1835
aVchainCollideGroundHeight
p1836
aaF0
aF0
aF0
aF0
aF0
aF0
aI1
aF0
aF1
aF0.10000000000000001
aF0.20000000000000001
aF1
aI1
aI00
aF1
aF1
aI00
aF0
aa(lp1837
Vleg_shieldPad_B_r_anim
p1838
a(lp1839
VtranslateX
p1840
aVtranslateY
p1841
aVtranslateZ
p1842
aVrotateX
p1843
aVrotateY
p1844
aVrotateZ
p1845
aVchainAttach
p1846
aVchainStartEnvelope
p1847
aVchainStartFrame
p1848
aVchainStiffness
p1849
aVchainDamping
p1850
aVchainGravity
p1851
aVchainIteration
p1852
aVchainCollide
p1853
aVchainWidthBase
p1854
aVchainWidthExtremity
p1855
aVchainCollideGround
p1856
aVchainCollideGroundHeight
p1857
aaF0
aF0
aF0
aF0
aF0
aF0
aI1
aF0
aF1
aF0.10000000000000001
aF0.20000000000000001
aF1
aI1
aI00
aF1
aF1
aI00
aF0
aa(lp1858
Vloin_cloth_bk_dyn_anim
p1859
a(lp1860
VtranslateX
p1861
aVtranslateY
p1862
aVtranslateZ
p1863
aVrotateX
p1864
aVrotateY
p1865
aVrotateZ
p1866
aVchainAttach
p1867
aVchainStartEnvelope
p1868
aVchainStartFrame
p1869
aVchainStiffness
p1870
aVchainDamping
p1871
aVchainGravity
p1872
aVchainIteration
p1873
aVchainCollide
p1874
aVchainWidthBase
p1875
aVchainWidthExtremity
p1876
aVchainCollideGround
p1877
aVchainCollideGroundHeight
p1878
aaF0
aF0
aF0
aF0
aF0
aF0
aI1
aF1
aF1
aF0.10000000000000001
aF0.20000000000000001
aF1
aI1
aI00
aF1
aF1
aI00
aF0
aa(lp1879
Vloin_cloth_bk_ik_2_anim
p1880
a(lp1881
VtranslateX
p1882
aVtranslateY
p1883
aVtranslateZ
p1884
aVrotateX
p1885
aVrotateY
p1886
aVrotateZ
p1887
aaF0
aF0
aF0
aF0
aF0
aF0
aa(lp1888
Vloin_cloth_bk_ik_3_anim
p1889
a(lp1890
VtranslateX
p1891
aVtranslateY
p1892
aVtranslateZ
p1893
aVrotateX
p1894
aVrotateY
p1895
aVrotateZ
p1896
aVclusterControlVis
p1897
aaF0
aF0
aF0
aF0
aF0
aF0
aI00
aa(lp1898
Vloin_cloth_bk_ik_base_anim
p1899
a(lp1900
VtranslateX
p1901
aVtranslateY
p1902
aVtranslateZ
p1903
aVrotateX
p1904
aVrotateY
p1905
aVrotateZ
p1906
aVglobal_scale
p1907
aaF0
aF0
aF0
aF0
aF0
aF0
aF1
aa(lp1908
Vfk_loin_cloth_bk_01_anim
p1909
a(lp1910
VtranslateX
p1911
aVtranslateY
p1912
aVtranslateZ
p1913
aVrotateX
p1914
aVrotateY
p1915
aVrotateZ
p1916
aVglobal_scale
p1917
aVlagMode
p1918
aaF0
aF0
aF0
aF0
aF0
aF0
aF1
aF0
aa(lp1919
Vloin_cloth_bk_cv_0_anim
p1920
a(lp1921
VtranslateX
p1922
aVtranslateY
p1923
aVtranslateZ
p1924
aaF0
aF0
aF0
aa(lp1925
Vfk_loin_cloth_bk_02_anim
p1926
a(lp1927
VtranslateX
p1928
aVtranslateY
p1929
aVtranslateZ
p1930
aVrotateX
p1931
aVrotateY
p1932
aVrotateZ
p1933
aaF0
aF0
aF0
aF0
aF0
aF0
aa(lp1934
Vloin_cloth_bk_cv_1_anim
p1935
a(lp1936
VtranslateX
p1937
aVtranslateY
p1938
aVtranslateZ
p1939
aaF0
aF0
aF0
aa(lp1940
Vloin_cloth_fr_dyn_anim
p1941
a(lp1942
VtranslateX
p1943
aVtranslateY
p1944
aVtranslateZ
p1945
aVrotateX
p1946
aVrotateY
p1947
aVrotateZ
p1948
aVchainAttach
p1949
aVchainStartEnvelope
p1950
aVchainStartFrame
p1951
aVchainStiffness
p1952
aVchainDamping
p1953
aVchainGravity
p1954
aVchainIteration
p1955
aVchainCollide
p1956
aVchainWidthBase
p1957
aVchainWidthExtremity
p1958
aVchainCollideGround
p1959
aVchainCollideGroundHeight
p1960
aaF0
aF0
aF0
aF0
aF0
aF0
aI1
aF1
aF1
aF0.10000000000000001
aF0.20000000000000001
aF1
aI1
aI00
aF1
aF1
aI00
aF0
aa(lp1961
Vloin_cloth_fr_ik_2_anim
p1962
a(lp1963
VtranslateX
p1964
aVtranslateY
p1965
aVtranslateZ
p1966
aVrotateX
p1967
aVrotateY
p1968
aVrotateZ
p1969
aaF0
aF0
aF0
aF0
aF0
aF0
aa(lp1970
Vloin_cloth_fr_ik_3_anim
p1971
a(lp1972
VtranslateX
p1973
aVtranslateY
p1974
aVtranslateZ
p1975
aVrotateX
p1976
aVrotateY
p1977
aVrotateZ
p1978
aVclusterControlVis
p1979
aaF0
aF0
aF0
aF0
aF0
aF0
aI00
aa(lp1980
Vloin_cloth_fr_ik_base_anim
p1981
a(lp1982
VtranslateX
p1983
aVtranslateY
p1984
aVtranslateZ
p1985
aVrotateX
p1986
aVrotateY
p1987
aVrotateZ
p1988
aVglobal_scale
p1989
aaF0
aF0
aF0
aF0
aF0
aF0
aF1
aa(lp1990
Vfk_loin_cloth_fr_01_anim
p1991
a(lp1992
VtranslateX
p1993
aVtranslateY
p1994
aVtranslateZ
p1995
aVrotateX
p1996
aVrotateY
p1997
aVrotateZ
p1998
aVglobal_scale
p1999
aVlagMode
p2000
aaF0
aF0
aF0
aF0
aF0
aF0
aF1
aF0
aa(lp2001
Vloin_cloth_fr_cv_0_anim
p2002
a(lp2003
VtranslateX
p2004
aVtranslateY
p2005
aVtranslateZ
p2006
aaF0
aF0
aF0
aa(lp2007
Vfk_loin_cloth_fr_02_anim
p2008
a(lp2009
VtranslateX
p2010
aVtranslateY
p2011
aVtranslateZ
p2012
aVrotateX
p2013
aVrotateY
p2014
aVrotateZ
p2015
aaF0
aF0
aF0
aF0
aF0
aF0
aa(lp2016
Vloin_cloth_fr_cv_1_anim
p2017
a(lp2018
VtranslateX
p2019
aVtranslateY
p2020
aVtranslateZ
p2021
aaF0
aF0
aF0
aa(lp2022
Vpadawan_l_dyn_anim
p2023
a(lp2024
VtranslateX
p2025
aVtranslateY
p2026
aVtranslateZ
p2027
aVrotateX
p2028
aVrotateY
p2029
aVrotateZ
p2030
aVchainAttach
p2031
aVchainStartEnvelope
p2032
aVchainStartFrame
p2033
aVchainStiffness
p2034
aVchainDamping
p2035
aVchainGravity
p2036
aVchainIteration
p2037
aVchainCollide
p2038
aVchainWidthBase
p2039
aVchainWidthExtremity
p2040
aVchainCollideGround
p2041
aVchainCollideGroundHeight
p2042
aaF5.6692099999999997e-07
aF-2.0773000000000002e-07
aF-2.7077900000000002e-07
aF0
aF0
aF0
aI1
aF1
aF1
aF0.10000000000000001
aF0.20000000000000001
aF1
aI1
aI00
aF1
aF1
aI00
aF0
aa(lp2043
Vpadawan_l_ik_2_anim
p2044
a(lp2045
VtranslateX
p2046
aVtranslateY
p2047
aVtranslateZ
p2048
aVrotateX
p2049
aVrotateY
p2050
aVrotateZ
p2051
aaF9.8929799999999994e-07
aF3.4911199999999998e-07
aF2.72955e-07
aF0
aF0
aF0
aa(lp2052
Vpadawan_l_ik_3_anim
p2053
a(lp2054
VtranslateX
p2055
aVtranslateY
p2056
aVtranslateZ
p2057
aVrotateX
p2058
aVrotateY
p2059
aVrotateZ
p2060
aVclusterControlVis
p2061
aaF5.3634700000000008e-07
aF1.4553999999999999e-07
aF9.1610300000000001e-08
aF0
aF0
aF0
aI00
aa(lp2062
Vpadawan_l_ik_base_anim
p2063
a(lp2064
VtranslateX
p2065
aVtranslateY
p2066
aVtranslateZ
p2067
aVrotateX
p2068
aVrotateY
p2069
aVrotateZ
p2070
aVglobal_scale
p2071
aaF5.6411699999999997e-07
aF-2.1178599999999999e-07
aF-2.7349299999999997e-07
aF0
aF0
aF0
aF1
aa(lp2072
Vfk_padawan_l_01_anim
p2073
a(lp2074
VtranslateX
p2075
aVtranslateY
p2076
aVtranslateZ
p2077
aVrotateX
p2078
aVrotateY
p2079
aVrotateZ
p2080
aVglobal_scale
p2081
aVlagMode
p2082
aaF5.6411699999999997e-07
aF-2.1178599999999999e-07
aF-2.7349299999999997e-07
aF0
aF0
aF0
aF1
aF0
aa(lp2083
Vpadawan_l_cv_0_anim
p2084
a(lp2085
VtranslateX
p2086
aVtranslateY
p2087
aVtranslateZ
p2088
aaF0
aF0
aF0
aa(lp2089
Vfk_padawan_l_02_anim
p2090
a(lp2091
VtranslateX
p2092
aVtranslateY
p2093
aVtranslateZ
p2094
aVrotateX
p2095
aVrotateY
p2096
aVrotateZ
p2097
aaF4.4171899999999999e-07
aF3.3581399999999999e-07
aF2.0699299999999998e-07
aF0
aF0
aF0
aa(lp2098
Vpadawan_l_cv_1_anim
p2099
a(lp2100
VtranslateX
p2101
aVtranslateY
p2102
aVtranslateZ
p2103
aaF0
aF0
aF0
aa(lp2104
Vfk_padawan_l_03_anim
p2105
a(lp2106
VtranslateX
p2107
aVtranslateY
p2108
aVtranslateZ
p2109
aVrotateX
p2110
aVrotateY
p2111
aVrotateZ
p2112
aaF4.6418400000000002e-07
aF7.1331200000000003e-08
aF1.5569500000000002e-07
aF0
aF0
aF0
aa(lp2113
Vpadawan_l_cv_2_anim
p2114
a(lp2115
VtranslateX
p2116
aVtranslateY
p2117
aVtranslateZ
p2118
aaF0
aF0
aF0
aa(lp2119
Vpadawan_r_dyn_anim
p2120
a(lp2121
VtranslateX
p2122
aVtranslateY
p2123
aVtranslateZ
p2124
aVrotateX
p2125
aVrotateY
p2126
aVrotateZ
p2127
aVchainAttach
p2128
aVchainStartEnvelope
p2129
aVchainStartFrame
p2130
aVchainStiffness
p2131
aVchainDamping
p2132
aVchainGravity
p2133
aVchainIteration
p2134
aVchainCollide
p2135
aVchainWidthBase
p2136
aVchainWidthExtremity
p2137
aVchainCollideGround
p2138
aVchainCollideGroundHeight
p2139
aaF6.5734799999999999e-07
aF-7.46087e-08
aF-1.3938200000000001e-08
aF0
aF0
aF0
aI1
aF1
aF1
aF0.10000000000000001
aF0.20000000000000001
aF1
aI1
aI00
aF1
aF1
aI00
aF0
aa(lp2140
Vpadawan_r_ik_2_anim
p2141
a(lp2142
VtranslateX
p2143
aVtranslateY
p2144
aVtranslateZ
p2145
aVrotateX
p2146
aVrotateY
p2147
aVrotateZ
p2148
aaF1.0334000000000001e-06
aF4.2689399999999998e-07
aF4.0427299999999998e-07
aF0
aF0
aF0
aa(lp2149
Vpadawan_r_ik_3_anim
p2150
a(lp2151
VtranslateX
p2152
aVtranslateY
p2153
aVtranslateZ
p2154
aVrotateX
p2155
aVrotateY
p2156
aVrotateZ
p2157
aVclusterControlVis
p2158
aaF5.8044800000000004e-07
aF2.2332200000000002e-07
aF2.2292900000000002e-07
aF0
aF0
aF0
aI00
aa(lp2159
Vpadawan_r_ik_base_anim
p2160
a(lp2161
VtranslateX
p2162
aVtranslateY
p2163
aVtranslateZ
p2164
aVrotateX
p2165
aVrotateY
p2166
aVrotateZ
p2167
aVglobal_scale
p2168
aaF6.5629699999999999e-07
aF-8.3225099999999998e-08
aF-1.4958000000000001e-08
aF0
aF0
aF0
aF1
aa(lp2169
Vfk_padawan_r_01_anim
p2170
a(lp2171
VtranslateX
p2172
aVtranslateY
p2173
aVtranslateZ
p2174
aVrotateX
p2175
aVrotateY
p2176
aVrotateZ
p2177
aVglobal_scale
p2178
aVlagMode
p2179
aaF0
aF0
aF0
aF0
aF0
aF0
aF1
aF0
aa(lp2180
Vpadawan_r_cv_0_anim
p2181
a(lp2182
VtranslateX
p2183
aVtranslateY
p2184
aVtranslateZ
p2185
aaF0
aF0
aF0
aa(lp2186
Vfk_padawan_r_02_anim
p2187
a(lp2188
VtranslateX
p2189
aVtranslateY
p2190
aVtranslateZ
p2191
aVrotateX
p2192
aVrotateY
p2193
aVrotateZ
p2194
aaF4.4171899999999999e-07
aF3.3581399999999999e-07
aF2.0699299999999998e-07
aF0
aF0
aF0
aa(lp2195
Vpadawan_r_cv_1_anim
p2196
a(lp2197
VtranslateX
p2198
aVtranslateY
p2199
aVtranslateZ
p2200
aaF0
aF0
aF0
aa(lp2201
Vfk_padawan_r_03_anim
p2202
a(lp2203
VtranslateX
p2204
aVtranslateY
p2205
aVtranslateZ
p2206
aVrotateX
p2207
aVrotateY
p2208
aVrotateZ
p2209
aaF4.6418400000000002e-07
aF7.1331200000000003e-08
aF1.5569500000000002e-07
aF0
aF0
aF0
aa(lp2210
Vpadawan_r_cv_2_anim
p2211
a(lp2212
VtranslateX
p2213
aVtranslateY
p2214
aVtranslateZ
p2215
aaF0
aF0
aF0
aa(lp2216
Vpipe_anim
p2217
a(lp2218
VtranslateX
p2219
aVtranslateY
p2220
aVtranslateZ
p2221
aVrotateX
p2222
aVrotateY
p2223
aVrotateZ
p2224
aVscaleX
p2225
aVscaleY
p2226
aVscaleZ
p2227
aaF0
aF0
aF0
aF0
aF0
aF-7.9214437030667315e-05
aF1
aF1
aF1
aa(lp2228
Vponytail_dyn_anim
p2229
a(lp2230
VtranslateX
p2231
aVtranslateY
p2232
aVtranslateZ
p2233
aVrotateX
p2234
aVrotateY
p2235
aVrotateZ
p2236
aVchainAttach
p2237
aVchainStartEnvelope
p2238
aVchainStartFrame
p2239
aVchainStiffness
p2240
aVchainDamping
p2241
aVchainGravity
p2242
aVchainIteration
p2243
aVchainCollide
p2244
aVchainWidthBase
p2245
aVchainWidthExtremity
p2246
aVchainCollideGround
p2247
aVchainCollideGroundHeight
p2248
aaF-2.2462399999999999e-07
aF1.14346e-07
aF9.9454800000000002e-08
aF0
aF0
aF0
aI1
aF1
aF1
aF0.10000000000000001
aF0.20000000000000001
aF1
aI1
aI00
aF1
aF1
aI00
aF0
aa(lp2249
Vponytail_ik_2_anim
p2250
a(lp2251
VtranslateX
p2252
aVtranslateY
p2253
aVtranslateZ
p2254
aVrotateX
p2255
aVrotateY
p2256
aVrotateZ
p2257
aaF-1.0984000000000001e-07
aF6.0196200000000003e-08
aF5.1829500000000001e-08
aF0
aF0
aF0
aa(lp2258
Vponytail_ik_3_anim
p2259
a(lp2260
VtranslateX
p2261
aVtranslateY
p2262
aVtranslateZ
p2263
aVrotateX
p2264
aVrotateY
p2265
aVrotateZ
p2266
aVclusterControlVis
p2267
aaF-1.0984100000000001e-07
aF6.0196200000000003e-08
aF5.1829500000000001e-08
aF0
aF0
aF0
aI00
aa(lp2268
Vponytail_ik_base_anim
p2269
a(lp2270
VtranslateX
p2271
aVtranslateY
p2272
aVtranslateZ
p2273
aVrotateX
p2274
aVrotateY
p2275
aVrotateZ
p2276
aVglobal_scale
p2277
aaF-2.2462399999999999e-07
aF1.1402699999999999e-07
aF9.9820799999999993e-08
aF0
aF0
aF0
aF1
aa(lp2278
Vfk_ponytail_01_anim
p2279
a(lp2280
VtranslateX
p2281
aVtranslateY
p2282
aVtranslateZ
p2283
aVrotateX
p2284
aVrotateY
p2285
aVrotateZ
p2286
aVglobal_scale
p2287
aVlagMode
p2288
aaF-2.2462399999999999e-07
aF1.1402699999999999e-07
aF9.9820799999999993e-08
aF0
aF0
aF0
aF1
aF0
aa(lp2289
Vponytail_cv_0_anim
p2290
a(lp2291
VtranslateX
p2292
aVtranslateY
p2293
aVtranslateZ
p2294
aaF0
aF0
aF0
aa(lp2295
Vfk_ponytail_02_anim
p2296
a(lp2297
VtranslateX
p2298
aVtranslateY
p2299
aVtranslateZ
p2300
aVrotateX
p2301
aVrotateY
p2302
aVrotateZ
p2303
aaF0
aF0
aF0
aF0
aF0
aF0
aa(lp2304
Vponytail_cv_1_anim
p2305
a(lp2306
VtranslateX
p2307
aVtranslateY
p2308
aVtranslateZ
p2309
aaF0
aF0
aF0
aa(lp2310
Vfk_ponytail_03_anim
p2311
a(lp2312
VtranslateX
p2313
aVtranslateY
p2314
aVtranslateZ
p2315
aVrotateX
p2316
aVrotateY
p2317
aVrotateZ
p2318
aaF0
aF0
aF0
aF0
aF0
aF0
aa(lp2319
Vponytail_cv_2_anim
p2320
a(lp2321
VtranslateX
p2322
aVtranslateY
p2323
aVtranslateZ
p2324
aaF0
aF0
aF0
aa(lp2325
Vshoulder_blade_in_r_anim
p2326
a(lp2327
VtranslateX
p2328
aVtranslateY
p2329
aVtranslateZ
p2330
aVrotateX
p2331
aVrotateY
p2332
aVrotateZ
p2333
aVscaleX
p2334
aVscaleY
p2335
aVscaleZ
p2336
aaF0
aF0
aF0
aF0
aF0
aF0
aF1
aF1
aF1
aa(lp2337
Vshoulder_blade_mid_r_anim
p2338
a(lp2339
VtranslateX
p2340
aVtranslateY
p2341
aVtranslateZ
p2342
aVrotateX
p2343
aVrotateY
p2344
aVrotateZ
p2345
aVscaleX
p2346
aVscaleY
p2347
aVscaleZ
p2348
aaF0
aF0
aF0
aF0
aF0
aF0
aF1
aF1
aF1
aa(lp2349
Vshoulder_blade_out_r_anim
p2350
a(lp2351
VtranslateX
p2352
aVtranslateY
p2353
aVtranslateZ
p2354
aVrotateX
p2355
aVrotateY
p2356
aVrotateZ
p2357
aVscaleX
p2358
aVscaleY
p2359
aVscaleZ
p2360
aaF0
aF0
aF0
aF0
aF0
aF0
aF1
aF1
aF1
aa(lp2361
Vshoulder_cloth_01_l_anim
p2362
a(lp2363
VtranslateX
p2364
aVtranslateY
p2365
aVtranslateZ
p2366
aVrotateX
p2367
aVrotateY
p2368
aVrotateZ
p2369
aVscaleX
p2370
aVscaleY
p2371
aVscaleZ
p2372
aaF0
aF0
aF0
aF0
aF0
aF0
aF1
aF1
aF1
aa(lp2373
Vshoulder_cloth_02_l_anim
p2374
a(lp2375
VtranslateX
p2376
aVtranslateY
p2377
aVtranslateZ
p2378
aVrotateX
p2379
aVrotateY
p2380
aVrotateZ
p2381
aVscaleX
p2382
aVscaleY
p2383
aVscaleZ
p2384
aaF0
aF0
aF0
aF0
aF0
aF0
aF1
aF1
aF1
aa(lp2385
Vshoulder_pad_r_anim
p2386
a(lp2387
VtranslateX
p2388
aVtranslateY
p2389
aVtranslateZ
p2390
aVrotateX
p2391
aVrotateY
p2392
aVrotateZ
p2393
aVscaleX
p2394
aVscaleY
p2395
aVscaleZ
p2396
aaF0
aF0
aF0
aF0
aF-13.734283276005097
aF0
aF1
aF1
aF1
aa(lp2397
Vweapon_anim
p2398
a(lp2399
VtranslateX
p2400
aVtranslateY
p2401
aVtranslateZ
p2402
aVrotateX
p2403
aVrotateY
p2404
aVrotateZ
p2405
aVscaleX
p2406
aVscaleY
p2407
aVscaleZ
p2408
aVspace_ik_wrist_l_anim
p2409
aaF-101.46919816635248
aF13.552373402911146
aF-6.8431762730670442
aF138.79969222732166
aF-82.00931692432502
aF65.446501603061819
aF1
aF1
aF1
aF0
aa(lp2410
Vweapon_bladeA_01_anim
p2411
a(lp2412
VtranslateX
p2413
aVtranslateY
p2414
aVtranslateZ
p2415
aVrotateX
p2416
aVrotateY
p2417
aVrotateZ
p2418
aVscaleX
p2419
aVscaleY
p2420
aVscaleZ
p2421
aaF0
aF-5.6843418860808015e-14
aF0
aF2.0832633163586035e-13
aF1.9083328088781116e-14
aF-9.5416640443905156e-15
aF1
aF1
aF1
aa(lp2422
Vweapon_bladeA_02_anim
p2423
a(lp2424
VtranslateZ
p2425
aVscaleX
p2426
aVscaleY
p2427
aVscaleZ
p2428
aaF0
aF1
aF1
aF1
aa(lp2429
Vweapon_bladeA_03_anim
p2430
a(lp2431
VtranslateX
p2432
aVtranslateY
p2433
aVtranslateZ
p2434
aVrotateX
p2435
aVrotateY
p2436
aVrotateZ
p2437
aVscaleX
p2438
aVscaleY
p2439
aVscaleZ
p2440
aaF0
aF0
aF0
aF0
aF0
aF0
aF1
aF1
aF1
aa(lp2441
Vweapon_bladeA_04_anim
p2442
a(lp2443
VtranslateX
p2444
aVtranslateY
p2445
aVtranslateZ
p2446
aVrotateX
p2447
aVrotateY
p2448
aVrotateZ
p2449
aVscaleX
p2450
aVscaleY
p2451
aVscaleZ
p2452
aaF0
aF0
aF0
aF0
aF0
aF0
aF1
aF1
aF1
aa(lp2453
Vweapon_bladeA_05_anim
p2454
a(lp2455
VtranslateX
p2456
aVtranslateY
p2457
aVtranslateZ
p2458
aVrotateX
p2459
aVrotateY
p2460
aVrotateZ
p2461
aVscaleX
p2462
aVscaleY
p2463
aVscaleZ
p2464
aaF0
aF0
aF0
aF0
aF0
aF0
aF1
aF1
aF1
aa(lp2465
Vweapon_bladeB_01_anim
p2466
a(lp2467
VtranslateX
p2468
aVtranslateY
p2469
aVtranslateZ
p2470
aVrotateX
p2471
aVrotateY
p2472
aVrotateZ
p2473
aVscaleX
p2474
aVscaleY
p2475
aVscaleZ
p2476
aaF0
aF0
aF7.1054273576010019e-15
aF2.0832633163586035e-13
aF1.9083328088781116e-14
aF-9.5416640443905156e-15
aF1
aF1
aF1
aa(lp2477
Vweapon_bladeB_02_anim
p2478
a(lp2479
VtranslateZ
p2480
aVscaleX
p2481
aVscaleY
p2482
aVscaleZ
p2483
aaF0
aF1
aF1
aF1
aa(lp2484
Vweapon_bladeB_03_anim
p2485
a(lp2486
VtranslateX
p2487
aVtranslateY
p2488
aVtranslateZ
p2489
aVrotateX
p2490
aVrotateY
p2491
aVrotateZ
p2492
aVscaleX
p2493
aVscaleY
p2494
aVscaleZ
p2495
aaF0
aF0
aF0
aF0
aF0
aF0
aF1
aF1
aF1
aa(lp2496
Vweapon_bladeB_04_anim
p2497
a(lp2498
VtranslateX
p2499
aVtranslateY
p2500
aVtranslateZ
p2501
aVrotateX
p2502
aVrotateY
p2503
aVrotateZ
p2504
aVscaleX
p2505
aVscaleY
p2506
aVscaleZ
p2507
aaF0
aF0
aF0
aF0
aF0
aF0
aF1
aF1
aF1
aa(lp2508
Vweapon_bladeB_05_anim
p2509
a(lp2510
VtranslateX
p2511
aVtranslateY
p2512
aVtranslateZ
p2513
aVrotateX
p2514
aVrotateY
p2515
aVrotateZ
p2516
aVscaleX
p2517
aVscaleY
p2518
aVscaleZ
p2519
aaF0
aF0
aF0
aF0
aF0
aF0
aF1
aF1
aF1
aa(lp2520
Vweapon_bladeC_01_anim
p2521
a(lp2522
VtranslateX
p2523
aVtranslateY
p2524
aVtranslateZ
p2525
aVrotateX
p2526
aVrotateY
p2527
aVrotateZ
p2528
aVscaleX
p2529
aVscaleY
p2530
aVscaleZ
p2531
aaF2.8421709430404007e-14
aF2.8421709430404007e-14
aF-1.4210854715202004e-14
aF2.0832633163586035e-13
aF1.9083328088781116e-14
aF-9.5416640443905156e-15
aF1
aF1
aF1
aa(lp2532
Vweapon_bladeC_02_anim
p2533
a(lp2534
VtranslateY
p2535
aVscaleX
p2536
aVscaleY
p2537
aVscaleZ
p2538
aaF0
aF1
aF1
aF1
aa(lp2539
Vweapon_bladeC_03_anim
p2540
a(lp2541
VtranslateX
p2542
aVtranslateY
p2543
aVtranslateZ
p2544
aVrotateX
p2545
aVrotateY
p2546
aVrotateZ
p2547
aVscaleX
p2548
aVscaleY
p2549
aVscaleZ
p2550
aaF0
aF0
aF0
aF0
aF0
aF0
aF1
aF1
aF1
aa(lp2551
Vweapon_bladeD_01_anim
p2552
a(lp2553
VtranslateX
p2554
aVtranslateY
p2555
aVtranslateZ
p2556
aVrotateX
p2557
aVrotateY
p2558
aVrotateZ
p2559
aVscaleX
p2560
aVscaleY
p2561
aVscaleZ
p2562
aaF4.2632564145606011e-14
aF0
aF7.1054273576010019e-15
aF2.0832633163586035e-13
aF1.9083328088781116e-14
aF-9.5416640443905156e-15
aF1
aF1
aF1
aa(lp2563
Vweapon_bladeE_01_anim
p2564
a(lp2565
VtranslateX
p2566
aVtranslateY
p2567
aVtranslateZ
p2568
aVrotateX
p2569
aVrotateY
p2570
aVrotateZ
p2571
aVscaleX
p2572
aVscaleY
p2573
aVscaleZ
p2574
aaF0
aF0
aF0
aF0
aF0
aF0
aF1
aF1
aF1
aa(lp2575
Vweapon_butt_dyn_anim
p2576
a(lp2577
VtranslateX
p2578
aVtranslateY
p2579
aVtranslateZ
p2580
aVrotateX
p2581
aVrotateY
p2582
aVrotateZ
p2583
aVchainAttach
p2584
aVchainStartEnvelope
p2585
aVchainStartFrame
p2586
aVchainStiffness
p2587
aVchainDamping
p2588
aVchainGravity
p2589
aVchainIteration
p2590
aVchainCollide
p2591
aVchainWidthBase
p2592
aVchainWidthExtremity
p2593
aVchainCollideGround
p2594
aVchainCollideGroundHeight
p2595
aaF0
aF0
aF0
aF0
aF0
aF0
aI1
aF1
aF1
aF0.10000000000000001
aF0.20000000000000001
aF1
aI1
aI00
aF1
aF1
aI00
aF0
aa(lp2596
Vweapon_butt_ik_2_anim
p2597
a(lp2598
VtranslateX
p2599
aVtranslateY
p2600
aVtranslateZ
p2601
aVrotateX
p2602
aVrotateY
p2603
aVrotateZ
p2604
aaF0
aF0
aF0
aF0
aF0
aF0
aa(lp2605
Vweapon_butt_ik_3_anim
p2606
a(lp2607
VtranslateX
p2608
aVtranslateY
p2609
aVtranslateZ
p2610
aVrotateX
p2611
aVrotateY
p2612
aVrotateZ
p2613
aaF0
aF0
aF0
aF0
aF0
aF0
aa(lp2614
Vweapon_butt_ik_4_anim
p2615
a(lp2616
VtranslateX
p2617
aVtranslateY
p2618
aVtranslateZ
p2619
aVrotateX
p2620
aVrotateY
p2621
aVrotateZ
p2622
aVclusterControlVis
p2623
aaF0
aF0
aF0
aF0
aF0
aF0
aI00
aa(lp2624
Vweapon_butt_ik_base_anim
p2625
a(lp2626
VtranslateX
p2627
aVtranslateY
p2628
aVtranslateZ
p2629
aVrotateX
p2630
aVrotateY
p2631
aVrotateZ
p2632
aVglobal_scale
p2633
aaF0
aF0
aF0
aF0
aF0
aF0
aF1
aa(lp2634
Vfk_weapon_butt_01_anim
p2635
a(lp2636
VtranslateX
p2637
aVtranslateY
p2638
aVtranslateZ
p2639
aVrotateX
p2640
aVrotateY
p2641
aVrotateZ
p2642
aVglobal_scale
p2643
aVlagMode
p2644
aaF0
aF0
aF0
aF0
aF0
aF0
aF1
aF0
aa(lp2645
Vweapon_butt_cv_0_anim
p2646
a(lp2647
VtranslateX
p2648
aVtranslateY
p2649
aVtranslateZ
p2650
aaF0
aF0
aF0
aa(lp2651
Vfk_weapon_butt_02_anim
p2652
a(lp2653
VtranslateX
p2654
aVtranslateY
p2655
aVtranslateZ
p2656
aVrotateX
p2657
aVrotateY
p2658
aVrotateZ
p2659
aaF0
aF0
aF0
aF0
aF0
aF0
aa(lp2660
Vweapon_butt_cv_1_anim
p2661
a(lp2662
VtranslateX
p2663
aVtranslateY
p2664
aVtranslateZ
p2665
aaF0
aF0
aF0
aa(lp2666
Vfk_weapon_butt_03_anim
p2667
a(lp2668
VtranslateX
p2669
aVtranslateY
p2670
aVtranslateZ
p2671
aVrotateX
p2672
aVrotateY
p2673
aVrotateZ
p2674
aaF0
aF0
aF0
aF0
aF0
aF0
aa(lp2675
Vweapon_butt_cv_2_anim
p2676
a(lp2677
VtranslateX
p2678
aVtranslateY
p2679
aVtranslateZ
p2680
aaF0
aF0
aF0
aa(lp2681
Vfk_weapon_butt_04_anim
p2682
a(lp2683
VtranslateX
p2684
aVtranslateY
p2685
aVtranslateZ
p2686
aVrotateX
p2687
aVrotateY
p2688
aVrotateZ
p2689
aaF0
aF0
aF0
aF0
aF0
aF0
aa(lp2690
Vweapon_butt_cv_3_anim
p2691
a(lp2692
VtranslateX
p2693
aVtranslateY
p2694
aVtranslateZ
p2695
aaF0
aF0
aF0
aa(lp2696
Vfk_weapon_butt_05_anim
p2697
a(lp2698
VtranslateX
p2699
aVtranslateY
p2700
aVtranslateZ
p2701
aVrotateX
p2702
aVrotateY
p2703
aVrotateZ
p2704
aaF0
aF0
aF0
aF0
aF0
aF0
aa(lp2705
Vweapon_butt_cv_4_anim
p2706
a(lp2707
VtranslateX
p2708
aVtranslateY
p2709
aVtranslateZ
p2710
aaF0
aF0
aF0
aa(lp2711
Vfk_weapon_butt_06_anim
p2712
a(lp2713
VtranslateX
p2714
aVtranslateY
p2715
aVtranslateZ
p2716
aVrotateX
p2717
aVrotateY
p2718
aVrotateZ
p2719
aaF0
aF0
aF0
aF0
aF0
aF0
aa(lp2720
Vweapon_butt_cv_5_anim
p2721
a(lp2722
VtranslateX
p2723
aVtranslateY
p2724
aVtranslateZ
p2725
aaF0
aF0
aF0
aa(lp2726
Vfk_weapon_butt_07_anim
p2727
a(lp2728
VtranslateX
p2729
aVtranslateY
p2730
aVtranslateZ
p2731
aVrotateX
p2732
aVrotateY
p2733
aVrotateZ
p2734
aaF0
aF0
aF0
aF0
aF0
aF0
aa(lp2735
Vweapon_butt_cv_6_anim
p2736
a(lp2737
VtranslateX
p2738
aVtranslateY
p2739
aVtranslateZ
p2740
aaF0
aF0
aF0
aa(lp2741
Vfk_weapon_butt_08_anim
p2742
a(lp2743
VtranslateX
p2744
aVtranslateY
p2745
aVtranslateZ
p2746
aVrotateX
p2747
aVrotateY
p2748
aVrotateZ
p2749
aaF0
aF0
aF0
aF0
aF0
aF0
aa(lp2750
Vweapon_butt_cv_7_anim
p2751
a(lp2752
VtranslateX
p2753
aVtranslateY
p2754
aVtranslateZ
p2755
aaF0
aF0
aF0
aa(lp2756
Vfk_weapon_butt_09_anim
p2757
a(lp2758
VtranslateX
p2759
aVtranslateY
p2760
aVtranslateZ
p2761
aVrotateX
p2762
aVrotateY
p2763
aVrotateZ
p2764
aaF0
aF0
aF0
aF0
aF0
aF0
aa(lp2765
Vweapon_butt_cv_8_anim
p2766
a(lp2767
VtranslateX
p2768
aVtranslateY
p2769
aVtranslateZ
p2770
aaF0
aF0
aF0
aa(lp2771
Vwrist_plate_r_anim
p2772
a(lp2773
VtranslateX
p2774
aVtranslateY
p2775
aVtranslateZ
p2776
aVrotateX
p2777
aVrotateY
p2778
aVrotateZ
p2779
aVscaleX
p2780
aVscaleY
p2781
aVscaleZ
p2782
aaF0
aF0
aF0
aF0
aF0
aF0
aF1
aF1
aF1
aa(lp2783
Vweapon_bladeD_02_anim
p2784
a(lp2785
VtranslateX
p2786
aVtranslateY
p2787
aVtranslateZ
p2788
aVrotateX
p2789
aVrotateY
p2790
aVrotateZ
p2791
aVscaleX
p2792
aVscaleY
p2793
aVscaleZ
p2794
aaF0
aF0
aF0
aF0
aF0
aF0
aF1
aF1
aF1
aa(lp2795
Vbody_anim_space_switcher
p2796
a(lp2797
Vvisibility
p2798
aVtranslateX
p2799
aVtranslateY
p2800
aVtranslateZ
p2801
aVrotateX
p2802
aVrotateY
p2803
aVrotateZ
p2804
aVscaleX
p2805
aVscaleY
p2806
aVscaleZ
p2807
aVspace_world
p2808
aaI01
aF0
aF0
aF0
aF0
aF0
aF0
aF1
aF1
aF1
aF0
aa(lp2809
Vbracelet_A_l_anim_space_switcher
p2810
a(lp2811
Vvisibility
p2812
aVtranslateX
p2813
aVtranslateY
p2814
aVtranslateZ
p2815
aVrotateX
p2816
aVrotateY
p2817
aVrotateZ
p2818
aVscaleX
p2819
aVscaleY
p2820
aVscaleZ
p2821
aVspace_world
p2822
aaI01
aF0
aF0
aF0
aF0
aF0
aF0
aF1
aF1
aF1
aF0
aa(lp2823
Vbracelet_B_l_anim_space_switcher
p2824
a(lp2825
Vvisibility
p2826
aVtranslateX
p2827
aVtranslateY
p2828
aVtranslateZ
p2829
aVrotateX
p2830
aVrotateY
p2831
aVrotateZ
p2832
aVscaleX
p2833
aVscaleY
p2834
aVscaleZ
p2835
aVspace_world
p2836
aaI01
aF0
aF0
aF0
aF0
aF0
aF0
aF1
aF1
aF1
aF0
aa(lp2837
Vbracelet_C_l_anim_space_switcher
p2838
a(lp2839
Vvisibility
p2840
aVtranslateX
p2841
aVtranslateY
p2842
aVtranslateZ
p2843
aVrotateX
p2844
aVrotateY
p2845
aVrotateZ
p2846
aVscaleX
p2847
aVscaleY
p2848
aVscaleZ
p2849
aVspace_world
p2850
aaI01
aF0
aF0
aF0
aF0
aF0
aF0
aF1
aF1
aF1
aF0
aa(lp2851
Vchest_ik_anim_space_switcher
p2852
a(lp2853
Vvisibility
p2854
aVtranslateX
p2855
aVtranslateY
p2856
aVtranslateZ
p2857
aVrotateX
p2858
aVrotateY
p2859
aVrotateZ
p2860
aVscaleX
p2861
aVscaleY
p2862
aVscaleZ
p2863
aVspace_world
p2864
aVspace_chest_ik_world_aligned
p2865
aaI01
aF0
aF0
aF-1.35552e-07
aF0
aF0
aF0
aF1
aF1
aF1
aF0
aF0
aa(lp2866
Veyeball_l_anim_space_switcher
p2867
a(lp2868
Vvisibility
p2869
aVtranslateX
p2870
aVtranslateY
p2871
aVtranslateZ
p2872
aVrotateX
p2873
aVrotateY
p2874
aVrotateZ
p2875
aVscaleX
p2876
aVscaleY
p2877
aVscaleZ
p2878
aVspace_world
p2879
aaI01
aF0
aF0
aF0
aF0
aF0
aF0
aF1
aF1
aF1
aF0
aa(lp2880
Veyeball_r_anim_space_switcher
p2881
a(lp2882
Vvisibility
p2883
aVtranslateX
p2884
aVtranslateY
p2885
aVtranslateZ
p2886
aVrotateX
p2887
aVrotateY
p2888
aVrotateZ
p2889
aVscaleX
p2890
aVscaleY
p2891
aVscaleZ
p2892
aVspace_world
p2893
aaI01
aF0
aF0
aF0
aF0
aF0
aF0
aF1
aF1
aF1
aF0
aa(lp2894
Veyebrow_in_l_anim_space_switcher
p2895
a(lp2896
Vvisibility
p2897
aVtranslateX
p2898
aVtranslateY
p2899
aVtranslateZ
p2900
aVrotateX
p2901
aVrotateY
p2902
aVrotateZ
p2903
aVscaleX
p2904
aVscaleY
p2905
aVscaleZ
p2906
aVspace_world
p2907
aaI01
aF0
aF0
aF0
aF0
aF0
aF0
aF1
aF1
aF1
aF0
aa(lp2908
Veyebrow_in_r_anim_space_switcher
p2909
a(lp2910
Vvisibility
p2911
aVtranslateX
p2912
aVtranslateY
p2913
aVtranslateZ
p2914
aVrotateX
p2915
aVrotateY
p2916
aVrotateZ
p2917
aVscaleX
p2918
aVscaleY
p2919
aVscaleZ
p2920
aVspace_world
p2921
aaI01
aF0
aF0
aF0
aF0
aF0
aF0
aF1
aF1
aF1
aF0
aa(lp2922
Veyebrow_out_l_anim_space_switcher
p2923
a(lp2924
Vvisibility
p2925
aVtranslateX
p2926
aVtranslateY
p2927
aVtranslateZ
p2928
aVrotateX
p2929
aVrotateY
p2930
aVrotateZ
p2931
aVscaleX
p2932
aVscaleY
p2933
aVscaleZ
p2934
aVspace_world
p2935
aaI01
aF0
aF0
aF0
aF0
aF0
aF0
aF1
aF1
aF1
aF0
aa(lp2936
Veyebrow_out_r_anim_space_switcher
p2937
a(lp2938
Vvisibility
p2939
aVtranslateX
p2940
aVtranslateY
p2941
aVtranslateZ
p2942
aVrotateX
p2943
aVrotateY
p2944
aVrotateZ
p2945
aVscaleX
p2946
aVscaleY
p2947
aVscaleZ
p2948
aVspace_world
p2949
aaI01
aF0
aF0
aF0
aF0
aF0
aF0
aF1
aF1
aF1
aF0
aa(lp2950
Veyelid_bott_l_anim_space_switcher
p2951
a(lp2952
Vvisibility
p2953
aVtranslateX
p2954
aVtranslateY
p2955
aVtranslateZ
p2956
aVrotateX
p2957
aVrotateY
p2958
aVrotateZ
p2959
aVscaleX
p2960
aVscaleY
p2961
aVscaleZ
p2962
aVspace_world
p2963
aaI01
aF0
aF0
aF0
aF0
aF0
aF0
aF1
aF1
aF1
aF0
aa(lp2964
Veyelid_bott_r_anim_space_switcher
p2965
a(lp2966
Vvisibility
p2967
aVtranslateX
p2968
aVtranslateY
p2969
aVtranslateZ
p2970
aVrotateX
p2971
aVrotateY
p2972
aVrotateZ
p2973
aVscaleX
p2974
aVscaleY
p2975
aVscaleZ
p2976
aVspace_world
p2977
aaI01
aF0
aF0
aF0
aF0
aF0
aF0
aF1
aF1
aF1
aF0
aa(lp2978
Veyelid_top_l_anim_space_switcher
p2979
a(lp2980
Vvisibility
p2981
aVtranslateX
p2982
aVtranslateY
p2983
aVtranslateZ
p2984
aVrotateX
p2985
aVrotateY
p2986
aVrotateZ
p2987
aVscaleX
p2988
aVscaleY
p2989
aVscaleZ
p2990
aVspace_world
p2991
aaI01
aF0
aF0
aF0
aF0
aF0
aF0
aF1
aF1
aF1
aF0
aa(lp2992
Veyelid_top_r_anim_space_switcher
p2993
a(lp2994
Vvisibility
p2995
aVtranslateX
p2996
aVtranslateY
p2997
aVtranslateZ
p2998
aVrotateX
p2999
aVrotateY
p3000
aVrotateZ
p3001
aVscaleX
p3002
aVscaleY
p3003
aVscaleZ
p3004
aVspace_world
p3005
aaI01
aF0
aF0
aF0
aF0
aF0
aF0
aF1
aF1
aF1
aF0
aa(lp3006
Vhip_back_flaps_anim_space_switcher
p3007
a(lp3008
Vvisibility
p3009
aVtranslateX
p3010
aVtranslateY
p3011
aVtranslateZ
p3012
aVrotateX
p3013
aVrotateY
p3014
aVrotateZ
p3015
aVscaleX
p3016
aVscaleY
p3017
aVscaleZ
p3018
aVspace_world
p3019
aaI01
aF0
aF0
aF0
aF0
aF0
aF0
aF1
aF1
aF1
aF0
aa(lp3020
Vik_elbow_l_anim_space_switcher
p3021
a(lp3022
Vvisibility
p3023
aVtranslateX
p3024
aVtranslateY
p3025
aVtranslateZ
p3026
aVrotateX
p3027
aVrotateY
p3028
aVrotateZ
p3029
aVscaleX
p3030
aVscaleY
p3031
aVscaleZ
p3032
aVspace_world
p3033
aVspace_body_anim
p3034
aVspace_chest_ik_anim
p3035
aaI01
aF-5.5530299999999996e-06
aF-8.2796600000000003e-06
aF0.000105695
aF0
aF0
aF0
aF1
aF1
aF1
aF0
aF0
aF0
aa(lp3036
Vik_elbow_r_anim_space_switcher
p3037
a(lp3038
Vvisibility
p3039
aVtranslateX
p3040
aVtranslateY
p3041
aVtranslateZ
p3042
aVrotateX
p3043
aVrotateY
p3044
aVrotateZ
p3045
aVscaleX
p3046
aVscaleY
p3047
aVscaleZ
p3048
aVspace_world
p3049
aVspace_body_anim
p3050
aVspace_chest_ik_anim
p3051
aaI01
aF-5.5530299999999996e-06
aF8.2796600000000003e-06
aF-0.000105695
aF0
aF0
aF0
aF1
aF1
aF1
aF0
aF0
aF0
aa(lp3052
Vik_foot_anim_l_space_switcher
p3053
a(lp3054
Vvisibility
p3055
aVtranslateX
p3056
aVtranslateY
p3057
aVtranslateZ
p3058
aVrotateX
p3059
aVrotateY
p3060
aVrotateZ
p3061
aVscaleX
p3062
aVscaleY
p3063
aVscaleZ
p3064
aVspace_world
p3065
aVspace_body_anim
p3066
aaI01
aF1.77957e-05
aF1.7388300000000001e-05
aF-0.000182055
aF0
aF0
aF0
aF1
aF1
aF1
aF0
aF0
aa(lp3067
Vik_foot_anim_r_space_switcher
p3068
a(lp3069
Vvisibility
p3070
aVtranslateX
p3071
aVtranslateY
p3072
aVtranslateZ
p3073
aVrotateX
p3074
aVrotateY
p3075
aVrotateZ
p3076
aVscaleX
p3077
aVscaleY
p3078
aVscaleZ
p3079
aVspace_world
p3080
aVspace_body_anim
p3081
aaI01
aF1.77957e-05
aF-1.7388300000000001e-05
aF0.000182055
aF0
aF0
aF0
aF1
aF1
aF1
aF0
aF0
aa(lp3082
Vik_wrist_l_anim_space_switcher
p3083
a(lp3084
Vvisibility
p3085
aVtranslateX
p3086
aVtranslateY
p3087
aVtranslateZ
p3088
aVrotateX
p3089
aVrotateY
p3090
aVrotateZ
p3091
aVscaleX
p3092
aVscaleY
p3093
aVscaleZ
p3094
aVspace_world
p3095
aVspace_body_anim
p3096
aVspace_head_fk_anim
p3097
aVspace_chest_ik_anim
p3098
aaI01
aF0
aF0
aF0
aF0
aF0
aF0
aF1
aF1
aF1
aF0
aF0
aF0
aF0
aa(lp3099
Vik_wrist_r_anim_space_switcher
p3100
a(lp3101
Vvisibility
p3102
aVtranslateX
p3103
aVtranslateY
p3104
aVtranslateZ
p3105
aVrotateX
p3106
aVrotateY
p3107
aVrotateZ
p3108
aVscaleX
p3109
aVscaleY
p3110
aVscaleZ
p3111
aVspace_world
p3112
aVspace_body_anim
p3113
aVspace_head_fk_anim
p3114
aVspace_chest_ik_anim
p3115
aaI01
aF0
aF0
aF0
aF0
aF0
aF0
aF1
aF1
aF1
aF0
aF0
aF0
aF0
aa(lp3116
Vjaw_anim_space_switcher
p3117
a(lp3118
Vvisibility
p3119
aVtranslateX
p3120
aVtranslateY
p3121
aVtranslateZ
p3122
aVrotateX
p3123
aVrotateY
p3124
aVrotateZ
p3125
aVscaleX
p3126
aVscaleY
p3127
aVscaleZ
p3128
aVspace_world
p3129
aaI01
aF0
aF0
aF0
aF0
aF0
aF0
aF1
aF1
aF1
aF0
aa(lp3130
Vl_global_ik_anim_space_switcher
p3131
a(lp3132
Vvisibility
p3133
aVtranslateX
p3134
aVtranslateY
p3135
aVtranslateZ
p3136
aVrotateX
p3137
aVrotateY
p3138
aVrotateZ
p3139
aVscaleX
p3140
aVscaleY
p3141
aVscaleZ
p3142
aVspace_world
p3143
aaI01
aF0
aF0
aF0
aF0
aF0
aF0
aF1
aF1
aF1
aF0
aa(lp3144
Vmaster_anim_space_switcher
p3145
a(lp3146
Vvisibility
p3147
aVtranslateX
p3148
aVtranslateY
p3149
aVtranslateZ
p3150
aVrotateX
p3151
aVrotateY
p3152
aVrotateZ
p3153
aVscaleX
p3154
aVscaleY
p3155
aVscaleZ
p3156
aVspace_world
p3157
aaI01
aF0
aF0
aF0
aF0
aF0
aF0
aF1
aF1
aF1
aF0
aa(lp3158
Vpipe_anim_space_switcher
p3159
a(lp3160
Vvisibility
p3161
aVtranslateX
p3162
aVtranslateY
p3163
aVtranslateZ
p3164
aVrotateX
p3165
aVrotateY
p3166
aVrotateZ
p3167
aVscaleX
p3168
aVscaleY
p3169
aVscaleZ
p3170
aVspace_world
p3171
aaI01
aF0
aF0
aF0
aF0
aF0
aF0
aF1
aF1
aF1
aF0
aa(lp3172
Vr_global_ik_anim_space_switcher
p3173
a(lp3174
Vvisibility
p3175
aVtranslateX
p3176
aVtranslateY
p3177
aVtranslateZ
p3178
aVrotateX
p3179
aVrotateY
p3180
aVrotateZ
p3181
aVscaleX
p3182
aVscaleY
p3183
aVscaleZ
p3184
aVspace_world
p3185
aaI01
aF0
aF0
aF0
aF0
aF0
aF0
aF1
aF1
aF1
aF0
aa(lp3186
Vshoulder_blade_in_r_anim_space_switcher
p3187
a(lp3188
Vvisibility
p3189
aVtranslateX
p3190
aVtranslateY
p3191
aVtranslateZ
p3192
aVrotateX
p3193
aVrotateY
p3194
aVrotateZ
p3195
aVscaleX
p3196
aVscaleY
p3197
aVscaleZ
p3198
aVspace_world
p3199
aaI01
aF0
aF0
aF0
aF0
aF0
aF0
aF1
aF1
aF1
aF0
aa(lp3200
Vshoulder_blade_mid_r_anim_space_switcher
p3201
a(lp3202
Vvisibility
p3203
aVtranslateX
p3204
aVtranslateY
p3205
aVtranslateZ
p3206
aVrotateX
p3207
aVrotateY
p3208
aVrotateZ
p3209
aVscaleX
p3210
aVscaleY
p3211
aVscaleZ
p3212
aVspace_world
p3213
aaI01
aF0
aF0
aF0
aF0
aF0
aF0
aF1
aF1
aF1
aF0
aa(lp3214
Vshoulder_blade_out_r_anim_space_switcher
p3215
a(lp3216
Vvisibility
p3217
aVtranslateX
p3218
aVtranslateY
p3219
aVtranslateZ
p3220
aVrotateX
p3221
aVrotateY
p3222
aVrotateZ
p3223
aVscaleX
p3224
aVscaleY
p3225
aVscaleZ
p3226
aVspace_world
p3227
aaI01
aF0
aF0
aF0
aF0
aF0
aF0
aF1
aF1
aF1
aF0
aa(lp3228
Vshoulder_cloth_01_l_anim_space_switcher
p3229
a(lp3230
Vvisibility
p3231
aVtranslateX
p3232
aVtranslateY
p3233
aVtranslateZ
p3234
aVrotateX
p3235
aVrotateY
p3236
aVrotateZ
p3237
aVscaleX
p3238
aVscaleY
p3239
aVscaleZ
p3240
aVspace_world
p3241
aaI01
aF0
aF0
aF0
aF0
aF0
aF0
aF1
aF1
aF1
aF0
aa(lp3242
Vshoulder_cloth_02_l_anim_space_switcher
p3243
a(lp3244
Vvisibility
p3245
aVtranslateX
p3246
aVtranslateY
p3247
aVtranslateZ
p3248
aVrotateX
p3249
aVrotateY
p3250
aVrotateZ
p3251
aVscaleX
p3252
aVscaleY
p3253
aVscaleZ
p3254
aVspace_world
p3255
aaI01
aF0
aF0
aF0
aF0
aF0
aF0
aF1
aF1
aF1
aF0
aa(lp3256
Vshoulder_pad_r_anim_space_switcher
p3257
a(lp3258
Vvisibility
p3259
aVtranslateX
p3260
aVtranslateY
p3261
aVtranslateZ
p3262
aVrotateX
p3263
aVrotateY
p3264
aVrotateZ
p3265
aVscaleX
p3266
aVscaleY
p3267
aVscaleZ
p3268
aVspace_world
p3269
aaI01
aF0
aF0
aF0
aF0
aF0
aF0
aF1
aF1
aF1
aF0
aa(lp3270
Vspine_01_space_switcher
p3271
a(lp3272
Vvisibility
p3273
aVtranslateX
p3274
aVtranslateY
p3275
aVtranslateZ
p3276
aVrotateX
p3277
aVrotateY
p3278
aVrotateZ
p3279
aVscaleX
p3280
aVscaleY
p3281
aVscaleZ
p3282
aVspace_world
p3283
aaI01
aF0
aF0
aF0
aF0
aF0
aF0
aF1
aF1
aF1
aF0
aa(lp3284
Vweapon_anim_space_switcher
p3285
a(lp3286
Vvisibility
p3287
aVtranslateX
p3288
aVtranslateY
p3289
aVtranslateZ
p3290
aVrotateX
p3291
aVrotateY
p3292
aVrotateZ
p3293
aVscaleX
p3294
aVscaleY
p3295
aVscaleZ
p3296
aVspace_world
p3297
aaI01
aF0
aF0
aF0
aF0
aF0
aF0
aF1
aF1
aF1
aF0
aa(lp3298
Vweapon_bladeA_01_anim_space_switcher
p3299
a(lp3300
Vvisibility
p3301
aVtranslateX
p3302
aVtranslateY
p3303
aVtranslateZ
p3304
aVrotateX
p3305
aVrotateY
p3306
aVrotateZ
p3307
aVscaleX
p3308
aVscaleY
p3309
aVscaleZ
p3310
aVspace_world
p3311
aVspace_weapon_blades_master_anim
p3312
aaI01
aF0
aF0
aF0
aF0
aF0
aF0
aF1
aF1
aF1
aF0
aF0
aa(lp3313
Vweapon_bladeA_02_anim_space_switcher
p3314
a(lp3315
Vvisibility
p3316
aVtranslateX
p3317
aVtranslateY
p3318
aVtranslateZ
p3319
aVrotateX
p3320
aVrotateY
p3321
aVrotateZ
p3322
aVscaleX
p3323
aVscaleY
p3324
aVscaleZ
p3325
aVspace_world
p3326
aaI01
aF0
aF0
aF0
aF0
aF0
aF0
aF1
aF1
aF1
aF0
aa(lp3327
Vweapon_bladeA_03_anim_space_switcher
p3328
a(lp3329
Vvisibility
p3330
aVtranslateX
p3331
aVtranslateY
p3332
aVtranslateZ
p3333
aVrotateX
p3334
aVrotateY
p3335
aVrotateZ
p3336
aVscaleX
p3337
aVscaleY
p3338
aVscaleZ
p3339
aVspace_world
p3340
aaI01
aF0
aF0
aF0
aF0
aF0
aF0
aF1
aF1
aF1
aF0
aa(lp3341
Vweapon_bladeA_04_anim_space_switcher
p3342
a(lp3343
Vvisibility
p3344
aVtranslateX
p3345
aVtranslateY
p3346
aVtranslateZ
p3347
aVrotateX
p3348
aVrotateY
p3349
aVrotateZ
p3350
aVscaleX
p3351
aVscaleY
p3352
aVscaleZ
p3353
aVspace_world
p3354
aaI01
aF0
aF0
aF0
aF0
aF0
aF0
aF1
aF1
aF1
aF0
aa(lp3355
Vweapon_bladeA_05_anim_space_switcher
p3356
a(lp3357
Vvisibility
p3358
aVtranslateX
p3359
aVtranslateY
p3360
aVtranslateZ
p3361
aVrotateX
p3362
aVrotateY
p3363
aVrotateZ
p3364
aVscaleX
p3365
aVscaleY
p3366
aVscaleZ
p3367
aVspace_world
p3368
aaI01
aF0
aF0
aF0
aF0
aF0
aF0
aF1
aF1
aF1
aF0
aa(lp3369
Vweapon_bladeB_01_anim_space_switcher
p3370
a(lp3371
Vvisibility
p3372
aVtranslateX
p3373
aVtranslateY
p3374
aVtranslateZ
p3375
aVrotateX
p3376
aVrotateY
p3377
aVrotateZ
p3378
aVscaleX
p3379
aVscaleY
p3380
aVscaleZ
p3381
aVspace_world
p3382
aVspace_weapon_blades_master_anim
p3383
aaI01
aF0
aF0
aF0
aF0
aF0
aF0
aF1
aF1
aF1
aF0
aF0
aa(lp3384
Vweapon_bladeB_02_anim_space_switcher
p3385
a(lp3386
Vvisibility
p3387
aVtranslateX
p3388
aVtranslateY
p3389
aVtranslateZ
p3390
aVrotateX
p3391
aVrotateY
p3392
aVrotateZ
p3393
aVscaleX
p3394
aVscaleY
p3395
aVscaleZ
p3396
aVspace_world
p3397
aaI01
aF0
aF0
aF0
aF0
aF0
aF0
aF1
aF1
aF1
aF0
aa(lp3398
Vweapon_bladeB_03_anim_space_switcher
p3399
a(lp3400
Vvisibility
p3401
aVtranslateX
p3402
aVtranslateY
p3403
aVtranslateZ
p3404
aVrotateX
p3405
aVrotateY
p3406
aVrotateZ
p3407
aVscaleX
p3408
aVscaleY
p3409
aVscaleZ
p3410
aVspace_world
p3411
aaI01
aF0
aF0
aF0
aF0
aF0
aF0
aF1
aF1
aF1
aF0
aa(lp3412
Vweapon_bladeB_04_anim_space_switcher
p3413
a(lp3414
Vvisibility
p3415
aVtranslateX
p3416
aVtranslateY
p3417
aVtranslateZ
p3418
aVrotateX
p3419
aVrotateY
p3420
aVrotateZ
p3421
aVscaleX
p3422
aVscaleY
p3423
aVscaleZ
p3424
aVspace_world
p3425
aaI01
aF0
aF0
aF0
aF0
aF0
aF0
aF1
aF1
aF1
aF0
aa(lp3426
Vweapon_bladeB_05_anim_space_switcher
p3427
a(lp3428
Vvisibility
p3429
aVtranslateX
p3430
aVtranslateY
p3431
aVtranslateZ
p3432
aVrotateX
p3433
aVrotateY
p3434
aVrotateZ
p3435
aVscaleX
p3436
aVscaleY
p3437
aVscaleZ
p3438
aVspace_world
p3439
aaI01
aF0
aF0
aF0
aF0
aF0
aF0
aF1
aF1
aF1
aF0
aa(lp3440
Vweapon_bladeC_01_anim_space_switcher
p3441
a(lp3442
Vvisibility
p3443
aVtranslateX
p3444
aVtranslateY
p3445
aVtranslateZ
p3446
aVrotateX
p3447
aVrotateY
p3448
aVrotateZ
p3449
aVscaleX
p3450
aVscaleY
p3451
aVscaleZ
p3452
aVspace_world
p3453
aVspace_weapon_blades_master_anim
p3454
aaI01
aF0
aF0
aF0
aF0
aF0
aF0
aF1
aF1
aF1
aF0
aF0
aa(lp3455
Vweapon_bladeC_02_anim_space_switcher
p3456
a(lp3457
Vvisibility
p3458
aVtranslateX
p3459
aVtranslateY
p3460
aVtranslateZ
p3461
aVrotateX
p3462
aVrotateY
p3463
aVrotateZ
p3464
aVscaleX
p3465
aVscaleY
p3466
aVscaleZ
p3467
aVspace_world
p3468
aaI01
aF0
aF0
aF0
aF0
aF0
aF0
aF1
aF1
aF1
aF0
aa(lp3469
Vweapon_bladeC_03_anim_space_switcher
p3470
a(lp3471
Vvisibility
p3472
aVtranslateX
p3473
aVtranslateY
p3474
aVtranslateZ
p3475
aVrotateX
p3476
aVrotateY
p3477
aVrotateZ
p3478
aVscaleX
p3479
aVscaleY
p3480
aVscaleZ
p3481
aVspace_world
p3482
aaI01
aF0
aF0
aF0
aF0
aF0
aF0
aF1
aF1
aF1
aF0
aa(lp3483
Vweapon_bladeD_01_anim_space_switcher
p3484
a(lp3485
Vvisibility
p3486
aVtranslateX
p3487
aVtranslateY
p3488
aVtranslateZ
p3489
aVrotateX
p3490
aVrotateY
p3491
aVrotateZ
p3492
aVscaleX
p3493
aVscaleY
p3494
aVscaleZ
p3495
aVspace_world
p3496
aVspace_weapon_blades_master_anim
p3497
aaI01
aF0
aF0
aF0
aF0
aF0
aF0
aF1
aF1
aF1
aF0
aF0
aa(lp3498
Vweapon_bladeD_02_anim_space_switcher
p3499
a(lp3500
Vvisibility
p3501
aVtranslateX
p3502
aVtranslateY
p3503
aVtranslateZ
p3504
aVrotateX
p3505
aVrotateY
p3506
aVrotateZ
p3507
aVscaleX
p3508
aVscaleY
p3509
aVscaleZ
p3510
aVspace_world
p3511
aaI01
aF0
aF0
aF0
aF0
aF0
aF0
aF1
aF1
aF1
aF0
aa(lp3512
Vweapon_bladeE_01_anim_space_switcher
p3513
a(lp3514
Vvisibility
p3515
aVtranslateX
p3516
aVtranslateY
p3517
aVtranslateZ
p3518
aVrotateX
p3519
aVrotateY
p3520
aVrotateZ
p3521
aVscaleX
p3522
aVscaleY
p3523
aVscaleZ
p3524
aVspace_world
p3525
aaI01
aF0
aF0
aF0
aF0
aF0
aF0
aF1
aF1
aF1
aF0
aa(lp3526
Vwrist_plate_r_anim_space_switcher
p3527
a(lp3528
Vvisibility
p3529
aVtranslateX
p3530
aVtranslateY
p3531
aVtranslateZ
p3532
aVrotateX
p3533
aVrotateY
p3534
aVrotateZ
p3535
aVscaleX
p3536
aVscaleY
p3537
aVscaleZ
p3538
aVspace_world
p3539
aaI01
aF0
aF0
aF0
aF0
aF0
aF0
aF1
aF1
aF1
aF0
aa.