(lp1
(lp2
Vshoulder_pad_r_anim
p3
a(lp4
VtranslateX
p5
aVtranslateY
p6
aVtranslateZ
p7
aVrotateX
p8
aVrotateY
p9
aVrotateZ
p10
aVscaleX
p11
aVscaleY
p12
aVscaleZ
p13
aaF-5.1201573601758215
aF-2.4944665199118745
aF8.5918446253983589
aF-3.1139272938564653
aF-26.131988386450814
aF4.3256417366023543
aF1
aF1
aF1
aa.