(lp1
(lp2
S'fk_clavicle_r_anim'
p3
a(lp4
VtranslateX
p5
aVtranslateY
p6
aVtranslateZ
p7
aVrotateX
p8
aVrotateY
p9
aVrotateZ
p10
aaF0
aF0
aF0
aF0
aF-0
aF0
aa(lp11
S'fk_clavicle_l_anim'
p12
a(lp13
VtranslateX
p14
aVtranslateY
p15
aVtranslateZ
p16
aVrotateX
p17
aVrotateY
p18
aVrotateZ
p19
aaF0
aF0
aF0
aF0
aF-0
aF0
aa(lp20
S'head_fk_anim'
p21
a(lp22
VtranslateX
p23
aVtranslateY
p24
aVtranslateZ
p25
aVrotateX
p26
aVrotateY
p27
aVrotateZ
p28
aVscaleX
p29
aVscaleY
p30
aVscaleZ
p31
aVfkOrientation
p32
aaF0
aF0
aF0
aF-30.372477690449248
aF-0.036512562139468296
aF-3.1845158924432289
aF1
aF1
aF1
aI0
aa(lp33
S'neck_01_fk_anim'
p34
a(lp35
VtranslateX
p36
aVtranslateY
p37
aVtranslateZ
p38
aVrotateX
p39
aVrotateY
p40
aVrotateZ
p41
aVscaleX
p42
aVscaleY
p43
aVscaleZ
p44
aVfkOrientation
p45
aaF0
aF0
aF0
aF-6.7207039143932423
aF-10.554065650376486
aF-17.866545608063678
aF0.99999999999999967
aF0.99999999999999967
aF1
aI0
aa(lp46
S'neck_02_fk_anim'
p47
a(lp48
VtranslateX
p49
aVtranslateY
p50
aVtranslateZ
p51
aVrotateX
p52
aVrotateY
p53
aVrotateZ
p54
aVscaleX
p55
aVscaleY
p56
aVscaleZ
p57
aaF0
aF0
aF0
aF-0
aF0
aF-0
aF1
aF1
aF1
aa(lp58
S'spine_01_anim'
p59
a(lp60
Vlength
p61
aVtranslateY
p62
aVtranslateZ
p63
aVrotateX
p64
aVrotateY
p65
aVrotateZ
p66
aaF0
aF0
aF0
aF4.7739830238980856
aF1.8585584566142506
aF-5.4378739602035768
aa(lp67
S'spine_02_anim'
p68
a(lp69
Vlength
p70
aVtranslateY
p71
aVtranslateZ
p72
aVrotateX
p73
aVrotateY
p74
aVrotateZ
p75
aaF0
aF0
aF0
aF4.8785708237086638
aF3.4585631912037793
aF-5.2577020165692154
aa(lp76
S'spine_03_anim'
p77
a(lp78
Vlength
p79
aVtranslateY
p80
aVtranslateZ
p81
aVrotateX
p82
aVrotateY
p83
aVrotateZ
p84
aaF0
aF0
aF0
aF4.7464071602293405
aF3.8369768382813314
aF2.8974446626946331
aa(lp85
S'mid_ik_anim'
p86
a(lp87
VtranslateX
p88
aVtranslateY
p89
aVtranslateZ
p90
aVrotateX
p91
aVrotateY
p92
aVrotateZ
p93
aaF1.2544230085472867
aF-1.2660223062650633
aF-0.70976951360140828
aF8.9952629125096113
aF6.4865141214831601
aF-1.3827567943156078
aa(lp94
S'chest_ik_anim'
p95
a(lp96
VtranslateX
p97
aVtranslateY
p98
aVtranslateZ
p99
aVrotateX
p100
aVrotateY
p101
aVrotateZ
p102
aVstretch
p103
aVsquash
p104
aVtwist_amount
p105
aVautoSpine
p106
aVrotationInfluence
p107
aaF0.3257510562044954
aF-4.2816319267501806
aF-2.5111871272432627
aF13.905333197687032
aF10.177920938563743
aF0.87962032054553729
aF0
aF0
aF1
aF0
aF0.25
aa(lp108
S'body_anim'
p109
a(lp110
VtranslateX
p111
aVtranslateY
p112
aVtranslateZ
p113
aVrotateX
p114
aVrotateY
p115
aVrotateZ
p116
aaF-19.262170717691014
aF-1.1758972349470442
aF11.531379980089065
aF121.4293854452124
aF1.4728594782778346
aF-1.9798731449544364
aa(lp117
S'hip_anim'
p118
a(lp119
VtranslateX
p120
aVtranslateY
p121
aVtranslateZ
p122
aVrotateX
p123
aVrotateY
p124
aVrotateZ
p125
aVlCalfTwistCtrlVis
p126
aVrCalfTwistCtrlVis
p127
aVautoHips
p128
aaF-1.4210854715202004e-14
aF0
aF0
aF0
aF0
aF0
aI00
aI00
aF0
aa(lp129
S'clavicle_l_anim'
p130
a(lp131
VtranslateX
p132
aVtranslateY
p133
aVtranslateZ
p134
aVautoShoulders
p135
aaF1.8011232960723607
aF-8.9433826283892941
aF1.4374313245713186
aF0
aa(lp136
S'clavicle_r_anim'
p137
a(lp138
VtranslateX
p139
aVtranslateY
p140
aVtranslateZ
p141
aVautoShoulders
p142
aaF-1.7574987484803473
aF-10.478473130301285
aF2.026901460745318
aF0
aa(lp143
S'fk_arm_l_anim'
p144
a(lp145
VtranslateX
p146
aVtranslateY
p147
aVtranslateZ
p148
aVrotateX
p149
aVrotateY
p150
aVrotateZ
p151
aaF0
aF0
aF0
aF-68.705897561567895
aF66.285247519853272
aF-99.631635499692806
aa(lp152
S'fk_arm_r_anim'
p153
a(lp154
VtranslateX
p155
aVtranslateY
p156
aVtranslateZ
p157
aVrotateX
p158
aVrotateY
p159
aVrotateZ
p160
aaF0
aF0
aF0
aF6.5822199116895819
aF1.272369501724556
aF-113.37939524108857
aa(lp161
S'fk_elbow_l_anim'
p162
a(lp163
VtranslateX
p164
aVtranslateY
p165
aVtranslateZ
p166
aVrotateX
p167
aVrotateY
p168
aVrotateZ
p169
aaF0
aF0
aF0
aF0
aF2.2813896976003889e-06
aF-96.889730769750912
aa(lp170
S'fk_elbow_r_anim'
p171
a(lp172
VtranslateX
p173
aVtranslateY
p174
aVtranslateZ
p175
aVrotateX
p176
aVrotateY
p177
aVrotateZ
p178
aaF0
aF0
aF0
aF0
aF7.5394338637124761e-05
aF-68.05969866186966
aa(lp179
S'fk_wrist_l_anim'
p180
a(lp181
VtranslateX
p182
aVtranslateY
p183
aVtranslateZ
p184
aVrotateX
p185
aVrotateY
p186
aVrotateZ
p187
aaF0
aF0
aF0
aF10.464466227420695
aF17.396677132798548
aF-30.399350853140561
aa(lp188
S'fk_wrist_r_anim'
p189
a(lp190
VtranslateX
p191
aVtranslateY
p192
aVtranslateZ
p193
aVrotateX
p194
aVrotateY
p195
aVrotateZ
p196
aaF0
aF0
aF0
aF24.606678468086859
aF14.304697734595079
aF-15.004641981696949
aa(lp197
S'ik_elbow_l_anim'
p198
a(lp199
VtranslateX
p200
aVtranslateY
p201
aVtranslateZ
p202
aaF-62.456895978721043
aF-0.47754475852444833
aF-52.471573230163763
aa(lp203
S'ik_elbow_r_anim'
p204
a(lp205
VtranslateX
p206
aVtranslateY
p207
aVtranslateZ
p208
aaF67.111338612863491
aF2.6920423405474074
aF-17.834595464002792
aa(lp209
S'ik_wrist_l_anim'
p210
a(lp211
VtranslateX
p212
aVtranslateY
p213
aVtranslateZ
p214
aVrotateX
p215
aVrotateY
p216
aVrotateZ
p217
aVstretch
p218
aVsquash
p219
aVstretchBias
p220
aVside
p221
aVmid_bend
p222
aVmid_swivel
p223
aVtip_pivot
p224
aVtip_swivel
p225
aVspace_weapon_anim
p226
aaF-58.847148238839971
aF24.031194136009169
aF-30.340397219659906
aF180.63290217207918
aF-3.3260710544358085
aF86.762140230133696
aF0
aF0
aF0
aF0.70669632253607384
aF31.000000000000007
aF-23.900000000000002
aF0
aF0
aF0
aa(lp227
S'ik_wrist_r_anim'
p228
a(lp229
VtranslateX
p230
aVtranslateY
p231
aVtranslateZ
p232
aVrotateX
p233
aVrotateY
p234
aVrotateZ
p235
aVstretch
p236
aVsquash
p237
aVstretchBias
p238
aVside
p239
aVmid_bend
p240
aVmid_swivel
p241
aVtip_pivot
p242
aVtip_swivel
p243
aVspace_weapon_anim
p244
aaF91.773945161550799
aF33.05760401154857
aF-22.649522729748981
aF-351.13333190697188
aF12.175630661854852
aF-47.476987972218382
aF0
aF0
aF0
aF0
aF0
aF12.700000000000001
aF4.7000000000000002
aF0
aF0
aa(lp245
S'fk_thigh_l_anim'
p246
a(lp247
VrotateX
p248
aVrotateY
p249
aVrotateZ
p250
aaF8.3346870586287487
aF-20.940525948591912
aF45.393038528081064
aa(lp251
S'fk_thigh_r_anim'
p252
a(lp253
VrotateX
p254
aVrotateY
p255
aVrotateZ
p256
aaF17.523315546867451
aF-30.167230991897053
aF-5.6649683520594492
aa(lp257
S'fk_calf_l_anim'
p258
a(lp259
VrotateX
p260
aVrotateY
p261
aVrotateZ
p262
aaF-0.00033259231140406772
aF-0.021308474928306401
aF-60.303076550464823
aa(lp263
S'fk_calf_r_anim'
p264
a(lp265
VrotateX
p266
aVrotateY
p267
aVrotateZ
p268
aaF0.010092156623898053
aF-0.023919126131789287
aF-34.013321763158508
aa(lp269
S'fk_foot_l_anim'
p270
a(lp271
VrotateX
p272
aVrotateY
p273
aVrotateZ
p274
aaF4.3048859680127851
aF6.7654670845284306
aF11.934037948276055
aa(lp275
S'fk_foot_r_anim'
p276
a(lp277
VrotateX
p278
aVrotateY
p279
aVrotateZ
p280
aaF67.175768125260376
aF26.482625656954628
aF8.7831774426630442
aa(lp281
S'fk_ball_l_anim'
p282
a(lp283
VrotateX
p284
aVrotateY
p285
aVrotateZ
p286
aaF0
aF0
aF0
aa(lp287
S'fk_ball_r_anim'
p288
a(lp289
VrotateX
p290
aVrotateY
p291
aVrotateZ
p292
aaF0
aF0
aF0
aa(lp293
S'ik_foot_anim_l'
p294
a(lp295
VtranslateX
p296
aVtranslateY
p297
aVtranslateZ
p298
aVrotateX
p299
aVrotateY
p300
aVrotateZ
p301
aVknee_twist
p302
aVstretch
p303
aVsquash
p304
aVtoeCtrlVis
p305
aVstretchBias
p306
aaF-41.051474809866406
aF28.243479493040759
aF0.52937825926119286
aF0.096686489210367335
aF-1.3469193700191211
aF-156.07018018246285
aF-172.89327497014571
aF0
aF0
aI00
aF0
aa(lp307
S'ik_foot_anim_r'
p308
a(lp309
VtranslateX
p310
aVtranslateY
p311
aVtranslateZ
p312
aVrotateX
p313
aVrotateY
p314
aVrotateZ
p315
aVknee_twist
p316
aVstretch
p317
aVsquash
p318
aVtoeCtrlVis
p319
aVstretchBias
p320
aaF2.4344750047749528
aF-80.734033196618483
aF10.030856060493623
aF35.858053728286762
aF33.852064535358288
aF100.62158299960505
aF-104.97413520793697
aF0
aF0
aI00
aF0
aa(lp321
S'heel_ctrl_l'
p322
a(lp323
VrotateX
p324
aVrotateY
p325
aVrotateZ
p326
aVheelPivot
p327
aVballPivot
p328
aaF0
aF-0
aF0
aF0
aF0
aa(lp329
S'heel_ctrl_r'
p330
a(lp331
VrotateX
p332
aVrotateY
p333
aVrotateZ
p334
aVheelPivot
p335
aVballPivot
p336
aaF0
aF0
aF0
aF0
aF0
aa(lp337
S'toe_wiggle_ctrl_l'
p338
a(lp339
VrotateX
p340
aVrotateY
p341
aVrotateZ
p342
aaF-3.1774486710324002e-15
aF2.348920388532016e-17
aF3.1805546814635168e-15
aa(lp343
S'toe_wiggle_ctrl_r'
p344
a(lp345
VrotateX
p346
aVrotateY
p347
aVrotateZ
p348
aaF6.3611093629270335e-15
aF6.7943978180678134e-19
aF-5.9635400277440928e-15
aa(lp349
S'toe_tip_ctrl_l'
p350
a(lp351
VrotateX
p352
aVrotateY
p353
aVrotateZ
p354
aaF0
aF-2.2130324321706593e-17
aF3.5781240166464568e-15
aa(lp355
S'toe_tip_ctrl_r'
p356
a(lp357
VrotateX
p358
aVrotateY
p359
aVrotateZ
p360
aaF0
aF-6.3657683785737075e-15
aF-6.361109362927032e-15
aa(lp361
S'master_anim'
p362
a(lp363
VtranslateX
p364
aVtranslateY
p365
aVtranslateZ
p366
aVrotateX
p367
aVrotateY
p368
aVrotateZ
p369
aaF0
aF0
aF0
aF0
aF-0
aF0
aa(lp370
S'offset_anim'
p371
a(lp372
VtranslateX
p373
aVtranslateY
p374
aVtranslateZ
p375
aVrotateX
p376
aVrotateY
p377
aVrotateZ
p378
aaF0
aF0
aF0
aF0
aF-0
aF0
aa(lp379
S'root_anim'
p380
a(lp381
VtranslateX
p382
aVtranslateY
p383
aVtranslateZ
p384
aVrotateX
p385
aVrotateY
p386
aVrotateZ
p387
aaF0
aF0
aF0
aF0
aF-0
aF0
aa(lp388
S'upperarm_l_twist_anim'
p389
a(lp390
VtranslateX
p391
aVtranslateY
p392
aVtranslateZ
p393
aVrotateX
p394
aVrotateY
p395
aVrotateZ
p396
aVscaleX
p397
aVscaleY
p398
aVscaleZ
p399
aaF0
aF0
aF0
aF0
aF-0
aF0
aF1
aF1
aF1
aa(lp400
S'upperarm_l_twist_2_anim'
p401
a(lp402
VtranslateX
p403
aVtranslateY
p404
aVtranslateZ
p405
aVrotateX
p406
aVrotateY
p407
aVrotateZ
p408
aVscaleX
p409
aVscaleY
p410
aVscaleZ
p411
aaF0
aF0
aF0
aF0
aF-0
aF0
aF1
aF1
aF1
aa(lp412
S'upperarm_r_twist_anim'
p413
a(lp414
VtranslateX
p415
aVtranslateY
p416
aVtranslateZ
p417
aVrotateX
p418
aVrotateY
p419
aVrotateZ
p420
aVscaleX
p421
aVscaleY
p422
aVscaleZ
p423
aaF0
aF-1.7763568394002505e-15
aF0
aF-2.4265706493099347e-20
aF1.2132853246549673e-20
aF2.5894966365478809e-21
aF0.99999999999999989
aF0.99999999999999989
aF0.99999999999999989
aa(lp424
S'upperarm_r_twist_2_anim'
p425
a(lp426
VtranslateX
p427
aVtranslateY
p428
aVtranslateZ
p429
aVrotateX
p430
aVrotateY
p431
aVrotateZ
p432
aVscaleX
p433
aVscaleY
p434
aVscaleZ
p435
aaF7.1054273576010019e-15
aF0
aF0
aF-2.4265706493099347e-20
aF1.2132853246549673e-20
aF2.5894966365478809e-21
aF0.99999999999999989
aF0.99999999999999989
aF0.99999999999999989
aa(lp436
S'lowerarm_l_twist_anim'
p437
a(lp438
VtranslateX
p439
aVtranslateY
p440
aVtranslateZ
p441
aVrotateX
p442
aVrotateY
p443
aVrotateZ
p444
aaF0
aF0
aF0
aF0
aF-0
aF0
aa(lp445
S'lowerarm_r_twist_anim'
p446
a(lp447
VtranslateX
p448
aVtranslateY
p449
aVtranslateZ
p450
aVrotateX
p451
aVrotateY
p452
aVrotateZ
p453
aaF0
aF0
aF0
aF0
aF-0
aF0
aa(lp454
S'l_thigh_twist_01_anim'
p455
a(lp456
VtranslateX
p457
aVtranslateY
p458
aVtranslateZ
p459
aVrotateX
p460
aVrotateY
p461
aVrotateZ
p462
aVscaleX
p463
aVscaleY
p464
aVscaleZ
p465
aaF0
aF8.8817841970012523e-16
aF0
aF-4.9696166897867449e-17
aF1.5902773407317588e-15
aF1.9878466759146985e-16
aF0.99999999999999989
aF1
aF0.99999999999999989
aa(lp466
S'r_thigh_twist_01_anim'
p467
a(lp468
VtranslateX
p469
aVtranslateY
p470
aVtranslateZ
p471
aVrotateX
p472
aVrotateY
p473
aVrotateZ
p474
aVscaleX
p475
aVscaleY
p476
aVscaleZ
p477
aaF0
aF0
aF3.5527136788005009e-15
aF-2.3555983109589172e-14
aF7.9513867036587919e-16
aF0
aF1
aF1
aF1
aa(lp478
S'pinky_finger_fk_ctrl_1_l'
p479
a(lp480
VtranslateX
p481
aVtranslateY
p482
aVtranslateZ
p483
aVrotateX
p484
aVrotateY
p485
aVrotateZ
p486
aVsticky
p487
aaF-0.28448754866970072
aF0.19948691675394606
aF-0.88082772337635151
aF5.122677236081401
aF7.2540835970798661
aF35.376903908316763
aF0
aa(lp488
S'pinky_finger_fk_ctrl_1_r'
p489
a(lp490
VtranslateX
p491
aVtranslateY
p492
aVtranslateZ
p493
aVrotateX
p494
aVrotateY
p495
aVrotateZ
p496
aVsticky
p497
aaF0
aF0
aF0
aF-0.0013304417769890707
aF-0.00045421005030458068
aF46.123269863759724
aF0
aa(lp498
S'pinky_finger_fk_ctrl_2_l'
p499
a(lp500
VtranslateX
p501
aVtranslateY
p502
aVtranslateZ
p503
aVrotateX
p504
aVrotateY
p505
aVrotateZ
p506
aaF0
aF0
aF0
aF-1.3648337172457701e-06
aF-0
aF55.867673741451696
aa(lp507
S'pinky_finger_fk_ctrl_2_r'
p508
a(lp509
VtranslateX
p510
aVtranslateY
p511
aVtranslateZ
p512
aVrotateX
p513
aVrotateY
p514
aVrotateZ
p515
aaF0
aF0
aF0
aF0.21761157645444287
aF0.68318271528504415
aF46.974178294221609
aa(lp516
S'pinky_finger_fk_ctrl_3_l'
p517
a(lp518
VtranslateX
p519
aVtranslateY
p520
aVtranslateZ
p521
aVrotateX
p522
aVrotateY
p523
aVrotateZ
p524
aaF0
aF0
aF0
aF1.3764308046476967e-06
aF9.4787915988669323e-23
aF49.774601852955406
aa(lp525
S'pinky_finger_fk_ctrl_3_r'
p526
a(lp527
VtranslateX
p528
aVtranslateY
p529
aVtranslateZ
p530
aVrotateX
p531
aVrotateY
p532
aVrotateZ
p533
aaF0
aF0
aF0
aF0.22706965757758885
aF0.68009776684965673
aF47.769080064506362
aa(lp534
S'ring_finger_fk_ctrl_1_l'
p535
a(lp536
VtranslateX
p537
aVtranslateY
p538
aVtranslateZ
p539
aVrotateX
p540
aVrotateY
p541
aVrotateZ
p542
aVsticky
p543
aaF0
aF0
aF0
aF3.1380347045453343
aF7.9408963810831068
aF54.862468924375989
aF0
aa(lp544
S'ring_finger_fk_ctrl_1_r'
p545
a(lp546
VtranslateX
p547
aVtranslateY
p548
aVtranslateZ
p549
aVrotateX
p550
aVrotateY
p551
aVrotateZ
p552
aVsticky
p553
aaF0
aF0
aF0
aF-0.0013680467048598779
aF-0.0003917200694229481
aF54.2220868507966
aF0
aa(lp554
S'ring_finger_fk_ctrl_2_l'
p555
a(lp556
VtranslateX
p557
aVtranslateY
p558
aVtranslateZ
p559
aVrotateX
p560
aVrotateY
p561
aVrotateZ
p562
aaF0
aF0
aF0
aF0
aF-0
aF54.736663769749136
aa(lp563
S'ring_finger_fk_ctrl_2_r'
p564
a(lp565
VtranslateX
p566
aVtranslateY
p567
aVtranslateZ
p568
aVrotateX
p569
aVrotateY
p570
aVrotateZ
p571
aaF0
aF0
aF0
aF0.20133535966839183
aF0.68815492616615503
aF45.614028024812768
aa(lp572
S'ring_finger_fk_ctrl_3_l'
p573
a(lp574
VtranslateX
p575
aVtranslateY
p576
aVtranslateZ
p577
aVrotateX
p578
aVrotateY
p579
aVrotateZ
p580
aaF0
aF0
aF0
aF0
aF-0
aF57.46028619428624
aa(lp581
S'ring_finger_fk_ctrl_3_r'
p582
a(lp583
VtranslateX
p584
aVtranslateY
p585
aVtranslateZ
p586
aVrotateX
p587
aVrotateY
p588
aVrotateZ
p589
aaF0
aF0
aF0
aF0.43453147321362862
aF0.57033307419860213
aF66.609981735733584
aa(lp590
S'middle_finger_fk_ctrl_1_l'
p591
a(lp592
VtranslateX
p593
aVtranslateY
p594
aVtranslateZ
p595
aVrotateX
p596
aVrotateY
p597
aVrotateZ
p598
aVsticky
p599
aaF0
aF0
aF0
aF-9.5650813160206454e-05
aF4.632933305734154
aF61.680754160462428
aF0
aa(lp600
S'middle_finger_fk_ctrl_1_r'
p601
a(lp602
VtranslateX
p603
aVtranslateY
p604
aVtranslateZ
p605
aVrotateX
p606
aVrotateY
p607
aVrotateZ
p608
aVsticky
p609
aaF0
aF0
aF0
aF-0.0013469415864430223
aF-0.00050657322655778519
aF52.144708177639664
aF0
aa(lp610
S'middle_finger_fk_ctrl_2_l'
p611
a(lp612
VtranslateX
p613
aVtranslateY
p614
aVtranslateZ
p615
aVrotateX
p616
aVrotateY
p617
aVrotateZ
p618
aaF0
aF0
aF0
aF0
aF-0
aF47.684837521621425
aa(lp619
S'middle_finger_fk_ctrl_2_r'
p620
a(lp621
VtranslateX
p622
aVtranslateY
p623
aVtranslateZ
p624
aVrotateX
p625
aVrotateY
p626
aVrotateZ
p627
aaF0
aF0
aF0
aF0.21904383316932102
aF0.68272487160078132
aF47.094227261992337
aa(lp628
S'middle_finger_fk_ctrl_3_l'
p629
a(lp630
VtranslateX
p631
aVtranslateY
p632
aVtranslateZ
p633
aVrotateX
p634
aVrotateY
p635
aVrotateZ
p636
aaF0
aF0
aF0
aF0
aF-0
aF50.408461337602084
aa(lp637
S'middle_finger_fk_ctrl_3_r'
p638
a(lp639
VtranslateX
p640
aVtranslateY
p641
aVtranslateZ
p642
aVrotateX
p643
aVrotateY
p644
aVrotateZ
p645
aaF0
aF0
aF0
aF1.4878721381752236
aF5.3442587515926734
aF75.661403853182691
aa(lp646
S'index_finger_fk_ctrl_1_l'
p647
a(lp648
VtranslateX
p649
aVtranslateY
p650
aVtranslateZ
p651
aVrotateX
p652
aVrotateY
p653
aVrotateZ
p654
aVsticky
p655
aaF0
aF0
aF0
aF-11.520892065326397
aF7.5235378178572283
aF61.057062186694289
aF0
aa(lp656
S'index_finger_fk_ctrl_1_r'
p657
a(lp658
VtranslateX
p659
aVtranslateY
p660
aVtranslateZ
p661
aVrotateX
p662
aVrotateY
p663
aVrotateZ
p664
aVsticky
p665
aaF0
aF0
aF0
aF-13.878859974732796
aF-1.6859502617289726
aF33.430886087529217
aF0
aa(lp666
S'index_finger_fk_ctrl_2_l'
p667
a(lp668
VtranslateX
p669
aVtranslateY
p670
aVtranslateZ
p671
aVrotateX
p672
aVrotateY
p673
aVrotateZ
p674
aaF0
aF0
aF0
aF0
aF-0
aF39.58635282799829
aa(lp675
S'index_finger_fk_ctrl_2_r'
p676
a(lp677
VtranslateX
p678
aVtranslateY
p679
aVtranslateZ
p680
aVrotateX
p681
aVrotateY
p682
aVrotateZ
p683
aaF0
aF0
aF0
aF0
aF-0
aF57.497606541241502
aa(lp684
S'index_finger_fk_ctrl_3_l'
p685
a(lp686
VtranslateX
p687
aVtranslateY
p688
aVtranslateZ
p689
aVrotateX
p690
aVrotateY
p691
aVrotateZ
p692
aaF0
aF0
aF0
aF-1.4871696543175723
aF-2.6895179822327728
aF67.749002871603878
aa(lp693
S'index_finger_fk_ctrl_3_r'
p694
a(lp695
VtranslateX
p696
aVtranslateY
p697
aVtranslateZ
p698
aVrotateX
p699
aVrotateY
p700
aVrotateZ
p701
aaF0
aF0
aF0
aF0
aF-0
aF66.68407396981253
aa(lp702
S'thumb_finger_fk_ctrl_1_l'
p703
a(lp704
VtranslateX
p705
aVtranslateY
p706
aVtranslateZ
p707
aVrotateX
p708
aVrotateY
p709
aVrotateZ
p710
aVsticky
p711
aaF0
aF0
aF0
aF32.521661196515474
aF35.179252184383778
aF3.0633443790789086
aF0
aa(lp712
S'thumb_finger_fk_ctrl_1_r'
p713
a(lp714
VtranslateX
p715
aVtranslateY
p716
aVtranslateZ
p717
aVrotateX
p718
aVrotateY
p719
aVrotateZ
p720
aVsticky
p721
aaF0
aF0
aF0
aF17.289263398136782
aF14.20035009643083
aF19.126698983259676
aF0
aa(lp722
S'thumb_finger_fk_ctrl_2_l'
p723
a(lp724
VtranslateX
p725
aVtranslateY
p726
aVtranslateZ
p727
aVrotateX
p728
aVrotateY
p729
aVrotateZ
p730
aaF0
aF0
aF0
aF-8.5391079138565207
aF17.623117184942476
aF36.133792512298719
aa(lp731
S'thumb_finger_fk_ctrl_2_r'
p732
a(lp733
VtranslateX
p734
aVtranslateY
p735
aVtranslateZ
p736
aVrotateX
p737
aVrotateY
p738
aVrotateZ
p739
aaF0
aF0
aF0
aF-1.7532247795724936
aF13.723054660490316
aF6.9401104392970412
aa(lp740
S'thumb_finger_fk_ctrl_3_l'
p741
a(lp742
VtranslateX
p743
aVtranslateY
p744
aVtranslateZ
p745
aVrotateX
p746
aVrotateY
p747
aVrotateZ
p748
aaF0
aF0
aF0
aF0
aF1.8516110813238267e-06
aF62.745112692737074
aa(lp749
S'thumb_finger_fk_ctrl_3_r'
p750
a(lp751
VtranslateX
p752
aVtranslateY
p753
aVtranslateZ
p754
aVrotateX
p755
aVrotateY
p756
aVrotateZ
p757
aaF0
aF0
aF0
aF11.142151140794891
aF-23.838396404597017
aF35.077641354833695
aa(lp758
S'index_l_ik_anim'
p759
a(lp760
VtranslateX
p761
aVtranslateY
p762
aVtranslateZ
p763
aVrotateX
p764
aVrotateY
p765
aVrotateZ
p766
aVpoleVectorVis
p767
aaF0
aF0
aF0
aF0
aF-0
aF0
aF0
aa(lp768
S'index_r_ik_anim'
p769
a(lp770
VtranslateX
p771
aVtranslateY
p772
aVtranslateZ
p773
aVrotateX
p774
aVrotateY
p775
aVrotateZ
p776
aVpoleVectorVis
p777
aaF0
aF0
aF0
aF0
aF-0
aF0
aF0
aa(lp778
S'middle_l_ik_anim'
p779
a(lp780
VtranslateX
p781
aVtranslateY
p782
aVtranslateZ
p783
aVrotateX
p784
aVrotateY
p785
aVrotateZ
p786
aVpoleVectorVis
p787
aaF0
aF0
aF0
aF0
aF-0
aF0
aF0
aa(lp788
S'middle_r_ik_anim'
p789
a(lp790
VtranslateX
p791
aVtranslateY
p792
aVtranslateZ
p793
aVrotateX
p794
aVrotateY
p795
aVrotateZ
p796
aVpoleVectorVis
p797
aaF0
aF0
aF0
aF0
aF-0
aF0
aF0
aa(lp798
S'ring_l_ik_anim'
p799
a(lp800
VtranslateX
p801
aVtranslateY
p802
aVtranslateZ
p803
aVrotateX
p804
aVrotateY
p805
aVrotateZ
p806
aVpoleVectorVis
p807
aaF0
aF0
aF0
aF0
aF-0
aF0
aF0
aa(lp808
S'ring_r_ik_anim'
p809
a(lp810
VtranslateX
p811
aVtranslateY
p812
aVtranslateZ
p813
aVrotateX
p814
aVrotateY
p815
aVrotateZ
p816
aVpoleVectorVis
p817
aaF0
aF0
aF0
aF0
aF-0
aF0
aF0
aa(lp818
S'pinky_l_ik_anim'
p819
a(lp820
VtranslateX
p821
aVtranslateY
p822
aVtranslateZ
p823
aVrotateX
p824
aVrotateY
p825
aVrotateZ
p826
aVpoleVectorVis
p827
aaF0
aF0
aF0
aF0
aF-0
aF0
aF0
aa(lp828
S'pinky_r_ik_anim'
p829
a(lp830
VtranslateX
p831
aVtranslateY
p832
aVtranslateZ
p833
aVrotateX
p834
aVrotateY
p835
aVrotateZ
p836
aVpoleVectorVis
p837
aaF0
aF0
aF0
aF0
aF-0
aF0
aF0
aa(lp838
S'thumb_l_ik_anim'
p839
a(lp840
VtranslateX
p841
aVtranslateY
p842
aVtranslateZ
p843
aVrotateX
p844
aVrotateY
p845
aVrotateZ
p846
aVpoleVectorVis
p847
aaF0
aF0
aF0
aF0
aF-0
aF0
aF0
aa(lp848
S'thumb_r_ik_anim'
p849
a(lp850
VtranslateX
p851
aVtranslateY
p852
aVtranslateZ
p853
aVrotateX
p854
aVrotateY
p855
aVrotateZ
p856
aVpoleVectorVis
p857
aaF0
aF0
aF0
aF0
aF-0
aF0
aF0
aa(lp858
S'index_l_poleVector'
p859
a(lp860
VtranslateX
p861
aVtranslateY
p862
aVtranslateZ
p863
aVrotateX
p864
aVrotateY
p865
aVrotateZ
p866
aaF0
aF0
aF0
aF0
aF-0
aF0
aa(lp867
S'index_r_poleVector'
p868
a(lp869
VtranslateX
p870
aVtranslateY
p871
aVtranslateZ
p872
aVrotateX
p873
aVrotateY
p874
aVrotateZ
p875
aaF0
aF0
aF0
aF0
aF-0
aF0
aa(lp876
S'middle_l_poleVector'
p877
a(lp878
VtranslateX
p879
aVtranslateY
p880
aVtranslateZ
p881
aVrotateX
p882
aVrotateY
p883
aVrotateZ
p884
aaF0
aF0
aF0
aF0
aF-0
aF0
aa(lp885
S'middle_r_poleVector'
p886
a(lp887
VtranslateX
p888
aVtranslateY
p889
aVtranslateZ
p890
aVrotateX
p891
aVrotateY
p892
aVrotateZ
p893
aaF0
aF0
aF0
aF0
aF-0
aF0
aa(lp894
S'ring_l_poleVector'
p895
a(lp896
VtranslateX
p897
aVtranslateY
p898
aVtranslateZ
p899
aVrotateX
p900
aVrotateY
p901
aVrotateZ
p902
aaF0
aF0
aF0
aF0
aF-0
aF0
aa(lp903
S'ring_r_poleVector'
p904
a(lp905
VtranslateX
p906
aVtranslateY
p907
aVtranslateZ
p908
aVrotateX
p909
aVrotateY
p910
aVrotateZ
p911
aaF0
aF0
aF0
aF0
aF-0
aF0
aa(lp912
S'pinky_l_poleVector'
p913
a(lp914
VtranslateX
p915
aVtranslateY
p916
aVtranslateZ
p917
aVrotateX
p918
aVrotateY
p919
aVrotateZ
p920
aaF0
aF0
aF0
aF0
aF-0
aF0
aa(lp921
S'pinky_r_poleVector'
p922
a(lp923
VtranslateX
p924
aVtranslateY
p925
aVtranslateZ
p926
aVrotateX
p927
aVrotateY
p928
aVrotateZ
p929
aaF0
aF0
aF0
aF0
aF-0
aF0
aa(lp930
S'thumb_l_poleVector'
p931
a(lp932
VtranslateX
p933
aVtranslateY
p934
aVtranslateZ
p935
aVrotateX
p936
aVrotateY
p937
aVrotateZ
p938
aaF0
aF0
aF0
aF0
aF-0
aF0
aa(lp939
S'thumb_r_poleVector'
p940
a(lp941
VtranslateX
p942
aVtranslateY
p943
aVtranslateZ
p944
aVrotateX
p945
aVrotateY
p946
aVrotateZ
p947
aaF0
aF0
aF0
aF0
aF-0
aF0
aa(lp948
S'l_global_ik_anim'
p949
a(lp950
VtranslateX
p951
aVtranslateY
p952
aVtranslateZ
p953
aVrotateX
p954
aVrotateY
p955
aVrotateZ
p956
aaF0
aF0
aF0
aF0
aF-0
aF0
aa(lp957
S'r_global_ik_anim'
p958
a(lp959
VtranslateX
p960
aVtranslateY
p961
aVtranslateZ
p962
aVrotateX
p963
aVrotateY
p964
aVrotateZ
p965
aaF0
aF0
aF0
aF0
aF-0
aF0
aa(lp966
S'Rig_Settings'
p967
a(lp968
Vspine_ik
p969
aVspine_fk
p970
aVlLegMode
p971
aVlThighTwistAmount
p972
aVlThighTwist2Amount
p973
aVllegTwistCtrlVis
p974
aVlCalfTwistAmount
p975
aVrLegMode
p976
aVrThighTwistAmount
p977
aVrThighTwist2Amount
p978
aVrlegTwistCtrlVis
p979
aVrCalfTwistAmount
p980
aVlFkArmOrient
p981
aVlArmMode
p982
aVlClavMode
p983
aVlUpperarmTwistAmount
p984
aVlUpperarmTwist2Amount
p985
aVltwistCtrlVis
p986
aVltwistCtrlVisLower
p987
aVlForearmTwistAmount
p988
aVrFkArmOrient
p989
aVrArmMode
p990
aVrClavMode
p991
aVrUpperarmTwistAmount
p992
aVrUpperarmTwist2Amount
p993
aVrtwistCtrlVis
p994
aVrtwistCtrlVisLower
p995
aVrForearmTwistAmount
p996
aVback_sash_fk
p997
aVback_sash_ik
p998
aVback_sash_dynamic
p999
aVhip_eyelet_front_l_fk
p1000
aVhip_eyelet_front_l_ik
p1001
aVhip_eyelet_front_l_dynamic
p1002
aVhip_eyelet_front_r_fk
p1003
aVhip_eyelet_front_r_ik
p1004
aVhip_eyelet_front_r_dynamic
p1005
aVhip_eyelet_rear_l_fk
p1006
aVhip_eyelet_rear_l_ik
p1007
aVhip_eyelet_rear_l_dynamic
p1008
aVhip_eyelet_rear_r_fk
p1009
aVhip_eyelet_rear_r_ik
p1010
aVhip_eyelet_rear_r_dynamic
p1011
aVloin_cloth_bk_fk
p1012
aVloin_cloth_bk_ik
p1013
aVloin_cloth_bk_dynamic
p1014
aVloin_cloth_fr_fk
p1015
aVloin_cloth_fr_ik
p1016
aVloin_cloth_fr_dynamic
p1017
aVpadawan_l_fk
p1018
aVpadawan_l_ik
p1019
aVpadawan_l_dynamic
p1020
aVpadawan_r_fk
p1021
aVpadawan_r_ik
p1022
aVpadawan_r_dynamic
p1023
aVponytail_fk
p1024
aVponytail_ik
p1025
aVponytail_dynamic
p1026
aVweapon_butt_fk
p1027
aVweapon_butt_ik
p1028
aVweapon_butt_dynamic
p1029
aaF1
aF0
aI1
aF1
aF0.29999999999999999
aI00
aF0.5
aI1
aF1
aF0.29999999999999999
aI00
aF0.5
aI0
aI1
aI1
aF0.90000000000000002
aF0.29999999999999999
aI00
aI00
aF0.5
aI0
aI1
aI1
aF0.90000000000000002
aF0.29999999999999999
aI00
aI00
aF0.5
aF1
aF0
aF0
aF1
aF0
aF0
aF1
aF0
aF0
aF1
aF0
aF0
aF1
aF0
aF0
aF1
aF0
aF0
aF1
aF0
aF0
aF1
aF0
aF0
aF1
aF0
aF0
aF1
aF0
aF0
aF1
aF0
aF0
aa(lp1030
S'calf_l_twist_anim'
p1031
a(lp1032
VtranslateX
p1033
aVtranslateY
p1034
aVtranslateZ
p1035
aVrotateX
p1036
aVrotateY
p1037
aVrotateZ
p1038
aaF0
aF0
aF0
aF0
aF-0
aF0
aa(lp1039
S'calf_r_twist_anim'
p1040
a(lp1041
VtranslateX
p1042
aVtranslateY
p1043
aVtranslateZ
p1044
aVrotateX
p1045
aVrotateY
p1046
aVrotateZ
p1047
aaF0
aF0
aF0
aF0
aF-0
aF0
aa(lp1048
Vback_sash_dyn_anim
p1049
a(lp1050
VtranslateX
p1051
aVtranslateY
p1052
aVtranslateZ
p1053
aVrotateX
p1054
aVrotateY
p1055
aVrotateZ
p1056
aVchainAttach
p1057
aVchainStartEnvelope
p1058
aVchainStartFrame
p1059
aVchainStiffness
p1060
aVchainDamping
p1061
aVchainGravity
p1062
aVchainIteration
p1063
aVchainCollide
p1064
aVchainWidthBase
p1065
aVchainWidthExtremity
p1066
aVchainCollideGround
p1067
aVchainCollideGroundHeight
p1068
aaF0
aF0
aF0
aF0
aF-0
aF0
aI1
aF0
aF1
aF0.10000000000000001
aF0.20000000000000001
aF1
aI1
aI00
aF1
aF1
aI00
aF0
aa(lp1069
Vback_sash_ik_2_anim
p1070
a(lp1071
VtranslateX
p1072
aVtranslateY
p1073
aVtranslateZ
p1074
aVrotateX
p1075
aVrotateY
p1076
aVrotateZ
p1077
aaF0
aF0
aF0
aF0
aF-0
aF0
aa(lp1078
Vback_sash_ik_3_anim
p1079
a(lp1080
VtranslateX
p1081
aVtranslateY
p1082
aVtranslateZ
p1083
aVrotateX
p1084
aVrotateY
p1085
aVrotateZ
p1086
aVclusterControlVis
p1087
aaF0
aF0
aF0
aF0
aF-0
aF0
aI00
aa(lp1088
Vback_sash_ik_base_anim
p1089
a(lp1090
VtranslateX
p1091
aVtranslateY
p1092
aVtranslateZ
p1093
aVrotateX
p1094
aVrotateY
p1095
aVrotateZ
p1096
aVglobal_scale
p1097
aaF0
aF0
aF0
aF0
aF-0
aF0
aF1
aa(lp1098
Vfk_back_sash_01_anim
p1099
a(lp1100
VtranslateX
p1101
aVtranslateY
p1102
aVtranslateZ
p1103
aVrotateX
p1104
aVrotateY
p1105
aVrotateZ
p1106
aVglobal_scale
p1107
aVlagMode
p1108
aaF0
aF0
aF0
aF0
aF-0
aF0
aF1
aF0
aa(lp1109
Vback_sash_cv_0_anim
p1110
a(lp1111
VtranslateX
p1112
aVtranslateY
p1113
aVtranslateZ
p1114
aaF0
aF0
aF0
aa(lp1115
Vfk_back_sash_02_anim
p1116
a(lp1117
VtranslateX
p1118
aVtranslateY
p1119
aVtranslateZ
p1120
aVrotateX
p1121
aVrotateY
p1122
aVrotateZ
p1123
aaF0
aF0
aF0
aF0
aF-0
aF0
aa(lp1124
Vback_sash_cv_1_anim
p1125
a(lp1126
VtranslateX
p1127
aVtranslateY
p1128
aVtranslateZ
p1129
aaF0
aF0
aF0
aa(lp1130
Vfk_back_sash_03_anim
p1131
a(lp1132
VtranslateX
p1133
aVtranslateY
p1134
aVtranslateZ
p1135
aVrotateX
p1136
aVrotateY
p1137
aVrotateZ
p1138
aaF0
aF0
aF0
aF0
aF-0
aF0
aa(lp1139
Vback_sash_cv_2_anim
p1140
a(lp1141
VtranslateX
p1142
aVtranslateY
p1143
aVtranslateZ
p1144
aaF0
aF0
aF0
aa(lp1145
Vbracelet_A_l_anim
p1146
a(lp1147
VtranslateX
p1148
aVtranslateY
p1149
aVtranslateZ
p1150
aVrotateX
p1151
aVrotateY
p1152
aVrotateZ
p1153
aVscaleX
p1154
aVscaleY
p1155
aVscaleZ
p1156
aaF0
aF0
aF0
aF0
aF-0
aF0
aF1
aF1
aF1
aa(lp1157
Vbracelet_B_l_anim
p1158
a(lp1159
VtranslateX
p1160
aVtranslateY
p1161
aVtranslateZ
p1162
aVrotateX
p1163
aVrotateY
p1164
aVrotateZ
p1165
aVscaleX
p1166
aVscaleY
p1167
aVscaleZ
p1168
aaF0
aF0
aF0
aF0
aF-0
aF0
aF1
aF1
aF1
aa(lp1169
Vbracelet_C_l_anim
p1170
a(lp1171
VtranslateX
p1172
aVtranslateY
p1173
aVtranslateZ
p1174
aVrotateX
p1175
aVrotateY
p1176
aVrotateZ
p1177
aVscaleX
p1178
aVscaleY
p1179
aVscaleZ
p1180
aaF0
aF0
aF0
aF0
aF-0
aF0
aF1
aF1
aF1
aa(lp1181
Veyeball_l_anim
p1182
a(lp1183
VtranslateX
p1184
aVtranslateY
p1185
aVtranslateZ
p1186
aVrotateX
p1187
aVrotateY
p1188
aVrotateZ
p1189
aVscaleX
p1190
aVscaleY
p1191
aVscaleZ
p1192
aaF0
aF0
aF0
aF0
aF-0
aF0
aF1
aF1
aF1
aa(lp1193
Veyeball_r_anim
p1194
a(lp1195
VtranslateX
p1196
aVtranslateY
p1197
aVtranslateZ
p1198
aVrotateX
p1199
aVrotateY
p1200
aVrotateZ
p1201
aVscaleX
p1202
aVscaleY
p1203
aVscaleZ
p1204
aaF0
aF0
aF0
aF0
aF-0
aF0
aF1
aF1
aF1
aa(lp1205
Veyebrow_in_l_anim
p1206
a(lp1207
VtranslateX
p1208
aVtranslateY
p1209
aVtranslateZ
p1210
aVrotateX
p1211
aVrotateY
p1212
aVrotateZ
p1213
aVscaleX
p1214
aVscaleY
p1215
aVscaleZ
p1216
aaF0
aF0
aF0
aF0
aF-0
aF0
aF1
aF1
aF1
aa(lp1217
Veyebrow_in_r_anim
p1218
a(lp1219
VtranslateX
p1220
aVtranslateY
p1221
aVtranslateZ
p1222
aVrotateX
p1223
aVrotateY
p1224
aVrotateZ
p1225
aVscaleX
p1226
aVscaleY
p1227
aVscaleZ
p1228
aaF0
aF0
aF0
aF0
aF-0
aF0
aF1
aF1
aF1
aa(lp1229
Veyebrow_out_l_anim
p1230
a(lp1231
VtranslateX
p1232
aVtranslateY
p1233
aVtranslateZ
p1234
aVrotateX
p1235
aVrotateY
p1236
aVrotateZ
p1237
aVscaleX
p1238
aVscaleY
p1239
aVscaleZ
p1240
aaF0
aF0
aF0
aF0
aF-0
aF0
aF1
aF1
aF1
aa(lp1241
Veyebrow_out_r_anim
p1242
a(lp1243
VtranslateX
p1244
aVtranslateY
p1245
aVtranslateZ
p1246
aVrotateX
p1247
aVrotateY
p1248
aVrotateZ
p1249
aVscaleX
p1250
aVscaleY
p1251
aVscaleZ
p1252
aaF0
aF0
aF0
aF0
aF-0
aF0
aF1
aF1
aF1
aa(lp1253
Veyelid_bott_l_anim
p1254
a(lp1255
VtranslateX
p1256
aVtranslateY
p1257
aVtranslateZ
p1258
aVrotateX
p1259
aVrotateY
p1260
aVrotateZ
p1261
aVscaleX
p1262
aVscaleY
p1263
aVscaleZ
p1264
aaF0
aF0
aF0
aF0
aF-0
aF0
aF1
aF1
aF1
aa(lp1265
Veyelid_bott_r_anim
p1266
a(lp1267
VtranslateX
p1268
aVtranslateY
p1269
aVtranslateZ
p1270
aVrotateX
p1271
aVrotateY
p1272
aVrotateZ
p1273
aVscaleX
p1274
aVscaleY
p1275
aVscaleZ
p1276
aaF0
aF0
aF0
aF0
aF-0
aF0
aF1
aF1
aF1
aa(lp1277
Veyelid_top_l_anim
p1278
a(lp1279
VtranslateX
p1280
aVtranslateY
p1281
aVtranslateZ
p1282
aVrotateX
p1283
aVrotateY
p1284
aVrotateZ
p1285
aVscaleX
p1286
aVscaleY
p1287
aVscaleZ
p1288
aaF0
aF0
aF0
aF0
aF-0
aF0
aF1
aF1
aF1
aa(lp1289
Veyelid_top_r_anim
p1290
a(lp1291
VtranslateX
p1292
aVtranslateY
p1293
aVtranslateZ
p1294
aVrotateX
p1295
aVrotateY
p1296
aVrotateZ
p1297
aVscaleX
p1298
aVscaleY
p1299
aVscaleZ
p1300
aaF0
aF0
aF0
aF0
aF-0
aF0
aF1
aF1
aF1
aa(lp1301
Vhip_back_flaps_anim
p1302
a(lp1303
VtranslateX
p1304
aVtranslateY
p1305
aVtranslateZ
p1306
aVrotateX
p1307
aVrotateY
p1308
aVrotateZ
p1309
aVscaleX
p1310
aVscaleY
p1311
aVscaleZ
p1312
aaF0
aF-0.0040149279208230504
aF-0.060754214318246479
aF-0.20827987371630702
aF0
aF0
aF1
aF1
aF1
aa(lp1313
Vhip_eyelet_front_l_dyn_anim
p1314
a(lp1315
VtranslateX
p1316
aVtranslateY
p1317
aVtranslateZ
p1318
aVrotateX
p1319
aVrotateY
p1320
aVrotateZ
p1321
aVchainAttach
p1322
aVchainStartEnvelope
p1323
aVchainStartFrame
p1324
aVchainStiffness
p1325
aVchainDamping
p1326
aVchainGravity
p1327
aVchainIteration
p1328
aVchainCollide
p1329
aVchainWidthBase
p1330
aVchainWidthExtremity
p1331
aVchainCollideGround
p1332
aVchainCollideGroundHeight
p1333
aaF0
aF0
aF0
aF0
aF-0
aF0
aI1
aF0
aF1
aF0.10000000000000001
aF0.20000000000000001
aF1
aI1
aI00
aF1
aF1
aI00
aF0
aa(lp1334
Vhip_eyelet_front_l_ik_2_anim
p1335
a(lp1336
VtranslateX
p1337
aVtranslateY
p1338
aVtranslateZ
p1339
aVrotateX
p1340
aVrotateY
p1341
aVrotateZ
p1342
aaF0
aF0
aF0
aF0
aF-0
aF0
aa(lp1343
Vhip_eyelet_front_l_ik_3_anim
p1344
a(lp1345
VtranslateX
p1346
aVtranslateY
p1347
aVtranslateZ
p1348
aVrotateX
p1349
aVrotateY
p1350
aVrotateZ
p1351
aVclusterControlVis
p1352
aaF0
aF0
aF0
aF0
aF-0
aF0
aI00
aa(lp1353
Vhip_eyelet_front_l_ik_base_anim
p1354
a(lp1355
VtranslateX
p1356
aVtranslateY
p1357
aVtranslateZ
p1358
aVrotateX
p1359
aVrotateY
p1360
aVrotateZ
p1361
aVglobal_scale
p1362
aaF0
aF0
aF0
aF0
aF-0
aF0
aF1.0000000000000002
aa(lp1363
Vfk_hip_eyelet_front_l_01_anim
p1364
a(lp1365
VtranslateX
p1366
aVtranslateY
p1367
aVtranslateZ
p1368
aVrotateX
p1369
aVrotateY
p1370
aVrotateZ
p1371
aVglobal_scale
p1372
aVlagMode
p1373
aaF0
aF0
aF0
aF0
aF-0
aF0
aF1
aF0
aa(lp1374
Vhip_eyelet_front_l_cv_0_anim
p1375
a(lp1376
VtranslateX
p1377
aVtranslateY
p1378
aVtranslateZ
p1379
aaF0
aF0
aF0
aa(lp1380
Vfk_hip_eyelet_front_l_02_anim
p1381
a(lp1382
VtranslateX
p1383
aVtranslateY
p1384
aVtranslateZ
p1385
aVrotateX
p1386
aVrotateY
p1387
aVrotateZ
p1388
aaF0
aF0
aF0
aF0
aF-0
aF0
aa(lp1389
Vhip_eyelet_front_l_cv_1_anim
p1390
a(lp1391
VtranslateX
p1392
aVtranslateY
p1393
aVtranslateZ
p1394
aaF0
aF0
aF0
aa(lp1395
Vfk_hip_eyelet_front_l_03_anim
p1396
a(lp1397
VtranslateX
p1398
aVtranslateY
p1399
aVtranslateZ
p1400
aVrotateX
p1401
aVrotateY
p1402
aVrotateZ
p1403
aaF0
aF0
aF0
aF0
aF-0
aF0
aa(lp1404
Vhip_eyelet_front_l_cv_2_anim
p1405
a(lp1406
VtranslateX
p1407
aVtranslateY
p1408
aVtranslateZ
p1409
aaF0
aF0
aF0
aa(lp1410
Vfk_hip_eyelet_front_l_04_anim
p1411
a(lp1412
VtranslateX
p1413
aVtranslateY
p1414
aVtranslateZ
p1415
aVrotateX
p1416
aVrotateY
p1417
aVrotateZ
p1418
aaF0
aF0
aF0
aF0
aF-0
aF0
aa(lp1419
Vhip_eyelet_front_l_cv_3_anim
p1420
a(lp1421
VtranslateX
p1422
aVtranslateY
p1423
aVtranslateZ
p1424
aaF0
aF0
aF0
aa(lp1425
Vhip_eyelet_front_r_dyn_anim
p1426
a(lp1427
VtranslateX
p1428
aVtranslateY
p1429
aVtranslateZ
p1430
aVrotateX
p1431
aVrotateY
p1432
aVrotateZ
p1433
aVchainAttach
p1434
aVchainStartEnvelope
p1435
aVchainStartFrame
p1436
aVchainStiffness
p1437
aVchainDamping
p1438
aVchainGravity
p1439
aVchainIteration
p1440
aVchainCollide
p1441
aVchainWidthBase
p1442
aVchainWidthExtremity
p1443
aVchainCollideGround
p1444
aVchainCollideGroundHeight
p1445
aaF0
aF0
aF0
aF0
aF-0
aF0
aI1
aF0
aF1
aF0.10000000000000001
aF0.20000000000000001
aF1
aI1
aI00
aF1
aF1
aI00
aF0
aa(lp1446
Vhip_eyelet_front_r_ik_2_anim
p1447
a(lp1448
VtranslateX
p1449
aVtranslateY
p1450
aVtranslateZ
p1451
aVrotateX
p1452
aVrotateY
p1453
aVrotateZ
p1454
aaF0
aF0
aF0
aF0
aF-0
aF0
aa(lp1455
Vhip_eyelet_front_r_ik_3_anim
p1456
a(lp1457
VtranslateX
p1458
aVtranslateY
p1459
aVtranslateZ
p1460
aVrotateX
p1461
aVrotateY
p1462
aVrotateZ
p1463
aVclusterControlVis
p1464
aaF0
aF0
aF0
aF0
aF-0
aF0
aI00
aa(lp1465
Vhip_eyelet_front_r_ik_base_anim
p1466
a(lp1467
VtranslateX
p1468
aVtranslateY
p1469
aVtranslateZ
p1470
aVrotateX
p1471
aVrotateY
p1472
aVrotateZ
p1473
aVglobal_scale
p1474
aaF0
aF0
aF0
aF0
aF-0
aF0
aF0.99999999999999989
aa(lp1475
Vfk_hip_eyelet_front_r_01_anim
p1476
a(lp1477
VtranslateX
p1478
aVtranslateY
p1479
aVtranslateZ
p1480
aVrotateX
p1481
aVrotateY
p1482
aVrotateZ
p1483
aVglobal_scale
p1484
aVlagMode
p1485
aaF0
aF0
aF0
aF0
aF-0
aF0
aF1
aF0
aa(lp1486
Vhip_eyelet_front_r_cv_0_anim
p1487
a(lp1488
VtranslateX
p1489
aVtranslateY
p1490
aVtranslateZ
p1491
aaF0
aF0
aF0
aa(lp1492
Vfk_hip_eyelet_front_r_02_anim
p1493
a(lp1494
VtranslateX
p1495
aVtranslateY
p1496
aVtranslateZ
p1497
aVrotateX
p1498
aVrotateY
p1499
aVrotateZ
p1500
aaF0
aF0
aF0
aF0
aF-0
aF0
aa(lp1501
Vhip_eyelet_front_r_cv_1_anim
p1502
a(lp1503
VtranslateX
p1504
aVtranslateY
p1505
aVtranslateZ
p1506
aaF0
aF0
aF0
aa(lp1507
Vfk_hip_eyelet_front_r_03_anim
p1508
a(lp1509
VtranslateX
p1510
aVtranslateY
p1511
aVtranslateZ
p1512
aVrotateX
p1513
aVrotateY
p1514
aVrotateZ
p1515
aaF0
aF0
aF0
aF0
aF-0
aF0
aa(lp1516
Vhip_eyelet_front_r_cv_2_anim
p1517
a(lp1518
VtranslateX
p1519
aVtranslateY
p1520
aVtranslateZ
p1521
aaF0
aF0
aF0
aa(lp1522
Vfk_hip_eyelet_front_r_04_anim
p1523
a(lp1524
VtranslateX
p1525
aVtranslateY
p1526
aVtranslateZ
p1527
aVrotateX
p1528
aVrotateY
p1529
aVrotateZ
p1530
aaF0
aF0
aF0
aF0
aF-0
aF0
aa(lp1531
Vhip_eyelet_front_r_cv_3_anim
p1532
a(lp1533
VtranslateX
p1534
aVtranslateY
p1535
aVtranslateZ
p1536
aaF0
aF0
aF0
aa(lp1537
Vhip_eyelet_rear_l_dyn_anim
p1538
a(lp1539
VtranslateX
p1540
aVtranslateY
p1541
aVtranslateZ
p1542
aVrotateX
p1543
aVrotateY
p1544
aVrotateZ
p1545
aVchainAttach
p1546
aVchainStartEnvelope
p1547
aVchainStartFrame
p1548
aVchainStiffness
p1549
aVchainDamping
p1550
aVchainGravity
p1551
aVchainIteration
p1552
aVchainCollide
p1553
aVchainWidthBase
p1554
aVchainWidthExtremity
p1555
aVchainCollideGround
p1556
aVchainCollideGroundHeight
p1557
aaF0
aF0
aF0
aF0
aF-0
aF0
aI1
aF0
aF1
aF0.10000000000000001
aF0.20000000000000001
aF1
aI1
aI00
aF1
aF1
aI00
aF0
aa(lp1558
Vhip_eyelet_rear_l_ik_2_anim
p1559
a(lp1560
VtranslateX
p1561
aVtranslateY
p1562
aVtranslateZ
p1563
aVrotateX
p1564
aVrotateY
p1565
aVrotateZ
p1566
aaF0
aF0
aF0
aF0
aF-0
aF0
aa(lp1567
Vhip_eyelet_rear_l_ik_3_anim
p1568
a(lp1569
VtranslateX
p1570
aVtranslateY
p1571
aVtranslateZ
p1572
aVrotateX
p1573
aVrotateY
p1574
aVrotateZ
p1575
aVclusterControlVis
p1576
aaF0
aF0
aF0
aF0
aF-0
aF0
aI00
aa(lp1577
Vhip_eyelet_rear_l_ik_base_anim
p1578
a(lp1579
VtranslateX
p1580
aVtranslateY
p1581
aVtranslateZ
p1582
aVrotateX
p1583
aVrotateY
p1584
aVrotateZ
p1585
aVglobal_scale
p1586
aaF0
aF0
aF0
aF0
aF-0
aF0
aF1.0000000000000002
aa(lp1587
Vfk_hip_eyelet_rear_l_01_anim
p1588
a(lp1589
VtranslateX
p1590
aVtranslateY
p1591
aVtranslateZ
p1592
aVrotateX
p1593
aVrotateY
p1594
aVrotateZ
p1595
aVglobal_scale
p1596
aVlagMode
p1597
aaF0
aF0
aF0
aF0
aF-0
aF0
aF1
aF0
aa(lp1598
Vhip_eyelet_rear_l_cv_0_anim
p1599
a(lp1600
VtranslateX
p1601
aVtranslateY
p1602
aVtranslateZ
p1603
aaF0
aF0
aF0
aa(lp1604
Vfk_hip_eyelet_rear_l_02_anim
p1605
a(lp1606
VtranslateX
p1607
aVtranslateY
p1608
aVtranslateZ
p1609
aVrotateX
p1610
aVrotateY
p1611
aVrotateZ
p1612
aaF0
aF0
aF0
aF0
aF-0
aF0
aa(lp1613
Vhip_eyelet_rear_l_cv_1_anim
p1614
a(lp1615
VtranslateX
p1616
aVtranslateY
p1617
aVtranslateZ
p1618
aaF0
aF0
aF0
aa(lp1619
Vfk_hip_eyelet_rear_l_03_anim
p1620
a(lp1621
VtranslateX
p1622
aVtranslateY
p1623
aVtranslateZ
p1624
aVrotateX
p1625
aVrotateY
p1626
aVrotateZ
p1627
aaF0
aF0
aF0
aF0
aF-0
aF0
aa(lp1628
Vhip_eyelet_rear_l_cv_2_anim
p1629
a(lp1630
VtranslateX
p1631
aVtranslateY
p1632
aVtranslateZ
p1633
aaF0
aF0
aF0
aa(lp1634
Vfk_hip_eyelet_rear_l_04_anim
p1635
a(lp1636
VtranslateX
p1637
aVtranslateY
p1638
aVtranslateZ
p1639
aVrotateX
p1640
aVrotateY
p1641
aVrotateZ
p1642
aaF0
aF0
aF0
aF0
aF-0
aF0
aa(lp1643
Vhip_eyelet_rear_l_cv_3_anim
p1644
a(lp1645
VtranslateX
p1646
aVtranslateY
p1647
aVtranslateZ
p1648
aaF0
aF0
aF0
aa(lp1649
Vhip_eyelet_rear_r_dyn_anim
p1650
a(lp1651
VtranslateX
p1652
aVtranslateY
p1653
aVtranslateZ
p1654
aVrotateX
p1655
aVrotateY
p1656
aVrotateZ
p1657
aVchainAttach
p1658
aVchainStartEnvelope
p1659
aVchainStartFrame
p1660
aVchainStiffness
p1661
aVchainDamping
p1662
aVchainGravity
p1663
aVchainIteration
p1664
aVchainCollide
p1665
aVchainWidthBase
p1666
aVchainWidthExtremity
p1667
aVchainCollideGround
p1668
aVchainCollideGroundHeight
p1669
aaF0
aF0
aF0
aF0
aF-0
aF0
aI1
aF0
aF1
aF0.10000000000000001
aF0.20000000000000001
aF1
aI1
aI00
aF1
aF1
aI00
aF0
aa(lp1670
Vhip_eyelet_rear_r_ik_2_anim
p1671
a(lp1672
VtranslateX
p1673
aVtranslateY
p1674
aVtranslateZ
p1675
aVrotateX
p1676
aVrotateY
p1677
aVrotateZ
p1678
aaF0
aF0
aF0
aF0
aF-0
aF0
aa(lp1679
Vhip_eyelet_rear_r_ik_3_anim
p1680
a(lp1681
VtranslateX
p1682
aVtranslateY
p1683
aVtranslateZ
p1684
aVrotateX
p1685
aVrotateY
p1686
aVrotateZ
p1687
aVclusterControlVis
p1688
aaF0
aF0
aF0
aF0
aF-0
aF0
aI00
aa(lp1689
Vhip_eyelet_rear_r_ik_base_anim
p1690
a(lp1691
VtranslateX
p1692
aVtranslateY
p1693
aVtranslateZ
p1694
aVrotateX
p1695
aVrotateY
p1696
aVrotateZ
p1697
aVglobal_scale
p1698
aaF0
aF0
aF0
aF0
aF-0
aF0
aF1.0000000000000002
aa(lp1699
Vfk_hip_eyelet_rear_r_01_anim
p1700
a(lp1701
VtranslateX
p1702
aVtranslateY
p1703
aVtranslateZ
p1704
aVrotateX
p1705
aVrotateY
p1706
aVrotateZ
p1707
aVglobal_scale
p1708
aVlagMode
p1709
aaF0
aF0
aF0
aF0
aF-0
aF0
aF1
aF0
aa(lp1710
Vhip_eyelet_rear_r_cv_0_anim
p1711
a(lp1712
VtranslateX
p1713
aVtranslateY
p1714
aVtranslateZ
p1715
aaF0
aF0
aF0
aa(lp1716
Vfk_hip_eyelet_rear_r_02_anim
p1717
a(lp1718
VtranslateX
p1719
aVtranslateY
p1720
aVtranslateZ
p1721
aVrotateX
p1722
aVrotateY
p1723
aVrotateZ
p1724
aaF0
aF0
aF0
aF0
aF-0
aF0
aa(lp1725
Vhip_eyelet_rear_r_cv_1_anim
p1726
a(lp1727
VtranslateX
p1728
aVtranslateY
p1729
aVtranslateZ
p1730
aaF0
aF0
aF0
aa(lp1731
Vfk_hip_eyelet_rear_r_03_anim
p1732
a(lp1733
VtranslateX
p1734
aVtranslateY
p1735
aVtranslateZ
p1736
aVrotateX
p1737
aVrotateY
p1738
aVrotateZ
p1739
aaF0
aF0
aF0
aF0
aF-0
aF0
aa(lp1740
Vhip_eyelet_rear_r_cv_2_anim
p1741
a(lp1742
VtranslateX
p1743
aVtranslateY
p1744
aVtranslateZ
p1745
aaF0
aF0
aF0
aa(lp1746
Vfk_hip_eyelet_rear_r_04_anim
p1747
a(lp1748
VtranslateX
p1749
aVtranslateY
p1750
aVtranslateZ
p1751
aVrotateX
p1752
aVrotateY
p1753
aVrotateZ
p1754
aaF0
aF0
aF0
aF0
aF-0
aF0
aa(lp1755
Vhip_eyelet_rear_r_cv_3_anim
p1756
a(lp1757
VtranslateX
p1758
aVtranslateY
p1759
aVtranslateZ
p1760
aaF0
aF0
aF0
aa(lp1761
Vjaw_anim
p1762
a(lp1763
VtranslateX
p1764
aVtranslateY
p1765
aVtranslateZ
p1766
aVrotateX
p1767
aVrotateY
p1768
aVrotateZ
p1769
aVscaleX
p1770
aVscaleY
p1771
aVscaleZ
p1772
aaF0
aF0
aF0
aF0
aF0
aF0
aF1
aF1
aF1
aa(lp1773
Vleg_shieldPad_A_l_anim
p1774
a(lp1775
VtranslateX
p1776
aVtranslateY
p1777
aVtranslateZ
p1778
aVrotateX
p1779
aVrotateY
p1780
aVrotateZ
p1781
aVchainAttach
p1782
aVchainStartEnvelope
p1783
aVchainStartFrame
p1784
aVchainStiffness
p1785
aVchainDamping
p1786
aVchainGravity
p1787
aVchainIteration
p1788
aVchainCollide
p1789
aVchainWidthBase
p1790
aVchainWidthExtremity
p1791
aVchainCollideGround
p1792
aVchainCollideGroundHeight
p1793
aaF0
aF0
aF0
aF0
aF-0
aF0
aI0
aF0
aF1
aF0
aF0
aF1
aI0
aI00
aF1
aF1
aI00
aF0
aa(lp1794
Vleg_shieldPad_A_r_anim
p1795
a(lp1796
VtranslateX
p1797
aVtranslateY
p1798
aVtranslateZ
p1799
aVrotateX
p1800
aVrotateY
p1801
aVrotateZ
p1802
aVchainAttach
p1803
aVchainStartEnvelope
p1804
aVchainStartFrame
p1805
aVchainStiffness
p1806
aVchainDamping
p1807
aVchainGravity
p1808
aVchainIteration
p1809
aVchainCollide
p1810
aVchainWidthBase
p1811
aVchainWidthExtremity
p1812
aVchainCollideGround
p1813
aVchainCollideGroundHeight
p1814
aaF0
aF0
aF0
aF0
aF-0
aF0
aI0
aF0
aF1
aF0
aF0
aF1
aI0
aI00
aF1
aF1
aI00
aF0
aa(lp1815
Vleg_shieldPad_B_l_anim
p1816
a(lp1817
VtranslateX
p1818
aVtranslateY
p1819
aVtranslateZ
p1820
aVrotateX
p1821
aVrotateY
p1822
aVrotateZ
p1823
aVchainAttach
p1824
aVchainStartEnvelope
p1825
aVchainStartFrame
p1826
aVchainStiffness
p1827
aVchainDamping
p1828
aVchainGravity
p1829
aVchainIteration
p1830
aVchainCollide
p1831
aVchainWidthBase
p1832
aVchainWidthExtremity
p1833
aVchainCollideGround
p1834
aVchainCollideGroundHeight
p1835
aaF0
aF0
aF0
aF0
aF-0
aF0
aI0
aF0
aF1
aF0
aF0
aF1
aI0
aI00
aF1
aF1
aI00
aF0
aa(lp1836
Vleg_shieldPad_B_r_anim
p1837
a(lp1838
VtranslateX
p1839
aVtranslateY
p1840
aVtranslateZ
p1841
aVrotateX
p1842
aVrotateY
p1843
aVrotateZ
p1844
aVchainAttach
p1845
aVchainStartEnvelope
p1846
aVchainStartFrame
p1847
aVchainStiffness
p1848
aVchainDamping
p1849
aVchainGravity
p1850
aVchainIteration
p1851
aVchainCollide
p1852
aVchainWidthBase
p1853
aVchainWidthExtremity
p1854
aVchainCollideGround
p1855
aVchainCollideGroundHeight
p1856
aaF0
aF0
aF0
aF0
aF-0
aF0
aI0
aF0
aF1
aF0
aF0
aF1
aI0
aI00
aF1
aF1
aI00
aF0
aa(lp1857
Vloin_cloth_bk_dyn_anim
p1858
a(lp1859
VtranslateX
p1860
aVtranslateY
p1861
aVtranslateZ
p1862
aVrotateX
p1863
aVrotateY
p1864
aVrotateZ
p1865
aVchainAttach
p1866
aVchainStartEnvelope
p1867
aVchainStartFrame
p1868
aVchainStiffness
p1869
aVchainDamping
p1870
aVchainGravity
p1871
aVchainIteration
p1872
aVchainCollide
p1873
aVchainWidthBase
p1874
aVchainWidthExtremity
p1875
aVchainCollideGround
p1876
aVchainCollideGroundHeight
p1877
aaF0
aF0
aF0
aF0
aF-0
aF0
aI1
aF0
aF1
aF0.10000000000000001
aF0.20000000000000001
aF1
aI1
aI00
aF1
aF1
aI00
aF0
aa(lp1878
Vloin_cloth_bk_ik_2_anim
p1879
a(lp1880
VtranslateX
p1881
aVtranslateY
p1882
aVtranslateZ
p1883
aVrotateX
p1884
aVrotateY
p1885
aVrotateZ
p1886
aaF0
aF0
aF0
aF0
aF-0
aF0
aa(lp1887
Vloin_cloth_bk_ik_3_anim
p1888
a(lp1889
VtranslateX
p1890
aVtranslateY
p1891
aVtranslateZ
p1892
aVrotateX
p1893
aVrotateY
p1894
aVrotateZ
p1895
aVclusterControlVis
p1896
aaF0
aF0
aF0
aF0
aF-0
aF0
aI00
aa(lp1897
Vloin_cloth_bk_ik_base_anim
p1898
a(lp1899
VtranslateX
p1900
aVtranslateY
p1901
aVtranslateZ
p1902
aVrotateX
p1903
aVrotateY
p1904
aVrotateZ
p1905
aVglobal_scale
p1906
aaF0
aF0
aF0
aF0
aF-0
aF0
aF1
aa(lp1907
Vfk_loin_cloth_bk_01_anim
p1908
a(lp1909
VtranslateX
p1910
aVtranslateY
p1911
aVtranslateZ
p1912
aVrotateX
p1913
aVrotateY
p1914
aVrotateZ
p1915
aVglobal_scale
p1916
aVlagMode
p1917
aaF0
aF0
aF0
aF0
aF-0
aF0
aF1
aF0
aa(lp1918
Vloin_cloth_bk_cv_0_anim
p1919
a(lp1920
VtranslateX
p1921
aVtranslateY
p1922
aVtranslateZ
p1923
aaF0
aF0
aF0
aa(lp1924
Vfk_loin_cloth_bk_02_anim
p1925
a(lp1926
VtranslateX
p1927
aVtranslateY
p1928
aVtranslateZ
p1929
aVrotateX
p1930
aVrotateY
p1931
aVrotateZ
p1932
aaF0
aF0
aF0
aF0
aF-0
aF0
aa(lp1933
Vloin_cloth_bk_cv_1_anim
p1934
a(lp1935
VtranslateX
p1936
aVtranslateY
p1937
aVtranslateZ
p1938
aaF0
aF0
aF0
aa(lp1939
Vloin_cloth_fr_dyn_anim
p1940
a(lp1941
VtranslateX
p1942
aVtranslateY
p1943
aVtranslateZ
p1944
aVrotateX
p1945
aVrotateY
p1946
aVrotateZ
p1947
aVchainAttach
p1948
aVchainStartEnvelope
p1949
aVchainStartFrame
p1950
aVchainStiffness
p1951
aVchainDamping
p1952
aVchainGravity
p1953
aVchainIteration
p1954
aVchainCollide
p1955
aVchainWidthBase
p1956
aVchainWidthExtremity
p1957
aVchainCollideGround
p1958
aVchainCollideGroundHeight
p1959
aaF0
aF0
aF0
aF0
aF-0
aF0
aI1
aF0
aF1
aF0.10000000000000001
aF0.20000000000000001
aF1
aI1
aI00
aF1
aF1
aI00
aF0
aa(lp1960
Vloin_cloth_fr_ik_2_anim
p1961
a(lp1962
VtranslateX
p1963
aVtranslateY
p1964
aVtranslateZ
p1965
aVrotateX
p1966
aVrotateY
p1967
aVrotateZ
p1968
aaF0
aF0
aF0
aF0
aF-0
aF0
aa(lp1969
Vloin_cloth_fr_ik_3_anim
p1970
a(lp1971
VtranslateX
p1972
aVtranslateY
p1973
aVtranslateZ
p1974
aVrotateX
p1975
aVrotateY
p1976
aVrotateZ
p1977
aVclusterControlVis
p1978
aaF0
aF0
aF0
aF0
aF-0
aF0
aI00
aa(lp1979
Vloin_cloth_fr_ik_base_anim
p1980
a(lp1981
VtranslateX
p1982
aVtranslateY
p1983
aVtranslateZ
p1984
aVrotateX
p1985
aVrotateY
p1986
aVrotateZ
p1987
aVglobal_scale
p1988
aaF0
aF0
aF0
aF0
aF-0
aF0
aF1
aa(lp1989
Vfk_loin_cloth_fr_01_anim
p1990
a(lp1991
VtranslateX
p1992
aVtranslateY
p1993
aVtranslateZ
p1994
aVrotateX
p1995
aVrotateY
p1996
aVrotateZ
p1997
aVglobal_scale
p1998
aVlagMode
p1999
aaF0
aF0
aF0
aF0
aF-0
aF0
aF1
aF0
aa(lp2000
Vloin_cloth_fr_cv_0_anim
p2001
a(lp2002
VtranslateX
p2003
aVtranslateY
p2004
aVtranslateZ
p2005
aaF0
aF0
aF0
aa(lp2006
Vfk_loin_cloth_fr_02_anim
p2007
a(lp2008
VtranslateX
p2009
aVtranslateY
p2010
aVtranslateZ
p2011
aVrotateX
p2012
aVrotateY
p2013
aVrotateZ
p2014
aaF0
aF0
aF0
aF0
aF-0
aF0
aa(lp2015
Vloin_cloth_fr_cv_1_anim
p2016
a(lp2017
VtranslateX
p2018
aVtranslateY
p2019
aVtranslateZ
p2020
aaF0
aF0
aF0
aa(lp2021
Vpadawan_l_dyn_anim
p2022
a(lp2023
VtranslateX
p2024
aVtranslateY
p2025
aVtranslateZ
p2026
aVrotateX
p2027
aVrotateY
p2028
aVrotateZ
p2029
aVchainAttach
p2030
aVchainStartEnvelope
p2031
aVchainStartFrame
p2032
aVchainStiffness
p2033
aVchainDamping
p2034
aVchainGravity
p2035
aVchainIteration
p2036
aVchainCollide
p2037
aVchainWidthBase
p2038
aVchainWidthExtremity
p2039
aVchainCollideGround
p2040
aVchainCollideGroundHeight
p2041
aaF0
aF0
aF0
aF0
aF-0
aF0
aI1
aF0
aF1
aF0.10000000000000001
aF0.20000000000000001
aF1
aI1
aI00
aF1
aF1
aI00
aF0
aa(lp2042
Vpadawan_l_ik_2_anim
p2043
a(lp2044
VtranslateX
p2045
aVtranslateY
p2046
aVtranslateZ
p2047
aVrotateX
p2048
aVrotateY
p2049
aVrotateZ
p2050
aaF0
aF0
aF0
aF0
aF-0
aF0
aa(lp2051
Vpadawan_l_ik_3_anim
p2052
a(lp2053
VtranslateX
p2054
aVtranslateY
p2055
aVtranslateZ
p2056
aVrotateX
p2057
aVrotateY
p2058
aVrotateZ
p2059
aVclusterControlVis
p2060
aaF0
aF0
aF0
aF0
aF-0
aF0
aI00
aa(lp2061
Vpadawan_l_ik_base_anim
p2062
a(lp2063
VtranslateX
p2064
aVtranslateY
p2065
aVtranslateZ
p2066
aVrotateX
p2067
aVrotateY
p2068
aVrotateZ
p2069
aVglobal_scale
p2070
aaF0
aF0
aF0
aF0
aF-0
aF0
aF0.99999999999999989
aa(lp2071
Vfk_padawan_l_01_anim
p2072
a(lp2073
VtranslateX
p2074
aVtranslateY
p2075
aVtranslateZ
p2076
aVrotateX
p2077
aVrotateY
p2078
aVrotateZ
p2079
aVglobal_scale
p2080
aVlagMode
p2081
aaF0
aF0
aF0
aF0
aF-0
aF0
aF1
aF0
aa(lp2082
Vpadawan_l_cv_0_anim
p2083
a(lp2084
VtranslateX
p2085
aVtranslateY
p2086
aVtranslateZ
p2087
aaF0
aF0
aF0
aa(lp2088
Vfk_padawan_l_02_anim
p2089
a(lp2090
VtranslateX
p2091
aVtranslateY
p2092
aVtranslateZ
p2093
aVrotateX
p2094
aVrotateY
p2095
aVrotateZ
p2096
aaF0
aF0
aF0
aF0
aF-0
aF0
aa(lp2097
Vpadawan_l_cv_1_anim
p2098
a(lp2099
VtranslateX
p2100
aVtranslateY
p2101
aVtranslateZ
p2102
aaF0
aF0
aF0
aa(lp2103
Vfk_padawan_l_03_anim
p2104
a(lp2105
VtranslateX
p2106
aVtranslateY
p2107
aVtranslateZ
p2108
aVrotateX
p2109
aVrotateY
p2110
aVrotateZ
p2111
aaF0
aF0
aF0
aF0
aF-0
aF0
aa(lp2112
Vpadawan_l_cv_2_anim
p2113
a(lp2114
VtranslateX
p2115
aVtranslateY
p2116
aVtranslateZ
p2117
aaF0
aF0
aF0
aa(lp2118
Vpadawan_r_dyn_anim
p2119
a(lp2120
VtranslateX
p2121
aVtranslateY
p2122
aVtranslateZ
p2123
aVrotateX
p2124
aVrotateY
p2125
aVrotateZ
p2126
aVchainAttach
p2127
aVchainStartEnvelope
p2128
aVchainStartFrame
p2129
aVchainStiffness
p2130
aVchainDamping
p2131
aVchainGravity
p2132
aVchainIteration
p2133
aVchainCollide
p2134
aVchainWidthBase
p2135
aVchainWidthExtremity
p2136
aVchainCollideGround
p2137
aVchainCollideGroundHeight
p2138
aaF0
aF0
aF0
aF0
aF-0
aF0
aI1
aF0
aF1
aF0.10000000000000001
aF0.20000000000000001
aF1
aI1
aI00
aF1
aF1
aI00
aF0
aa(lp2139
Vpadawan_r_ik_2_anim
p2140
a(lp2141
VtranslateX
p2142
aVtranslateY
p2143
aVtranslateZ
p2144
aVrotateX
p2145
aVrotateY
p2146
aVrotateZ
p2147
aaF0
aF0
aF0
aF0
aF-0
aF0
aa(lp2148
Vpadawan_r_ik_3_anim
p2149
a(lp2150
VtranslateX
p2151
aVtranslateY
p2152
aVtranslateZ
p2153
aVrotateX
p2154
aVrotateY
p2155
aVrotateZ
p2156
aVclusterControlVis
p2157
aaF0
aF0
aF0
aF0
aF-0
aF0
aI00
aa(lp2158
Vpadawan_r_ik_base_anim
p2159
a(lp2160
VtranslateX
p2161
aVtranslateY
p2162
aVtranslateZ
p2163
aVrotateX
p2164
aVrotateY
p2165
aVrotateZ
p2166
aVglobal_scale
p2167
aaF0
aF0
aF0
aF0
aF-0
aF0
aF1
aa(lp2168
Vfk_padawan_r_01_anim
p2169
a(lp2170
VtranslateX
p2171
aVtranslateY
p2172
aVtranslateZ
p2173
aVrotateX
p2174
aVrotateY
p2175
aVrotateZ
p2176
aVglobal_scale
p2177
aVlagMode
p2178
aaF0
aF0
aF0
aF0
aF-0
aF0
aF1
aF0
aa(lp2179
Vpadawan_r_cv_0_anim
p2180
a(lp2181
VtranslateX
p2182
aVtranslateY
p2183
aVtranslateZ
p2184
aaF0
aF0
aF0
aa(lp2185
Vfk_padawan_r_02_anim
p2186
a(lp2187
VtranslateX
p2188
aVtranslateY
p2189
aVtranslateZ
p2190
aVrotateX
p2191
aVrotateY
p2192
aVrotateZ
p2193
aaF0
aF0
aF0
aF0
aF-0
aF0
aa(lp2194
Vpadawan_r_cv_1_anim
p2195
a(lp2196
VtranslateX
p2197
aVtranslateY
p2198
aVtranslateZ
p2199
aaF0
aF0
aF0
aa(lp2200
Vfk_padawan_r_03_anim
p2201
a(lp2202
VtranslateX
p2203
aVtranslateY
p2204
aVtranslateZ
p2205
aVrotateX
p2206
aVrotateY
p2207
aVrotateZ
p2208
aaF0
aF0
aF0
aF0
aF-0
aF0
aa(lp2209
Vpadawan_r_cv_2_anim
p2210
a(lp2211
VtranslateX
p2212
aVtranslateY
p2213
aVtranslateZ
p2214
aaF0
aF0
aF0
aa(lp2215
Vpipe_anim
p2216
a(lp2217
VtranslateX
p2218
aVtranslateY
p2219
aVtranslateZ
p2220
aVrotateX
p2221
aVrotateY
p2222
aVrotateZ
p2223
aVscaleX
p2224
aVscaleY
p2225
aVscaleZ
p2226
aaF0
aF0
aF0
aF0
aF0
aF0
aF1
aF1
aF1
aa(lp2227
Vponytail_dyn_anim
p2228
a(lp2229
VtranslateX
p2230
aVtranslateY
p2231
aVtranslateZ
p2232
aVrotateX
p2233
aVrotateY
p2234
aVrotateZ
p2235
aVchainAttach
p2236
aVchainStartEnvelope
p2237
aVchainStartFrame
p2238
aVchainStiffness
p2239
aVchainDamping
p2240
aVchainGravity
p2241
aVchainIteration
p2242
aVchainCollide
p2243
aVchainWidthBase
p2244
aVchainWidthExtremity
p2245
aVchainCollideGround
p2246
aVchainCollideGroundHeight
p2247
aaF0
aF0
aF0
aF0
aF-0
aF0
aI1
aF0
aF1
aF0.10000000000000001
aF0.20000000000000001
aF1
aI1
aI00
aF1
aF1
aI00
aF0
aa(lp2248
Vponytail_ik_2_anim
p2249
a(lp2250
VtranslateX
p2251
aVtranslateY
p2252
aVtranslateZ
p2253
aVrotateX
p2254
aVrotateY
p2255
aVrotateZ
p2256
aaF0
aF0
aF0
aF0
aF-0
aF0
aa(lp2257
Vponytail_ik_3_anim
p2258
a(lp2259
VtranslateX
p2260
aVtranslateY
p2261
aVtranslateZ
p2262
aVrotateX
p2263
aVrotateY
p2264
aVrotateZ
p2265
aVclusterControlVis
p2266
aaF0
aF0
aF0
aF0
aF-0
aF0
aI00
aa(lp2267
Vponytail_ik_base_anim
p2268
a(lp2269
VtranslateX
p2270
aVtranslateY
p2271
aVtranslateZ
p2272
aVrotateX
p2273
aVrotateY
p2274
aVrotateZ
p2275
aVglobal_scale
p2276
aaF0
aF0
aF0
aF0
aF-0
aF0
aF1
aa(lp2277
Vfk_ponytail_01_anim
p2278
a(lp2279
VtranslateX
p2280
aVtranslateY
p2281
aVtranslateZ
p2282
aVrotateX
p2283
aVrotateY
p2284
aVrotateZ
p2285
aVglobal_scale
p2286
aVlagMode
p2287
aaF0
aF0
aF0
aF0
aF-0
aF0
aF1
aF0
aa(lp2288
Vponytail_cv_0_anim
p2289
a(lp2290
VtranslateX
p2291
aVtranslateY
p2292
aVtranslateZ
p2293
aaF0
aF0
aF0
aa(lp2294
Vfk_ponytail_02_anim
p2295
a(lp2296
VtranslateX
p2297
aVtranslateY
p2298
aVtranslateZ
p2299
aVrotateX
p2300
aVrotateY
p2301
aVrotateZ
p2302
aaF0
aF0
aF0
aF0
aF-0
aF0
aa(lp2303
Vponytail_cv_1_anim
p2304
a(lp2305
VtranslateX
p2306
aVtranslateY
p2307
aVtranslateZ
p2308
aaF0
aF0
aF0
aa(lp2309
Vfk_ponytail_03_anim
p2310
a(lp2311
VtranslateX
p2312
aVtranslateY
p2313
aVtranslateZ
p2314
aVrotateX
p2315
aVrotateY
p2316
aVrotateZ
p2317
aaF0
aF0
aF0
aF0
aF-0
aF0
aa(lp2318
Vponytail_cv_2_anim
p2319
a(lp2320
VtranslateX
p2321
aVtranslateY
p2322
aVtranslateZ
p2323
aaF0
aF0
aF0
aa(lp2324
Vshoulder_blade_in_r_anim
p2325
a(lp2326
VtranslateX
p2327
aVtranslateY
p2328
aVtranslateZ
p2329
aVrotateX
p2330
aVrotateY
p2331
aVrotateZ
p2332
aVscaleX
p2333
aVscaleY
p2334
aVscaleZ
p2335
aaF0
aF0
aF0
aF0
aF-0
aF0
aF1
aF1
aF1
aa(lp2336
Vshoulder_blade_mid_r_anim
p2337
a(lp2338
VtranslateX
p2339
aVtranslateY
p2340
aVtranslateZ
p2341
aVrotateX
p2342
aVrotateY
p2343
aVrotateZ
p2344
aVscaleX
p2345
aVscaleY
p2346
aVscaleZ
p2347
aaF0
aF0
aF0
aF0
aF-0
aF0
aF1
aF1
aF1
aa(lp2348
Vshoulder_blade_out_r_anim
p2349
a(lp2350
VtranslateX
p2351
aVtranslateY
p2352
aVtranslateZ
p2353
aVrotateX
p2354
aVrotateY
p2355
aVrotateZ
p2356
aVscaleX
p2357
aVscaleY
p2358
aVscaleZ
p2359
aaF0
aF0
aF0
aF0
aF-0
aF0
aF1
aF1
aF1
aa(lp2360
Vshoulder_cloth_01_l_anim
p2361
a(lp2362
VtranslateX
p2363
aVtranslateY
p2364
aVtranslateZ
p2365
aVrotateX
p2366
aVrotateY
p2367
aVrotateZ
p2368
aVscaleX
p2369
aVscaleY
p2370
aVscaleZ
p2371
aaF0
aF0
aF0
aF0
aF-0
aF0
aF1
aF1
aF1
aa(lp2372
Vshoulder_cloth_02_l_anim
p2373
a(lp2374
VtranslateX
p2375
aVtranslateY
p2376
aVtranslateZ
p2377
aVrotateX
p2378
aVrotateY
p2379
aVrotateZ
p2380
aVscaleX
p2381
aVscaleY
p2382
aVscaleZ
p2383
aaF0
aF0
aF0
aF0
aF-0
aF0
aF1
aF1
aF1
aa(lp2384
Vshoulder_pad_r_anim
p2385
a(lp2386
VtranslateX
p2387
aVtranslateY
p2388
aVtranslateZ
p2389
aVrotateX
p2390
aVrotateY
p2391
aVrotateZ
p2392
aVscaleX
p2393
aVscaleY
p2394
aVscaleZ
p2395
aaF-5.1201573601758215
aF-2.4944665199118745
aF8.5918446253983589
aF-3.1139272938564653
aF-26.131988386450814
aF4.3256417366023543
aF1
aF1
aF1
aa(lp2396
Vweapon_anim
p2397
a(lp2398
VtranslateX
p2399
aVtranslateY
p2400
aVtranslateZ
p2401
aVrotateX
p2402
aVrotateY
p2403
aVrotateZ
p2404
aVscaleX
p2405
aVscaleY
p2406
aVscaleZ
p2407
aaF-32.896301329230923
aF46.506538817845886
aF29.785314381556294
aF355.44126885748955
aF-256.98075775394142
aF-478.17311399841611
aF1
aF1
aF1
aa(lp2408
Vweapon_bladeA_01_anim
p2409
a(lp2410
VtranslateX
p2411
aVtranslateY
p2412
aVtranslateZ
p2413
aVrotateX
p2414
aVrotateY
p2415
aVrotateZ
p2416
aVscaleX
p2417
aVscaleY
p2418
aVscaleZ
p2419
aaF0
aF0
aF0
aF0
aF-0
aF0
aF1
aF1
aF1
aa(lp2420
Vweapon_bladeA_02_anim
p2421
a(lp2422
VtranslateX
p2423
aVtranslateY
p2424
aVtranslateZ
p2425
aVrotateX
p2426
aVrotateY
p2427
aVrotateZ
p2428
aVscaleX
p2429
aVscaleY
p2430
aVscaleZ
p2431
aaF0
aF0
aF0
aF0
aF-0
aF0
aF1
aF1
aF1
aa(lp2432
Vweapon_bladeA_03_anim
p2433
a(lp2434
VtranslateX
p2435
aVtranslateY
p2436
aVtranslateZ
p2437
aVrotateX
p2438
aVrotateY
p2439
aVrotateZ
p2440
aVscaleX
p2441
aVscaleY
p2442
aVscaleZ
p2443
aaF0
aF0
aF0
aF0
aF-0
aF0
aF1
aF1
aF1
aa(lp2444
Vweapon_bladeA_04_anim
p2445
a(lp2446
VtranslateX
p2447
aVtranslateY
p2448
aVtranslateZ
p2449
aVrotateX
p2450
aVrotateY
p2451
aVrotateZ
p2452
aVscaleX
p2453
aVscaleY
p2454
aVscaleZ
p2455
aaF0
aF0
aF0
aF0
aF-0
aF0
aF1
aF1
aF1
aa(lp2456
Vweapon_bladeA_05_anim
p2457
a(lp2458
VtranslateX
p2459
aVtranslateY
p2460
aVtranslateZ
p2461
aVrotateX
p2462
aVrotateY
p2463
aVrotateZ
p2464
aVscaleX
p2465
aVscaleY
p2466
aVscaleZ
p2467
aaF0
aF0
aF0
aF0
aF-0
aF0
aF1
aF1
aF1
aa(lp2468
Vweapon_bladeB_01_anim
p2469
a(lp2470
VtranslateX
p2471
aVtranslateY
p2472
aVtranslateZ
p2473
aVrotateX
p2474
aVrotateY
p2475
aVrotateZ
p2476
aVscaleX
p2477
aVscaleY
p2478
aVscaleZ
p2479
aaF0
aF0
aF0
aF0
aF-0
aF0
aF1
aF1
aF1
aa(lp2480
Vweapon_bladeB_02_anim
p2481
a(lp2482
VtranslateX
p2483
aVtranslateY
p2484
aVtranslateZ
p2485
aVrotateX
p2486
aVrotateY
p2487
aVrotateZ
p2488
aVscaleX
p2489
aVscaleY
p2490
aVscaleZ
p2491
aaF0
aF0
aF0
aF0
aF-0
aF0
aF1
aF1
aF1
aa(lp2492
Vweapon_bladeB_03_anim
p2493
a(lp2494
VtranslateX
p2495
aVtranslateY
p2496
aVtranslateZ
p2497
aVrotateX
p2498
aVrotateY
p2499
aVrotateZ
p2500
aVscaleX
p2501
aVscaleY
p2502
aVscaleZ
p2503
aaF0
aF0
aF0
aF0
aF-0
aF0
aF1
aF1
aF1
aa(lp2504
Vweapon_bladeB_04_anim
p2505
a(lp2506
VtranslateX
p2507
aVtranslateY
p2508
aVtranslateZ
p2509
aVrotateX
p2510
aVrotateY
p2511
aVrotateZ
p2512
aVscaleX
p2513
aVscaleY
p2514
aVscaleZ
p2515
aaF0
aF0
aF0
aF0
aF-0
aF0
aF1
aF1
aF1
aa(lp2516
Vweapon_bladeB_05_anim
p2517
a(lp2518
VtranslateX
p2519
aVtranslateY
p2520
aVtranslateZ
p2521
aVrotateX
p2522
aVrotateY
p2523
aVrotateZ
p2524
aVscaleX
p2525
aVscaleY
p2526
aVscaleZ
p2527
aaF0
aF0
aF0
aF0
aF-0
aF0
aF1
aF1
aF1
aa(lp2528
Vweapon_bladeC_01_anim
p2529
a(lp2530
VtranslateX
p2531
aVtranslateY
p2532
aVtranslateZ
p2533
aVrotateX
p2534
aVrotateY
p2535
aVrotateZ
p2536
aVscaleX
p2537
aVscaleY
p2538
aVscaleZ
p2539
aaF0
aF0
aF0
aF0
aF-0
aF0
aF1
aF1
aF1
aa(lp2540
Vweapon_bladeC_02_anim
p2541
a(lp2542
VtranslateX
p2543
aVtranslateY
p2544
aVtranslateZ
p2545
aVrotateX
p2546
aVrotateY
p2547
aVrotateZ
p2548
aVscaleX
p2549
aVscaleY
p2550
aVscaleZ
p2551
aaF0
aF0
aF0
aF0
aF-0
aF0
aF1
aF1
aF1
aa(lp2552
Vweapon_bladeC_03_anim
p2553
a(lp2554
VtranslateX
p2555
aVtranslateY
p2556
aVtranslateZ
p2557
aVrotateX
p2558
aVrotateY
p2559
aVrotateZ
p2560
aVscaleX
p2561
aVscaleY
p2562
aVscaleZ
p2563
aaF0
aF0
aF0
aF0
aF-0
aF0
aF1
aF1
aF1
aa(lp2564
Vweapon_bladeD_01_anim
p2565
a(lp2566
VtranslateX
p2567
aVtranslateY
p2568
aVtranslateZ
p2569
aVrotateX
p2570
aVrotateY
p2571
aVrotateZ
p2572
aVscaleX
p2573
aVscaleY
p2574
aVscaleZ
p2575
aaF0
aF0
aF0
aF0
aF-0
aF0
aF1
aF1
aF1
aa(lp2576
Vweapon_butt_dyn_anim
p2577
a(lp2578
VtranslateX
p2579
aVtranslateY
p2580
aVtranslateZ
p2581
aVrotateX
p2582
aVrotateY
p2583
aVrotateZ
p2584
aVchainAttach
p2585
aVchainStartEnvelope
p2586
aVchainStartFrame
p2587
aVchainStiffness
p2588
aVchainDamping
p2589
aVchainGravity
p2590
aVchainIteration
p2591
aVchainCollide
p2592
aVchainWidthBase
p2593
aVchainWidthExtremity
p2594
aVchainCollideGround
p2595
aVchainCollideGroundHeight
p2596
aaF0
aF0
aF0
aF0
aF-0
aF0
aI1
aF0
aF1
aF0.10000000000000001
aF0.20000000000000001
aF1
aI1
aI00
aF1
aF1
aI00
aF0
aa(lp2597
Vweapon_butt_ik_2_anim
p2598
a(lp2599
VtranslateX
p2600
aVtranslateY
p2601
aVtranslateZ
p2602
aVrotateX
p2603
aVrotateY
p2604
aVrotateZ
p2605
aaF0
aF0
aF0
aF0
aF-0
aF0
aa(lp2606
Vweapon_butt_ik_3_anim
p2607
a(lp2608
VtranslateX
p2609
aVtranslateY
p2610
aVtranslateZ
p2611
aVrotateX
p2612
aVrotateY
p2613
aVrotateZ
p2614
aaF0
aF0
aF0
aF0
aF-0
aF0
aa(lp2615
Vweapon_butt_ik_4_anim
p2616
a(lp2617
VtranslateX
p2618
aVtranslateY
p2619
aVtranslateZ
p2620
aVrotateX
p2621
aVrotateY
p2622
aVrotateZ
p2623
aVclusterControlVis
p2624
aaF0
aF0
aF0
aF0
aF-0
aF0
aI00
aa(lp2625
Vweapon_butt_ik_base_anim
p2626
a(lp2627
VtranslateX
p2628
aVtranslateY
p2629
aVtranslateZ
p2630
aVrotateX
p2631
aVrotateY
p2632
aVrotateZ
p2633
aVglobal_scale
p2634
aaF0
aF0
aF0
aF0
aF-0
aF0
aF1
aa(lp2635
Vfk_weapon_butt_01_anim
p2636
a(lp2637
VtranslateX
p2638
aVtranslateY
p2639
aVtranslateZ
p2640
aVrotateX
p2641
aVrotateY
p2642
aVrotateZ
p2643
aVglobal_scale
p2644
aVlagMode
p2645
aaF0
aF0
aF0
aF0
aF-0
aF0
aF1
aF0
aa(lp2646
Vweapon_butt_cv_0_anim
p2647
a(lp2648
VtranslateX
p2649
aVtranslateY
p2650
aVtranslateZ
p2651
aaF0
aF0
aF0
aa(lp2652
Vfk_weapon_butt_02_anim
p2653
a(lp2654
VtranslateX
p2655
aVtranslateY
p2656
aVtranslateZ
p2657
aVrotateX
p2658
aVrotateY
p2659
aVrotateZ
p2660
aaF0
aF0
aF0
aF0
aF-0
aF0
aa(lp2661
Vweapon_butt_cv_1_anim
p2662
a(lp2663
VtranslateX
p2664
aVtranslateY
p2665
aVtranslateZ
p2666
aaF0
aF0
aF0
aa(lp2667
Vfk_weapon_butt_03_anim
p2668
a(lp2669
VtranslateX
p2670
aVtranslateY
p2671
aVtranslateZ
p2672
aVrotateX
p2673
aVrotateY
p2674
aVrotateZ
p2675
aaF0
aF0
aF0
aF0
aF-0
aF0
aa(lp2676
Vweapon_butt_cv_2_anim
p2677
a(lp2678
VtranslateX
p2679
aVtranslateY
p2680
aVtranslateZ
p2681
aaF0
aF0
aF0
aa(lp2682
Vfk_weapon_butt_04_anim
p2683
a(lp2684
VtranslateX
p2685
aVtranslateY
p2686
aVtranslateZ
p2687
aVrotateX
p2688
aVrotateY
p2689
aVrotateZ
p2690
aaF0
aF0
aF0
aF0
aF-0
aF0
aa(lp2691
Vweapon_butt_cv_3_anim
p2692
a(lp2693
VtranslateX
p2694
aVtranslateY
p2695
aVtranslateZ
p2696
aaF0
aF0
aF0
aa(lp2697
Vfk_weapon_butt_05_anim
p2698
a(lp2699
VtranslateX
p2700
aVtranslateY
p2701
aVtranslateZ
p2702
aVrotateX
p2703
aVrotateY
p2704
aVrotateZ
p2705
aaF0
aF0
aF0
aF0
aF-0
aF0
aa(lp2706
Vweapon_butt_cv_4_anim
p2707
a(lp2708
VtranslateX
p2709
aVtranslateY
p2710
aVtranslateZ
p2711
aaF0
aF0
aF0
aa(lp2712
Vfk_weapon_butt_06_anim
p2713
a(lp2714
VtranslateX
p2715
aVtranslateY
p2716
aVtranslateZ
p2717
aVrotateX
p2718
aVrotateY
p2719
aVrotateZ
p2720
aaF0
aF0
aF0
aF0
aF-0
aF0
aa(lp2721
Vweapon_butt_cv_5_anim
p2722
a(lp2723
VtranslateX
p2724
aVtranslateY
p2725
aVtranslateZ
p2726
aaF0
aF0
aF0
aa(lp2727
Vfk_weapon_butt_07_anim
p2728
a(lp2729
VtranslateX
p2730
aVtranslateY
p2731
aVtranslateZ
p2732
aVrotateX
p2733
aVrotateY
p2734
aVrotateZ
p2735
aaF0
aF0
aF0
aF0
aF-0
aF0
aa(lp2736
Vweapon_butt_cv_6_anim
p2737
a(lp2738
VtranslateX
p2739
aVtranslateY
p2740
aVtranslateZ
p2741
aaF0
aF0
aF0
aa(lp2742
Vfk_weapon_butt_08_anim
p2743
a(lp2744
VtranslateX
p2745
aVtranslateY
p2746
aVtranslateZ
p2747
aVrotateX
p2748
aVrotateY
p2749
aVrotateZ
p2750
aaF0
aF0
aF0
aF0
aF-0
aF0
aa(lp2751
Vweapon_butt_cv_7_anim
p2752
a(lp2753
VtranslateX
p2754
aVtranslateY
p2755
aVtranslateZ
p2756
aaF0
aF0
aF0
aa(lp2757
Vfk_weapon_butt_09_anim
p2758
a(lp2759
VtranslateX
p2760
aVtranslateY
p2761
aVtranslateZ
p2762
aVrotateX
p2763
aVrotateY
p2764
aVrotateZ
p2765
aaF0
aF0
aF0
aF0
aF-0
aF0
aa(lp2766
Vweapon_butt_cv_8_anim
p2767
a(lp2768
VtranslateX
p2769
aVtranslateY
p2770
aVtranslateZ
p2771
aaF0
aF0
aF0
aa(lp2772
Vwrist_plate_r_anim
p2773
a(lp2774
VtranslateX
p2775
aVtranslateY
p2776
aVtranslateZ
p2777
aVrotateX
p2778
aVrotateY
p2779
aVrotateZ
p2780
aVscaleX
p2781
aVscaleY
p2782
aVscaleZ
p2783
aaF0
aF0
aF0
aF0
aF-0
aF0
aF1
aF1
aF1
aa(lp2784
Vbody_anim_space_switcher
p2785
a(lp2786
Vvisibility
p2787
aVtranslateX
p2788
aVtranslateY
p2789
aVtranslateZ
p2790
aVrotateX
p2791
aVrotateY
p2792
aVrotateZ
p2793
aVscaleX
p2794
aVscaleY
p2795
aVscaleZ
p2796
aVspace_world
p2797
aaI01
aF0
aF0
aF5.856452433224257e-15
aF0
aF0
aF0
aF1
aF1
aF1
aF0
aa(lp2798
Vbracelet_A_l_anim_space_switcher
p2799
a(lp2800
Vvisibility
p2801
aVtranslateX
p2802
aVtranslateY
p2803
aVtranslateZ
p2804
aVrotateX
p2805
aVrotateY
p2806
aVrotateZ
p2807
aVscaleX
p2808
aVscaleY
p2809
aVscaleZ
p2810
aVspace_world
p2811
aaI01
aF1.4210854715202004e-14
aF0
aF0
aF3.1805546814635168e-15
aF1.5902773407317584e-15
aF-7.9513867036587919e-16
aF1
aF1
aF0.99999999999999989
aF0
aa(lp2812
Vbracelet_B_l_anim_space_switcher
p2813
a(lp2814
Vvisibility
p2815
aVtranslateX
p2816
aVtranslateY
p2817
aVtranslateZ
p2818
aVrotateX
p2819
aVrotateY
p2820
aVrotateZ
p2821
aVscaleX
p2822
aVscaleY
p2823
aVscaleZ
p2824
aVspace_world
p2825
aaI01
aF0
aF-1.4210854715202004e-14
aF0
aF-3.1805546814635168e-15
aF-0
aF-1.5902773407317584e-15
aF1
aF1
aF1
aF0
aa(lp2826
Vbracelet_C_l_anim_space_switcher
p2827
a(lp2828
Vvisibility
p2829
aVtranslateX
p2830
aVtranslateY
p2831
aVtranslateZ
p2832
aVrotateX
p2833
aVrotateY
p2834
aVrotateZ
p2835
aVscaleX
p2836
aVscaleY
p2837
aVscaleZ
p2838
aVspace_world
p2839
aaI01
aF1.4210854715202004e-14
aF1.4210854715202004e-14
aF2.8421709430404007e-14
aF3.180554681463516e-15
aF-3.180554681463516e-15
aF0
aF1.0000000000000002
aF1.0000000000000002
aF1.0000000000000002
aF0
aa(lp2840
Vchest_ik_anim_space_switcher
p2841
a(lp2842
Vvisibility
p2843
aVtranslateX
p2844
aVtranslateY
p2845
aVtranslateZ
p2846
aVrotateX
p2847
aVrotateY
p2848
aVrotateZ
p2849
aVscaleX
p2850
aVscaleY
p2851
aVscaleZ
p2852
aVspace_world
p2853
aVspace_chest_ik_world_aligned
p2854
aaI01
aF0
aF-8.8817841970012523e-15
aF-1.3555225542027927e-07
aF3.5311250384401269e-31
aF2.8249000307521015e-30
aF0
aF1
aF1
aF1
aF0
aF0
aa(lp2855
Veyeball_l_anim_space_switcher
p2856
a(lp2857
Vvisibility
p2858
aVtranslateX
p2859
aVtranslateY
p2860
aVtranslateZ
p2861
aVrotateX
p2862
aVrotateY
p2863
aVrotateZ
p2864
aVscaleX
p2865
aVscaleY
p2866
aVscaleZ
p2867
aVspace_world
p2868
aaI01
aF0
aF0
aF0
aF0
aF0
aF0
aF1
aF1
aF1
aF0
aa(lp2869
Veyeball_r_anim_space_switcher
p2870
a(lp2871
Vvisibility
p2872
aVtranslateX
p2873
aVtranslateY
p2874
aVtranslateZ
p2875
aVrotateX
p2876
aVrotateY
p2877
aVrotateZ
p2878
aVscaleX
p2879
aVscaleY
p2880
aVscaleZ
p2881
aVspace_world
p2882
aaI01
aF4.4408920985006262e-16
aF0
aF0
aF0
aF0
aF0
aF1
aF1
aF1
aF0
aa(lp2883
Veyebrow_in_l_anim_space_switcher
p2884
a(lp2885
Vvisibility
p2886
aVtranslateX
p2887
aVtranslateY
p2888
aVtranslateZ
p2889
aVrotateX
p2890
aVrotateY
p2891
aVrotateZ
p2892
aVscaleX
p2893
aVscaleY
p2894
aVscaleZ
p2895
aVspace_world
p2896
aaI01
aF0
aF-3.5527136788005009e-15
aF-2.8421709430404007e-14
aF0
aF9.9392333795734899e-17
aF-3.975693351829396e-16
aF1
aF1
aF1.0000000000000002
aF0
aa(lp2897
Veyebrow_in_r_anim_space_switcher
p2898
a(lp2899
Vvisibility
p2900
aVtranslateX
p2901
aVtranslateY
p2902
aVtranslateZ
p2903
aVrotateX
p2904
aVrotateY
p2905
aVrotateZ
p2906
aVscaleX
p2907
aVscaleY
p2908
aVscaleZ
p2909
aVspace_world
p2910
aaI01
aF-4.4408920985006262e-16
aF0
aF0
aF7.9513867036587919e-16
aF-9.9392333795734874e-17
aF4.5968954380527377e-16
aF1.0000000000000002
aF1
aF1.0000000000000002
aF0
aa(lp2911
Veyebrow_out_l_anim_space_switcher
p2912
a(lp2913
Vvisibility
p2914
aVtranslateX
p2915
aVtranslateY
p2916
aVtranslateZ
p2917
aVrotateX
p2918
aVrotateY
p2919
aVrotateZ
p2920
aVscaleX
p2921
aVscaleY
p2922
aVscaleZ
p2923
aVspace_world
p2924
aaI01
aF-1.4210854715202004e-14
aF0
aF0
aF0
aF1.5902773407317584e-15
aF-2.3854160110976376e-15
aF1
aF0.99999999999999989
aF1
aF0
aa(lp2925
Veyebrow_out_r_anim_space_switcher
p2926
a(lp2927
Vvisibility
p2928
aVtranslateX
p2929
aVtranslateY
p2930
aVtranslateZ
p2931
aVrotateX
p2932
aVrotateY
p2933
aVrotateZ
p2934
aVscaleX
p2935
aVscaleY
p2936
aVscaleZ
p2937
aVspace_world
p2938
aaI01
aF-7.1054273576010019e-15
aF0
aF-2.8421709430404007e-14
aF0
aF1.590277340731758e-15
aF7.9513867036587899e-16
aF1.0000000000000002
aF1
aF1
aF0
aa(lp2939
Veyelid_bott_l_anim_space_switcher
p2940
a(lp2941
Vvisibility
p2942
aVtranslateX
p2943
aVtranslateY
p2944
aVtranslateZ
p2945
aVrotateX
p2946
aVrotateY
p2947
aVrotateZ
p2948
aVscaleX
p2949
aVscaleY
p2950
aVscaleZ
p2951
aVspace_world
p2952
aaI01
aF0
aF0
aF0
aF0
aF0
aF0
aF1
aF1
aF1
aF0
aa(lp2953
Veyelid_bott_r_anim_space_switcher
p2954
a(lp2955
Vvisibility
p2956
aVtranslateX
p2957
aVtranslateY
p2958
aVtranslateZ
p2959
aVrotateX
p2960
aVrotateY
p2961
aVrotateZ
p2962
aVscaleX
p2963
aVscaleY
p2964
aVscaleZ
p2965
aVspace_world
p2966
aaI01
aF4.4408920985006262e-16
aF0
aF0
aF0
aF0
aF0
aF1
aF1
aF1
aF0
aa(lp2967
Veyelid_top_l_anim_space_switcher
p2968
a(lp2969
Vvisibility
p2970
aVtranslateX
p2971
aVtranslateY
p2972
aVtranslateZ
p2973
aVrotateX
p2974
aVrotateY
p2975
aVrotateZ
p2976
aVscaleX
p2977
aVscaleY
p2978
aVscaleZ
p2979
aVspace_world
p2980
aaI01
aF0
aF0
aF0
aF0
aF0
aF0
aF1
aF1
aF1
aF0
aa(lp2981
Veyelid_top_r_anim_space_switcher
p2982
a(lp2983
Vvisibility
p2984
aVtranslateX
p2985
aVtranslateY
p2986
aVtranslateZ
p2987
aVrotateX
p2988
aVrotateY
p2989
aVrotateZ
p2990
aVscaleX
p2991
aVscaleY
p2992
aVscaleZ
p2993
aVspace_world
p2994
aaI01
aF4.4408920985006262e-16
aF0
aF0
aF0
aF0
aF0
aF1
aF1
aF1
aF0
aa(lp2995
Vhip_back_flaps_anim_space_switcher
p2996
a(lp2997
Vvisibility
p2998
aVtranslateX
p2999
aVtranslateY
p3000
aVtranslateZ
p3001
aVrotateX
p3002
aVrotateY
p3003
aVrotateZ
p3004
aVscaleX
p3005
aVscaleY
p3006
aVscaleZ
p3007
aVspace_world
p3008
aaI01
aF0
aF0
aF0
aF0
aF0
aF0
aF1
aF1
aF1
aF0
aa(lp3009
Vik_elbow_l_anim_space_switcher
p3010
a(lp3011
Vvisibility
p3012
aVtranslateX
p3013
aVtranslateY
p3014
aVtranslateZ
p3015
aVrotateX
p3016
aVrotateY
p3017
aVrotateZ
p3018
aVscaleX
p3019
aVscaleY
p3020
aVscaleZ
p3021
aVspace_world
p3022
aVspace_body_anim
p3023
aVspace_chest_ik_anim
p3024
aaI01
aF-5.5530346187993018e-06
aF-8.2796614577773653e-06
aF0.00010569494523338108
aF0
aF0
aF0
aF1
aF1
aF1
aF0
aF0
aF0
aa(lp3025
Vik_elbow_r_anim_space_switcher
p3026
a(lp3027
Vvisibility
p3028
aVtranslateX
p3029
aVtranslateY
p3030
aVtranslateZ
p3031
aVrotateX
p3032
aVrotateY
p3033
aVrotateZ
p3034
aVscaleX
p3035
aVscaleY
p3036
aVscaleZ
p3037
aVspace_world
p3038
aVspace_body_anim
p3039
aVspace_chest_ik_anim
p3040
aaI01
aF-5.5530346187993018e-06
aF8.2796614577773653e-06
aF-0.00010569494523338108
aF0
aF0
aF0
aF1
aF1
aF1
aF0
aF0
aF0
aa(lp3041
Vik_foot_anim_l_space_switcher
p3042
a(lp3043
Vvisibility
p3044
aVtranslateX
p3045
aVtranslateY
p3046
aVtranslateZ
p3047
aVrotateX
p3048
aVrotateY
p3049
aVrotateZ
p3050
aVscaleX
p3051
aVscaleY
p3052
aVscaleZ
p3053
aVspace_world
p3054
aVspace_body_anim
p3055
aaI01
aF1.7795704437162385e-05
aF1.7388318187983032e-05
aF-0.00018205549879724003
aF0
aF-0
aF-0
aF1
aF1
aF1
aF0
aF0
aa(lp3056
Vik_foot_anim_r_space_switcher
p3057
a(lp3058
Vvisibility
p3059
aVtranslateX
p3060
aVtranslateY
p3061
aVtranslateZ
p3062
aVrotateX
p3063
aVrotateY
p3064
aVrotateZ
p3065
aVscaleX
p3066
aVscaleY
p3067
aVscaleZ
p3068
aVspace_world
p3069
aVspace_body_anim
p3070
aaI01
aF1.7795704437162385e-05
aF-1.7388318187983032e-05
aF0.00018205549879724003
aF0
aF-0
aF-0
aF1
aF1
aF1
aF0
aF0
aa(lp3071
Vik_wrist_l_anim_space_switcher
p3072
a(lp3073
Vvisibility
p3074
aVtranslateX
p3075
aVtranslateY
p3076
aVtranslateZ
p3077
aVrotateX
p3078
aVrotateY
p3079
aVrotateZ
p3080
aVscaleX
p3081
aVscaleY
p3082
aVscaleZ
p3083
aVspace_world
p3084
aVspace_body_anim
p3085
aVspace_head_fk_anim
p3086
aVspace_chest_ik_anim
p3087
aaI01
aF0
aF0
aF0
aF0
aF-0
aF-0
aF1
aF1
aF1
aF0
aF0
aF0
aF0
aa(lp3088
Vik_wrist_r_anim_space_switcher
p3089
a(lp3090
Vvisibility
p3091
aVtranslateX
p3092
aVtranslateY
p3093
aVtranslateZ
p3094
aVrotateX
p3095
aVrotateY
p3096
aVrotateZ
p3097
aVscaleX
p3098
aVscaleY
p3099
aVscaleZ
p3100
aVspace_world
p3101
aVspace_body_anim
p3102
aVspace_head_fk_anim
p3103
aVspace_chest_ik_anim
p3104
aaI01
aF0
aF0
aF0
aF0
aF-0
aF-0
aF1
aF1
aF1
aF0
aF0
aF0
aF0
aa(lp3105
Vjaw_anim_space_switcher
p3106
a(lp3107
Vvisibility
p3108
aVtranslateX
p3109
aVtranslateY
p3110
aVtranslateZ
p3111
aVrotateX
p3112
aVrotateY
p3113
aVrotateZ
p3114
aVscaleX
p3115
aVscaleY
p3116
aVscaleZ
p3117
aVspace_world
p3118
aaI01
aF0
aF0
aF0
aF0
aF0
aF0
aF1
aF1
aF1
aF0
aa(lp3119
Vl_global_ik_anim_space_switcher
p3120
a(lp3121
Vvisibility
p3122
aVtranslateX
p3123
aVtranslateY
p3124
aVtranslateZ
p3125
aVrotateX
p3126
aVrotateY
p3127
aVrotateZ
p3128
aVscaleX
p3129
aVscaleY
p3130
aVscaleZ
p3131
aVspace_world
p3132
aaI01
aF0
aF0
aF0
aF0
aF0
aF0
aF1
aF1
aF1
aF0
aa(lp3133
Vmaster_anim_space_switcher
p3134
a(lp3135
Vvisibility
p3136
aVtranslateX
p3137
aVtranslateY
p3138
aVtranslateZ
p3139
aVrotateX
p3140
aVrotateY
p3141
aVrotateZ
p3142
aVscaleX
p3143
aVscaleY
p3144
aVscaleZ
p3145
aVspace_world
p3146
aaI01
aF0
aF0
aF0
aF0
aF0
aF0
aF1
aF1
aF1
aF0
aa(lp3147
Vpipe_anim_space_switcher
p3148
a(lp3149
Vvisibility
p3150
aVtranslateX
p3151
aVtranslateY
p3152
aVtranslateZ
p3153
aVrotateX
p3154
aVrotateY
p3155
aVrotateZ
p3156
aVscaleX
p3157
aVscaleY
p3158
aVscaleZ
p3159
aVspace_world
p3160
aaI01
aF0
aF0
aF0
aF0
aF0
aF0
aF1
aF1
aF1
aF0
aa(lp3161
Vr_global_ik_anim_space_switcher
p3162
a(lp3163
Vvisibility
p3164
aVtranslateX
p3165
aVtranslateY
p3166
aVtranslateZ
p3167
aVrotateX
p3168
aVrotateY
p3169
aVrotateZ
p3170
aVscaleX
p3171
aVscaleY
p3172
aVscaleZ
p3173
aVspace_world
p3174
aaI01
aF0
aF0
aF0
aF0
aF0
aF0
aF1
aF1
aF1
aF0
aa(lp3175
Vshoulder_blade_in_r_anim_space_switcher
p3176
a(lp3177
Vvisibility
p3178
aVtranslateX
p3179
aVtranslateY
p3180
aVtranslateZ
p3181
aVrotateX
p3182
aVrotateY
p3183
aVrotateZ
p3184
aVscaleX
p3185
aVscaleY
p3186
aVscaleZ
p3187
aVspace_world
p3188
aaI01
aF-3.5527136788005009e-15
aF3.5527136788005009e-15
aF0
aF0
aF-0
aF7.4544250346801174e-17
aF1
aF1
aF1.0000000000000002
aF0
aa(lp3189
Vshoulder_blade_mid_r_anim_space_switcher
p3190
a(lp3191
Vvisibility
p3192
aVtranslateX
p3193
aVtranslateY
p3194
aVtranslateZ
p3195
aVrotateX
p3196
aVrotateY
p3197
aVrotateZ
p3198
aVscaleX
p3199
aVscaleY
p3200
aVscaleZ
p3201
aVspace_world
p3202
aaI01
aF3.5527136788005009e-15
aF0
aF0
aF0
aF-0
aF7.4544250346801174e-17
aF1
aF1
aF1.0000000000000002
aF0
aa(lp3203
Vshoulder_blade_out_r_anim_space_switcher
p3204
a(lp3205
Vvisibility
p3206
aVtranslateX
p3207
aVtranslateY
p3208
aVtranslateZ
p3209
aVrotateX
p3210
aVrotateY
p3211
aVrotateZ
p3212
aVscaleX
p3213
aVscaleY
p3214
aVscaleZ
p3215
aVspace_world
p3216
aaI01
aF-3.5527136788005009e-15
aF0
aF0
aF0
aF-0
aF7.4544250346801174e-17
aF1
aF1
aF1.0000000000000002
aF0
aa(lp3217
Vshoulder_cloth_01_l_anim_space_switcher
p3218
a(lp3219
Vvisibility
p3220
aVtranslateX
p3221
aVtranslateY
p3222
aVtranslateZ
p3223
aVrotateX
p3224
aVrotateY
p3225
aVrotateZ
p3226
aVscaleX
p3227
aVscaleY
p3228
aVscaleZ
p3229
aVspace_world
p3230
aaI01
aF0
aF1.4210854715202004e-14
aF-2.8421709430404007e-14
aF0
aF-3.180554681463516e-15
aF0
aF1.0000000000000002
aF1.0000000000000002
aF1.0000000000000002
aF0
aa(lp3231
Vshoulder_cloth_02_l_anim_space_switcher
p3232
a(lp3233
Vvisibility
p3234
aVtranslateX
p3235
aVtranslateY
p3236
aVtranslateZ
p3237
aVrotateX
p3238
aVrotateY
p3239
aVrotateZ
p3240
aVscaleX
p3241
aVscaleY
p3242
aVscaleZ
p3243
aVspace_world
p3244
aaI01
aF-1.4210854715202004e-14
aF0
aF2.8421709430404007e-14
aF0
aF-6.3611093629270335e-15
aF1.5902773407317584e-15
aF1
aF1
aF1
aF0
aa(lp3245
Vshoulder_pad_r_anim_space_switcher
p3246
a(lp3247
Vvisibility
p3248
aVtranslateX
p3249
aVtranslateY
p3250
aVtranslateZ
p3251
aVrotateX
p3252
aVrotateY
p3253
aVrotateZ
p3254
aVscaleX
p3255
aVscaleY
p3256
aVscaleZ
p3257
aVspace_world
p3258
aaI01
aF0
aF-3.5527136788005009e-15
aF0
aF9.9392333795734899e-17
aF-1.987846675914698e-16
aF-7.765026077791789e-18
aF1
aF1
aF1
aF0
aa(lp3259
Vspine_01_space_switcher
p3260
a(lp3261
Vvisibility
p3262
aVtranslateX
p3263
aVtranslateY
p3264
aVtranslateZ
p3265
aVrotateX
p3266
aVrotateY
p3267
aVrotateZ
p3268
aVscaleX
p3269
aVscaleY
p3270
aVscaleZ
p3271
aVspace_world
p3272
aaI01
aF0
aF3.5527136788005009e-15
aF1.0097419586828951e-28
aF0
aF0
aF0
aF0.99999999999999989
aF0.99999999999999989
aF1
aF0
aa(lp3273
Vweapon_anim_space_switcher
p3274
a(lp3275
Vvisibility
p3276
aVtranslateX
p3277
aVtranslateY
p3278
aVtranslateZ
p3279
aVrotateX
p3280
aVrotateY
p3281
aVrotateZ
p3282
aVscaleX
p3283
aVscaleY
p3284
aVscaleZ
p3285
aVspace_world
p3286
aaI01
aF-2.8421709430404007e-14
aF0
aF-2.8421709430404007e-14
aF2.3854160110976376e-15
aF3.1805546814635168e-15
aF-1.1927080055488188e-15
aF1
aF1
aF1
aF0
aa(lp3287
Vweapon_bladeA_01_anim_space_switcher
p3288
a(lp3289
Vvisibility
p3290
aVtranslateX
p3291
aVtranslateY
p3292
aVtranslateZ
p3293
aVrotateX
p3294
aVrotateY
p3295
aVrotateZ
p3296
aVscaleX
p3297
aVscaleY
p3298
aVscaleZ
p3299
aVspace_world
p3300
aaI01
aF2.8421709430404007e-14
aF0
aF-2.8421709430404007e-14
aF7.9513867036587919e-16
aF-0
aF-1.5902773407317584e-15
aF1
aF1
aF0.99999999999999978
aF0
aa(lp3301
Vweapon_bladeA_02_anim_space_switcher
p3302
a(lp3303
Vvisibility
p3304
aVtranslateX
p3305
aVtranslateY
p3306
aVtranslateZ
p3307
aVrotateX
p3308
aVrotateY
p3309
aVrotateZ
p3310
aVscaleX
p3311
aVscaleY
p3312
aVscaleZ
p3313
aVspace_world
p3314
aaI01
aF0
aF-2.8421709430404007e-14
aF-4.2632564145606011e-14
aF7.9513867036587919e-16
aF-0
aF-1.5902773407317584e-15
aF1
aF1
aF0.99999999999999978
aF0
aa(lp3315
Vweapon_bladeA_03_anim_space_switcher
p3316
a(lp3317
Vvisibility
p3318
aVtranslateX
p3319
aVtranslateY
p3320
aVtranslateZ
p3321
aVrotateX
p3322
aVrotateY
p3323
aVrotateZ
p3324
aVscaleX
p3325
aVscaleY
p3326
aVscaleZ
p3327
aVspace_world
p3328
aaI01
aF-2.8421709430404007e-14
aF0
aF-4.2632564145606011e-14
aF7.9513867036587919e-16
aF-0
aF-1.5902773407317584e-15
aF1
aF1
aF0.99999999999999978
aF0
aa(lp3329
Vweapon_bladeA_04_anim_space_switcher
p3330
a(lp3331
Vvisibility
p3332
aVtranslateX
p3333
aVtranslateY
p3334
aVtranslateZ
p3335
aVrotateX
p3336
aVrotateY
p3337
aVrotateZ
p3338
aVscaleX
p3339
aVscaleY
p3340
aVscaleZ
p3341
aVspace_world
p3342
aaI01
aF0
aF0
aF-2.8421709430404007e-14
aF7.9513867036587919e-16
aF-0
aF-1.5902773407317584e-15
aF1
aF1
aF0.99999999999999978
aF0
aa(lp3343
Vweapon_bladeA_05_anim_space_switcher
p3344
a(lp3345
Vvisibility
p3346
aVtranslateX
p3347
aVtranslateY
p3348
aVtranslateZ
p3349
aVrotateX
p3350
aVrotateY
p3351
aVrotateZ
p3352
aVscaleX
p3353
aVscaleY
p3354
aVscaleZ
p3355
aVspace_world
p3356
aaI01
aF0
aF0
aF-4.2632564145606011e-14
aF7.9513867036587919e-16
aF-0
aF-1.5902773407317584e-15
aF1
aF1
aF0.99999999999999978
aF0
aa(lp3357
Vweapon_bladeB_01_anim_space_switcher
p3358
a(lp3359
Vvisibility
p3360
aVtranslateX
p3361
aVtranslateY
p3362
aVtranslateZ
p3363
aVrotateX
p3364
aVrotateY
p3365
aVrotateZ
p3366
aVscaleX
p3367
aVscaleY
p3368
aVscaleZ
p3369
aVspace_world
p3370
aaI01
aF2.8421709430404007e-14
aF0
aF-2.8421709430404007e-14
aF7.9513867036587919e-16
aF-0
aF-1.5902773407317584e-15
aF1
aF1
aF0.99999999999999978
aF0
aa(lp3371
Vweapon_bladeB_02_anim_space_switcher
p3372
a(lp3373
Vvisibility
p3374
aVtranslateX
p3375
aVtranslateY
p3376
aVtranslateZ
p3377
aVrotateX
p3378
aVrotateY
p3379
aVrotateZ
p3380
aVscaleX
p3381
aVscaleY
p3382
aVscaleZ
p3383
aVspace_world
p3384
aaI01
aF2.8421709430404007e-14
aF-2.1316282072803006e-14
aF0
aF3.1805546814635168e-15
aF3.1805546814635168e-15
aF-3.1805546814635168e-15
aF1
aF1
aF1
aF0
aa(lp3385
Vweapon_bladeB_03_anim_space_switcher
p3386
a(lp3387
Vvisibility
p3388
aVtranslateX
p3389
aVtranslateY
p3390
aVtranslateZ
p3391
aVrotateX
p3392
aVrotateY
p3393
aVrotateZ
p3394
aVscaleX
p3395
aVscaleY
p3396
aVscaleZ
p3397
aVspace_world
p3398
aaI01
aF2.8421709430404007e-14
aF0
aF0
aF-1.987846675914698e-15
aF-0
aF1.987846675914698e-15
aF1
aF1
aF1
aF0
aa(lp3399
Vweapon_bladeB_04_anim_space_switcher
p3400
a(lp3401
Vvisibility
p3402
aVtranslateX
p3403
aVtranslateY
p3404
aVtranslateZ
p3405
aVrotateX
p3406
aVrotateY
p3407
aVrotateZ
p3408
aVscaleX
p3409
aVscaleY
p3410
aVscaleZ
p3411
aVspace_world
p3412
aaI01
aF2.8421709430404007e-14
aF-2.8421709430404007e-14
aF1.4210854715202004e-14
aF-7.9513867036587919e-16
aF-0
aF0
aF1
aF1
aF1
aF0
aa(lp3413
Vweapon_bladeB_05_anim_space_switcher
p3414
a(lp3415
Vvisibility
p3416
aVtranslateX
p3417
aVtranslateY
p3418
aVtranslateZ
p3419
aVrotateX
p3420
aVrotateY
p3421
aVrotateZ
p3422
aVscaleX
p3423
aVscaleY
p3424
aVscaleZ
p3425
aVspace_world
p3426
aaI01
aF0
aF2.8421709430404007e-14
aF1.4210854715202004e-14
aF-7.9513867036587919e-16
aF-0
aF0
aF1
aF1
aF1
aF0
aa(lp3427
Vweapon_bladeC_01_anim_space_switcher
p3428
a(lp3429
Vvisibility
p3430
aVtranslateX
p3431
aVtranslateY
p3432
aVtranslateZ
p3433
aVrotateX
p3434
aVrotateY
p3435
aVrotateZ
p3436
aVscaleX
p3437
aVscaleY
p3438
aVscaleZ
p3439
aVspace_world
p3440
aaI01
aF2.8421709430404007e-14
aF0
aF-2.8421709430404007e-14
aF7.9513867036587919e-16
aF-0
aF-1.5902773407317584e-15
aF1
aF1
aF0.99999999999999978
aF0
aa(lp3441
Vweapon_bladeC_02_anim_space_switcher
p3442
a(lp3443
Vvisibility
p3444
aVtranslateX
p3445
aVtranslateY
p3446
aVtranslateZ
p3447
aVrotateX
p3448
aVrotateY
p3449
aVrotateZ
p3450
aVscaleX
p3451
aVscaleY
p3452
aVscaleZ
p3453
aVspace_world
p3454
aaI01
aF2.8421709430404007e-14
aF-2.8421709430404007e-14
aF0
aF7.9513867036587919e-16
aF-0
aF-1.5902773407317584e-15
aF1
aF1
aF0.99999999999999978
aF0
aa(lp3455
Vweapon_bladeC_03_anim_space_switcher
p3456
a(lp3457
Vvisibility
p3458
aVtranslateX
p3459
aVtranslateY
p3460
aVtranslateZ
p3461
aVrotateX
p3462
aVrotateY
p3463
aVrotateZ
p3464
aVscaleX
p3465
aVscaleY
p3466
aVscaleZ
p3467
aVspace_world
p3468
aaI01
aF0
aF0
aF-1.4210854715202004e-14
aF7.9513867036587919e-16
aF-0
aF-1.5902773407317584e-15
aF1
aF1
aF0.99999999999999978
aF0
aa(lp3469
Vweapon_bladeD_01_anim_space_switcher
p3470
a(lp3471
Vvisibility
p3472
aVtranslateX
p3473
aVtranslateY
p3474
aVtranslateZ
p3475
aVrotateX
p3476
aVrotateY
p3477
aVrotateZ
p3478
aVscaleX
p3479
aVscaleY
p3480
aVscaleZ
p3481
aVspace_world
p3482
aaI01
aF0
aF-2.8421709430404007e-14
aF-4.2632564145606011e-14
aF7.9513867036587919e-16
aF-0
aF-1.5902773407317584e-15
aF1
aF1
aF0.99999999999999978
aF0
aa(lp3483
Vwrist_plate_r_anim_space_switcher
p3484
a(lp3485
Vvisibility
p3486
aVtranslateX
p3487
aVtranslateY
p3488
aVtranslateZ
p3489
aVrotateX
p3490
aVrotateY
p3491
aVrotateZ
p3492
aVscaleX
p3493
aVscaleY
p3494
aVscaleZ
p3495
aVspace_world
p3496
aaI01
aF0
aF0
aF-5.6843418860808015e-14
aF0
aF-0
aF9.9392333795734899e-17
aF1
aF1
aF1
aF0
aa.