(lp1
(lp2
S'fk_clavicle_r_anim'
p3
a(lp4
VtranslateX
p5
aVtranslateY
p6
aVtranslateZ
p7
aVrotateX
p8
aVrotateY
p9
aVrotateZ
p10
aaF9.0931513874181746e-07
aF-8.1420258142284041e-06
aF0.00011724835644599807
aF0
aF0
aF0
aa(lp11
S'fk_clavicle_l_anim'
p12
a(lp13
VtranslateX
p14
aVtranslateY
p15
aVtranslateZ
p16
aVrotateX
p17
aVrotateY
p18
aVrotateZ
p19
aaF9.0926841167515704e-07
aF-8.1420848716540206e-06
aF0.00011724794947554074
aF0
aF0
aF0
aa(lp20
S'head_fk_anim'
p21
a(lp22
VtranslateX
p23
aVtranslateY
p24
aVtranslateZ
p25
aVrotateX
p26
aVrotateY
p27
aVrotateZ
p28
aVscaleX
p29
aVscaleY
p30
aVscaleZ
p31
aVfkOrientation
p32
aaF0
aF0
aF0
aF-3.8386772923603685
aF-1.9552972198936349
aF-9.1584354820650642
aF1
aF1
aF1
aI3
aa(lp33
S'neck_01_fk_anim'
p34
a(lp35
VtranslateX
p36
aVtranslateY
p37
aVtranslateZ
p38
aVrotateX
p39
aVrotateY
p40
aVrotateZ
p41
aVscaleX
p42
aVscaleY
p43
aVscaleZ
p44
aVfkOrientation
p45
aaF0
aF0
aF0
aF4.9491368471701609
aF2.6919994040791928
aF-3.5328735169011867
aF1
aF1
aF1
aI0
aa(lp46
S'neck_02_fk_anim'
p47
a(lp48
VtranslateX
p49
aVtranslateY
p50
aVtranslateZ
p51
aVrotateX
p52
aVrotateY
p53
aVrotateZ
p54
aVscaleX
p55
aVscaleY
p56
aVscaleZ
p57
aaF0
aF0
aF0
aF7.7285650669392609
aF1.5721971436494453
aF2.0611678842242505
aF1
aF1
aF1
aa(lp58
S'spine_01_anim'
p59
a(lp60
Vlength
p61
aVtranslateY
p62
aVtranslateZ
p63
aVrotateX
p64
aVrotateY
p65
aVrotateZ
p66
aaF0
aF0
aF0
aF-2.8645823848273446
aF3.4043455039764146
aF-8.9047847810322747
aa(lp67
S'spine_02_anim'
p68
a(lp69
Vlength
p70
aVtranslateY
p71
aVtranslateZ
p72
aVrotateX
p73
aVrotateY
p74
aVrotateZ
p75
aaF0
aF0
aF0
aF-11.016906856808765
aF1.4471045956401312
aF-2.5579365148973103
aa(lp76
S'spine_03_anim'
p77
a(lp78
Vlength
p79
aVtranslateY
p80
aVtranslateZ
p81
aVrotateX
p82
aVrotateY
p83
aVrotateZ
p84
aaF0
aF0
aF0
aF-10.921502734622154
aF0.85887937605029319
aF-2.9517195710192334
aa(lp85
S'mid_ik_anim'
p86
a(lp87
VtranslateX
p88
aVtranslateY
p89
aVtranslateZ
p90
aVrotateX
p91
aVrotateY
p92
aVrotateZ
p93
aaF1.1845272869069468
aF-0.54725885493894755
aF0.35238830849783959
aF20.270900677426546
aF-1.7874534614354931
aF0.74967162595018244
aa(lp94
S'chest_ik_anim'
p95
a(lp96
VtranslateX
p97
aVtranslateY
p98
aVtranslateZ
p99
aVrotateX
p100
aVrotateY
p101
aVrotateZ
p102
aVstretch
p103
aVsquash
p104
aVtwist_amount
p105
aVautoSpine
p106
aVrotationInfluence
p107
aaF0.35214178164535553
aF-3.3625155906008906
aF0.76340139136076623
aF-4.8538190599895845
aF0.44844652856786144
aF-0.5521315277004849
aF0
aF0
aF1
aF0
aF0.25
aa(lp108
S'body_anim'
p109
a(lp110
VtranslateX
p111
aVtranslateY
p112
aVtranslateZ
p113
aVrotateX
p114
aVrotateY
p115
aVrotateZ
p116
aaF-12.471395521947921
aF-3.3647914597890969
aF-1.7380877710848543
aF-8.4754010318013009
aF4.303875738758892
aF-15.676138450130935
aa(lp117
S'hip_anim'
p118
a(lp119
VtranslateX
p120
aVtranslateY
p121
aVtranslateZ
p122
aVrotateX
p123
aVrotateY
p124
aVrotateZ
p125
aVlCalfTwistCtrlVis
p126
aVrCalfTwistCtrlVis
p127
aVautoHips
p128
aaF0
aF0
aF0
aF0
aF0
aF0
aI00
aI00
aF0
aa(lp129
S'clavicle_l_anim'
p130
a(lp131
VtranslateX
p132
aVtranslateY
p133
aVtranslateZ
p134
aVautoShoulders
p135
aaF0
aF0
aF0
aF0.29999999999999999
aa(lp136
S'clavicle_r_anim'
p137
a(lp138
VtranslateX
p139
aVtranslateY
p140
aVtranslateZ
p141
aVautoShoulders
p142
aaF0.78355342249074145
aF-7.1817353520117848
aF7.4494306164647792
aF0
aa(lp143
S'fk_arm_l_anim'
p144
a(lp145
VtranslateX
p146
aVtranslateY
p147
aVtranslateZ
p148
aVrotateX
p149
aVrotateY
p150
aVrotateZ
p151
aaF0
aF0
aF0
aF57.634108987162826
aF37.367093834882816
aF15.899168054337922
aa(lp152
S'fk_arm_r_anim'
p153
a(lp154
VtranslateX
p155
aVtranslateY
p156
aVtranslateZ
p157
aVrotateX
p158
aVrotateY
p159
aVrotateZ
p160
aaF0
aF0
aF0
aF58.477864453773222
aF38.748422723132997
aF28.171672985400452
aa(lp161
S'fk_elbow_l_anim'
p162
a(lp163
VtranslateX
p164
aVtranslateY
p165
aVtranslateZ
p166
aVrotateX
p167
aVrotateY
p168
aVrotateZ
p169
aaF0
aF0
aF0
aF0.098543634370746272
aF-12.684552474934462
aF-52.590294549564618
aa(lp170
S'fk_elbow_r_anim'
p171
a(lp172
VtranslateX
p173
aVtranslateY
p174
aVtranslateZ
p175
aVrotateX
p176
aVrotateY
p177
aVrotateZ
p178
aaF0
aF0
aF0
aF-0.52588024302490266
aF-2.6614201973991682
aF-51.776411130171034
aa(lp179
S'fk_wrist_l_anim'
p180
a(lp181
VtranslateX
p182
aVtranslateY
p183
aVtranslateZ
p184
aVrotateX
p185
aVrotateY
p186
aVrotateZ
p187
aaF0
aF0
aF0
aF-8.8492815014959376
aF5.0842017885019306
aF3.0441348725127937
aa(lp188
S'fk_wrist_r_anim'
p189
a(lp190
VtranslateX
p191
aVtranslateY
p192
aVtranslateZ
p193
aVrotateX
p194
aVrotateY
p195
aVrotateZ
p196
aaF0
aF0
aF0
aF-32.013238781316176
aF-15.034117222774677
aF3.0175756452272124
aa(lp197
S'ik_elbow_l_anim'
p198
a(lp199
VtranslateX
p200
aVtranslateY
p201
aVtranslateZ
p202
aaF-29.224140108850634
aF67.014957595664441
aF21.887747468516572
aa(lp203
S'ik_elbow_r_anim'
p204
a(lp205
VtranslateX
p206
aVtranslateY
p207
aVtranslateZ
p208
aaF-10.273859314884671
aF-84.751655650803713
aF-12.463466287253848
aa(lp209
S'ik_wrist_l_anim'
p210
a(lp211
VtranslateX
p212
aVtranslateY
p213
aVtranslateZ
p214
aVrotateX
p215
aVrotateY
p216
aVrotateZ
p217
aVstretch
p218
aVsquash
p219
aVstretchBias
p220
aVside
p221
aVmid_bend
p222
aVmid_swivel
p223
aVtip_pivot
p224
aVtip_swivel
p225
aaF-52.714832610835614
aF-31.075872224085451
aF-49.429119654223129
aF-19.51574878334176
aF41.431503580457296
aF-19.866137757150415
aF0
aF0
aF0
aF0
aF20.5
aF29.599999999999998
aF0
aF0
aa(lp226
S'ik_wrist_r_anim'
p227
a(lp228
VtranslateX
p229
aVtranslateY
p230
aVtranslateZ
p231
aVrotateX
p232
aVrotateY
p233
aVrotateZ
p234
aVstretch
p235
aVsquash
p236
aVstretchBias
p237
aVside
p238
aVmid_bend
p239
aVmid_swivel
p240
aVtip_pivot
p241
aVtip_swivel
p242
aaF69.824951336267191
aF-76.556153630915304
aF-8.9604901412058524
aF-44.190260067239862
aF18.575673900769214
aF176.63169592159383
aF0
aF0
aF0
aF0
aF0
aF0
aF0
aF0
aa(lp243
S'fk_thigh_l_anim'
p244
a(lp245
VrotateX
p246
aVrotateY
p247
aVrotateZ
p248
aaF8.8272476810334126
aF17.618550299620946
aF69.554179727330862
aa(lp249
S'fk_thigh_r_anim'
p250
a(lp251
VrotateX
p252
aVrotateY
p253
aVrotateZ
p254
aaF9.7686937870175932
aF-8.642145835062756
aF-3.0157928996603247
aa(lp255
S'fk_calf_l_anim'
p256
a(lp257
VrotateX
p258
aVrotateY
p259
aVrotateZ
p260
aaF8.3093468414746585
aF-9.6230980941256465
aF-47.706399992466551
aa(lp261
S'fk_calf_r_anim'
p262
a(lp263
VrotateX
p264
aVrotateY
p265
aVrotateZ
p266
aaF0.52631165229767618
aF4.2130709621126208
aF-44.496436720086884
aa(lp267
S'fk_foot_l_anim'
p268
a(lp269
VrotateX
p270
aVrotateY
p271
aVrotateZ
p272
aaF-38.384703009819702
aF0.68114294008790943
aF-9.6772499872370688
aa(lp273
S'fk_foot_r_anim'
p274
a(lp275
VrotateX
p276
aVrotateY
p277
aVrotateZ
p278
aaF-21.219704964086858
aF3.7039671259597799
aF17.52864891784407
aa(lp279
S'fk_ball_l_anim'
p280
a(lp281
VrotateX
p282
aVrotateY
p283
aVrotateZ
p284
aaF-0.0048436494544445551
aF0.0085100866856055359
aF0.31462460756299493
aa(lp285
S'fk_ball_r_anim'
p286
a(lp287
VrotateX
p288
aVrotateY
p289
aVrotateZ
p290
aaF-0.043767139315568034
aF-0.024487476796028553
aF-0.77028751373299253
aa(lp291
S'ik_foot_anim_l'
p292
a(lp293
VtranslateX
p294
aVtranslateY
p295
aVtranslateZ
p296
aVrotateX
p297
aVrotateY
p298
aVrotateZ
p299
aVknee_twist
p300
aVstretch
p301
aVsquash
p302
aVtoeCtrlVis
p303
aVstretchBias
p304
aaF6.8872166509684156
aF-31.113965548941202
aF-0.14192012890708713
aF0.40199342051478959
aF-0.11700288043831487
aF-7.7439465446689324
aF-2
aF0
aF0
aI00
aF0
aa(lp305
S'ik_foot_anim_r'
p306
a(lp307
VtranslateX
p308
aVtranslateY
p309
aVtranslateZ
p310
aVrotateX
p311
aVrotateY
p312
aVrotateZ
p313
aVknee_twist
p314
aVstretch
p315
aVsquash
p316
aVtoeCtrlVis
p317
aVstretchBias
p318
aaF-15.09839661064585
aF40.145000000000003
aF6.1449999999999996
aF37.955969492162758
aF9.6285037309833523
aF-14.18909441342227
aF-2
aF0
aF0
aI00
aF0
aa(lp319
S'heel_ctrl_l'
p320
a(lp321
VrotateX
p322
aVrotateY
p323
aVrotateZ
p324
aVheelPivot
p325
aVballPivot
p326
aaF0
aF0
aF0
aF0
aF0
aa(lp327
S'heel_ctrl_r'
p328
a(lp329
VrotateX
p330
aVrotateY
p331
aVrotateZ
p332
aVheelPivot
p333
aVballPivot
p334
aaF0
aF0
aF0
aF0
aF0
aa(lp335
S'toe_wiggle_ctrl_l'
p336
a(lp337
VrotateX
p338
aVrotateY
p339
aVrotateZ
p340
aaF0
aF0
aF0
aa(lp341
S'toe_wiggle_ctrl_r'
p342
a(lp343
VrotateX
p344
aVrotateY
p345
aVrotateZ
p346
aaF3.0334308937804826
aF-2.1392660929678597
aF18.606530469714404
aa(lp347
S'toe_tip_ctrl_l'
p348
a(lp349
VrotateX
p350
aVrotateY
p351
aVrotateZ
p352
aaF0
aF0
aF0
aa(lp353
S'toe_tip_ctrl_r'
p354
a(lp355
VrotateX
p356
aVrotateY
p357
aVrotateZ
p358
aaF0
aF0.61604999437175012
aF0
aa(lp359
S'master_anim'
p360
a(lp361
VtranslateX
p362
aVtranslateY
p363
aVtranslateZ
p364
aVrotateX
p365
aVrotateY
p366
aVrotateZ
p367
aaF0
aF0
aF0
aF0
aF0
aF0
aa(lp368
S'offset_anim'
p369
a(lp370
VtranslateX
p371
aVtranslateY
p372
aVtranslateZ
p373
aVrotateX
p374
aVrotateY
p375
aVrotateZ
p376
aaF0
aF0
aF0
aF0
aF0
aF0
aa(lp377
S'root_anim'
p378
a(lp379
VtranslateX
p380
aVtranslateY
p381
aVtranslateZ
p382
aVrotateX
p383
aVrotateY
p384
aVrotateZ
p385
aaF0
aF0
aF0
aF0
aF0
aF0
aa(lp386
S'upperarm_l_twist_anim'
p387
a(lp388
VtranslateX
p389
aVtranslateY
p390
aVtranslateZ
p391
aVrotateX
p392
aVrotateY
p393
aVrotateZ
p394
aVscaleX
p395
aVscaleY
p396
aVscaleZ
p397
aaF0
aF0
aF0
aF0
aF0
aF0
aF1
aF1
aF1
aa(lp398
S'upperarm_l_twist_2_anim'
p399
a(lp400
VtranslateX
p401
aVtranslateY
p402
aVtranslateZ
p403
aVrotateX
p404
aVrotateY
p405
aVrotateZ
p406
aVscaleX
p407
aVscaleY
p408
aVscaleZ
p409
aaF0
aF0
aF0
aF0
aF0
aF0
aF1
aF1
aF1
aa(lp410
S'upperarm_r_twist_anim'
p411
a(lp412
VtranslateX
p413
aVtranslateY
p414
aVtranslateZ
p415
aVrotateX
p416
aVrotateY
p417
aVrotateZ
p418
aVscaleX
p419
aVscaleY
p420
aVscaleZ
p421
aaF0
aF-1.3682214241088474e-15
aF2.1891542785741559e-14
aF0
aF0
aF0
aF1
aF1
aF1
aa(lp422
S'upperarm_r_twist_2_anim'
p423
a(lp424
VtranslateX
p425
aVtranslateY
p426
aVtranslateZ
p427
aVrotateX
p428
aVrotateY
p429
aVrotateZ
p430
aVscaleX
p431
aVscaleY
p432
aVscaleZ
p433
aaF-5.4728856964353897e-15
aF-1.3682214241088474e-15
aF0
aF0
aF0
aF0
aF1
aF1
aF1
aa(lp434
S'lowerarm_l_twist_anim'
p435
a(lp436
VtranslateX
p437
aVtranslateY
p438
aVtranslateZ
p439
aVrotateX
p440
aVrotateY
p441
aVrotateZ
p442
aaF0
aF0
aF0
aF0
aF0
aF0
aa(lp443
S'lowerarm_r_twist_anim'
p444
a(lp445
VtranslateX
p446
aVtranslateY
p447
aVtranslateZ
p448
aVrotateX
p449
aVrotateY
p450
aVrotateZ
p451
aaF0
aF0
aF0
aF-4.7463213747306936
aF0
aF0
aa(lp452
S'l_thigh_twist_01_anim'
p453
a(lp454
VtranslateX
p455
aVtranslateY
p456
aVtranslateZ
p457
aVrotateX
p458
aVrotateY
p459
aVrotateZ
p460
aVscaleX
p461
aVscaleY
p462
aVscaleZ
p463
aaF0
aF6.8411071205442371e-16
aF-2.7364428482176948e-15
aF0
aF0
aF0
aF1
aF1
aF1
aa(lp464
S'r_thigh_twist_01_anim'
p465
a(lp466
VtranslateX
p467
aVtranslateY
p468
aVtranslateZ
p469
aVrotateX
p470
aVrotateY
p471
aVrotateZ
p472
aVscaleX
p473
aVscaleY
p474
aVscaleZ
p475
aaF0
aF-6.8411071205442371e-16
aF0
aF0
aF0
aF0
aF1
aF1
aF1
aa(lp476
S'pinky_finger_fk_ctrl_1_l'
p477
a(lp478
VtranslateX
p479
aVtranslateY
p480
aVtranslateZ
p481
aVrotateX
p482
aVrotateY
p483
aVrotateZ
p484
aVsticky
p485
aaF-0.28448754866970072
aF0.19948691675394606
aF-0.88082772337635151
aF5.1223742448192855
aF7.2538026991753615
aF35.377002240511942
aF0
aa(lp486
S'pinky_finger_fk_ctrl_1_r'
p487
a(lp488
VtranslateX
p489
aVtranslateY
p490
aVtranslateZ
p491
aVrotateX
p492
aVrotateY
p493
aVrotateZ
p494
aVsticky
p495
aaF0
aF0
aF0
aF-0.0024449551096603888
aF9.8425285824316709e-05
aF65.37644176950802
aF0
aa(lp496
S'pinky_finger_fk_ctrl_2_l'
p497
a(lp498
VtranslateX
p499
aVtranslateY
p500
aVtranslateZ
p501
aVrotateX
p502
aVrotateY
p503
aVrotateZ
p504
aaF0
aF0
aF0
aF-1.3648337223191766e-06
aF0
aF55.867673741451696
aa(lp505
S'pinky_finger_fk_ctrl_2_r'
p506
a(lp507
VtranslateX
p508
aVtranslateY
p509
aVtranslateZ
p510
aVrotateX
p511
aVrotateY
p512
aVrotateZ
p513
aaF0
aF0
aF0
aF0.55129554284868731
aF0.45844398444277235
aF79.56074937716636
aa(lp514
S'pinky_finger_fk_ctrl_3_l'
p515
a(lp516
VtranslateX
p517
aVtranslateY
p518
aVtranslateZ
p519
aVrotateX
p520
aVrotateY
p521
aVrotateZ
p522
aaF0
aF0
aF0
aF1.3764308054596078e-06
aF0
aF49.774601852955406
aa(lp523
S'pinky_finger_fk_ctrl_3_r'
p524
a(lp525
VtranslateX
p526
aVtranslateY
p527
aVtranslateZ
p528
aVrotateX
p529
aVrotateY
p530
aVrotateZ
p531
aaF0
aF0
aF0
aF-3.3207569181786316
aF2.68579680261012
aF102.44580008596111
aa(lp532
S'ring_finger_fk_ctrl_1_l'
p533
a(lp534
VtranslateX
p535
aVtranslateY
p536
aVtranslateZ
p537
aVrotateX
p538
aVrotateY
p539
aVrotateZ
p540
aVsticky
p541
aaF0
aF0
aF0
aF3.1376714579845051
aF7.9407269340653093
aF54.862591248221293
aF0
aa(lp542
S'ring_finger_fk_ctrl_1_r'
p543
a(lp544
VtranslateX
p545
aVtranslateY
p546
aVtranslateZ
p547
aVrotateX
p548
aVrotateY
p549
aVrotateZ
p550
aVsticky
p551
aaF0
aF0
aF0
aF-0.0024788905339880691
aF0.00019877245377010661
aF73.475318827537848
aF0
aa(lp552
S'ring_finger_fk_ctrl_2_l'
p553
a(lp554
VtranslateX
p555
aVtranslateY
p556
aVtranslateZ
p557
aVrotateX
p558
aVrotateY
p559
aVrotateZ
p560
aaF0
aF0
aF0
aF0
aF0
aF54.736663769749136
aa(lp561
S'ring_finger_fk_ctrl_2_r'
p562
a(lp563
VtranslateX
p564
aVtranslateY
p565
aVtranslateZ
p566
aVrotateX
p567
aVrotateY
p568
aVrotateZ
p569
aaF0
aF0
aF0
aF0.54026008077883436
aF0.47139878169843791
aF78.200704338231688
aa(lp570
S'ring_finger_fk_ctrl_3_l'
p571
a(lp572
VtranslateX
p573
aVtranslateY
p574
aVtranslateZ
p575
aVrotateX
p576
aVrotateY
p577
aVrotateZ
p578
aaF0
aF0
aF0
aF0
aF0
aF57.460286194286205
aa(lp579
S'ring_finger_fk_ctrl_3_r'
p580
a(lp581
VtranslateX
p582
aVtranslateY
p583
aVtranslateZ
p584
aVrotateX
p585
aVrotateY
p586
aVrotateZ
p587
aaF0
aF0
aF0
aF0.67328421710686814
aF0.24654074927368763
aF99.194930467426119
aa(lp588
S'middle_finger_fk_ctrl_1_l'
p589
a(lp590
VtranslateX
p591
aVtranslateY
p592
aVtranslateZ
p593
aVrotateX
p594
aVrotateY
p595
aVrotateZ
p596
aVsticky
p597
aaF0
aF0
aF0
aF-0.00044762810030049755
aF4.6328187362770903
aF61.680953095386648
aF0
aa(lp598
S'middle_finger_fk_ctrl_1_r'
p599
a(lp600
VtranslateX
p601
aVtranslateY
p602
aVtranslateZ
p603
aVrotateX
p604
aVrotateY
p605
aVrotateZ
p606
aVsticky
p607
aaF0
aF0
aF0
aF-0.0025388725599052842
aF-2.2935219920689583e-05
aF71.398075720596538
aF0
aa(lp608
S'middle_finger_fk_ctrl_2_l'
p609
a(lp610
VtranslateX
p611
aVtranslateY
p612
aVtranslateZ
p613
aVrotateX
p614
aVrotateY
p615
aVrotateZ
p616
aaF0
aF0
aF0
aF0
aF0
aF47.684837521621425
aa(lp617
S'middle_finger_fk_ctrl_2_r'
p618
a(lp619
VtranslateX
p620
aVtranslateY
p621
aVtranslateZ
p622
aVrotateX
p623
aVrotateY
p624
aVrotateZ
p625
aaF0
aF0
aF0
aF0.55225569440898847
aF0.45728689475634959
aF79.680788945877339
aa(lp626
S'middle_finger_fk_ctrl_3_l'
p627
a(lp628
VtranslateX
p629
aVtranslateY
p630
aVtranslateZ
p631
aVrotateX
p632
aVrotateY
p633
aVrotateZ
p634
aaF0
aF0
aF0
aF0
aF0
aF50.408461337602084
aa(lp635
S'middle_finger_fk_ctrl_3_r'
p636
a(lp637
VtranslateX
p638
aVtranslateY
p639
aVtranslateZ
p640
aVrotateX
p641
aVrotateY
p642
aVrotateZ
p643
aaF0
aF0
aF0
aF4.1343070639287944
aF3.7013156672062459
aF108.31126473511326
aa(lp644
S'index_finger_fk_ctrl_1_l'
p645
a(lp646
VtranslateX
p647
aVtranslateY
p648
aVtranslateZ
p649
aVrotateX
p650
aVrotateY
p651
aVrotateZ
p652
aVsticky
p653
aaF0
aF0
aF0
aF-11.521205581229236
aF7.5235144552174393
aF61.057322380386033
aF0
aa(lp654
S'index_finger_fk_ctrl_1_r'
p655
a(lp656
VtranslateX
p657
aVtranslateY
p658
aVtranslateZ
p659
aVrotateX
p660
aVrotateY
p661
aVrotateZ
p662
aVsticky
p663
aaF0
aF0
aF0
aF-13.673381985967559
aF2.939577614379711
aF52.126696797049568
aF0
aa(lp664
S'index_finger_fk_ctrl_2_l'
p665
a(lp666
VtranslateX
p667
aVtranslateY
p668
aVtranslateZ
p669
aVrotateX
p670
aVrotateY
p671
aVrotateZ
p672
aaF0
aF0
aF0
aF0
aF0
aF39.58635282799829
aa(lp673
S'index_finger_fk_ctrl_2_r'
p674
a(lp675
VtranslateX
p676
aVtranslateY
p677
aVtranslateZ
p678
aVrotateX
p679
aVrotateY
p680
aVrotateZ
p681
aaF0
aF0
aF0
aF0
aF0
aF90.083269433246215
aa(lp682
S'index_finger_fk_ctrl_3_l'
p683
a(lp684
VtranslateX
p685
aVtranslateY
p686
aVtranslateZ
p687
aVrotateX
p688
aVrotateY
p689
aVrotateZ
p690
aaF0
aF0
aF0
aF-1.4871696543175734
aF-2.6895179822327639
aF67.749002871603807
aa(lp691
S'index_finger_fk_ctrl_3_r'
p692
a(lp693
VtranslateX
p694
aVtranslateY
p695
aVtranslateZ
p696
aVrotateX
p697
aVrotateY
p698
aVrotateZ
p699
aaF0
aF0
aF0
aF0
aF0
aF99.269736861817123
aa(lp700
S'thumb_finger_fk_ctrl_1_l'
p701
a(lp702
VtranslateX
p703
aVtranslateY
p704
aVtranslateZ
p705
aVrotateX
p706
aVrotateY
p707
aVrotateZ
p708
aVsticky
p709
aaF0
aF0
aF0
aF32.521334412846002
aF35.179399433407362
aF3.0634641281025834
aF0
aa(lp710
S'thumb_finger_fk_ctrl_1_r'
p711
a(lp712
VtranslateX
p713
aVtranslateY
p714
aVtranslateZ
p715
aVrotateX
p716
aVrotateY
p717
aVrotateZ
p718
aVsticky
p719
aaF0
aF0
aF0
aF20.002756661453905
aF14.321971150515573
aF16.313378895868929
aF0
aa(lp720
S'thumb_finger_fk_ctrl_2_l'
p721
a(lp722
VtranslateX
p723
aVtranslateY
p724
aVtranslateZ
p725
aVrotateX
p726
aVrotateY
p727
aVrotateZ
p728
aaF0
aF0
aF0
aF-8.539107913856542
aF17.623117184942451
aF36.133792512298719
aa(lp729
S'thumb_finger_fk_ctrl_2_r'
p730
a(lp731
VtranslateX
p732
aVtranslateY
p733
aVtranslateZ
p734
aVrotateX
p735
aVrotateY
p736
aVrotateZ
p737
aaF0
aF0
aF0
aF-1.7532247795724971
aF13.723054660490289
aF6.9401104392970581
aa(lp738
S'thumb_finger_fk_ctrl_3_l'
p739
a(lp740
VtranslateX
p741
aVtranslateY
p742
aVtranslateZ
p743
aVrotateX
p744
aVrotateY
p745
aVrotateZ
p746
aaF0
aF0
aF0
aF0
aF1.8516110511239535e-06
aF62.745112692737024
aa(lp747
S'thumb_finger_fk_ctrl_3_r'
p748
a(lp749
VtranslateX
p750
aVtranslateY
p751
aVtranslateZ
p752
aVrotateX
p753
aVrotateY
p754
aVrotateZ
p755
aaF0
aF0
aF0
aF-7.5596937150583861
aF-26.307085545096715
aF65.103737358606239
aa(lp756
S'index_l_ik_anim'
p757
a(lp758
VtranslateX
p759
aVtranslateY
p760
aVtranslateZ
p761
aVrotateX
p762
aVrotateY
p763
aVrotateZ
p764
aVpoleVectorVis
p765
aaF0
aF0
aF0
aF0
aF0
aF0
aF0
aa(lp766
S'index_r_ik_anim'
p767
a(lp768
VtranslateX
p769
aVtranslateY
p770
aVtranslateZ
p771
aVrotateX
p772
aVrotateY
p773
aVrotateZ
p774
aVpoleVectorVis
p775
aaF0
aF0
aF0
aF0
aF0
aF0
aF0
aa(lp776
S'middle_l_ik_anim'
p777
a(lp778
VtranslateX
p779
aVtranslateY
p780
aVtranslateZ
p781
aVrotateX
p782
aVrotateY
p783
aVrotateZ
p784
aVpoleVectorVis
p785
aaF0
aF0
aF0
aF0
aF0
aF0
aF0
aa(lp786
S'middle_r_ik_anim'
p787
a(lp788
VtranslateX
p789
aVtranslateY
p790
aVtranslateZ
p791
aVrotateX
p792
aVrotateY
p793
aVrotateZ
p794
aVpoleVectorVis
p795
aaF0
aF0
aF0
aF0
aF0
aF0
aF0
aa(lp796
S'ring_l_ik_anim'
p797
a(lp798
VtranslateX
p799
aVtranslateY
p800
aVtranslateZ
p801
aVrotateX
p802
aVrotateY
p803
aVrotateZ
p804
aVpoleVectorVis
p805
aaF0
aF0
aF0
aF0
aF0
aF0
aF0
aa(lp806
S'ring_r_ik_anim'
p807
a(lp808
VtranslateX
p809
aVtranslateY
p810
aVtranslateZ
p811
aVrotateX
p812
aVrotateY
p813
aVrotateZ
p814
aVpoleVectorVis
p815
aaF0
aF0
aF0
aF0
aF0
aF0
aF0
aa(lp816
S'pinky_l_ik_anim'
p817
a(lp818
VtranslateX
p819
aVtranslateY
p820
aVtranslateZ
p821
aVrotateX
p822
aVrotateY
p823
aVrotateZ
p824
aVpoleVectorVis
p825
aaF0
aF0
aF0
aF0
aF0
aF0
aF0
aa(lp826
S'pinky_r_ik_anim'
p827
a(lp828
VtranslateX
p829
aVtranslateY
p830
aVtranslateZ
p831
aVrotateX
p832
aVrotateY
p833
aVrotateZ
p834
aVpoleVectorVis
p835
aaF0
aF0
aF0
aF0
aF0
aF0
aF0
aa(lp836
S'thumb_l_ik_anim'
p837
a(lp838
VtranslateX
p839
aVtranslateY
p840
aVtranslateZ
p841
aVrotateX
p842
aVrotateY
p843
aVrotateZ
p844
aVpoleVectorVis
p845
aaF0
aF0
aF0
aF0
aF0
aF0
aF0
aa(lp846
S'thumb_r_ik_anim'
p847
a(lp848
VtranslateX
p849
aVtranslateY
p850
aVtranslateZ
p851
aVrotateX
p852
aVrotateY
p853
aVrotateZ
p854
aVpoleVectorVis
p855
aaF0
aF0
aF0
aF0
aF0
aF0
aF0
aa(lp856
S'index_l_poleVector'
p857
a(lp858
VtranslateX
p859
aVtranslateY
p860
aVtranslateZ
p861
aVrotateX
p862
aVrotateY
p863
aVrotateZ
p864
aaF0
aF0
aF0
aF0
aF0
aF0
aa(lp865
S'index_r_poleVector'
p866
a(lp867
VtranslateX
p868
aVtranslateY
p869
aVtranslateZ
p870
aVrotateX
p871
aVrotateY
p872
aVrotateZ
p873
aaF0
aF0
aF0
aF0
aF0
aF0
aa(lp874
S'middle_l_poleVector'
p875
a(lp876
VtranslateX
p877
aVtranslateY
p878
aVtranslateZ
p879
aVrotateX
p880
aVrotateY
p881
aVrotateZ
p882
aaF0
aF0
aF0
aF0
aF0
aF0
aa(lp883
S'middle_r_poleVector'
p884
a(lp885
VtranslateX
p886
aVtranslateY
p887
aVtranslateZ
p888
aVrotateX
p889
aVrotateY
p890
aVrotateZ
p891
aaF0
aF0
aF0
aF0
aF0
aF0
aa(lp892
S'ring_l_poleVector'
p893
a(lp894
VtranslateX
p895
aVtranslateY
p896
aVtranslateZ
p897
aVrotateX
p898
aVrotateY
p899
aVrotateZ
p900
aaF0
aF0
aF0
aF0
aF0
aF0
aa(lp901
S'ring_r_poleVector'
p902
a(lp903
VtranslateX
p904
aVtranslateY
p905
aVtranslateZ
p906
aVrotateX
p907
aVrotateY
p908
aVrotateZ
p909
aaF0
aF0
aF0
aF0
aF0
aF0
aa(lp910
S'pinky_l_poleVector'
p911
a(lp912
VtranslateX
p913
aVtranslateY
p914
aVtranslateZ
p915
aVrotateX
p916
aVrotateY
p917
aVrotateZ
p918
aaF0
aF0
aF0
aF0
aF0
aF0
aa(lp919
S'pinky_r_poleVector'
p920
a(lp921
VtranslateX
p922
aVtranslateY
p923
aVtranslateZ
p924
aVrotateX
p925
aVrotateY
p926
aVrotateZ
p927
aaF0
aF0
aF0
aF0
aF0
aF0
aa(lp928
S'thumb_l_poleVector'
p929
a(lp930
VtranslateX
p931
aVtranslateY
p932
aVtranslateZ
p933
aVrotateX
p934
aVrotateY
p935
aVrotateZ
p936
aaF0
aF0
aF0
aF0
aF0
aF0
aa(lp937
S'thumb_r_poleVector'
p938
a(lp939
VtranslateX
p940
aVtranslateY
p941
aVtranslateZ
p942
aVrotateX
p943
aVrotateY
p944
aVrotateZ
p945
aaF0
aF0
aF0
aF0
aF0
aF0
aa(lp946
S'l_global_ik_anim'
p947
a(lp948
VtranslateX
p949
aVtranslateY
p950
aVtranslateZ
p951
aVrotateX
p952
aVrotateY
p953
aVrotateZ
p954
aaF0
aF0
aF0
aF0
aF0
aF0
aa(lp955
S'r_global_ik_anim'
p956
a(lp957
VtranslateX
p958
aVtranslateY
p959
aVtranslateZ
p960
aVrotateX
p961
aVrotateY
p962
aVrotateZ
p963
aaF0
aF0
aF0
aF0
aF0
aF0
aa(lp964
S'Rig_Settings'
p965
a(lp966
Vspine_ik
p967
aVspine_fk
p968
aVlLegMode
p969
aVlThighTwistAmount
p970
aVlThighTwist2Amount
p971
aVllegTwistCtrlVis
p972
aVlCalfTwistAmount
p973
aVllegTwistCtrlVisCalf
p974
aVrLegMode
p975
aVrThighTwistAmount
p976
aVrThighTwist2Amount
p977
aVrlegTwistCtrlVis
p978
aVrCalfTwistAmount
p979
aVrlegTwistCtrlVisCalf
p980
aVlFkArmOrient
p981
aVlArmMode
p982
aVlClavMode
p983
aVlUpperarmTwistAmount
p984
aVlUpperarmTwist2Amount
p985
aVltwistCtrlVis
p986
aVltwistCtrlVisLower
p987
aVlForearmTwistAmount
p988
aVrFkArmOrient
p989
aVrArmMode
p990
aVrClavMode
p991
aVrUpperarmTwistAmount
p992
aVrUpperarmTwist2Amount
p993
aVrtwistCtrlVis
p994
aVrtwistCtrlVisLower
p995
aVrForearmTwistAmount
p996
aVback_sash_fk
p997
aVback_sash_ik
p998
aVback_sash_dynamic
p999
aVhip_eyelet_front_l_fk
p1000
aVhip_eyelet_front_l_ik
p1001
aVhip_eyelet_front_l_dynamic
p1002
aVhip_eyelet_front_r_fk
p1003
aVhip_eyelet_front_r_ik
p1004
aVhip_eyelet_front_r_dynamic
p1005
aVhip_eyelet_rear_l_fk
p1006
aVhip_eyelet_rear_l_ik
p1007
aVhip_eyelet_rear_l_dynamic
p1008
aVhip_eyelet_rear_r_fk
p1009
aVhip_eyelet_rear_r_ik
p1010
aVhip_eyelet_rear_r_dynamic
p1011
aVloin_cloth_bk_fk
p1012
aVloin_cloth_bk_ik
p1013
aVloin_cloth_bk_dynamic
p1014
aVloin_cloth_fr_fk
p1015
aVloin_cloth_fr_ik
p1016
aVloin_cloth_fr_dynamic
p1017
aVpadawan_l_fk
p1018
aVpadawan_l_ik
p1019
aVpadawan_l_dynamic
p1020
aVpadawan_r_fk
p1021
aVpadawan_r_ik
p1022
aVpadawan_r_dynamic
p1023
aVponytail_fk
p1024
aVponytail_ik
p1025
aVponytail_dynamic
p1026
aVweapon_butt_fk
p1027
aVweapon_butt_ik
p1028
aVweapon_butt_dynamic
p1029
aaF1
aF0
aI1
aF1
aF0.59999999999999998
aI00
aF0.5
aI00
aI1
aF1
aF0.59999999999999998
aI00
aF0.5
aI00
aI0
aI1
aI1
aF0.90000000000000002
aF0.59999999999999998
aI00
aI00
aF0.5
aI0
aI1
aI1
aF0.90000000000000002
aF0.59999999999999998
aI00
aI00
aF0.5
aF1
aF0
aF0
aF1
aF0
aF0
aF1
aF0
aF0
aF1
aF0
aF0
aF1
aF0
aF0
aF1
aF0
aF0
aF1
aF0
aF0
aF1
aF0
aF0
aF1
aF0
aF0
aF1
aF0
aF0
aF1
aF0
aF0
aa(lp1030
S'calf_l_twist_anim'
p1031
a(lp1032
VtranslateX
p1033
aVtranslateY
p1034
aVtranslateZ
p1035
aVrotateX
p1036
aVrotateY
p1037
aVrotateZ
p1038
aaF0
aF0
aF0
aF0
aF0
aF0
aa(lp1039
S'calf_r_twist_anim'
p1040
a(lp1041
VtranslateX
p1042
aVtranslateY
p1043
aVtranslateZ
p1044
aVrotateX
p1045
aVrotateY
p1046
aVrotateZ
p1047
aaF0
aF0
aF0
aF0
aF0
aF0
aa(lp1048
Vback_sash_dyn_anim
p1049
a(lp1050
VtranslateX
p1051
aVtranslateY
p1052
aVtranslateZ
p1053
aVrotateX
p1054
aVrotateY
p1055
aVrotateZ
p1056
aVchainAttach
p1057
aVchainStartEnvelope
p1058
aVchainStartFrame
p1059
aVchainStiffness
p1060
aVchainDamping
p1061
aVchainGravity
p1062
aVchainIteration
p1063
aVchainCollide
p1064
aVchainWidthBase
p1065
aVchainWidthExtremity
p1066
aVchainCollideGround
p1067
aVchainCollideGroundHeight
p1068
aaF0
aF0
aF0
aF0
aF0
aF0
aI1
aF1
aF1
aF0.10000000000000001
aF0.20000000000000001
aF1
aI1
aI00
aF1
aF1
aI00
aF0
aa(lp1069
Vback_sash_ik_2_anim
p1070
a(lp1071
VtranslateX
p1072
aVtranslateY
p1073
aVtranslateZ
p1074
aVrotateX
p1075
aVrotateY
p1076
aVrotateZ
p1077
aaF0
aF0
aF0
aF0
aF0
aF0
aa(lp1078
Vback_sash_ik_3_anim
p1079
a(lp1080
VtranslateX
p1081
aVtranslateY
p1082
aVtranslateZ
p1083
aVrotateX
p1084
aVrotateY
p1085
aVrotateZ
p1086
aVclusterControlVis
p1087
aaF0
aF0
aF0
aF0
aF0
aF0
aI00
aa(lp1088
Vback_sash_ik_base_anim
p1089
a(lp1090
VtranslateX
p1091
aVtranslateY
p1092
aVtranslateZ
p1093
aVrotateX
p1094
aVrotateY
p1095
aVrotateZ
p1096
aVglobal_scale
p1097
aaF0
aF0
aF0
aF0
aF0
aF0
aF1
aa(lp1098
Vfk_back_sash_01_anim
p1099
a(lp1100
VtranslateX
p1101
aVtranslateY
p1102
aVtranslateZ
p1103
aVrotateX
p1104
aVrotateY
p1105
aVrotateZ
p1106
aVglobal_scale
p1107
aVlagMode
p1108
aaF0
aF0
aF0
aF0
aF0
aF0
aF1
aF0
aa(lp1109
Vback_sash_cv_0_anim
p1110
a(lp1111
VtranslateX
p1112
aVtranslateY
p1113
aVtranslateZ
p1114
aaF0
aF0
aF0
aa(lp1115
Vfk_back_sash_02_anim
p1116
a(lp1117
VtranslateX
p1118
aVtranslateY
p1119
aVtranslateZ
p1120
aVrotateX
p1121
aVrotateY
p1122
aVrotateZ
p1123
aaF0
aF0
aF0
aF0
aF0
aF0
aa(lp1124
Vback_sash_cv_1_anim
p1125
a(lp1126
VtranslateX
p1127
aVtranslateY
p1128
aVtranslateZ
p1129
aaF0
aF0
aF0
aa(lp1130
Vfk_back_sash_03_anim
p1131
a(lp1132
VtranslateX
p1133
aVtranslateY
p1134
aVtranslateZ
p1135
aVrotateX
p1136
aVrotateY
p1137
aVrotateZ
p1138
aaF0
aF0
aF0
aF0
aF0
aF0
aa(lp1139
Vback_sash_cv_2_anim
p1140
a(lp1141
VtranslateX
p1142
aVtranslateY
p1143
aVtranslateZ
p1144
aaF0
aF0
aF0
aa(lp1145
Vbracelet_A_l_anim
p1146
a(lp1147
VtranslateX
p1148
aVtranslateY
p1149
aVtranslateZ
p1150
aVrotateX
p1151
aVrotateY
p1152
aVrotateZ
p1153
aVscaleX
p1154
aVscaleY
p1155
aVscaleZ
p1156
aaF0
aF0
aF0
aF0
aF0
aF0
aF1
aF1
aF1
aa(lp1157
Vbracelet_B_l_anim
p1158
a(lp1159
VtranslateX
p1160
aVtranslateY
p1161
aVtranslateZ
p1162
aVrotateX
p1163
aVrotateY
p1164
aVrotateZ
p1165
aVscaleX
p1166
aVscaleY
p1167
aVscaleZ
p1168
aaF0
aF0
aF0
aF0
aF0
aF0
aF1
aF1
aF1
aa(lp1169
Vbracelet_C_l_anim
p1170
a(lp1171
VtranslateX
p1172
aVtranslateY
p1173
aVtranslateZ
p1174
aVrotateX
p1175
aVrotateY
p1176
aVrotateZ
p1177
aVscaleX
p1178
aVscaleY
p1179
aVscaleZ
p1180
aaF0
aF0
aF0
aF0
aF0
aF0
aF1
aF1
aF1
aa(lp1181
Veyeball_l_anim
p1182
a(lp1183
VtranslateX
p1184
aVtranslateY
p1185
aVtranslateZ
p1186
aVrotateX
p1187
aVrotateY
p1188
aVrotateZ
p1189
aVscaleX
p1190
aVscaleY
p1191
aVscaleZ
p1192
aaF0
aF0
aF0
aF0
aF0
aF0
aF1
aF1
aF1
aa(lp1193
Veyeball_r_anim
p1194
a(lp1195
VtranslateX
p1196
aVtranslateY
p1197
aVtranslateZ
p1198
aVrotateX
p1199
aVrotateY
p1200
aVrotateZ
p1201
aVscaleX
p1202
aVscaleY
p1203
aVscaleZ
p1204
aaF0
aF0
aF0
aF0
aF0
aF0
aF1
aF1
aF1
aa(lp1205
Veyebrow_in_l_anim
p1206
a(lp1207
VtranslateX
p1208
aVtranslateY
p1209
aVtranslateZ
p1210
aVrotateX
p1211
aVrotateY
p1212
aVrotateZ
p1213
aVscaleX
p1214
aVscaleY
p1215
aVscaleZ
p1216
aaF0
aF0
aF0
aF0
aF0
aF0
aF1
aF1
aF0.99999999999999989
aa(lp1217
Veyebrow_in_r_anim
p1218
a(lp1219
VtranslateX
p1220
aVtranslateY
p1221
aVtranslateZ
p1222
aVrotateX
p1223
aVrotateY
p1224
aVrotateZ
p1225
aVscaleX
p1226
aVscaleY
p1227
aVscaleZ
p1228
aaF0
aF0
aF0
aF0
aF0
aF0
aF1
aF1
aF1
aa(lp1229
Veyebrow_out_l_anim
p1230
a(lp1231
VtranslateX
p1232
aVtranslateY
p1233
aVtranslateZ
p1234
aVrotateX
p1235
aVrotateY
p1236
aVrotateZ
p1237
aVscaleX
p1238
aVscaleY
p1239
aVscaleZ
p1240
aaF0
aF0
aF0
aF0
aF0
aF0
aF1
aF1
aF1
aa(lp1241
Veyebrow_out_r_anim
p1242
a(lp1243
VtranslateX
p1244
aVtranslateY
p1245
aVtranslateZ
p1246
aVrotateX
p1247
aVrotateY
p1248
aVrotateZ
p1249
aVscaleX
p1250
aVscaleY
p1251
aVscaleZ
p1252
aaF0
aF0
aF0
aF0
aF0
aF0
aF1
aF1
aF1
aa(lp1253
Veyelid_bott_l_anim
p1254
a(lp1255
VtranslateX
p1256
aVtranslateY
p1257
aVtranslateZ
p1258
aVrotateX
p1259
aVrotateY
p1260
aVrotateZ
p1261
aVscaleX
p1262
aVscaleY
p1263
aVscaleZ
p1264
aaF0
aF0
aF0
aF0
aF0
aF0
aF1
aF1
aF1
aa(lp1265
Veyelid_bott_r_anim
p1266
a(lp1267
VtranslateX
p1268
aVtranslateY
p1269
aVtranslateZ
p1270
aVrotateX
p1271
aVrotateY
p1272
aVrotateZ
p1273
aVscaleX
p1274
aVscaleY
p1275
aVscaleZ
p1276
aaF0
aF0
aF0
aF0
aF0
aF0
aF1
aF1
aF1
aa(lp1277
Veyelid_top_l_anim
p1278
a(lp1279
VtranslateX
p1280
aVtranslateY
p1281
aVtranslateZ
p1282
aVrotateX
p1283
aVrotateY
p1284
aVrotateZ
p1285
aVscaleX
p1286
aVscaleY
p1287
aVscaleZ
p1288
aaF0
aF0
aF0
aF0
aF0
aF0
aF1
aF1
aF1
aa(lp1289
Veyelid_top_r_anim
p1290
a(lp1291
VtranslateX
p1292
aVtranslateY
p1293
aVtranslateZ
p1294
aVrotateX
p1295
aVrotateY
p1296
aVrotateZ
p1297
aVscaleX
p1298
aVscaleY
p1299
aVscaleZ
p1300
aaF0
aF0
aF0
aF0
aF0
aF0
aF1
aF1
aF1
aa(lp1301
Vhip_back_flaps_anim
p1302
a(lp1303
VtranslateX
p1304
aVtranslateY
p1305
aVtranslateZ
p1306
aVrotateX
p1307
aVrotateY
p1308
aVrotateZ
p1309
aVscaleX
p1310
aVscaleY
p1311
aVscaleZ
p1312
aaF0
aF-0.0040149279208189399
aF-0.060754214317860995
aF-0.20827987371630702
aF0
aF0
aF1
aF1
aF1
aa(lp1313
Vhip_eyelet_front_l_dyn_anim
p1314
a(lp1315
VtranslateX
p1316
aVtranslateY
p1317
aVtranslateZ
p1318
aVrotateX
p1319
aVrotateY
p1320
aVrotateZ
p1321
aVchainAttach
p1322
aVchainStartEnvelope
p1323
aVchainStartFrame
p1324
aVchainStiffness
p1325
aVchainDamping
p1326
aVchainGravity
p1327
aVchainIteration
p1328
aVchainCollide
p1329
aVchainWidthBase
p1330
aVchainWidthExtremity
p1331
aVchainCollideGround
p1332
aVchainCollideGroundHeight
p1333
aaF-4.9588084749530026e-09
aF2.5921551127794373e-07
aF6.0684955371925753e-07
aF0
aF0
aF0
aI1
aF1
aF1
aF0.10000000000000001
aF0.20000000000000001
aF1
aI1
aI00
aF1
aF1
aI00
aF0
aa(lp1334
Vhip_eyelet_front_l_ik_2_anim
p1335
a(lp1336
VtranslateX
p1337
aVtranslateY
p1338
aVtranslateZ
p1339
aVrotateX
p1340
aVrotateY
p1341
aVrotateZ
p1342
aaF-3.8461289264546394e-07
aF-1.0094180780129136e-06
aF4.1534319166203204e-06
aF0
aF0
aF0
aa(lp1343
Vhip_eyelet_front_l_ik_3_anim
p1344
a(lp1345
VtranslateX
p1346
aVtranslateY
p1347
aVtranslateZ
p1348
aVrotateX
p1349
aVrotateY
p1350
aVrotateZ
p1351
aVclusterControlVis
p1352
aaF-1.9230644809908881e-07
aF-5.0470904966459784e-07
aF2.0767159725210149e-06
aF0
aF0
aF0
aI00
aa(lp1353
Vhip_eyelet_front_l_ik_base_anim
p1354
a(lp1355
VtranslateX
p1356
aVtranslateY
p1357
aVtranslateZ
p1358
aVrotateX
p1359
aVrotateY
p1360
aVrotateZ
p1361
aVglobal_scale
p1362
aaF-4.9502997256922754e-09
aF2.691877512006613e-07
aF6.0257472966895875e-07
aF0
aF0
aF0
aF1
aa(lp1363
Vfk_hip_eyelet_front_l_01_anim
p1364
a(lp1365
VtranslateX
p1366
aVtranslateY
p1367
aVtranslateZ
p1368
aVrotateX
p1369
aVrotateY
p1370
aVrotateZ
p1371
aVglobal_scale
p1372
aVlagMode
p1373
aaF-4.9503166010822497e-09
aF2.6918776541151601e-07
aF6.0257478651237761e-07
aF0
aF0
aF0
aF1
aF0
aa(lp1374
Vhip_eyelet_front_l_cv_0_anim
p1375
a(lp1376
VtranslateX
p1377
aVtranslateY
p1378
aVtranslateZ
p1379
aaF0
aF0
aF0
aa(lp1380
Vfk_hip_eyelet_front_l_02_anim
p1381
a(lp1382
VtranslateX
p1383
aVtranslateY
p1384
aVtranslateZ
p1385
aVrotateX
p1386
aVrotateY
p1387
aVrotateZ
p1388
aaF-2.2579490632779198e-07
aF-3.7199177427282848e-07
aF1.3131802845123275e-06
aF0
aF0
aF0
aa(lp1389
Vhip_eyelet_front_l_cv_1_anim
p1390
a(lp1391
VtranslateX
p1392
aVtranslateY
p1393
aVtranslateZ
p1394
aaF0
aF0
aF0
aa(lp1395
Vfk_hip_eyelet_front_l_03_anim
p1396
a(lp1397
VtranslateX
p1398
aVtranslateY
p1399
aVtranslateZ
p1400
aVrotateX
p1401
aVrotateY
p1402
aVrotateZ
p1403
aaF-9.8909598733598614e-08
aF-8.5001743599377733e-07
aF1.3050015894577882e-06
aF0
aF0
aF0
aa(lp1404
Vhip_eyelet_front_l_cv_2_anim
p1405
a(lp1406
VtranslateX
p1407
aVtranslateY
p1408
aVtranslateZ
p1409
aaF0
aF0
aF0
aa(lp1410
Vfk_hip_eyelet_front_l_04_anim
p1411
a(lp1412
VtranslateX
p1413
aVtranslateY
p1414
aVtranslateZ
p1415
aVrotateX
p1416
aVrotateY
p1417
aVrotateZ
p1418
aaF-6.5906077484356729e-08
aF2.7460401952339453e-07
aF1.5533885928675772e-06
aF0
aF0
aF0
aa(lp1419
Vhip_eyelet_front_l_cv_3_anim
p1420
a(lp1421
VtranslateX
p1422
aVtranslateY
p1423
aVtranslateZ
p1424
aaF0
aF0
aF0
aa(lp1425
Vhip_eyelet_front_r_dyn_anim
p1426
a(lp1427
VtranslateX
p1428
aVtranslateY
p1429
aVtranslateZ
p1430
aVrotateX
p1431
aVrotateY
p1432
aVrotateZ
p1433
aVchainAttach
p1434
aVchainStartEnvelope
p1435
aVchainStartFrame
p1436
aVchainStiffness
p1437
aVchainDamping
p1438
aVchainGravity
p1439
aVchainIteration
p1440
aVchainCollide
p1441
aVchainWidthBase
p1442
aVchainWidthExtremity
p1443
aVchainCollideGround
p1444
aVchainCollideGroundHeight
p1445
aaF-4.9587622896751782e-09
aF2.5921552548879845e-07
aF6.068495252975481e-07
aF0
aF0
aF0
aI1
aF1
aF1
aF0.10000000000000001
aF0.20000000000000001
aF1
aI1
aI00
aF1
aF1
aI00
aF0
aa(lp1446
Vhip_eyelet_front_r_ik_2_anim
p1447
a(lp1448
VtranslateX
p1449
aVtranslateY
p1450
aVtranslateZ
p1451
aVrotateX
p1452
aVrotateY
p1453
aVrotateZ
p1454
aaF-3.8461263862643591e-07
aF-1.0094177937958193e-06
aF4.1534320445180128e-06
aF0
aF0
aF0
aa(lp1455
Vhip_eyelet_front_r_ik_3_anim
p1456
a(lp1457
VtranslateX
p1458
aVtranslateY
p1459
aVtranslateZ
p1460
aVrotateX
p1461
aVrotateY
p1462
aVrotateZ
p1463
aVclusterControlVis
p1464
aaF-1.9230632020139637e-07
aF-5.0470895018861484e-07
aF2.0767160400225748e-06
aF0
aF0
aF0
aI00
aa(lp1465
Vhip_eyelet_front_r_ik_base_anim
p1466
a(lp1467
VtranslateX
p1468
aVtranslateY
p1469
aVtranslateZ
p1470
aVrotateX
p1471
aVrotateY
p1472
aVrotateZ
p1473
aVglobal_scale
p1474
aaF-4.9502553167712904e-09
aF2.6918777962237073e-07
aF6.0257470124724932e-07
aF0
aF0
aF0
aF1
aa(lp1475
Vfk_hip_eyelet_front_r_01_anim
p1476
a(lp1477
VtranslateX
p1478
aVtranslateY
p1479
aVtranslateZ
p1480
aVrotateX
p1481
aVrotateY
p1482
aVrotateZ
p1483
aVglobal_scale
p1484
aVlagMode
p1485
aaF-4.950271303982845e-09
aF2.6918776541151601e-07
aF6.0257476519609554e-07
aF0
aF0
aF0
aF1
aF0
aa(lp1486
Vhip_eyelet_front_r_cv_0_anim
p1487
a(lp1488
VtranslateX
p1489
aVtranslateY
p1490
aVtranslateZ
p1491
aaF0
aF0
aF0
aa(lp1492
Vfk_hip_eyelet_front_r_02_anim
p1493
a(lp1494
VtranslateX
p1495
aVtranslateY
p1496
aVtranslateZ
p1497
aVrotateX
p1498
aVrotateY
p1499
aVrotateZ
p1500
aaF-2.2579483349716156e-07
aF-3.7199171742940962e-07
aF1.3131803129340369e-06
aF0
aF0
aF0
aa(lp1501
Vhip_eyelet_front_r_cv_1_anim
p1502
a(lp1503
VtranslateX
p1504
aVtranslateY
p1505
aVtranslateZ
p1506
aaF0
aF0
aF0
aa(lp1507
Vfk_hip_eyelet_front_r_03_anim
p1508
a(lp1509
VtranslateX
p1510
aVtranslateY
p1511
aVtranslateZ
p1512
aVrotateX
p1513
aVrotateY
p1514
aVrotateZ
p1515
aaF-9.8909529455681877e-08
aF-8.5001735783407639e-07
aF1.3050016534066344e-06
aF0
aF0
aF0
aa(lp1516
Vhip_eyelet_front_r_cv_2_anim
p1517
a(lp1518
VtranslateX
p1519
aVtranslateY
p1520
aVtranslateZ
p1521
aaF0
aF0
aF0
aa(lp1522
Vfk_hip_eyelet_front_r_04_anim
p1523
a(lp1524
VtranslateX
p1525
aVtranslateY
p1526
aVtranslateZ
p1527
aVrotateX
p1528
aVrotateY
p1529
aVrotateZ
p1530
aaF-6.5905981561087401e-08
aF2.7460410478852282e-07
aF1.5533885964202909e-06
aF0
aF0
aF0
aa(lp1531
Vhip_eyelet_front_r_cv_3_anim
p1532
a(lp1533
VtranslateX
p1534
aVtranslateY
p1535
aVtranslateZ
p1536
aaF0
aF0
aF0
aa(lp1537
Vhip_eyelet_rear_l_dyn_anim
p1538
a(lp1539
VtranslateX
p1540
aVtranslateY
p1541
aVtranslateZ
p1542
aVrotateX
p1543
aVrotateY
p1544
aVrotateZ
p1545
aVchainAttach
p1546
aVchainStartEnvelope
p1547
aVchainStartFrame
p1548
aVchainStiffness
p1549
aVchainDamping
p1550
aVchainGravity
p1551
aVchainIteration
p1552
aVchainCollide
p1553
aVchainWidthBase
p1554
aVchainWidthExtremity
p1555
aVchainCollideGround
p1556
aVchainCollideGroundHeight
p1557
aaF-7.0606179747301212e-07
aF3.0596429212437215e-07
aF-6.6344174953769652e-07
aF0
aF0
aF0
aI1
aF1
aF1
aF0.10000000000000001
aF0.20000000000000001
aF1
aI1
aI00
aF1
aF1
aI00
aF0
aa(lp1558
Vhip_eyelet_rear_l_ik_2_anim
p1559
a(lp1560
VtranslateX
p1561
aVtranslateY
p1562
aVtranslateZ
p1563
aVrotateX
p1564
aVrotateY
p1565
aVrotateZ
p1566
aaF4.8626582804800478e-06
aF1.1071657333161511e-06
aF-3.0055707185283609e-06
aF0
aF0
aF0
aa(lp1567
Vhip_eyelet_rear_l_ik_3_anim
p1568
a(lp1569
VtranslateX
p1570
aVtranslateY
p1571
aVtranslateZ
p1572
aVrotateX
p1573
aVrotateY
p1574
aVrotateZ
p1575
aVclusterControlVis
p1576
aaF2.4313291486777189e-06
aF5.5358285067086399e-07
aF-1.5027853592641804e-06
aF0
aF0
aF0
aI00
aa(lp1577
Vhip_eyelet_rear_l_ik_base_anim
p1578
a(lp1579
VtranslateX
p1580
aVtranslateY
p1581
aVtranslateZ
p1582
aVrotateX
p1583
aVrotateY
p1584
aVrotateZ
p1585
aVglobal_scale
p1586
aaF-7.0568012944249858e-07
aF3.0380621751646686e-07
aF-6.6488068029002534e-07
aF0
aF0
aF0
aF1
aa(lp1587
Vfk_hip_eyelet_rear_l_01_anim
p1588
a(lp1589
VtranslateX
p1590
aVtranslateY
p1591
aVtranslateZ
p1592
aVrotateX
p1593
aVrotateY
p1594
aVrotateZ
p1595
aVglobal_scale
p1596
aVlagMode
p1597
aaF-7.0568014276517488e-07
aF3.0380610382962914e-07
aF-6.6488063055203384e-07
aF0
aF0
aF0
aF1
aF0
aa(lp1598
Vhip_eyelet_rear_l_cv_0_anim
p1599
a(lp1600
VtranslateX
p1601
aVtranslateY
p1602
aVtranslateZ
p1603
aaF0
aF0
aF0
aa(lp1604
Vfk_hip_eyelet_rear_l_02_anim
p1605
a(lp1606
VtranslateX
p1607
aVtranslateY
p1608
aVtranslateZ
p1609
aVrotateX
p1610
aVrotateY
p1611
aVrotateZ
p1612
aaF1.6195680885289221e-06
aF3.8423664250331058e-07
aF-9.9642731754556735e-07
aF0
aF0
aF0
aa(lp1613
Vhip_eyelet_rear_l_cv_1_anim
p1614
a(lp1615
VtranslateX
p1616
aVtranslateY
p1617
aVtranslateZ
p1618
aaF0
aF0
aF0
aa(lp1619
Vfk_hip_eyelet_rear_l_03_anim
p1620
a(lp1621
VtranslateX
p1622
aVtranslateY
p1623
aVtranslateZ
p1624
aVrotateX
p1625
aVrotateY
p1626
aVrotateZ
p1627
aaF1.6229865122951992e-06
aF3.6153686977513644e-07
aF-9.9642277362477216e-07
aF0
aF0
aF0
aa(lp1628
Vhip_eyelet_rear_l_cv_2_anim
p1629
a(lp1630
VtranslateX
p1631
aVtranslateY
p1632
aVtranslateZ
p1633
aaF0
aF0
aF0
aa(lp1634
Vfk_hip_eyelet_rear_l_04_anim
p1635
a(lp1636
VtranslateX
p1637
aVtranslateY
p1638
aVtranslateZ
p1639
aVrotateX
p1640
aVrotateY
p1641
aVrotateZ
p1642
aaF1.6201036920904244e-06
aF3.4184735397957411e-07
aF-1.0204794200774359e-06
aF0
aF0
aF0
aa(lp1643
Vhip_eyelet_rear_l_cv_3_anim
p1644
a(lp1645
VtranslateX
p1646
aVtranslateY
p1647
aVtranslateZ
p1648
aaF0
aF0
aF0
aa(lp1649
Vhip_eyelet_rear_r_dyn_anim
p1650
a(lp1651
VtranslateX
p1652
aVtranslateY
p1653
aVtranslateZ
p1654
aVrotateX
p1655
aVrotateY
p1656
aVrotateZ
p1657
aVchainAttach
p1658
aVchainStartEnvelope
p1659
aVchainStartFrame
p1660
aVchainStiffness
p1661
aVchainDamping
p1662
aVchainGravity
p1663
aVchainIteration
p1664
aVchainCollide
p1665
aVchainWidthBase
p1666
aVchainWidthExtremity
p1667
aVchainCollideGround
p1668
aVchainCollideGroundHeight
p1669
aaF-7.0606180724297474e-07
aF3.0596426370266272e-07
aF-6.6344176019583756e-07
aF0
aF0
aF0
aI1
aF1
aF1
aF0.10000000000000001
aF0.20000000000000001
aF1
aI1
aI00
aF1
aF1
aI00
aF0
aa(lp1670
Vhip_eyelet_rear_r_ik_2_anim
p1671
a(lp1672
VtranslateX
p1673
aVtranslateY
p1674
aVtranslateZ
p1675
aVrotateX
p1676
aVrotateY
p1677
aVrotateZ
p1678
aaF4.8626582529465168e-06
aF1.1071662164852114e-06
aF-3.0055707185283609e-06
aF0
aF0
aF0
aa(lp1679
Vhip_eyelet_rear_r_ik_3_anim
p1680
a(lp1681
VtranslateX
p1682
aVtranslateY
p1683
aVtranslateZ
p1684
aVrotateX
p1685
aVrotateY
p1686
aVrotateZ
p1687
aVclusterControlVis
p1688
aaF2.4313291309141505e-06
aF5.5358309225539415e-07
aF-1.5027853450533257e-06
aF0
aF0
aF0
aI00
aa(lp1689
Vhip_eyelet_rear_r_ik_base_anim
p1690
a(lp1691
VtranslateX
p1692
aVtranslateY
p1693
aVtranslateZ
p1694
aVrotateX
p1695
aVrotateY
p1696
aVrotateZ
p1697
aVglobal_scale
p1698
aaF-7.0568014276517488e-07
aF3.0380618909475743e-07
aF-6.6488071581716213e-07
aF0
aF0
aF0
aF1.0000000000000002
aa(lp1699
Vfk_hip_eyelet_rear_r_01_anim
p1700
a(lp1701
VtranslateX
p1702
aVtranslateY
p1703
aVtranslateZ
p1704
aVrotateX
p1705
aVrotateY
p1706
aVrotateZ
p1707
aVglobal_scale
p1708
aVlagMode
p1709
aaF-7.0568014987060224e-07
aF3.0380611804048385e-07
aF-6.6488065542102959e-07
aF0
aF0
aF0
aF0.99999999999999978
aF0
aa(lp1710
Vhip_eyelet_rear_r_cv_0_anim
p1711
a(lp1712
VtranslateX
p1713
aVtranslateY
p1714
aVtranslateZ
p1715
aaF0
aF0
aF0
aa(lp1716
Vfk_hip_eyelet_rear_r_02_anim
p1717
a(lp1718
VtranslateX
p1719
aVtranslateY
p1720
aVtranslateZ
p1721
aVrotateX
p1722
aVrotateY
p1723
aVrotateZ
p1724
aaF1.6195680698771753e-06
aF3.8423674197929358e-07
aF-9.9642728912385792e-07
aF0
aF0
aF0
aa(lp1725
Vhip_eyelet_rear_r_cv_1_anim
p1726
a(lp1727
VtranslateX
p1728
aVtranslateY
p1729
aVtranslateZ
p1730
aaF0
aF0
aF0
aa(lp1731
Vfk_hip_eyelet_rear_r_03_anim
p1732
a(lp1733
VtranslateX
p1734
aVtranslateY
p1735
aVtranslateZ
p1736
aVrotateX
p1737
aVrotateY
p1738
aVrotateZ
p1739
aaF1.6229865114070208e-06
aF3.6153706162167509e-07
aF-9.964227665193448e-07
aF0
aF0
aF0
aa(lp1740
Vhip_eyelet_rear_r_cv_2_anim
p1741
a(lp1742
VtranslateX
p1743
aVtranslateY
p1744
aVtranslateZ
p1745
aaF0
aF0
aF0
aa(lp1746
Vfk_hip_eyelet_rear_r_04_anim
p1747
a(lp1748
VtranslateX
p1749
aVtranslateY
p1750
aVtranslateZ
p1751
aVrotateX
p1752
aVrotateY
p1753
aVrotateZ
p1754
aaF1.6201036867613539e-06
aF3.4184753516797173e-07
aF-1.0204793809975854e-06
aF0
aF0
aF0
aa(lp1755
Vhip_eyelet_rear_r_cv_3_anim
p1756
a(lp1757
VtranslateX
p1758
aVtranslateY
p1759
aVtranslateZ
p1760
aaF0
aF0
aF0
aa(lp1761
Vjaw_anim
p1762
a(lp1763
VtranslateX
p1764
aVtranslateY
p1765
aVtranslateZ
p1766
aVrotateX
p1767
aVrotateY
p1768
aVrotateZ
p1769
aVscaleX
p1770
aVscaleY
p1771
aVscaleZ
p1772
aaF0
aF0
aF1.5718127720162437e-11
aF-0.82522174478021915
aF0
aF0
aF1
aF1
aF1
aa(lp1773
Vleg_shieldPad_A_l_anim
p1774
a(lp1775
VtranslateX
p1776
aVtranslateY
p1777
aVtranslateZ
p1778
aVrotateX
p1779
aVrotateY
p1780
aVrotateZ
p1781
aVchainAttach
p1782
aVchainStartEnvelope
p1783
aVchainStartFrame
p1784
aVchainStiffness
p1785
aVchainDamping
p1786
aVchainGravity
p1787
aVchainIteration
p1788
aVchainCollide
p1789
aVchainWidthBase
p1790
aVchainWidthExtremity
p1791
aVchainCollideGround
p1792
aVchainCollideGroundHeight
p1793
aaF0
aF0
aF0
aF0
aF0
aF0
aI1
aF0
aF1
aF0.10000000000000001
aF0.20000000000000001
aF1
aI1
aI00
aF1
aF1
aI00
aF0
aa(lp1794
Vleg_shieldPad_A_r_anim
p1795
a(lp1796
VtranslateX
p1797
aVtranslateY
p1798
aVtranslateZ
p1799
aVrotateX
p1800
aVrotateY
p1801
aVrotateZ
p1802
aVchainAttach
p1803
aVchainStartEnvelope
p1804
aVchainStartFrame
p1805
aVchainStiffness
p1806
aVchainDamping
p1807
aVchainGravity
p1808
aVchainIteration
p1809
aVchainCollide
p1810
aVchainWidthBase
p1811
aVchainWidthExtremity
p1812
aVchainCollideGround
p1813
aVchainCollideGroundHeight
p1814
aaF0
aF0
aF0
aF0
aF0
aF0
aI1
aF0
aF1
aF0.10000000000000001
aF0.20000000000000001
aF1
aI1
aI00
aF1
aF1
aI00
aF0
aa(lp1815
Vleg_shieldPad_B_l_anim
p1816
a(lp1817
VtranslateX
p1818
aVtranslateY
p1819
aVtranslateZ
p1820
aVrotateX
p1821
aVrotateY
p1822
aVrotateZ
p1823
aVchainAttach
p1824
aVchainStartEnvelope
p1825
aVchainStartFrame
p1826
aVchainStiffness
p1827
aVchainDamping
p1828
aVchainGravity
p1829
aVchainIteration
p1830
aVchainCollide
p1831
aVchainWidthBase
p1832
aVchainWidthExtremity
p1833
aVchainCollideGround
p1834
aVchainCollideGroundHeight
p1835
aaF0
aF0
aF0
aF0
aF0
aF0
aI1
aF0
aF1
aF0.10000000000000001
aF0.20000000000000001
aF1
aI1
aI00
aF1
aF1
aI00
aF0
aa(lp1836
Vleg_shieldPad_B_r_anim
p1837
a(lp1838
VtranslateX
p1839
aVtranslateY
p1840
aVtranslateZ
p1841
aVrotateX
p1842
aVrotateY
p1843
aVrotateZ
p1844
aVchainAttach
p1845
aVchainStartEnvelope
p1846
aVchainStartFrame
p1847
aVchainStiffness
p1848
aVchainDamping
p1849
aVchainGravity
p1850
aVchainIteration
p1851
aVchainCollide
p1852
aVchainWidthBase
p1853
aVchainWidthExtremity
p1854
aVchainCollideGround
p1855
aVchainCollideGroundHeight
p1856
aaF0
aF0
aF0
aF0
aF0
aF0
aI1
aF0
aF1
aF0.10000000000000001
aF0.20000000000000001
aF1
aI1
aI00
aF1
aF1
aI00
aF0
aa(lp1857
Vloin_cloth_bk_dyn_anim
p1858
a(lp1859
VtranslateX
p1860
aVtranslateY
p1861
aVtranslateZ
p1862
aVrotateX
p1863
aVrotateY
p1864
aVrotateZ
p1865
aVchainAttach
p1866
aVchainStartEnvelope
p1867
aVchainStartFrame
p1868
aVchainStiffness
p1869
aVchainDamping
p1870
aVchainGravity
p1871
aVchainIteration
p1872
aVchainCollide
p1873
aVchainWidthBase
p1874
aVchainWidthExtremity
p1875
aVchainCollideGround
p1876
aVchainCollideGroundHeight
p1877
aaF-9.4065222907483253e-15
aF0
aF1.0945771392870779e-14
aF0
aF0
aF0
aI1
aF1
aF1
aF0.10000000000000001
aF0.20000000000000001
aF1
aI1
aI00
aF1
aF1
aI00
aF0
aa(lp1878
Vloin_cloth_bk_ik_2_anim
p1879
a(lp1880
VtranslateX
p1881
aVtranslateY
p1882
aVtranslateZ
p1883
aVrotateX
p1884
aVrotateY
p1885
aVrotateZ
p1886
aaF-3.4205535602721185e-16
aF-1.0945771392870779e-14
aF1.0945771392870779e-14
aF0
aF0
aF0
aa(lp1887
Vloin_cloth_bk_ik_3_anim
p1888
a(lp1889
VtranslateX
p1890
aVtranslateY
p1891
aVtranslateZ
p1892
aVrotateX
p1893
aVrotateY
p1894
aVrotateZ
p1895
aVclusterControlVis
p1896
aaF2.2233598141768772e-15
aF1.0945771392870779e-14
aF1.0945771392870779e-14
aF0
aF0
aF0
aI00
aa(lp1897
Vloin_cloth_bk_ik_base_anim
p1898
a(lp1899
VtranslateX
p1900
aVtranslateY
p1901
aVtranslateZ
p1902
aVrotateX
p1903
aVrotateY
p1904
aVrotateZ
p1905
aVglobal_scale
p1906
aaF-7.0121347985578429e-15
aF-1.0945771392870779e-14
aF1.0945771392870779e-14
aF0
aF0
aF0
aF1
aa(lp1907
Vfk_loin_cloth_bk_01_anim
p1908
a(lp1909
VtranslateX
p1910
aVtranslateY
p1911
aVtranslateZ
p1912
aVrotateX
p1913
aVrotateY
p1914
aVrotateZ
p1915
aVglobal_scale
p1916
aVlagMode
p1917
aaF-7.3541901545850549e-15
aF0
aF5.4728856964353897e-15
aF0
aF0
aF0
aF1
aF0
aa(lp1918
Vloin_cloth_bk_cv_0_anim
p1919
a(lp1920
VtranslateX
p1921
aVtranslateY
p1922
aVtranslateZ
p1923
aaF0
aF0
aF0
aa(lp1924
Vfk_loin_cloth_bk_02_anim
p1925
a(lp1926
VtranslateX
p1927
aVtranslateY
p1928
aVtranslateZ
p1929
aVrotateX
p1930
aVrotateY
p1931
aVrotateZ
p1932
aaF-3.2495258822585124e-15
aF-1.0945771392870779e-14
aF5.4728856964353897e-15
aF0
aF0
aF0
aa(lp1933
Vloin_cloth_bk_cv_1_anim
p1934
a(lp1935
VtranslateX
p1936
aVtranslateY
p1937
aVtranslateZ
p1938
aaF0
aF0
aF0
aa(lp1939
Vloin_cloth_fr_dyn_anim
p1940
a(lp1941
VtranslateX
p1942
aVtranslateY
p1943
aVtranslateZ
p1944
aVrotateX
p1945
aVrotateY
p1946
aVrotateZ
p1947
aVchainAttach
p1948
aVchainStartEnvelope
p1949
aVchainStartFrame
p1950
aVchainStiffness
p1951
aVchainDamping
p1952
aVchainGravity
p1953
aVchainIteration
p1954
aVchainCollide
p1955
aVchainWidthBase
p1956
aVchainWidthExtremity
p1957
aVchainCollideGround
p1958
aVchainCollideGroundHeight
p1959
aaF1.0603716036843567e-14
aF0
aF6.8411071205442369e-15
aF0
aF0
aF0
aI1
aF1
aF1
aF0.10000000000000001
aF0.20000000000000001
aF1
aI1
aI00
aF1
aF1
aI00
aF0
aa(lp1960
Vloin_cloth_fr_ik_2_anim
p1961
a(lp1962
VtranslateX
p1963
aVtranslateY
p1964
aVtranslateZ
p1965
aVrotateX
p1966
aVrotateY
p1967
aVrotateZ
p1968
aaF-2.7364428482176948e-15
aF1.0945771392870779e-14
aF1.5050435665197322e-14
aF0
aF0
aF0
aa(lp1969
Vloin_cloth_fr_ik_3_anim
p1970
a(lp1971
VtranslateX
p1972
aVtranslateY
p1973
aVtranslateZ
p1974
aVrotateX
p1975
aVrotateY
p1976
aVrotateZ
p1977
aVclusterControlVis
p1978
aaF1.0261660680816356e-15
aF0
aF8.2093285446530849e-15
aF0
aF0
aF0
aI00
aa(lp1979
Vloin_cloth_fr_ik_base_anim
p1980
a(lp1981
VtranslateX
p1982
aVtranslateY
p1983
aVtranslateZ
p1984
aVrotateX
p1985
aVrotateY
p1986
aVrotateZ
p1987
aVglobal_scale
p1988
aaF1.0945771392870779e-14
aF1.0945771392870779e-14
aF2.7364428482176948e-15
aF0
aF0
aF0
aF1
aa(lp1989
Vfk_loin_cloth_fr_01_anim
p1990
a(lp1991
VtranslateX
p1992
aVtranslateY
p1993
aVtranslateZ
p1994
aVrotateX
p1995
aVrotateY
p1996
aVrotateZ
p1997
aVglobal_scale
p1998
aVlagMode
p1999
aaF1.0261660680816355e-14
aF1.0945771392870779e-14
aF5.4728856964353897e-15
aF0
aF0
aF0
aF1
aF0
aa(lp2000
Vloin_cloth_fr_cv_0_anim
p2001
a(lp2002
VtranslateX
p2003
aVtranslateY
p2004
aVtranslateZ
p2005
aaF0
aF0
aF0
aa(lp2006
Vfk_loin_cloth_fr_02_anim
p2007
a(lp2008
VtranslateX
p2009
aVtranslateY
p2010
aVtranslateZ
p2011
aVrotateX
p2012
aVrotateY
p2013
aVrotateZ
p2014
aaF-6.8411071205442369e-15
aF1.0945771392870779e-14
aF9.5775499687619313e-15
aF0
aF0
aF0
aa(lp2015
Vloin_cloth_fr_cv_1_anim
p2016
a(lp2017
VtranslateX
p2018
aVtranslateY
p2019
aVtranslateZ
p2020
aaF0
aF0
aF0
aa(lp2021
Vpadawan_l_dyn_anim
p2022
a(lp2023
VtranslateX
p2024
aVtranslateY
p2025
aVtranslateZ
p2026
aVrotateX
p2027
aVrotateY
p2028
aVrotateZ
p2029
aVchainAttach
p2030
aVchainStartEnvelope
p2031
aVchainStartFrame
p2032
aVchainStiffness
p2033
aVchainDamping
p2034
aVchainGravity
p2035
aVchainIteration
p2036
aVchainCollide
p2037
aVchainWidthBase
p2038
aVchainWidthExtremity
p2039
aVchainCollideGround
p2040
aVchainCollideGroundHeight
p2041
aaF5.6692137206937332e-07
aF-2.0772964148818573e-07
aF-2.7077916797679791e-07
aF0
aF0
aF0
aI1
aF1
aF1
aF0.10000000000000001
aF0.20000000000000001
aF1
aI1
aI00
aF1
aF1
aI00
aF0
aa(lp2042
Vpadawan_l_ik_2_anim
p2043
a(lp2044
VtranslateX
p2045
aVtranslateY
p2046
aVtranslateZ
p2047
aVrotateX
p2048
aVrotateY
p2049
aVrotateZ
p2050
aaF9.8929811898074149e-07
aF3.4911221291622496e-07
aF2.7295460824916518e-07
aF0
aF0
aF0
aa(lp2051
Vpadawan_l_ik_3_anim
p2052
a(lp2053
VtranslateX
p2054
aVtranslateY
p2055
aVtranslateZ
p2056
aVrotateX
p2057
aVrotateY
p2058
aVrotateZ
p2059
aVclusterControlVis
p2060
aaF5.363469295360801e-07
aF1.4553987170984328e-07
aF9.1610289132404432e-08
aF0
aF0
aF0
aI00
aa(lp2061
Vpadawan_l_ik_base_anim
p2062
a(lp2063
VtranslateX
p2064
aVtranslateY
p2065
aVtranslateZ
p2066
aVrotateX
p2067
aVrotateY
p2068
aVrotateZ
p2069
aVglobal_scale
p2070
aaF5.641167426517768e-07
aF-2.1178587417125527e-07
aF-2.7349295805834117e-07
aF0
aF0
aF0
aF1
aa(lp2071
Vfk_padawan_l_01_anim
p2072
a(lp2073
VtranslateX
p2074
aVtranslateY
p2075
aVtranslateZ
p2076
aVrotateX
p2077
aVrotateY
p2078
aVrotateZ
p2079
aVglobal_scale
p2080
aVlagMode
p2081
aaF5.6411675686263152e-07
aF-2.1178595943638356e-07
aF-2.7349290121492231e-07
aF0
aF0
aF0
aF1
aF0
aa(lp2082
Vpadawan_l_cv_0_anim
p2083
a(lp2084
VtranslateX
p2085
aVtranslateY
p2086
aVtranslateZ
p2087
aaF0
aF0
aF0
aa(lp2088
Vfk_padawan_l_02_anim
p2089
a(lp2090
VtranslateX
p2091
aVtranslateY
p2092
aVtranslateZ
p2093
aVrotateX
p2094
aVrotateY
p2095
aVrotateZ
p2096
aaF4.4171868474052189e-07
aF3.3581369507373893e-07
aF2.0699327762940811e-07
aF0
aF0
aF0
aa(lp2097
Vpadawan_l_cv_1_anim
p2098
a(lp2099
VtranslateX
p2100
aVtranslateY
p2101
aVtranslateZ
p2102
aaF0
aF0
aF0
aa(lp2103
Vfk_padawan_l_03_anim
p2104
a(lp2105
VtranslateX
p2106
aVtranslateY
p2107
aVtranslateZ
p2108
aVrotateX
p2109
aVrotateY
p2110
aVrotateZ
p2111
aaF4.6418361598909996e-07
aF7.1331214712699875e-08
aF1.5569537481496809e-07
aF0
aF0
aF0
aa(lp2112
Vpadawan_l_cv_2_anim
p2113
a(lp2114
VtranslateX
p2115
aVtranslateY
p2116
aVtranslateZ
p2117
aaF0
aF0
aF0
aa(lp2118
Vpadawan_r_dyn_anim
p2119
a(lp2120
VtranslateX
p2121
aVtranslateY
p2122
aVtranslateZ
p2123
aVrotateX
p2124
aVrotateY
p2125
aVrotateZ
p2126
aVchainAttach
p2127
aVchainStartEnvelope
p2128
aVchainStartFrame
p2129
aVchainStiffness
p2130
aVchainDamping
p2131
aVchainGravity
p2132
aVchainIteration
p2133
aVchainCollide
p2134
aVchainWidthBase
p2135
aVchainWidthExtremity
p2136
aVchainCollideGround
p2137
aVchainCollideGroundHeight
p2138
aaF6.5734752041635147e-07
aF-7.4608664135666913e-08
aF-1.3938219467490853e-08
aF0
aF0
aF0
aI1
aF1
aF1
aF0.10000000000000001
aF0.20000000000000001
aF1
aI1
aI00
aF1
aF1
aI00
aF0
aa(lp2139
Vpadawan_r_ik_2_anim
p2140
a(lp2141
VtranslateX
p2142
aVtranslateY
p2143
aVtranslateZ
p2144
aVrotateX
p2145
aVrotateY
p2146
aVrotateZ
p2147
aaF1.0333995508204907e-06
aF4.2689447354860022e-07
aF4.0427315184388135e-07
aF0
aF0
aF0
aa(lp2148
Vpadawan_r_ik_3_anim
p2149
a(lp2150
VtranslateX
p2151
aVtranslateY
p2152
aVtranslateZ
p2153
aVrotateX
p2154
aVrotateY
p2155
aVrotateZ
p2156
aVclusterControlVis
p2157
aaF5.8044837558668405e-07
aF2.2332196181196196e-07
aF2.2292874746199232e-07
aF0
aF0
aF0
aI00
aa(lp2158
Vpadawan_r_ik_base_anim
p2159
a(lp2160
VtranslateX
p2161
aVtranslateY
p2162
aVtranslateZ
p2163
aVrotateX
p2164
aVrotateY
p2165
aVrotateZ
p2166
aVglobal_scale
p2167
aaF6.5629663126287596e-07
aF-8.3225103253425914e-08
aF-1.4957976190999034e-08
aF0
aF0
aF0
aF1
aa(lp2168
Vfk_padawan_r_01_anim
p2169
a(lp2170
VtranslateX
p2171
aVtranslateY
p2172
aVtranslateZ
p2173
aVrotateX
p2174
aVrotateY
p2175
aVrotateZ
p2176
aVglobal_scale
p2177
aVlagMode
p2178
aaF0
aF0
aF0
aF0
aF0
aF0
aF1
aF0
aa(lp2179
Vpadawan_r_cv_0_anim
p2180
a(lp2181
VtranslateX
p2182
aVtranslateY
p2183
aVtranslateZ
p2184
aaF0
aF0
aF0
aa(lp2185
Vfk_padawan_r_02_anim
p2186
a(lp2187
VtranslateX
p2188
aVtranslateY
p2189
aVtranslateZ
p2190
aVrotateX
p2191
aVrotateY
p2192
aVrotateZ
p2193
aaF4.4171864921338511e-07
aF3.3581375191715779e-07
aF2.0699330605111754e-07
aF0
aF0
aF0
aa(lp2194
Vpadawan_r_cv_1_anim
p2195
a(lp2196
VtranslateX
p2197
aVtranslateY
p2198
aVtranslateZ
p2199
aaF0
aF0
aF0
aa(lp2200
Vfk_padawan_r_03_anim
p2201
a(lp2202
VtranslateX
p2203
aVtranslateY
p2204
aVtranslateZ
p2205
aVrotateX
p2206
aVrotateY
p2207
aVrotateZ
p2208
aaF4.6418361421274312e-07
aF7.1331214712699875e-08
aF1.5569546008009638e-07
aF0
aF0
aF0
aa(lp2209
Vpadawan_r_cv_2_anim
p2210
a(lp2211
VtranslateX
p2212
aVtranslateY
p2213
aVtranslateZ
p2214
aaF0
aF0
aF0
aa(lp2215
Vpipe_anim
p2216
a(lp2217
VtranslateX
p2218
aVtranslateY
p2219
aVtranslateZ
p2220
aVrotateX
p2221
aVrotateY
p2222
aVrotateZ
p2223
aVscaleX
p2224
aVscaleY
p2225
aVscaleZ
p2226
aaF0
aF0
aF0
aF-1.2933620261157111e-07
aF-3.3538530267978628e-08
aF-7.9214437030667315e-05
aF1
aF1
aF1
aa(lp2227
Vponytail_dyn_anim
p2228
a(lp2229
VtranslateX
p2230
aVtranslateY
p2231
aVtranslateZ
p2232
aVrotateX
p2233
aVrotateY
p2234
aVrotateZ
p2235
aVchainAttach
p2236
aVchainStartEnvelope
p2237
aVchainStartFrame
p2238
aVchainStiffness
p2239
aVchainDamping
p2240
aVchainGravity
p2241
aVchainIteration
p2242
aVchainCollide
p2243
aVchainWidthBase
p2244
aVchainWidthExtremity
p2245
aVchainCollideGround
p2246
aVchainCollideGroundHeight
p2247
aaF-2.246236600056406e-07
aF1.143462213804014e-07
aF9.9454837254597805e-08
aF0
aF0
aF0
aI1
aF1
aF1
aF0.10000000000000001
aF0.20000000000000001
aF1
aI1
aI00
aF1
aF1
aI00
aF0
aa(lp2248
Vponytail_ik_2_anim
p2249
a(lp2250
VtranslateX
p2251
aVtranslateY
p2252
aVtranslateZ
p2253
aVrotateX
p2254
aVrotateY
p2255
aVrotateZ
p2256
aaF-1.0984045117901076e-07
aF6.0196214235475054e-08
aF5.1829516678481014e-08
aF0
aF0
aF0
aa(lp2257
Vponytail_ik_3_anim
p2258
a(lp2259
VtranslateX
p2260
aVtranslateY
p2261
aVtranslateZ
p2262
aVrotateX
p2263
aVrotateY
p2264
aVrotateZ
p2265
aVclusterControlVis
p2266
aaF-1.0984051701523612e-07
aF6.0196185813765624e-08
aF5.1829545100190444e-08
aF0
aF0
aF0
aI00
aa(lp2267
Vponytail_ik_base_anim
p2268
a(lp2269
VtranslateX
p2270
aVtranslateY
p2271
aVtranslateZ
p2272
aVrotateX
p2273
aVrotateY
p2274
aVrotateZ
p2275
aVglobal_scale
p2276
aaF-2.246236600056406e-07
aF1.1402694610751496e-07
aF9.9820766763514257e-08
aF0
aF0
aF0
aF1
aa(lp2277
Vfk_ponytail_01_anim
p2278
a(lp2279
VtranslateX
p2280
aVtranslateY
p2281
aVtranslateZ
p2282
aVrotateX
p2283
aVrotateY
p2284
aVrotateZ
p2285
aVglobal_scale
p2286
aVlagMode
p2287
aaF-2.2462365911746218e-07
aF1.1402693189666024e-07
aF9.9820795185223687e-08
aF0
aF0
aF0
aF1
aF0
aa(lp2288
Vponytail_cv_0_anim
p2289
a(lp2290
VtranslateX
p2291
aVtranslateY
p2292
aVtranslateZ
p2293
aaF0
aF0
aF0
aa(lp2294
Vfk_ponytail_02_anim
p2295
a(lp2296
VtranslateX
p2297
aVtranslateY
p2298
aVtranslateZ
p2299
aVrotateX
p2300
aVrotateY
p2301
aVrotateZ
p2302
aaF5.0282137336000063e-14
aF0
aF2.1891542785741559e-14
aF0
aF0
aF0
aa(lp2303
Vponytail_cv_1_anim
p2304
a(lp2305
VtranslateX
p2306
aVtranslateY
p2307
aVtranslateZ
p2308
aaF0
aF0
aF0
aa(lp2309
Vfk_ponytail_03_anim
p2310
a(lp2311
VtranslateX
p2312
aVtranslateY
p2313
aVtranslateZ
p2314
aVrotateX
p2315
aVrotateY
p2316
aVrotateZ
p2317
aaF5.2676524828190547e-14
aF-2.1891542785741559e-14
aF-2.1891542785741559e-14
aF0
aF0
aF0
aa(lp2318
Vponytail_cv_2_anim
p2319
a(lp2320
VtranslateX
p2321
aVtranslateY
p2322
aVtranslateZ
p2323
aaF0
aF0
aF0
aa(lp2324
Vshoulder_blade_in_r_anim
p2325
a(lp2326
VtranslateX
p2327
aVtranslateY
p2328
aVtranslateZ
p2329
aVrotateX
p2330
aVrotateY
p2331
aVrotateZ
p2332
aVscaleX
p2333
aVscaleY
p2334
aVscaleZ
p2335
aaF0
aF0
aF0
aF0
aF0
aF0
aF1
aF1.0000000000000002
aF1.0000000000000004
aa(lp2336
Vshoulder_blade_mid_r_anim
p2337
a(lp2338
VtranslateX
p2339
aVtranslateY
p2340
aVtranslateZ
p2341
aVrotateX
p2342
aVrotateY
p2343
aVrotateZ
p2344
aVscaleX
p2345
aVscaleY
p2346
aVscaleZ
p2347
aaF0
aF0
aF0
aF0
aF0
aF0
aF1
aF1.0000000000000002
aF1.0000000000000004
aa(lp2348
Vshoulder_blade_out_r_anim
p2349
a(lp2350
VtranslateX
p2351
aVtranslateY
p2352
aVtranslateZ
p2353
aVrotateX
p2354
aVrotateY
p2355
aVrotateZ
p2356
aVscaleX
p2357
aVscaleY
p2358
aVscaleZ
p2359
aaF0
aF0
aF0
aF0
aF0
aF0
aF1
aF1.0000000000000002
aF1.0000000000000004
aa(lp2360
Vshoulder_cloth_01_l_anim
p2361
a(lp2362
VtranslateX
p2363
aVtranslateY
p2364
aVtranslateZ
p2365
aVrotateX
p2366
aVrotateY
p2367
aVrotateZ
p2368
aVscaleX
p2369
aVscaleY
p2370
aVscaleZ
p2371
aaF0
aF0
aF0
aF0
aF0
aF0
aF1
aF1
aF1
aa(lp2372
Vshoulder_cloth_02_l_anim
p2373
a(lp2374
VtranslateX
p2375
aVtranslateY
p2376
aVtranslateZ
p2377
aVrotateX
p2378
aVrotateY
p2379
aVrotateZ
p2380
aVscaleX
p2381
aVscaleY
p2382
aVscaleZ
p2383
aaF0
aF0
aF0
aF0
aF0
aF0
aF1
aF1
aF1
aa(lp2384
Vshoulder_pad_r_anim
p2385
a(lp2386
VtranslateX
p2387
aVtranslateY
p2388
aVtranslateZ
p2389
aVrotateX
p2390
aVrotateY
p2391
aVrotateZ
p2392
aVscaleX
p2393
aVscaleY
p2394
aVscaleZ
p2395
aaF-1.770038825405126
aF-6.1180499938162907
aF12.516323874282687
aF-22.638651402871339
aF-11.709117753071821
aF55.302679994265795
aF1
aF1
aF1
aa(lp2396
Vweapon_anim
p2397
a(lp2398
VtranslateX
p2399
aVtranslateY
p2400
aVtranslateZ
p2401
aVrotateX
p2402
aVrotateY
p2403
aVrotateZ
p2404
aVscaleX
p2405
aVscaleY
p2406
aVscaleZ
p2407
aaF-36.537633814426918
aF-17.589826986191376
aF-1.3621131990691282
aF36.121615174618348
aF-38.220126706957174
aF-8.590534266510085
aF1
aF1
aF1
aa(lp2408
Vweapon_bladeA_01_anim
p2409
a(lp2410
VtranslateX
p2411
aVtranslateY
p2412
aVtranslateZ
p2413
aVrotateX
p2414
aVrotateY
p2415
aVrotateZ
p2416
aVscaleX
p2417
aVscaleY
p2418
aVscaleZ
p2419
aaF0
aF7.5826210457563429e-06
aF1.6790777131383671e-07
aF0
aF0
aF0
aF1
aF1
aF1
aa(lp2420
Vweapon_bladeA_02_anim
p2421
a(lp2422
VtranslateZ
p2423
aVscaleX
p2424
aVscaleY
p2425
aVscaleZ
p2426
aaF0
aF1
aF1
aF1
aa(lp2427
Vweapon_bladeA_03_anim
p2428
a(lp2429
VtranslateX
p2430
aVtranslateY
p2431
aVtranslateZ
p2432
aVrotateX
p2433
aVrotateY
p2434
aVrotateZ
p2435
aVscaleX
p2436
aVscaleY
p2437
aVscaleZ
p2438
aaF0
aF-1.6778003184764859e-08
aF3.761589098407302e-08
aF0
aF0
aF0
aF1
aF1
aF1
aa(lp2439
Vweapon_bladeA_04_anim
p2440
a(lp2441
VtranslateX
p2442
aVtranslateY
p2443
aVtranslateZ
p2444
aVrotateX
p2445
aVrotateY
p2446
aVrotateZ
p2447
aVscaleX
p2448
aVscaleY
p2449
aVscaleZ
p2450
aaF0
aF7.3996318955842758e-08
aF-5.6965151222752656e-09
aF0
aF0
aF0
aF1
aF1
aF1
aa(lp2451
Vweapon_bladeA_05_anim
p2452
a(lp2453
VtranslateX
p2454
aVtranslateY
p2455
aVtranslateZ
p2456
aVrotateX
p2457
aVrotateY
p2458
aVrotateZ
p2459
aVscaleX
p2460
aVscaleY
p2461
aVscaleZ
p2462
aaF0
aF8.9828145632964151e-07
aF2.2093621565051831e-07
aF0
aF0
aF0
aF1
aF1
aF1
aa(lp2463
Vweapon_bladeB_01_anim
p2464
a(lp2465
VtranslateX
p2466
aVtranslateY
p2467
aVtranslateZ
p2468
aVrotateX
p2469
aVrotateY
p2470
aVrotateZ
p2471
aVscaleX
p2472
aVscaleY
p2473
aVscaleZ
p2474
aaF0
aF2.1418203395893216e-06
aF1.6790776958717383e-07
aF0
aF0
aF0
aF1
aF1
aF1
aa(lp2475
Vweapon_bladeB_02_anim
p2476
a(lp2477
VtranslateZ
p2478
aVscaleX
p2479
aVscaleY
p2480
aVscaleZ
p2481
aaF0
aF1
aF1
aF1
aa(lp2482
Vweapon_bladeB_03_anim
p2483
a(lp2484
VtranslateX
p2485
aVtranslateY
p2486
aVtranslateZ
p2487
aVrotateX
p2488
aVrotateY
p2489
aVrotateZ
p2490
aVscaleX
p2491
aVscaleY
p2492
aVscaleZ
p2493
aaF0
aF3.9960860931387288e-07
aF-1.0075551880132217e-07
aF0
aF0
aF0
aF1
aF1
aF1
aa(lp2494
Vweapon_bladeB_04_anim
p2495
a(lp2496
VtranslateX
p2497
aVtranslateY
p2498
aVtranslateZ
p2499
aVrotateX
p2500
aVrotateY
p2501
aVrotateZ
p2502
aVscaleX
p2503
aVscaleY
p2504
aVscaleZ
p2505
aaF0
aF-6.3225178405496386e-08
aF3.8364606539509887e-08
aF0
aF0
aF0
aF1
aF1
aF1
aa(lp2506
Vweapon_bladeB_05_anim
p2507
a(lp2508
VtranslateX
p2509
aVtranslateY
p2510
aVtranslateZ
p2511
aVrotateX
p2512
aVrotateY
p2513
aVrotateZ
p2514
aVscaleX
p2515
aVscaleY
p2516
aVscaleZ
p2517
aaF0
aF-1.3184278666667559e-07
aF-2.8910556865437985e-08
aF0
aF0
aF0
aF1
aF1
aF1
aa(lp2518
Vweapon_bladeC_01_anim
p2519
a(lp2520
VtranslateX
p2521
aVtranslateY
p2522
aVtranslateZ
p2523
aVrotateX
p2524
aVrotateY
p2525
aVrotateZ
p2526
aVscaleX
p2527
aVscaleY
p2528
aVscaleZ
p2529
aaF0
aF2.1418202763663437e-06
aF1.6790774923313606e-07
aF0
aF0
aF0
aF1
aF1
aF1
aa(lp2530
Vweapon_bladeC_02_anim
p2531
a(lp2532
VtranslateY
p2533
aVscaleX
p2534
aVscaleY
p2535
aVscaleZ
p2536
aaF0
aF1
aF1
aF1
aa(lp2537
Vweapon_bladeC_03_anim
p2538
a(lp2539
VtranslateX
p2540
aVtranslateY
p2541
aVtranslateZ
p2542
aVrotateX
p2543
aVrotateY
p2544
aVrotateZ
p2545
aVscaleX
p2546
aVscaleY
p2547
aVscaleZ
p2548
aaF0
aF4.9677527033173762e-07
aF0
aF0
aF0
aF0
aF1
aF1
aF1
aa(lp2549
Vweapon_bladeD_01_anim
p2550
a(lp2551
VtranslateX
p2552
aVtranslateY
p2553
aVtranslateZ
p2554
aVrotateX
p2555
aVrotateY
p2556
aVrotateZ
p2557
aVscaleX
p2558
aVscaleY
p2559
aVscaleZ
p2560
aaF0
aF-2.6753198976861849e-06
aF2.2095830695221529e-07
aF0
aF0
aF0
aF1
aF1
aF1
aa(lp2561
Vweapon_bladeE_01_anim
p2562
a(lp2563
VtranslateX
p2564
aVtranslateY
p2565
aVtranslateZ
p2566
aVrotateX
p2567
aVrotateY
p2568
aVrotateZ
p2569
aVscaleX
p2570
aVscaleY
p2571
aVscaleZ
p2572
aaF0
aF0
aF0
aF0
aF0
aF0
aF1
aF1
aF1
aa(lp2573
Vweapon_butt_dyn_anim
p2574
a(lp2575
VtranslateX
p2576
aVtranslateY
p2577
aVtranslateZ
p2578
aVrotateX
p2579
aVrotateY
p2580
aVrotateZ
p2581
aVchainAttach
p2582
aVchainStartEnvelope
p2583
aVchainStartFrame
p2584
aVchainStiffness
p2585
aVchainDamping
p2586
aVchainGravity
p2587
aVchainIteration
p2588
aVchainCollide
p2589
aVchainWidthBase
p2590
aVchainWidthExtremity
p2591
aVchainCollideGround
p2592
aVchainCollideGroundHeight
p2593
aaF0
aF0
aF0
aF0
aF0
aF0
aI1
aF1
aF1
aF0.10000000000000001
aF0.20000000000000001
aF1
aI1
aI00
aF1
aF1
aI00
aF0
aa(lp2594
Vweapon_butt_ik_2_anim
p2595
a(lp2596
VtranslateX
p2597
aVtranslateY
p2598
aVtranslateZ
p2599
aVrotateX
p2600
aVrotateY
p2601
aVrotateZ
p2602
aaF0
aF0
aF0
aF0
aF0
aF0
aa(lp2603
Vweapon_butt_ik_3_anim
p2604
a(lp2605
VtranslateX
p2606
aVtranslateY
p2607
aVtranslateZ
p2608
aVrotateX
p2609
aVrotateY
p2610
aVrotateZ
p2611
aaF0
aF0
aF0
aF0
aF0
aF0
aa(lp2612
Vweapon_butt_ik_4_anim
p2613
a(lp2614
VtranslateX
p2615
aVtranslateY
p2616
aVtranslateZ
p2617
aVrotateX
p2618
aVrotateY
p2619
aVrotateZ
p2620
aVclusterControlVis
p2621
aaF0
aF0
aF0
aF0
aF0
aF0
aI00
aa(lp2622
Vweapon_butt_ik_base_anim
p2623
a(lp2624
VtranslateX
p2625
aVtranslateY
p2626
aVtranslateZ
p2627
aVrotateX
p2628
aVrotateY
p2629
aVrotateZ
p2630
aVglobal_scale
p2631
aaF0
aF0
aF0
aF0
aF0
aF0
aF0.99999999999999978
aa(lp2632
Vfk_weapon_butt_01_anim
p2633
a(lp2634
VtranslateX
p2635
aVtranslateY
p2636
aVtranslateZ
p2637
aVrotateX
p2638
aVrotateY
p2639
aVrotateZ
p2640
aVglobal_scale
p2641
aVlagMode
p2642
aaF0
aF0
aF0
aF0
aF0
aF0
aF1.0000000000000002
aF0
aa(lp2643
Vweapon_butt_cv_0_anim
p2644
a(lp2645
VtranslateX
p2646
aVtranslateY
p2647
aVtranslateZ
p2648
aaF0
aF0
aF0
aa(lp2649
Vfk_weapon_butt_02_anim
p2650
a(lp2651
VtranslateX
p2652
aVtranslateY
p2653
aVtranslateZ
p2654
aVrotateX
p2655
aVrotateY
p2656
aVrotateZ
p2657
aaF0
aF0
aF0
aF0
aF0
aF0
aa(lp2658
Vweapon_butt_cv_1_anim
p2659
a(lp2660
VtranslateX
p2661
aVtranslateY
p2662
aVtranslateZ
p2663
aaF0
aF0
aF0
aa(lp2664
Vfk_weapon_butt_03_anim
p2665
a(lp2666
VtranslateX
p2667
aVtranslateY
p2668
aVtranslateZ
p2669
aVrotateX
p2670
aVrotateY
p2671
aVrotateZ
p2672
aaF0
aF0
aF0
aF0
aF0
aF0
aa(lp2673
Vweapon_butt_cv_2_anim
p2674
a(lp2675
VtranslateX
p2676
aVtranslateY
p2677
aVtranslateZ
p2678
aaF0
aF0
aF0
aa(lp2679
Vfk_weapon_butt_04_anim
p2680
a(lp2681
VtranslateX
p2682
aVtranslateY
p2683
aVtranslateZ
p2684
aVrotateX
p2685
aVrotateY
p2686
aVrotateZ
p2687
aaF0
aF0
aF0
aF0
aF0
aF0
aa(lp2688
Vweapon_butt_cv_3_anim
p2689
a(lp2690
VtranslateX
p2691
aVtranslateY
p2692
aVtranslateZ
p2693
aaF0
aF0
aF0
aa(lp2694
Vfk_weapon_butt_05_anim
p2695
a(lp2696
VtranslateX
p2697
aVtranslateY
p2698
aVtranslateZ
p2699
aVrotateX
p2700
aVrotateY
p2701
aVrotateZ
p2702
aaF0
aF0
aF0
aF0
aF0
aF0
aa(lp2703
Vweapon_butt_cv_4_anim
p2704
a(lp2705
VtranslateX
p2706
aVtranslateY
p2707
aVtranslateZ
p2708
aaF0
aF0
aF0
aa(lp2709
Vfk_weapon_butt_06_anim
p2710
a(lp2711
VtranslateX
p2712
aVtranslateY
p2713
aVtranslateZ
p2714
aVrotateX
p2715
aVrotateY
p2716
aVrotateZ
p2717
aaF0
aF0
aF0
aF0
aF0
aF0
aa(lp2718
Vweapon_butt_cv_5_anim
p2719
a(lp2720
VtranslateX
p2721
aVtranslateY
p2722
aVtranslateZ
p2723
aaF0
aF0
aF0
aa(lp2724
Vfk_weapon_butt_07_anim
p2725
a(lp2726
VtranslateX
p2727
aVtranslateY
p2728
aVtranslateZ
p2729
aVrotateX
p2730
aVrotateY
p2731
aVrotateZ
p2732
aaF0
aF0
aF0
aF0
aF0
aF0
aa(lp2733
Vweapon_butt_cv_6_anim
p2734
a(lp2735
VtranslateX
p2736
aVtranslateY
p2737
aVtranslateZ
p2738
aaF0
aF0
aF0
aa(lp2739
Vfk_weapon_butt_08_anim
p2740
a(lp2741
VtranslateX
p2742
aVtranslateY
p2743
aVtranslateZ
p2744
aVrotateX
p2745
aVrotateY
p2746
aVrotateZ
p2747
aaF0
aF0
aF0
aF0
aF0
aF0
aa(lp2748
Vweapon_butt_cv_7_anim
p2749
a(lp2750
VtranslateX
p2751
aVtranslateY
p2752
aVtranslateZ
p2753
aaF0
aF0
aF0
aa(lp2754
Vfk_weapon_butt_09_anim
p2755
a(lp2756
VtranslateX
p2757
aVtranslateY
p2758
aVtranslateZ
p2759
aVrotateX
p2760
aVrotateY
p2761
aVrotateZ
p2762
aaF0
aF0
aF0
aF0
aF0
aF0
aa(lp2763
Vweapon_butt_cv_8_anim
p2764
a(lp2765
VtranslateX
p2766
aVtranslateY
p2767
aVtranslateZ
p2768
aaF0
aF0
aF0
aa(lp2769
Vwrist_plate_r_anim
p2770
a(lp2771
VtranslateX
p2772
aVtranslateY
p2773
aVtranslateZ
p2774
aVrotateX
p2775
aVrotateY
p2776
aVrotateZ
p2777
aVscaleX
p2778
aVscaleY
p2779
aVscaleZ
p2780
aaF0
aF0
aF0
aF0
aF0
aF0
aF1
aF1
aF1
aa(lp2781
Vweapon_bladeD_02_anim
p2782
a(lp2783
VtranslateX
p2784
aVtranslateY
p2785
aVtranslateZ
p2786
aVrotateX
p2787
aVrotateY
p2788
aVrotateZ
p2789
aVscaleX
p2790
aVscaleY
p2791
aVscaleZ
p2792
aaF0
aF0
aF0
aF0
aF0
aF0
aF1
aF1
aF1
aa(lp2793
Vbody_anim_space_switcher
p2794
a(lp2795
Vvisibility
p2796
aVtranslateX
p2797
aVtranslateY
p2798
aVtranslateZ
p2799
aVrotateX
p2800
aVrotateY
p2801
aVrotateZ
p2802
aVscaleX
p2803
aVscaleY
p2804
aVscaleZ
p2805
aVspace_world
p2806
aaI01
aF0
aF0
aF5.856452433224257e-15
aF0
aF0
aF0
aF1
aF1
aF1
aF0
aa(lp2807
Vbracelet_A_l_anim_space_switcher
p2808
a(lp2809
Vvisibility
p2810
aVtranslateX
p2811
aVtranslateY
p2812
aVtranslateZ
p2813
aVrotateX
p2814
aVrotateY
p2815
aVrotateZ
p2816
aVscaleX
p2817
aVscaleY
p2818
aVscaleZ
p2819
aVspace_world
p2820
aaI01
aF1.4210854715202004e-14
aF0
aF0
aF3.1805546814635168e-15
aF1.5902773407317584e-15
aF-7.9513867036587919e-16
aF1
aF1
aF0.99999999999999989
aF0
aa(lp2821
Vbracelet_B_l_anim_space_switcher
p2822
a(lp2823
Vvisibility
p2824
aVtranslateX
p2825
aVtranslateY
p2826
aVtranslateZ
p2827
aVrotateX
p2828
aVrotateY
p2829
aVrotateZ
p2830
aVscaleX
p2831
aVscaleY
p2832
aVscaleZ
p2833
aVspace_world
p2834
aaI01
aF0
aF-1.4210854715202004e-14
aF0
aF-3.1805546814635168e-15
aF-0
aF-1.5902773407317584e-15
aF1
aF1
aF1
aF0
aa(lp2835
Vbracelet_C_l_anim_space_switcher
p2836
a(lp2837
Vvisibility
p2838
aVtranslateX
p2839
aVtranslateY
p2840
aVtranslateZ
p2841
aVrotateX
p2842
aVrotateY
p2843
aVrotateZ
p2844
aVscaleX
p2845
aVscaleY
p2846
aVscaleZ
p2847
aVspace_world
p2848
aaI01
aF1.4210854715202004e-14
aF1.4210854715202004e-14
aF2.8421709430404007e-14
aF3.180554681463516e-15
aF-3.180554681463516e-15
aF0
aF1.0000000000000002
aF1.0000000000000002
aF1.0000000000000002
aF0
aa(lp2849
Vchest_ik_anim_space_switcher
p2850
a(lp2851
Vvisibility
p2852
aVtranslateX
p2853
aVtranslateY
p2854
aVtranslateZ
p2855
aVrotateX
p2856
aVrotateY
p2857
aVrotateZ
p2858
aVscaleX
p2859
aVscaleY
p2860
aVscaleZ
p2861
aVspace_world
p2862
aVspace_chest_ik_world_aligned
p2863
aaI01
aF0
aF-8.8817841970012523e-15
aF-1.3555225542027927e-07
aF3.5311250384401269e-31
aF2.8249000307521015e-30
aF0
aF1
aF1
aF1
aF0
aF0
aa(lp2864
Veyeball_l_anim_space_switcher
p2865
a(lp2866
Vvisibility
p2867
aVtranslateX
p2868
aVtranslateY
p2869
aVtranslateZ
p2870
aVrotateX
p2871
aVrotateY
p2872
aVrotateZ
p2873
aVscaleX
p2874
aVscaleY
p2875
aVscaleZ
p2876
aVspace_world
p2877
aaI01
aF0
aF0
aF0
aF0
aF0
aF0
aF1
aF1
aF1
aF0
aa(lp2878
Veyeball_r_anim_space_switcher
p2879
a(lp2880
Vvisibility
p2881
aVtranslateX
p2882
aVtranslateY
p2883
aVtranslateZ
p2884
aVrotateX
p2885
aVrotateY
p2886
aVrotateZ
p2887
aVscaleX
p2888
aVscaleY
p2889
aVscaleZ
p2890
aVspace_world
p2891
aaI01
aF4.4408920985006262e-16
aF0
aF0
aF0
aF0
aF0
aF1
aF1
aF1
aF0
aa(lp2892
Veyebrow_in_l_anim_space_switcher
p2893
a(lp2894
Vvisibility
p2895
aVtranslateX
p2896
aVtranslateY
p2897
aVtranslateZ
p2898
aVrotateX
p2899
aVrotateY
p2900
aVrotateZ
p2901
aVscaleX
p2902
aVscaleY
p2903
aVscaleZ
p2904
aVspace_world
p2905
aaI01
aF0
aF-3.5527136788005009e-15
aF-2.8421709430404007e-14
aF0
aF9.9392333795734899e-17
aF-3.975693351829396e-16
aF1
aF1
aF1.0000000000000002
aF0
aa(lp2906
Veyebrow_in_r_anim_space_switcher
p2907
a(lp2908
Vvisibility
p2909
aVtranslateX
p2910
aVtranslateY
p2911
aVtranslateZ
p2912
aVrotateX
p2913
aVrotateY
p2914
aVrotateZ
p2915
aVscaleX
p2916
aVscaleY
p2917
aVscaleZ
p2918
aVspace_world
p2919
aaI01
aF-4.4408920985006262e-16
aF0
aF0
aF7.9513867036587919e-16
aF-9.9392333795734874e-17
aF4.5968954380527377e-16
aF1.0000000000000002
aF1
aF1.0000000000000002
aF0
aa(lp2920
Veyebrow_out_l_anim_space_switcher
p2921
a(lp2922
Vvisibility
p2923
aVtranslateX
p2924
aVtranslateY
p2925
aVtranslateZ
p2926
aVrotateX
p2927
aVrotateY
p2928
aVrotateZ
p2929
aVscaleX
p2930
aVscaleY
p2931
aVscaleZ
p2932
aVspace_world
p2933
aaI01
aF-1.4210854715202004e-14
aF0
aF0
aF0
aF1.5902773407317584e-15
aF-2.3854160110976376e-15
aF1
aF0.99999999999999989
aF1
aF0
aa(lp2934
Veyebrow_out_r_anim_space_switcher
p2935
a(lp2936
Vvisibility
p2937
aVtranslateX
p2938
aVtranslateY
p2939
aVtranslateZ
p2940
aVrotateX
p2941
aVrotateY
p2942
aVrotateZ
p2943
aVscaleX
p2944
aVscaleY
p2945
aVscaleZ
p2946
aVspace_world
p2947
aaI01
aF-7.1054273576010019e-15
aF0
aF-2.8421709430404007e-14
aF0
aF1.590277340731758e-15
aF7.9513867036587899e-16
aF1.0000000000000002
aF1
aF1
aF0
aa(lp2948
Veyelid_bott_l_anim_space_switcher
p2949
a(lp2950
Vvisibility
p2951
aVtranslateX
p2952
aVtranslateY
p2953
aVtranslateZ
p2954
aVrotateX
p2955
aVrotateY
p2956
aVrotateZ
p2957
aVscaleX
p2958
aVscaleY
p2959
aVscaleZ
p2960
aVspace_world
p2961
aaI01
aF0
aF0
aF0
aF0
aF0
aF0
aF1
aF1
aF1
aF0
aa(lp2962
Veyelid_bott_r_anim_space_switcher
p2963
a(lp2964
Vvisibility
p2965
aVtranslateX
p2966
aVtranslateY
p2967
aVtranslateZ
p2968
aVrotateX
p2969
aVrotateY
p2970
aVrotateZ
p2971
aVscaleX
p2972
aVscaleY
p2973
aVscaleZ
p2974
aVspace_world
p2975
aaI01
aF4.4408920985006262e-16
aF0
aF0
aF0
aF0
aF0
aF1
aF1
aF1
aF0
aa(lp2976
Veyelid_top_l_anim_space_switcher
p2977
a(lp2978
Vvisibility
p2979
aVtranslateX
p2980
aVtranslateY
p2981
aVtranslateZ
p2982
aVrotateX
p2983
aVrotateY
p2984
aVrotateZ
p2985
aVscaleX
p2986
aVscaleY
p2987
aVscaleZ
p2988
aVspace_world
p2989
aaI01
aF0
aF0
aF0
aF0
aF0
aF0
aF1
aF1
aF1
aF0
aa(lp2990
Veyelid_top_r_anim_space_switcher
p2991
a(lp2992
Vvisibility
p2993
aVtranslateX
p2994
aVtranslateY
p2995
aVtranslateZ
p2996
aVrotateX
p2997
aVrotateY
p2998
aVrotateZ
p2999
aVscaleX
p3000
aVscaleY
p3001
aVscaleZ
p3002
aVspace_world
p3003
aaI01
aF4.4408920985006262e-16
aF0
aF0
aF0
aF0
aF0
aF1
aF1
aF1
aF0
aa(lp3004
Vhip_back_flaps_anim_space_switcher
p3005
a(lp3006
Vvisibility
p3007
aVtranslateX
p3008
aVtranslateY
p3009
aVtranslateZ
p3010
aVrotateX
p3011
aVrotateY
p3012
aVrotateZ
p3013
aVscaleX
p3014
aVscaleY
p3015
aVscaleZ
p3016
aVspace_world
p3017
aaI01
aF0
aF0
aF0
aF0
aF0
aF0
aF1
aF1
aF1
aF0
aa(lp3018
Vik_elbow_l_anim_space_switcher
p3019
a(lp3020
Vvisibility
p3021
aVtranslateX
p3022
aVtranslateY
p3023
aVtranslateZ
p3024
aVrotateX
p3025
aVrotateY
p3026
aVrotateZ
p3027
aVscaleX
p3028
aVscaleY
p3029
aVscaleZ
p3030
aVspace_world
p3031
aVspace_body_anim
p3032
aVspace_chest_ik_anim
p3033
aaI01
aF-5.5530346187993018e-06
aF-8.2796614577773653e-06
aF0.00010569494523338108
aF0
aF0
aF0
aF1
aF1
aF1
aF0
aF0
aF0
aa(lp3034
Vik_elbow_r_anim_space_switcher
p3035
a(lp3036
Vvisibility
p3037
aVtranslateX
p3038
aVtranslateY
p3039
aVtranslateZ
p3040
aVrotateX
p3041
aVrotateY
p3042
aVrotateZ
p3043
aVscaleX
p3044
aVscaleY
p3045
aVscaleZ
p3046
aVspace_world
p3047
aVspace_body_anim
p3048
aVspace_chest_ik_anim
p3049
aaI01
aF-5.5530346187993018e-06
aF8.2796614577773653e-06
aF-0.00010569494523338108
aF0
aF0
aF0
aF1
aF1
aF1
aF0
aF0
aF0
aa(lp3050
Vik_foot_anim_l_space_switcher
p3051
a(lp3052
Vvisibility
p3053
aVtranslateX
p3054
aVtranslateY
p3055
aVtranslateZ
p3056
aVrotateX
p3057
aVrotateY
p3058
aVrotateZ
p3059
aVscaleX
p3060
aVscaleY
p3061
aVscaleZ
p3062
aVspace_world
p3063
aVspace_body_anim
p3064
aaI01
aF1.7795704437162385e-05
aF1.7388318187983032e-05
aF-0.00018205549879724003
aF0
aF-0
aF-0
aF1
aF1
aF1
aF0
aF0
aa(lp3065
Vik_foot_anim_r_space_switcher
p3066
a(lp3067
Vvisibility
p3068
aVtranslateX
p3069
aVtranslateY
p3070
aVtranslateZ
p3071
aVrotateX
p3072
aVrotateY
p3073
aVrotateZ
p3074
aVscaleX
p3075
aVscaleY
p3076
aVscaleZ
p3077
aVspace_world
p3078
aVspace_body_anim
p3079
aaI01
aF1.7795704437162385e-05
aF-1.7388318187983032e-05
aF0.00018205549879724003
aF0
aF-0
aF-0
aF1
aF1
aF1
aF0
aF0
aa(lp3080
Vik_wrist_l_anim_space_switcher
p3081
a(lp3082
Vvisibility
p3083
aVtranslateX
p3084
aVtranslateY
p3085
aVtranslateZ
p3086
aVrotateX
p3087
aVrotateY
p3088
aVrotateZ
p3089
aVscaleX
p3090
aVscaleY
p3091
aVscaleZ
p3092
aVspace_world
p3093
aVspace_body_anim
p3094
aVspace_head_fk_anim
p3095
aVspace_chest_ik_anim
p3096
aaI01
aF0
aF0
aF0
aF0
aF-0
aF-0
aF1
aF1
aF1
aF0
aF0
aF0
aF0
aa(lp3097
Vik_wrist_r_anim_space_switcher
p3098
a(lp3099
Vvisibility
p3100
aVtranslateX
p3101
aVtranslateY
p3102
aVtranslateZ
p3103
aVrotateX
p3104
aVrotateY
p3105
aVrotateZ
p3106
aVscaleX
p3107
aVscaleY
p3108
aVscaleZ
p3109
aVspace_world
p3110
aVspace_body_anim
p3111
aVspace_head_fk_anim
p3112
aVspace_chest_ik_anim
p3113
aaI01
aF0.00010365223528197021
aF1.4836969924658661e-05
aF-5.4660423444374828e-05
aF0
aF-0
aF-0
aF1
aF1
aF1
aF0
aF0
aF0
aF0
aa(lp3114
Vjaw_anim_space_switcher
p3115
a(lp3116
Vvisibility
p3117
aVtranslateX
p3118
aVtranslateY
p3119
aVtranslateZ
p3120
aVrotateX
p3121
aVrotateY
p3122
aVrotateZ
p3123
aVscaleX
p3124
aVscaleY
p3125
aVscaleZ
p3126
aVspace_world
p3127
aaI01
aF0
aF0
aF0
aF0
aF0
aF0
aF1
aF1
aF1
aF0
aa(lp3128
Vl_global_ik_anim_space_switcher
p3129
a(lp3130
Vvisibility
p3131
aVtranslateX
p3132
aVtranslateY
p3133
aVtranslateZ
p3134
aVrotateX
p3135
aVrotateY
p3136
aVrotateZ
p3137
aVscaleX
p3138
aVscaleY
p3139
aVscaleZ
p3140
aVspace_world
p3141
aaI01
aF0
aF0
aF0
aF0
aF0
aF0
aF1
aF1
aF1
aF0
aa(lp3142
Vmaster_anim_space_switcher
p3143
a(lp3144
Vvisibility
p3145
aVtranslateX
p3146
aVtranslateY
p3147
aVtranslateZ
p3148
aVrotateX
p3149
aVrotateY
p3150
aVrotateZ
p3151
aVscaleX
p3152
aVscaleY
p3153
aVscaleZ
p3154
aVspace_world
p3155
aaI01
aF0
aF0
aF0
aF0
aF0
aF0
aF1
aF1
aF1
aF0
aa(lp3156
Vpipe_anim_space_switcher
p3157
a(lp3158
Vvisibility
p3159
aVtranslateX
p3160
aVtranslateY
p3161
aVtranslateZ
p3162
aVrotateX
p3163
aVrotateY
p3164
aVrotateZ
p3165
aVscaleX
p3166
aVscaleY
p3167
aVscaleZ
p3168
aVspace_world
p3169
aaI01
aF0
aF0
aF0
aF0
aF0
aF0
aF1
aF1
aF1
aF0
aa(lp3170
Vr_global_ik_anim_space_switcher
p3171
a(lp3172
Vvisibility
p3173
aVtranslateX
p3174
aVtranslateY
p3175
aVtranslateZ
p3176
aVrotateX
p3177
aVrotateY
p3178
aVrotateZ
p3179
aVscaleX
p3180
aVscaleY
p3181
aVscaleZ
p3182
aVspace_world
p3183
aaI01
aF0
aF0
aF0
aF0
aF0
aF0
aF1
aF1
aF1
aF0
aa(lp3184
Vshoulder_blade_in_r_anim_space_switcher
p3185
a(lp3186
Vvisibility
p3187
aVtranslateX
p3188
aVtranslateY
p3189
aVtranslateZ
p3190
aVrotateX
p3191
aVrotateY
p3192
aVrotateZ
p3193
aVscaleX
p3194
aVscaleY
p3195
aVscaleZ
p3196
aVspace_world
p3197
aaI01
aF-3.5527136788005009e-15
aF3.5527136788005009e-15
aF0
aF0
aF-0
aF7.4544250346801174e-17
aF1
aF1
aF1.0000000000000002
aF0
aa(lp3198
Vshoulder_blade_mid_r_anim_space_switcher
p3199
a(lp3200
Vvisibility
p3201
aVtranslateX
p3202
aVtranslateY
p3203
aVtranslateZ
p3204
aVrotateX
p3205
aVrotateY
p3206
aVrotateZ
p3207
aVscaleX
p3208
aVscaleY
p3209
aVscaleZ
p3210
aVspace_world
p3211
aaI01
aF3.5527136788005009e-15
aF0
aF0
aF0
aF-0
aF7.4544250346801174e-17
aF1
aF1
aF1.0000000000000002
aF0
aa(lp3212
Vshoulder_blade_out_r_anim_space_switcher
p3213
a(lp3214
Vvisibility
p3215
aVtranslateX
p3216
aVtranslateY
p3217
aVtranslateZ
p3218
aVrotateX
p3219
aVrotateY
p3220
aVrotateZ
p3221
aVscaleX
p3222
aVscaleY
p3223
aVscaleZ
p3224
aVspace_world
p3225
aaI01
aF-3.5527136788005009e-15
aF0
aF0
aF0
aF-0
aF7.4544250346801174e-17
aF1
aF1
aF1.0000000000000002
aF0
aa(lp3226
Vshoulder_cloth_01_l_anim_space_switcher
p3227
a(lp3228
Vvisibility
p3229
aVtranslateX
p3230
aVtranslateY
p3231
aVtranslateZ
p3232
aVrotateX
p3233
aVrotateY
p3234
aVrotateZ
p3235
aVscaleX
p3236
aVscaleY
p3237
aVscaleZ
p3238
aVspace_world
p3239
aaI01
aF0
aF1.4210854715202004e-14
aF-2.8421709430404007e-14
aF0
aF-3.180554681463516e-15
aF0
aF1.0000000000000002
aF1.0000000000000002
aF1.0000000000000002
aF0
aa(lp3240
Vshoulder_cloth_02_l_anim_space_switcher
p3241
a(lp3242
Vvisibility
p3243
aVtranslateX
p3244
aVtranslateY
p3245
aVtranslateZ
p3246
aVrotateX
p3247
aVrotateY
p3248
aVrotateZ
p3249
aVscaleX
p3250
aVscaleY
p3251
aVscaleZ
p3252
aVspace_world
p3253
aaI01
aF-1.4210854715202004e-14
aF0
aF2.8421709430404007e-14
aF0
aF-6.3611093629270335e-15
aF1.5902773407317584e-15
aF1
aF1
aF1
aF0
aa(lp3254
Vshoulder_pad_r_anim_space_switcher
p3255
a(lp3256
Vvisibility
p3257
aVtranslateX
p3258
aVtranslateY
p3259
aVtranslateZ
p3260
aVrotateX
p3261
aVrotateY
p3262
aVrotateZ
p3263
aVscaleX
p3264
aVscaleY
p3265
aVscaleZ
p3266
aVspace_world
p3267
aaI01
aF0
aF-3.5527136788005009e-15
aF0
aF9.9392333795734899e-17
aF-1.987846675914698e-16
aF-7.765026077791789e-18
aF1
aF1
aF1
aF0
aa(lp3268
Vspine_01_space_switcher
p3269
a(lp3270
Vvisibility
p3271
aVtranslateX
p3272
aVtranslateY
p3273
aVtranslateZ
p3274
aVrotateX
p3275
aVrotateY
p3276
aVrotateZ
p3277
aVscaleX
p3278
aVscaleY
p3279
aVscaleZ
p3280
aVspace_world
p3281
aaI01
aF0
aF3.5527136788005009e-15
aF1.0097419586828951e-28
aF0
aF0
aF0
aF0.99999999999999989
aF0.99999999999999989
aF1
aF0
aa(lp3282
Vweapon_anim_space_switcher
p3283
a(lp3284
Vvisibility
p3285
aVtranslateX
p3286
aVtranslateY
p3287
aVtranslateZ
p3288
aVrotateX
p3289
aVrotateY
p3290
aVrotateZ
p3291
aVscaleX
p3292
aVscaleY
p3293
aVscaleZ
p3294
aVspace_world
p3295
aaI01
aF-2.8421709430404007e-14
aF0
aF-2.8421709430404007e-14
aF2.3854160110976376e-15
aF3.1805546814635168e-15
aF-1.1927080055488188e-15
aF1
aF1
aF1
aF0
aa(lp3296
Vweapon_bladeA_01_anim_space_switcher
p3297
a(lp3298
Vvisibility
p3299
aVtranslateX
p3300
aVtranslateY
p3301
aVtranslateZ
p3302
aVrotateX
p3303
aVrotateY
p3304
aVrotateZ
p3305
aVscaleX
p3306
aVscaleY
p3307
aVscaleZ
p3308
aVspace_world
p3309
aVspace_weapon_blades_master_anim
p3310
aaI01
aF2.8421709430404007e-14
aF0
aF-2.8421709430404007e-14
aF7.9513867036587919e-16
aF-0
aF-1.5902773407317584e-15
aF1
aF1
aF0.99999999999999978
aF0
aF0
aa(lp3311
Vweapon_bladeA_02_anim_space_switcher
p3312
a(lp3313
Vvisibility
p3314
aVtranslateX
p3315
aVtranslateY
p3316
aVtranslateZ
p3317
aVrotateX
p3318
aVrotateY
p3319
aVrotateZ
p3320
aVscaleX
p3321
aVscaleY
p3322
aVscaleZ
p3323
aVspace_world
p3324
aaI01
aF0
aF-2.8421709430404007e-14
aF-4.2632564145606011e-14
aF7.9513867036587919e-16
aF-0
aF-1.5902773407317584e-15
aF1
aF1
aF0.99999999999999978
aF0
aa(lp3325
Vweapon_bladeA_03_anim_space_switcher
p3326
a(lp3327
Vvisibility
p3328
aVtranslateX
p3329
aVtranslateY
p3330
aVtranslateZ
p3331
aVrotateX
p3332
aVrotateY
p3333
aVrotateZ
p3334
aVscaleX
p3335
aVscaleY
p3336
aVscaleZ
p3337
aVspace_world
p3338
aaI01
aF-2.8421709430404007e-14
aF0
aF-4.2632564145606011e-14
aF7.9513867036587919e-16
aF-0
aF-1.5902773407317584e-15
aF1
aF1
aF0.99999999999999978
aF0
aa(lp3339
Vweapon_bladeA_04_anim_space_switcher
p3340
a(lp3341
Vvisibility
p3342
aVtranslateX
p3343
aVtranslateY
p3344
aVtranslateZ
p3345
aVrotateX
p3346
aVrotateY
p3347
aVrotateZ
p3348
aVscaleX
p3349
aVscaleY
p3350
aVscaleZ
p3351
aVspace_world
p3352
aaI01
aF0
aF0
aF-2.8421709430404007e-14
aF7.9513867036587919e-16
aF-0
aF-1.5902773407317584e-15
aF1
aF1
aF0.99999999999999978
aF0
aa(lp3353
Vweapon_bladeA_05_anim_space_switcher
p3354
a(lp3355
Vvisibility
p3356
aVtranslateX
p3357
aVtranslateY
p3358
aVtranslateZ
p3359
aVrotateX
p3360
aVrotateY
p3361
aVrotateZ
p3362
aVscaleX
p3363
aVscaleY
p3364
aVscaleZ
p3365
aVspace_world
p3366
aaI01
aF0
aF0
aF-4.2632564145606011e-14
aF7.9513867036587919e-16
aF-0
aF-1.5902773407317584e-15
aF1
aF1
aF0.99999999999999978
aF0
aa(lp3367
Vweapon_bladeB_01_anim_space_switcher
p3368
a(lp3369
Vvisibility
p3370
aVtranslateX
p3371
aVtranslateY
p3372
aVtranslateZ
p3373
aVrotateX
p3374
aVrotateY
p3375
aVrotateZ
p3376
aVscaleX
p3377
aVscaleY
p3378
aVscaleZ
p3379
aVspace_world
p3380
aVspace_weapon_blades_master_anim
p3381
aaI01
aF2.8421709430404007e-14
aF0
aF-2.8421709430404007e-14
aF7.9513867036587919e-16
aF-0
aF-1.5902773407317584e-15
aF1
aF1
aF0.99999999999999978
aF0
aF0
aa(lp3382
Vweapon_bladeB_02_anim_space_switcher
p3383
a(lp3384
Vvisibility
p3385
aVtranslateX
p3386
aVtranslateY
p3387
aVtranslateZ
p3388
aVrotateX
p3389
aVrotateY
p3390
aVrotateZ
p3391
aVscaleX
p3392
aVscaleY
p3393
aVscaleZ
p3394
aVspace_world
p3395
aaI01
aF2.8421709430404007e-14
aF-2.1316282072803006e-14
aF0
aF3.1805546814635168e-15
aF3.1805546814635168e-15
aF-3.1805546814635168e-15
aF1
aF1
aF1
aF0
aa(lp3396
Vweapon_bladeB_03_anim_space_switcher
p3397
a(lp3398
Vvisibility
p3399
aVtranslateX
p3400
aVtranslateY
p3401
aVtranslateZ
p3402
aVrotateX
p3403
aVrotateY
p3404
aVrotateZ
p3405
aVscaleX
p3406
aVscaleY
p3407
aVscaleZ
p3408
aVspace_world
p3409
aaI01
aF2.8421709430404007e-14
aF0
aF0
aF-1.987846675914698e-15
aF-0
aF1.987846675914698e-15
aF1
aF1
aF1
aF0
aa(lp3410
Vweapon_bladeB_04_anim_space_switcher
p3411
a(lp3412
Vvisibility
p3413
aVtranslateX
p3414
aVtranslateY
p3415
aVtranslateZ
p3416
aVrotateX
p3417
aVrotateY
p3418
aVrotateZ
p3419
aVscaleX
p3420
aVscaleY
p3421
aVscaleZ
p3422
aVspace_world
p3423
aaI01
aF2.8421709430404007e-14
aF-2.8421709430404007e-14
aF1.4210854715202004e-14
aF-7.9513867036587919e-16
aF-0
aF0
aF1
aF1
aF1
aF0
aa(lp3424
Vweapon_bladeB_05_anim_space_switcher
p3425
a(lp3426
Vvisibility
p3427
aVtranslateX
p3428
aVtranslateY
p3429
aVtranslateZ
p3430
aVrotateX
p3431
aVrotateY
p3432
aVrotateZ
p3433
aVscaleX
p3434
aVscaleY
p3435
aVscaleZ
p3436
aVspace_world
p3437
aaI01
aF0
aF2.8421709430404007e-14
aF1.4210854715202004e-14
aF-7.9513867036587919e-16
aF-0
aF0
aF1
aF1
aF1
aF0
aa(lp3438
Vweapon_bladeC_01_anim_space_switcher
p3439
a(lp3440
Vvisibility
p3441
aVtranslateX
p3442
aVtranslateY
p3443
aVtranslateZ
p3444
aVrotateX
p3445
aVrotateY
p3446
aVrotateZ
p3447
aVscaleX
p3448
aVscaleY
p3449
aVscaleZ
p3450
aVspace_world
p3451
aVspace_weapon_blades_master_anim
p3452
aaI01
aF2.8421709430404007e-14
aF0
aF-2.8421709430404007e-14
aF7.9513867036587919e-16
aF-0
aF-1.5902773407317584e-15
aF1
aF1
aF0.99999999999999978
aF0
aF0
aa(lp3453
Vweapon_bladeC_02_anim_space_switcher
p3454
a(lp3455
Vvisibility
p3456
aVtranslateX
p3457
aVtranslateY
p3458
aVtranslateZ
p3459
aVrotateX
p3460
aVrotateY
p3461
aVrotateZ
p3462
aVscaleX
p3463
aVscaleY
p3464
aVscaleZ
p3465
aVspace_world
p3466
aaI01
aF2.8421709430404007e-14
aF-2.8421709430404007e-14
aF0
aF7.9513867036587919e-16
aF-0
aF-1.5902773407317584e-15
aF1
aF1
aF0.99999999999999978
aF0
aa(lp3467
Vweapon_bladeC_03_anim_space_switcher
p3468
a(lp3469
Vvisibility
p3470
aVtranslateX
p3471
aVtranslateY
p3472
aVtranslateZ
p3473
aVrotateX
p3474
aVrotateY
p3475
aVrotateZ
p3476
aVscaleX
p3477
aVscaleY
p3478
aVscaleZ
p3479
aVspace_world
p3480
aaI01
aF0
aF0
aF-1.4210854715202004e-14
aF7.9513867036587919e-16
aF-0
aF-1.5902773407317584e-15
aF1
aF1
aF0.99999999999999978
aF0
aa(lp3481
Vweapon_bladeD_01_anim_space_switcher
p3482
a(lp3483
Vvisibility
p3484
aVtranslateX
p3485
aVtranslateY
p3486
aVtranslateZ
p3487
aVrotateX
p3488
aVrotateY
p3489
aVrotateZ
p3490
aVscaleX
p3491
aVscaleY
p3492
aVscaleZ
p3493
aVspace_world
p3494
aVspace_weapon_blades_master_anim
p3495
aaI01
aF0
aF-2.8421709430404007e-14
aF-4.2632564145606011e-14
aF7.9513867036587919e-16
aF-0
aF-1.5902773407317584e-15
aF1
aF1
aF0.99999999999999978
aF0
aF0
aa(lp3496
Vweapon_bladeD_02_anim_space_switcher
p3497
a(lp3498
Vvisibility
p3499
aVtranslateX
p3500
aVtranslateY
p3501
aVtranslateZ
p3502
aVrotateX
p3503
aVrotateY
p3504
aVrotateZ
p3505
aVscaleX
p3506
aVscaleY
p3507
aVscaleZ
p3508
aVspace_world
p3509
aaI01
aF0
aF0
aF0
aF0
aF0
aF0
aF1
aF1
aF1
aF0
aa(lp3510
Vweapon_bladeE_01_anim_space_switcher
p3511
a(lp3512
Vvisibility
p3513
aVtranslateX
p3514
aVtranslateY
p3515
aVtranslateZ
p3516
aVrotateX
p3517
aVrotateY
p3518
aVrotateZ
p3519
aVscaleX
p3520
aVscaleY
p3521
aVscaleZ
p3522
aVspace_world
p3523
aaI01
aF0
aF0
aF0
aF0
aF0
aF0
aF1
aF1
aF1
aF0
aa(lp3524
Vwrist_plate_r_anim_space_switcher
p3525
a(lp3526
Vvisibility
p3527
aVtranslateX
p3528
aVtranslateY
p3529
aVtranslateZ
p3530
aVrotateX
p3531
aVrotateY
p3532
aVrotateZ
p3533
aVscaleX
p3534
aVscaleY
p3535
aVscaleZ
p3536
aVspace_world
p3537
aaI01
aF0
aF0
aF-5.6843418860808015e-14
aF0
aF-0
aF9.9392333795734899e-17
aF1
aF1
aF1
aF0
aa.