(lp1
(lp2
S'fk_clavicle_r_anim'
p3
a(lp4
VtranslateX
p5
aVtranslateY
p6
aVtranslateZ
p7
aVrotateX
p8
aVrotateY
p9
aVrotateZ
p10
aaF0
aF0
aF0
aF0
aF0
aF0
aa(lp11
S'fk_clavicle_l_anim'
p12
a(lp13
VtranslateX
p14
aVtranslateY
p15
aVtranslateZ
p16
aVrotateX
p17
aVrotateY
p18
aVrotateZ
p19
aaF0
aF0
aF0
aF0
aF0
aF0
aa(lp20
S'head_fk_anim'
p21
a(lp22
VtranslateX
p23
aVtranslateY
p24
aVtranslateZ
p25
aVrotateX
p26
aVrotateY
p27
aVrotateZ
p28
aVscaleX
p29
aVscaleY
p30
aVscaleZ
p31
aVfkOrientation
p32
aaF0
aF0
aF0
aF17.124547017080889
aF4.7224064127523464
aF2.0564962836907266
aF1
aF1
aF1
aI0
aa(lp33
S'neck_01_fk_anim'
p34
a(lp35
VtranslateX
p36
aVtranslateY
p37
aVtranslateZ
p38
aVrotateX
p39
aVrotateY
p40
aVrotateZ
p41
aVscaleX
p42
aVscaleY
p43
aVscaleZ
p44
aVfkOrientation
p45
aaF0
aF1.4210854715202004e-14
aF-5.0487097934144756e-29
aF15.893213496702517
aF27.956162642037086
aF-5.9657095930771966
aF1
aF1
aF1
aI0
aa(lp46
S'neck_02_fk_anim'
p47
a(lp48
VtranslateX
p49
aVtranslateY
p50
aVtranslateZ
p51
aVrotateX
p52
aVrotateY
p53
aVrotateZ
p54
aVscaleX
p55
aVscaleY
p56
aVscaleZ
p57
aaF0
aF0
aF0
aF6.9961954014051129
aF-21.786900114776351
aF-6.5316609765568803
aF1
aF1
aF1
aa(lp58
S'spine_01_anim'
p59
a(lp60
Vlength
p61
aVtranslateY
p62
aVtranslateZ
p63
aVrotateX
p64
aVrotateY
p65
aVrotateZ
p66
aaF0
aF0
aF0
aF1.2585871778907014
aF0.077647778081771493
aF0.20902137819358527
aa(lp67
S'spine_02_anim'
p68
a(lp69
Vlength
p70
aVtranslateY
p71
aVtranslateZ
p72
aVrotateX
p73
aVrotateY
p74
aVrotateZ
p75
aaF0
aF0
aF0
aF1.2185823452177817
aF-0.17431327053579446
aF0.002269551068184265
aa(lp76
S'spine_03_anim'
p77
a(lp78
Vlength
p79
aVtranslateY
p80
aVtranslateZ
p81
aVrotateX
p82
aVrotateY
p83
aVrotateZ
p84
aaF0
aF0
aF0
aF1.2083728357967163
aF-0.53790635924325714
aF0.079886467010246293
aa(lp85
S'mid_ik_anim'
p86
a(lp87
VtranslateX
p88
aVtranslateY
p89
aVtranslateZ
p90
aVrotateX
p91
aVrotateY
p92
aVrotateZ
p93
aaF1.0325310466722328
aF0.41939859069907115
aF-0.021948948692383397
aF2.4538475249704605
aF0.34071795109372111
aF9.7625300613959265
aa(lp94
S'chest_ik_anim'
p95
a(lp96
VtranslateX
p97
aVtranslateY
p98
aVtranslateZ
p99
aVrotateX
p100
aVrotateY
p101
aVrotateZ
p102
aVstretch
p103
aVsquash
p104
aVtwist_amount
p105
aVautoSpine
p106
aVrotationInfluence
p107
aaF-0.017876679770267856
aF0.15075049333238155
aF-3.4001102804381844e-06
aF3.7354321868865337
aF0.01356939412719139
aF9.7511564073022274
aF0
aF0
aF1
aF0
aF0.25
aa(lp108
S'body_anim'
p109
a(lp110
VtranslateX
p111
aVtranslateY
p112
aVtranslateZ
p113
aVrotateX
p114
aVrotateY
p115
aVrotateZ
p116
aaF-6.0598666322460986
aF-5.5248946231962588
aF5.0787235636552319
aF90.2492867325563
aF4.2827115997697085
aF-8.368960135995005
aa(lp117
S'hip_anim'
p118
a(lp119
VtranslateX
p120
aVtranslateY
p121
aVtranslateZ
p122
aVrotateX
p123
aVrotateY
p124
aVrotateZ
p125
aVlCalfTwistCtrlVis
p126
aVrCalfTwistCtrlVis
p127
aVautoHips
p128
aaF-1.4210854715202004e-14
aF0
aF0
aF-0
aF0
aF-0
aI00
aI00
aF0
aa(lp129
S'clavicle_l_anim'
p130
a(lp131
VtranslateX
p132
aVtranslateY
p133
aVtranslateZ
p134
aVautoShoulders
p135
aaF1.5188685575613761
aF-7.1176546576382442
aF1.5296353530746956
aF0
aa(lp136
S'clavicle_r_anim'
p137
a(lp138
VtranslateX
p139
aVtranslateY
p140
aVtranslateZ
p141
aVautoShoulders
p142
aaF9.7049275957772352e-06
aF-2.6344367177957047
aF0.6596127807671337
aF0
aa(lp143
S'fk_arm_l_anim'
p144
a(lp145
VtranslateX
p146
aVtranslateY
p147
aVtranslateZ
p148
aVrotateX
p149
aVrotateY
p150
aVrotateZ
p151
aaF0
aF0
aF0
aF43.571368199985308
aF42.493413461206288
aF2.2720553626990689
aa(lp152
S'fk_arm_r_anim'
p153
a(lp154
VtranslateX
p155
aVtranslateY
p156
aVtranslateZ
p157
aVrotateX
p158
aVrotateY
p159
aVrotateZ
p160
aaF0
aF0
aF0
aF35.676963888173717
aF53.399260012201729
aF39.224780897706992
aa(lp161
S'fk_elbow_l_anim'
p162
a(lp163
VtranslateX
p164
aVtranslateY
p165
aVtranslateZ
p166
aVrotateX
p167
aVrotateY
p168
aVrotateZ
p169
aaF0
aF0
aF0
aF0
aF0
aF-87.600677490234375
aa(lp170
S'fk_elbow_r_anim'
p171
a(lp172
VtranslateX
p173
aVtranslateY
p174
aVtranslateZ
p175
aVrotateX
p176
aVrotateY
p177
aVrotateZ
p178
aaF0
aF0
aF0
aF-9.9284307000316956e-06
aF0.00011827029084077722
aF-37.305202484130874
aa(lp179
S'fk_wrist_l_anim'
p180
a(lp181
VtranslateX
p182
aVtranslateY
p183
aVtranslateZ
p184
aVrotateX
p185
aVrotateY
p186
aVrotateZ
p187
aaF0
aF0
aF0
aF54.810371398925817
aF1.9810675382614191
aF-15.583671569824237
aa(lp188
S'fk_wrist_r_anim'
p189
a(lp190
VtranslateX
p191
aVtranslateY
p192
aVtranslateZ
p193
aVrotateX
p194
aVrotateY
p195
aVrotateZ
p196
aaF0
aF0
aF0
aF-126.98002624511727
aF-14.066552162170417
aF-1.2617877721786364
aa(lp197
S'ik_elbow_l_anim'
p198
a(lp199
VtranslateX
p200
aVtranslateY
p201
aVtranslateZ
p202
aaF-166.32886687364305
aF127.20856790548083
aF-27.511105799137397
aa(lp203
S'ik_elbow_r_anim'
p204
a(lp205
VtranslateX
p206
aVtranslateY
p207
aVtranslateZ
p208
aaF-85.983509753945043
aF-73.589685679747873
aF-28.9418671432758
aa(lp209
S'ik_wrist_l_anim'
p210
a(lp211
VtranslateX
p212
aVtranslateY
p213
aVtranslateZ
p214
aVrotateX
p215
aVrotateY
p216
aVrotateZ
p217
aVstretch
p218
aVsquash
p219
aVstretchBias
p220
aVside
p221
aVmid_bend
p222
aVmid_swivel
p223
aVtip_pivot
p224
aVtip_swivel
p225
aaF-64.436486624905683
aF19.819033723190373
aF-45.464245933543765
aF6.1269702364726681
aF18.3046796122077
aF-14.385755529237112
aF0
aF0
aF0
aF0
aF0
aF0
aF0
aF0
aa(lp226
S'ik_wrist_r_anim'
p227
a(lp228
VtranslateX
p229
aVtranslateY
p230
aVtranslateZ
p231
aVrotateX
p232
aVrotateY
p233
aVrotateZ
p234
aVstretch
p235
aVsquash
p236
aVstretchBias
p237
aVside
p238
aVmid_bend
p239
aVmid_swivel
p240
aVtip_pivot
p241
aVtip_swivel
p242
aaF74.826002662550877
aF-62.34338138865607
aF-55.561318019580355
aF-128.59310988727182
aF-56.017667099763351
aF97.637324107212805
aF0
aF0
aF0
aF0
aF0
aF0
aF0
aF0
aa(lp243
S'fk_thigh_l_anim'
p244
a(lp245
VrotateX
p246
aVrotateY
p247
aVrotateZ
p248
aaF35.427035815261455
aF-23.379591446227611
aF28.657249275698849
aa(lp249
S'fk_thigh_r_anim'
p250
a(lp251
VrotateX
p252
aVrotateY
p253
aVrotateZ
p254
aaF4.0968272639050411
aF-7.398395607230027
aF9.1433629532015637
aa(lp255
S'fk_calf_l_anim'
p256
a(lp257
VrotateX
p258
aVrotateY
p259
aVrotateZ
p260
aaF0.005341544747352686
aF-0.015800274908540596
aF-31.178768157958981
aa(lp261
S'fk_calf_r_anim'
p262
a(lp263
VrotateX
p264
aVrotateY
p265
aVrotateZ
p266
aaF0.00029662039014370525
aF-0.0029231701046250873
aF-5.4293928146361923
aa(lp267
S'fk_foot_l_anim'
p268
a(lp269
VrotateX
p270
aVrotateY
p271
aVrotateZ
p272
aaF11.550821304321261
aF2.4796557426452255
aF0.16822361946099851
aa(lp273
S'fk_foot_r_anim'
p274
a(lp275
VrotateX
p276
aVrotateY
p277
aVrotateZ
p278
aaF19.097909927368203
aF11.106397628784153
aF2.738361358642607
aa(lp279
S'fk_ball_l_anim'
p280
a(lp281
VrotateX
p282
aVrotateY
p283
aVrotateZ
p284
aaF0
aF-0
aF0
aa(lp285
S'fk_ball_r_anim'
p286
a(lp287
VrotateX
p288
aVrotateY
p289
aVrotateZ
p290
aaF-1.775026246638115e-05
aF-1.9912427886047369e-05
aF1.7691843782917459e-05
aa(lp291
S'ik_foot_anim_l'
p292
a(lp293
VtranslateX
p294
aVtranslateY
p295
aVtranslateZ
p296
aVrotateX
p297
aVrotateY
p298
aVrotateZ
p299
aVknee_twist
p300
aVstretch
p301
aVsquash
p302
aVtoeCtrlVis
p303
aVstretchBias
p304
aaF-20.997886985963575
aF19.446879323856926
aF-0.00018205549900685014
aF0.024273534851981689
aF-0.08271510061810268
aF142.225037581392
aF137
aF0
aF0
aI00
aF0
aa(lp305
S'ik_foot_anim_r'
p306
a(lp307
VtranslateX
p308
aVtranslateY
p309
aVtranslateZ
p310
aVrotateX
p311
aVrotateY
p312
aVrotateZ
p313
aVknee_twist
p314
aVstretch
p315
aVsquash
p316
aVtoeCtrlVis
p317
aVstretchBias
p318
aaF4.2977650861562786
aF-54.23636567602972
aF-0.77412130846123084
aF0.57316631729686451
aF0.80675022985213696
aF67.304714396542039
aF-102.2
aF0
aF0
aI00
aF0
aa(lp319
S'heel_ctrl_l'
p320
a(lp321
VrotateX
p322
aVrotateY
p323
aVrotateZ
p324
aVheelPivot
p325
aVballPivot
p326
aaF0
aF-0
aF0
aF0
aF0
aa(lp327
S'heel_ctrl_r'
p328
a(lp329
VrotateX
p330
aVrotateY
p331
aVrotateZ
p332
aVheelPivot
p333
aVballPivot
p334
aaF0
aF-0
aF0
aF0
aF0
aa(lp335
S'toe_wiggle_ctrl_l'
p336
a(lp337
VrotateX
p338
aVrotateY
p339
aVrotateZ
p340
aaF0
aF-0
aF0
aa(lp341
S'toe_wiggle_ctrl_r'
p342
a(lp343
VrotateX
p344
aVrotateY
p345
aVrotateZ
p346
aaF0
aF-0
aF0
aa(lp347
S'toe_tip_ctrl_l'
p348
a(lp349
VrotateX
p350
aVrotateY
p351
aVrotateZ
p352
aaF0
aF-0
aF0
aa(lp353
S'toe_tip_ctrl_r'
p354
a(lp355
VrotateX
p356
aVrotateY
p357
aVrotateZ
p358
aaF0
aF-0
aF0
aa(lp359
S'master_anim'
p360
a(lp361
VtranslateX
p362
aVtranslateY
p363
aVtranslateZ
p364
aVrotateX
p365
aVrotateY
p366
aVrotateZ
p367
aaF0
aF0
aF0
aF0
aF0
aF0
aa(lp368
S'offset_anim'
p369
a(lp370
VtranslateX
p371
aVtranslateY
p372
aVtranslateZ
p373
aVrotateX
p374
aVrotateY
p375
aVrotateZ
p376
aaF0
aF0
aF0
aF0
aF0
aF0
aa(lp377
S'root_anim'
p378
a(lp379
VtranslateX
p380
aVtranslateY
p381
aVtranslateZ
p382
aVrotateX
p383
aVrotateY
p384
aVrotateZ
p385
aaF0
aF0
aF0
aF0
aF0
aF0
aa(lp386
S'upperarm_l_twist_anim'
p387
a(lp388
VtranslateX
p389
aVtranslateY
p390
aVtranslateZ
p391
aVrotateX
p392
aVrotateY
p393
aVrotateZ
p394
aVscaleX
p395
aVscaleY
p396
aVscaleZ
p397
aaF0
aF0
aF0
aF0
aF0
aF0
aF1
aF1
aF1
aa(lp398
S'upperarm_l_twist_2_anim'
p399
a(lp400
VtranslateX
p401
aVtranslateY
p402
aVtranslateZ
p403
aVrotateX
p404
aVrotateY
p405
aVrotateZ
p406
aVscaleX
p407
aVscaleY
p408
aVscaleZ
p409
aaF0
aF0
aF0
aF0
aF0
aF0
aF1
aF1
aF1
aa(lp410
S'upperarm_r_twist_anim'
p411
a(lp412
VtranslateX
p413
aVtranslateY
p414
aVtranslateZ
p415
aVrotateX
p416
aVrotateY
p417
aVrotateZ
p418
aVscaleX
p419
aVscaleY
p420
aVscaleZ
p421
aaF0
aF-1.7763568394002505e-15
aF2.8421709430404007e-14
aF0
aF2.4265706493099347e-20
aF2.9798488257316879e-21
aF0.99999999999999989
aF0.99999999999999989
aF0.99999999999999989
aa(lp422
S'upperarm_r_twist_2_anim'
p423
a(lp424
VtranslateX
p425
aVtranslateY
p426
aVtranslateZ
p427
aVrotateX
p428
aVrotateY
p429
aVrotateZ
p430
aVscaleX
p431
aVscaleY
p432
aVscaleZ
p433
aaF0
aF-1.7763568394002505e-15
aF0
aF0
aF2.4265706493099347e-20
aF2.9798488257316879e-21
aF0.99999999999999989
aF0.99999999999999989
aF0.99999999999999989
aa(lp434
S'lowerarm_l_twist_anim'
p435
a(lp436
VtranslateX
p437
aVtranslateY
p438
aVtranslateZ
p439
aVrotateX
p440
aVrotateY
p441
aVrotateZ
p442
aaF0
aF0
aF0
aF0
aF0
aF0
aa(lp443
S'lowerarm_r_twist_anim'
p444
a(lp445
VtranslateX
p446
aVtranslateY
p447
aVtranslateZ
p448
aVrotateX
p449
aVrotateY
p450
aVrotateZ
p451
aaF0
aF0
aF0
aF0
aF0
aF0
aa(lp452
S'l_thigh_twist_01_anim'
p453
a(lp454
VtranslateX
p455
aVtranslateY
p456
aVtranslateZ
p457
aVrotateX
p458
aVrotateY
p459
aVrotateZ
p460
aVscaleX
p461
aVscaleY
p462
aVscaleZ
p463
aaF0
aF0
aF3.5527136788005009e-15
aF-4.9696166897867449e-17
aF1.5902773407317588e-15
aF1.9878466759146985e-16
aF0.99999999999999989
aF1
aF0.99999999999999989
aa(lp464
S'r_thigh_twist_01_anim'
p465
a(lp466
VtranslateX
p467
aVtranslateY
p468
aVtranslateZ
p469
aVrotateX
p470
aVrotateY
p471
aVrotateZ
p472
aVscaleX
p473
aVscaleY
p474
aVscaleZ
p475
aaF0
aF0
aF3.5527136788005009e-15
aF1.0138018047164962e-14
aF-0
aF-1.7890620083232284e-15
aF1
aF1
aF1
aa(lp476
S'pinky_finger_fk_ctrl_1_l'
p477
a(lp478
VtranslateX
p479
aVtranslateY
p480
aVtranslateZ
p481
aVrotateX
p482
aVrotateY
p483
aVrotateZ
p484
aVsticky
p485
aaF0
aF0
aF0
aF5.1231701912347942
aF7.2551550568041607
aF35.375567558971603
aF0
aa(lp486
S'pinky_finger_fk_ctrl_1_r'
p487
a(lp488
VtranslateX
p489
aVtranslateY
p490
aVtranslateZ
p491
aVrotateX
p492
aVrotateY
p493
aVrotateZ
p494
aVsticky
p495
aaF0
aF0
aF0
aF-0.0013304417769890707
aF-0.00045421005030458068
aF46.123269863759724
aF0
aa(lp496
S'pinky_finger_fk_ctrl_2_l'
p497
a(lp498
VtranslateX
p499
aVtranslateY
p500
aVtranslateZ
p501
aVrotateX
p502
aVrotateY
p503
aVrotateZ
p504
aaF0
aF0
aF0
aF-1.3648337172457696e-06
aF-0
aF55.867671966552749
aa(lp505
S'pinky_finger_fk_ctrl_2_r'
p506
a(lp507
VtranslateX
p508
aVtranslateY
p509
aVtranslateZ
p510
aVrotateX
p511
aVrotateY
p512
aVrotateZ
p513
aaF0
aF0
aF0
aF0.21761157645444287
aF0.68318271528504415
aF46.974178294221609
aa(lp514
S'pinky_finger_fk_ctrl_3_l'
p515
a(lp516
VtranslateX
p517
aVtranslateY
p518
aVtranslateZ
p519
aVrotateX
p520
aVrotateY
p521
aVrotateZ
p522
aaF0
aF0
aF0
aF1.3764308046476977e-06
aF-0
aF49.774601852955406
aa(lp523
S'pinky_finger_fk_ctrl_3_r'
p524
a(lp525
VtranslateX
p526
aVtranslateY
p527
aVtranslateZ
p528
aVrotateX
p529
aVrotateY
p530
aVrotateZ
p531
aaF0
aF0
aF0
aF0.22706965757758885
aF0.68009776684965706
aF47.769080064506362
aa(lp532
S'ring_finger_fk_ctrl_1_l'
p533
a(lp534
VtranslateX
p535
aVtranslateY
p536
aVtranslateZ
p537
aVrotateX
p538
aVrotateY
p539
aVrotateZ
p540
aVsticky
p541
aaF0
aF0
aF0
aF3.1387525000844447
aF7.9415998213668875
aF54.861037475931383
aF0
aa(lp542
S'ring_finger_fk_ctrl_1_r'
p543
a(lp544
VtranslateX
p545
aVtranslateY
p546
aVtranslateZ
p547
aVrotateX
p548
aVrotateY
p549
aVrotateZ
p550
aVsticky
p551
aaF0
aF0
aF0
aF-0.0013680467161120526
aF-0.00039172003012575321
aF54.222088496620117
aF0
aa(lp552
S'ring_finger_fk_ctrl_2_l'
p553
a(lp554
VtranslateX
p555
aVtranslateY
p556
aVtranslateZ
p557
aVrotateX
p558
aVrotateY
p559
aVrotateZ
p560
aaF0
aF0
aF0
aF0
aF-0
aF54.736663769749136
aa(lp561
S'ring_finger_fk_ctrl_2_r'
p562
a(lp563
VtranslateX
p564
aVtranslateY
p565
aVtranslateZ
p566
aVrotateX
p567
aVrotateY
p568
aVrotateZ
p569
aaF0
aF0
aF0
aF0.20133535966839169
aF0.68815492616615537
aF45.614028024812761
aa(lp570
S'ring_finger_fk_ctrl_3_l'
p571
a(lp572
VtranslateX
p573
aVtranslateY
p574
aVtranslateZ
p575
aVrotateX
p576
aVrotateY
p577
aVrotateZ
p578
aaF0
aF0
aF0
aF0
aF-0
aF57.46028619428624
aa(lp579
S'ring_finger_fk_ctrl_3_r'
p580
a(lp581
VtranslateX
p582
aVtranslateY
p583
aVtranslateZ
p584
aVrotateX
p585
aVrotateY
p586
aVrotateZ
p587
aaF0
aF0
aF0
aF0.43453150920441153
aF0.57033304677793739
aF66.609985351434915
aa(lp588
S'middle_finger_fk_ctrl_1_l'
p589
a(lp590
VtranslateX
p591
aVtranslateY
p592
aVtranslateZ
p593
aVrotateX
p594
aVrotateY
p595
aVrotateZ
p596
aVsticky
p597
aaF0
aF0
aF0
aF0.00049901318360955061
aF4.633378446656665
aF61.679132609495618
aF0
aa(lp598
S'middle_finger_fk_ctrl_1_r'
p599
a(lp600
VtranslateX
p601
aVtranslateY
p602
aVtranslateZ
p603
aVrotateX
p604
aVrotateY
p605
aVrotateZ
p606
aVsticky
p607
aaF0
aF0
aF0
aF-0.0013469415864430226
aF-0.00050657322655778519
aF52.144708177639664
aF0
aa(lp608
S'middle_finger_fk_ctrl_2_l'
p609
a(lp610
VtranslateX
p611
aVtranslateY
p612
aVtranslateZ
p613
aVrotateX
p614
aVrotateY
p615
aVrotateZ
p616
aaF0
aF0
aF0
aF0
aF-0
aF47.684837521621425
aa(lp617
S'middle_finger_fk_ctrl_2_r'
p618
a(lp619
VtranslateX
p620
aVtranslateY
p621
aVtranslateZ
p622
aVrotateX
p623
aVrotateY
p624
aVrotateZ
p625
aaF0
aF0
aF0
aF0.21904383316932102
aF0.68272487160078132
aF47.094227261992337
aa(lp626
S'middle_finger_fk_ctrl_3_l'
p627
a(lp628
VtranslateX
p629
aVtranslateY
p630
aVtranslateZ
p631
aVrotateX
p632
aVrotateY
p633
aVrotateZ
p634
aaF0
aF0
aF0
aF0
aF-0
aF50.408461337602084
aa(lp635
S'middle_finger_fk_ctrl_3_r'
p636
a(lp637
VtranslateX
p638
aVtranslateY
p639
aVtranslateZ
p640
aVrotateX
p641
aVrotateY
p642
aVrotateZ
p643
aaF0
aF0
aF0
aF1.4878724748011765
aF5.3442586581250131
aF75.661407467386823
aa(lp644
S'index_finger_fk_ctrl_1_l'
p645
a(lp646
VtranslateX
p647
aVtranslateY
p648
aVtranslateZ
p649
aVrotateX
p650
aVrotateY
p651
aVrotateZ
p652
aVsticky
p653
aaF0
aF0
aF0
aF-11.520582501842467
aF7.5235661179447497
aF61.055302670525322
aF0
aa(lp654
S'index_finger_fk_ctrl_1_r'
p655
a(lp656
VtranslateX
p657
aVtranslateY
p658
aVtranslateZ
p659
aVrotateX
p660
aVrotateY
p661
aVrotateZ
p662
aVsticky
p663
aaF0
aF0
aF0
aF-13.878859974732791
aF-1.685950261728973
aF33.430886087529217
aF0
aa(lp664
S'index_finger_fk_ctrl_2_l'
p665
a(lp666
VtranslateX
p667
aVtranslateY
p668
aVtranslateZ
p669
aVrotateX
p670
aVrotateY
p671
aVrotateZ
p672
aaF0
aF0
aF0
aF0
aF-0
aF39.586352827998283
aa(lp673
S'index_finger_fk_ctrl_2_r'
p674
a(lp675
VtranslateX
p676
aVtranslateY
p677
aVtranslateZ
p678
aVrotateX
p679
aVrotateY
p680
aVrotateZ
p681
aaF0
aF0
aF0
aF0
aF-0
aF57.497608184814453
aa(lp682
S'index_finger_fk_ctrl_3_l'
p683
a(lp684
VtranslateX
p685
aVtranslateY
p686
aVtranslateZ
p687
aVrotateX
p688
aVrotateY
p689
aVrotateZ
p690
aaF0
aF0
aF0
aF-1.4871695454296232
aF-2.6895180424116756
aF67.749000551072243
aa(lp691
S'index_finger_fk_ctrl_3_r'
p692
a(lp693
VtranslateX
p694
aVtranslateY
p695
aVtranslateZ
p696
aVrotateX
p697
aVrotateY
p698
aVrotateZ
p699
aaF0
aF0
aF0
aF0
aF-0
aF66.68407396981253
aa(lp700
S'thumb_finger_fk_ctrl_1_l'
p701
a(lp702
VtranslateX
p703
aVtranslateY
p704
aVtranslateZ
p705
aVrotateX
p706
aVrotateY
p707
aVrotateZ
p708
aVsticky
p709
aaF0
aF0
aF0
aF32.523033744019081
aF35.177880222523832
aF3.063691659364316
aF0
aa(lp710
S'thumb_finger_fk_ctrl_1_r'
p711
a(lp712
VtranslateX
p713
aVtranslateY
p714
aVtranslateZ
p715
aVrotateX
p716
aVrotateY
p717
aVrotateZ
p718
aVsticky
p719
aaF0
aF0
aF0
aF17.289263398136775
aF14.20035009643083
aF19.126698983259669
aF0
aa(lp720
S'thumb_finger_fk_ctrl_2_l'
p721
a(lp722
VtranslateX
p723
aVtranslateY
p724
aVtranslateZ
p725
aVrotateX
p726
aVrotateY
p727
aVrotateZ
p728
aaF0
aF0
aF0
aF-8.5391079138565207
aF17.623117184942465
aF36.133792512298719
aa(lp729
S'thumb_finger_fk_ctrl_2_r'
p730
a(lp731
VtranslateX
p732
aVtranslateY
p733
aVtranslateZ
p734
aVrotateX
p735
aVrotateY
p736
aVrotateZ
p737
aaF0
aF0
aF0
aF-1.7532247795724942
aF13.72305466049032
aF6.9401104392970439
aa(lp738
S'thumb_finger_fk_ctrl_3_l'
p739
a(lp740
VtranslateX
p741
aVtranslateY
p742
aVtranslateZ
p743
aVrotateX
p744
aVrotateY
p745
aVrotateZ
p746
aaF0
aF0
aF0
aF0
aF1.8516110813238271e-06
aF62.745112692737038
aa(lp747
S'thumb_finger_fk_ctrl_3_r'
p748
a(lp749
VtranslateX
p750
aVtranslateY
p751
aVtranslateZ
p752
aVrotateX
p753
aVrotateY
p754
aVrotateZ
p755
aaF0
aF0
aF0
aF11.142151140794894
aF-23.83839640459702
aF35.077641354833695
aa(lp756
S'index_l_ik_anim'
p757
a(lp758
VtranslateX
p759
aVtranslateY
p760
aVtranslateZ
p761
aVrotateX
p762
aVrotateY
p763
aVrotateZ
p764
aVpoleVectorVis
p765
aaF0
aF0
aF0
aF0
aF0
aF0
aF0
aa(lp766
S'index_r_ik_anim'
p767
a(lp768
VtranslateX
p769
aVtranslateY
p770
aVtranslateZ
p771
aVrotateX
p772
aVrotateY
p773
aVrotateZ
p774
aVpoleVectorVis
p775
aaF0
aF0
aF0
aF0
aF0
aF0
aF0
aa(lp776
S'middle_l_ik_anim'
p777
a(lp778
VtranslateX
p779
aVtranslateY
p780
aVtranslateZ
p781
aVrotateX
p782
aVrotateY
p783
aVrotateZ
p784
aVpoleVectorVis
p785
aaF0
aF0
aF0
aF0
aF0
aF0
aF0
aa(lp786
S'middle_r_ik_anim'
p787
a(lp788
VtranslateX
p789
aVtranslateY
p790
aVtranslateZ
p791
aVrotateX
p792
aVrotateY
p793
aVrotateZ
p794
aVpoleVectorVis
p795
aaF0
aF0
aF0
aF0
aF0
aF0
aF0
aa(lp796
S'ring_l_ik_anim'
p797
a(lp798
VtranslateX
p799
aVtranslateY
p800
aVtranslateZ
p801
aVrotateX
p802
aVrotateY
p803
aVrotateZ
p804
aVpoleVectorVis
p805
aaF0
aF0
aF0
aF0
aF0
aF0
aF0
aa(lp806
S'ring_r_ik_anim'
p807
a(lp808
VtranslateX
p809
aVtranslateY
p810
aVtranslateZ
p811
aVrotateX
p812
aVrotateY
p813
aVrotateZ
p814
aVpoleVectorVis
p815
aaF0
aF0
aF0
aF0
aF0
aF0
aF0
aa(lp816
S'pinky_l_ik_anim'
p817
a(lp818
VtranslateX
p819
aVtranslateY
p820
aVtranslateZ
p821
aVrotateX
p822
aVrotateY
p823
aVrotateZ
p824
aVpoleVectorVis
p825
aaF0
aF0
aF0
aF0
aF0
aF0
aF0
aa(lp826
S'pinky_r_ik_anim'
p827
a(lp828
VtranslateX
p829
aVtranslateY
p830
aVtranslateZ
p831
aVrotateX
p832
aVrotateY
p833
aVrotateZ
p834
aVpoleVectorVis
p835
aaF0
aF0
aF0
aF0
aF0
aF0
aF0
aa(lp836
S'thumb_l_ik_anim'
p837
a(lp838
VtranslateX
p839
aVtranslateY
p840
aVtranslateZ
p841
aVrotateX
p842
aVrotateY
p843
aVrotateZ
p844
aVpoleVectorVis
p845
aaF0
aF0
aF0
aF0
aF0
aF0
aF0
aa(lp846
S'thumb_r_ik_anim'
p847
a(lp848
VtranslateX
p849
aVtranslateY
p850
aVtranslateZ
p851
aVrotateX
p852
aVrotateY
p853
aVrotateZ
p854
aVpoleVectorVis
p855
aaF0
aF0
aF0
aF0
aF0
aF0
aF0
aa(lp856
S'index_l_poleVector'
p857
a(lp858
VtranslateX
p859
aVtranslateY
p860
aVtranslateZ
p861
aVrotateX
p862
aVrotateY
p863
aVrotateZ
p864
aaF0
aF0
aF0
aF0
aF0
aF0
aa(lp865
S'index_r_poleVector'
p866
a(lp867
VtranslateX
p868
aVtranslateY
p869
aVtranslateZ
p870
aVrotateX
p871
aVrotateY
p872
aVrotateZ
p873
aaF0
aF0
aF0
aF0
aF0
aF0
aa(lp874
S'middle_l_poleVector'
p875
a(lp876
VtranslateX
p877
aVtranslateY
p878
aVtranslateZ
p879
aVrotateX
p880
aVrotateY
p881
aVrotateZ
p882
aaF0
aF0
aF0
aF0
aF0
aF0
aa(lp883
S'middle_r_poleVector'
p884
a(lp885
VtranslateX
p886
aVtranslateY
p887
aVtranslateZ
p888
aVrotateX
p889
aVrotateY
p890
aVrotateZ
p891
aaF0
aF0
aF0
aF0
aF0
aF0
aa(lp892
S'ring_l_poleVector'
p893
a(lp894
VtranslateX
p895
aVtranslateY
p896
aVtranslateZ
p897
aVrotateX
p898
aVrotateY
p899
aVrotateZ
p900
aaF0
aF0
aF0
aF0
aF0
aF0
aa(lp901
S'ring_r_poleVector'
p902
a(lp903
VtranslateX
p904
aVtranslateY
p905
aVtranslateZ
p906
aVrotateX
p907
aVrotateY
p908
aVrotateZ
p909
aaF0
aF0
aF0
aF0
aF0
aF0
aa(lp910
S'pinky_l_poleVector'
p911
a(lp912
VtranslateX
p913
aVtranslateY
p914
aVtranslateZ
p915
aVrotateX
p916
aVrotateY
p917
aVrotateZ
p918
aaF0
aF0
aF0
aF0
aF0
aF0
aa(lp919
S'pinky_r_poleVector'
p920
a(lp921
VtranslateX
p922
aVtranslateY
p923
aVtranslateZ
p924
aVrotateX
p925
aVrotateY
p926
aVrotateZ
p927
aaF0
aF0
aF0
aF0
aF0
aF0
aa(lp928
S'thumb_l_poleVector'
p929
a(lp930
VtranslateX
p931
aVtranslateY
p932
aVtranslateZ
p933
aVrotateX
p934
aVrotateY
p935
aVrotateZ
p936
aaF0
aF0
aF0
aF0
aF0
aF0
aa(lp937
S'thumb_r_poleVector'
p938
a(lp939
VtranslateX
p940
aVtranslateY
p941
aVtranslateZ
p942
aVrotateX
p943
aVrotateY
p944
aVrotateZ
p945
aaF0
aF0
aF0
aF0
aF0
aF0
aa(lp946
S'l_global_ik_anim'
p947
a(lp948
VtranslateX
p949
aVtranslateY
p950
aVtranslateZ
p951
aVrotateX
p952
aVrotateY
p953
aVrotateZ
p954
aaF0
aF0
aF0
aF0
aF0
aF0
aa(lp955
S'r_global_ik_anim'
p956
a(lp957
VtranslateX
p958
aVtranslateY
p959
aVtranslateZ
p960
aVrotateX
p961
aVrotateY
p962
aVrotateZ
p963
aaF0
aF0
aF0
aF0
aF0
aF0
aa(lp964
S'Rig_Settings'
p965
a(lp966
Vspine_ik
p967
aVspine_fk
p968
aVlLegMode
p969
aVlThighTwistAmount
p970
aVlThighTwist2Amount
p971
aVllegTwistCtrlVis
p972
aVlCalfTwistAmount
p973
aVllegTwistCtrlVisCalf
p974
aVrLegMode
p975
aVrThighTwistAmount
p976
aVrThighTwist2Amount
p977
aVrlegTwistCtrlVis
p978
aVrCalfTwistAmount
p979
aVrlegTwistCtrlVisCalf
p980
aVlFkArmOrient
p981
aVlArmMode
p982
aVlClavMode
p983
aVlUpperarmTwistAmount
p984
aVlUpperarmTwist2Amount
p985
aVltwistCtrlVis
p986
aVltwistCtrlVisLower
p987
aVlForearmTwistAmount
p988
aVrFkArmOrient
p989
aVrArmMode
p990
aVrClavMode
p991
aVrUpperarmTwistAmount
p992
aVrUpperarmTwist2Amount
p993
aVrtwistCtrlVis
p994
aVrtwistCtrlVisLower
p995
aVrForearmTwistAmount
p996
aVback_sash_fk
p997
aVback_sash_ik
p998
aVback_sash_dynamic
p999
aVhip_eyelet_front_l_fk
p1000
aVhip_eyelet_front_l_ik
p1001
aVhip_eyelet_front_l_dynamic
p1002
aVhip_eyelet_front_r_fk
p1003
aVhip_eyelet_front_r_ik
p1004
aVhip_eyelet_front_r_dynamic
p1005
aVhip_eyelet_rear_l_fk
p1006
aVhip_eyelet_rear_l_ik
p1007
aVhip_eyelet_rear_l_dynamic
p1008
aVhip_eyelet_rear_r_fk
p1009
aVhip_eyelet_rear_r_ik
p1010
aVhip_eyelet_rear_r_dynamic
p1011
aVloin_cloth_bk_fk
p1012
aVloin_cloth_bk_ik
p1013
aVloin_cloth_bk_dynamic
p1014
aVloin_cloth_fr_fk
p1015
aVloin_cloth_fr_ik
p1016
aVloin_cloth_fr_dynamic
p1017
aVpadawan_l_fk
p1018
aVpadawan_l_ik
p1019
aVpadawan_l_dynamic
p1020
aVpadawan_r_fk
p1021
aVpadawan_r_ik
p1022
aVpadawan_r_dynamic
p1023
aVponytail_fk
p1024
aVponytail_ik
p1025
aVponytail_dynamic
p1026
aVweapon_butt_fk
p1027
aVweapon_butt_ik
p1028
aVweapon_butt_dynamic
p1029
aaF1
aF0
aI1
aF1
aF0.29999999999999999
aI00
aF0.5
aI00
aI1
aF1
aF0.29999999999999999
aI00
aF0.5
aI00
aI0
aI1
aI1
aF0.90000000000000002
aF0.29999999999999999
aI00
aI00
aF0.5
aI0
aI1
aI1
aF0.90000000000000002
aF0.29999999999999999
aI00
aI00
aF0.5
aF1
aF0
aF0
aF1
aF0
aF0
aF1
aF0
aF0
aF1
aF0
aF0
aF1
aF0
aF0
aF1
aF0
aF0
aF1
aF0
aF0
aF1
aF0
aF0
aF1
aF0
aF0
aF1
aF0
aF0
aF1
aF0
aF0
aa(lp1030
S'calf_l_twist_anim'
p1031
a(lp1032
VtranslateX
p1033
aVtranslateY
p1034
aVtranslateZ
p1035
aVrotateX
p1036
aVrotateY
p1037
aVrotateZ
p1038
aaF0
aF0
aF0
aF0
aF0
aF0
aa(lp1039
S'calf_r_twist_anim'
p1040
a(lp1041
VtranslateX
p1042
aVtranslateY
p1043
aVtranslateZ
p1044
aVrotateX
p1045
aVrotateY
p1046
aVrotateZ
p1047
aaF0
aF0
aF0
aF0
aF0
aF0
aa(lp1048
Vback_sash_dyn_anim
p1049
a(lp1050
VtranslateX
p1051
aVtranslateY
p1052
aVtranslateZ
p1053
aVrotateX
p1054
aVrotateY
p1055
aVrotateZ
p1056
aVchainAttach
p1057
aVchainStartFrame
p1058
aVchainStiffness
p1059
aVchainDamping
p1060
aVchainGravity
p1061
aVchainIteration
p1062
aVchainCollide
p1063
aVchainWidthBase
p1064
aVchainWidthExtremity
p1065
aVchainCollideGround
p1066
aVchainCollideGroundHeight
p1067
aaF0
aF0
aF0
aF0
aF0
aF0
aI1
aF1
aF0.10000000000000001
aF0.20000000000000001
aF1
aI1
aI00
aF1
aF1
aI00
aF0
aa(lp1068
Vback_sash_ik_2_anim
p1069
a(lp1070
VtranslateX
p1071
aVtranslateY
p1072
aVtranslateZ
p1073
aVrotateX
p1074
aVrotateY
p1075
aVrotateZ
p1076
aaF0
aF0
aF0
aF0
aF0
aF0
aa(lp1077
Vback_sash_ik_3_anim
p1078
a(lp1079
VtranslateX
p1080
aVtranslateY
p1081
aVtranslateZ
p1082
aVrotateX
p1083
aVrotateY
p1084
aVrotateZ
p1085
aVclusterControlVis
p1086
aaF0
aF0
aF0
aF0
aF0
aF0
aI00
aa(lp1087
Vback_sash_ik_base_anim
p1088
a(lp1089
VtranslateX
p1090
aVtranslateY
p1091
aVtranslateZ
p1092
aVrotateX
p1093
aVrotateY
p1094
aVrotateZ
p1095
aVglobal_scale
p1096
aaF0
aF0
aF0
aF0
aF0
aF0
aF1
aa(lp1097
Vfk_back_sash_01_anim
p1098
a(lp1099
VtranslateX
p1100
aVtranslateY
p1101
aVtranslateZ
p1102
aVrotateX
p1103
aVrotateY
p1104
aVrotateZ
p1105
aVglobal_scale
p1106
aVlagMode
p1107
aaF0
aF0
aF0
aF0
aF0
aF0
aF1
aF0
aa(lp1108
Vback_sash_cv_0_anim
p1109
a(lp1110
VtranslateX
p1111
aVtranslateY
p1112
aVtranslateZ
p1113
aaF0
aF0
aF0
aa(lp1114
Vfk_back_sash_02_anim
p1115
a(lp1116
VtranslateX
p1117
aVtranslateY
p1118
aVtranslateZ
p1119
aVrotateX
p1120
aVrotateY
p1121
aVrotateZ
p1122
aaF0
aF0
aF0
aF0
aF0
aF0
aa(lp1123
Vback_sash_cv_1_anim
p1124
a(lp1125
VtranslateX
p1126
aVtranslateY
p1127
aVtranslateZ
p1128
aaF0
aF0
aF0
aa(lp1129
Vfk_back_sash_03_anim
p1130
a(lp1131
VtranslateX
p1132
aVtranslateY
p1133
aVtranslateZ
p1134
aVrotateX
p1135
aVrotateY
p1136
aVrotateZ
p1137
aaF0
aF0
aF0
aF0
aF0
aF0
aa(lp1138
Vback_sash_cv_2_anim
p1139
a(lp1140
VtranslateX
p1141
aVtranslateY
p1142
aVtranslateZ
p1143
aaF0
aF0
aF0
aa(lp1144
Vbracelet_A_l_anim
p1145
a(lp1146
VtranslateX
p1147
aVtranslateY
p1148
aVtranslateZ
p1149
aVrotateX
p1150
aVrotateY
p1151
aVrotateZ
p1152
aVscaleX
p1153
aVscaleY
p1154
aVscaleZ
p1155
aaF0
aF0
aF0
aF0
aF0
aF0
aF1
aF1
aF1
aa(lp1156
Vbracelet_B_l_anim
p1157
a(lp1158
VtranslateX
p1159
aVtranslateY
p1160
aVtranslateZ
p1161
aVrotateX
p1162
aVrotateY
p1163
aVrotateZ
p1164
aVscaleX
p1165
aVscaleY
p1166
aVscaleZ
p1167
aaF0
aF0
aF0
aF0
aF0
aF0
aF1
aF1
aF1
aa(lp1168
Vbracelet_C_l_anim
p1169
a(lp1170
VtranslateX
p1171
aVtranslateY
p1172
aVtranslateZ
p1173
aVrotateX
p1174
aVrotateY
p1175
aVrotateZ
p1176
aVscaleX
p1177
aVscaleY
p1178
aVscaleZ
p1179
aaF0
aF0
aF0
aF0
aF0
aF0
aF1
aF1
aF1
aa(lp1180
Veyeball_l_anim
p1181
a(lp1182
VtranslateX
p1183
aVtranslateY
p1184
aVtranslateZ
p1185
aVrotateX
p1186
aVrotateY
p1187
aVrotateZ
p1188
aVscaleX
p1189
aVscaleY
p1190
aVscaleZ
p1191
aaF0
aF0
aF0
aF0
aF0
aF0
aF1
aF1
aF1
aa(lp1192
Veyeball_r_anim
p1193
a(lp1194
VtranslateX
p1195
aVtranslateY
p1196
aVtranslateZ
p1197
aVrotateX
p1198
aVrotateY
p1199
aVrotateZ
p1200
aVscaleX
p1201
aVscaleY
p1202
aVscaleZ
p1203
aaF0
aF0
aF0
aF0
aF0
aF0
aF1
aF1
aF1
aa(lp1204
Veyebrow_in_l_anim
p1205
a(lp1206
VtranslateX
p1207
aVtranslateY
p1208
aVtranslateZ
p1209
aVrotateX
p1210
aVrotateY
p1211
aVrotateZ
p1212
aVscaleX
p1213
aVscaleY
p1214
aVscaleZ
p1215
aaF0
aF0
aF0
aF0
aF0
aF0
aF1
aF1
aF1
aa(lp1216
Veyebrow_in_r_anim
p1217
a(lp1218
VtranslateX
p1219
aVtranslateY
p1220
aVtranslateZ
p1221
aVrotateX
p1222
aVrotateY
p1223
aVrotateZ
p1224
aVscaleX
p1225
aVscaleY
p1226
aVscaleZ
p1227
aaF0
aF0
aF0
aF0
aF0
aF0
aF1
aF1
aF1
aa(lp1228
Veyebrow_out_l_anim
p1229
a(lp1230
VtranslateX
p1231
aVtranslateY
p1232
aVtranslateZ
p1233
aVrotateX
p1234
aVrotateY
p1235
aVrotateZ
p1236
aVscaleX
p1237
aVscaleY
p1238
aVscaleZ
p1239
aaF0
aF0
aF0
aF0
aF0
aF0
aF1
aF1
aF1
aa(lp1240
Veyebrow_out_r_anim
p1241
a(lp1242
VtranslateX
p1243
aVtranslateY
p1244
aVtranslateZ
p1245
aVrotateX
p1246
aVrotateY
p1247
aVrotateZ
p1248
aVscaleX
p1249
aVscaleY
p1250
aVscaleZ
p1251
aaF0
aF0
aF0
aF0
aF0
aF0
aF1
aF1
aF1
aa(lp1252
Veyelid_bott_l_anim
p1253
a(lp1254
VtranslateX
p1255
aVtranslateY
p1256
aVtranslateZ
p1257
aVrotateX
p1258
aVrotateY
p1259
aVrotateZ
p1260
aVscaleX
p1261
aVscaleY
p1262
aVscaleZ
p1263
aaF0
aF0
aF0
aF0
aF0
aF0
aF1
aF1
aF1
aa(lp1264
Veyelid_bott_r_anim
p1265
a(lp1266
VtranslateX
p1267
aVtranslateY
p1268
aVtranslateZ
p1269
aVrotateX
p1270
aVrotateY
p1271
aVrotateZ
p1272
aVscaleX
p1273
aVscaleY
p1274
aVscaleZ
p1275
aaF0
aF0
aF0
aF0
aF0
aF0
aF1
aF1
aF1
aa(lp1276
Veyelid_top_l_anim
p1277
a(lp1278
VtranslateX
p1279
aVtranslateY
p1280
aVtranslateZ
p1281
aVrotateX
p1282
aVrotateY
p1283
aVrotateZ
p1284
aVscaleX
p1285
aVscaleY
p1286
aVscaleZ
p1287
aaF0
aF0
aF0
aF0
aF0
aF0
aF1
aF1
aF1
aa(lp1288
Veyelid_top_r_anim
p1289
a(lp1290
VtranslateX
p1291
aVtranslateY
p1292
aVtranslateZ
p1293
aVrotateX
p1294
aVrotateY
p1295
aVrotateZ
p1296
aVscaleX
p1297
aVscaleY
p1298
aVscaleZ
p1299
aaF0
aF0
aF0
aF0
aF0
aF0
aF1
aF1
aF1
aa(lp1300
Vhip_back_flaps_anim
p1301
a(lp1302
VtranslateX
p1303
aVtranslateY
p1304
aVtranslateZ
p1305
aVrotateX
p1306
aVrotateY
p1307
aVrotateZ
p1308
aVscaleX
p1309
aVscaleY
p1310
aVscaleZ
p1311
aaF0
aF-0.0040149279208137045
aF-0.060754214318237132
aF-0.20827987371630696
aF-2.2581736723259287e-20
aF-1.2424021202350712e-17
aF1
aF1
aF1
aa(lp1312
Vhip_eyelet_front_l_dyn_anim
p1313
a(lp1314
VtranslateX
p1315
aVtranslateY
p1316
aVtranslateZ
p1317
aVrotateX
p1318
aVrotateY
p1319
aVrotateZ
p1320
aVchainAttach
p1321
aVchainStartFrame
p1322
aVchainStiffness
p1323
aVchainDamping
p1324
aVchainGravity
p1325
aVchainIteration
p1326
aVchainCollide
p1327
aVchainWidthBase
p1328
aVchainWidthExtremity
p1329
aVchainCollideGround
p1330
aVchainCollideGroundHeight
p1331
aaF0
aF0
aF0
aF0
aF0
aF0
aI1
aF1
aF0.10000000000000001
aF0.20000000000000001
aF1
aI1
aI00
aF1
aF1
aI00
aF0
aa(lp1332
Vhip_eyelet_front_l_ik_2_anim
p1333
a(lp1334
VtranslateX
p1335
aVtranslateY
p1336
aVtranslateZ
p1337
aVrotateX
p1338
aVrotateY
p1339
aVrotateZ
p1340
aaF0
aF0
aF0
aF0
aF0
aF0
aa(lp1341
Vhip_eyelet_front_l_ik_3_anim
p1342
a(lp1343
VtranslateX
p1344
aVtranslateY
p1345
aVtranslateZ
p1346
aVrotateX
p1347
aVrotateY
p1348
aVrotateZ
p1349
aVclusterControlVis
p1350
aaF0
aF0
aF0
aF0
aF0
aF0
aI00
aa(lp1351
Vhip_eyelet_front_l_ik_base_anim
p1352
a(lp1353
VtranslateX
p1354
aVtranslateY
p1355
aVtranslateZ
p1356
aVrotateX
p1357
aVrotateY
p1358
aVrotateZ
p1359
aVglobal_scale
p1360
aaF0
aF0
aF0
aF0
aF0
aF0
aF1
aa(lp1361
Vfk_hip_eyelet_front_l_01_anim
p1362
a(lp1363
VtranslateX
p1364
aVtranslateY
p1365
aVtranslateZ
p1366
aVrotateX
p1367
aVrotateY
p1368
aVrotateZ
p1369
aVglobal_scale
p1370
aVlagMode
p1371
aaF0
aF0
aF0
aF0
aF0
aF0
aF1
aF0
aa(lp1372
Vhip_eyelet_front_l_cv_0_anim
p1373
a(lp1374
VtranslateX
p1375
aVtranslateY
p1376
aVtranslateZ
p1377
aaF0
aF0
aF0
aa(lp1378
Vfk_hip_eyelet_front_l_02_anim
p1379
a(lp1380
VtranslateX
p1381
aVtranslateY
p1382
aVtranslateZ
p1383
aVrotateX
p1384
aVrotateY
p1385
aVrotateZ
p1386
aaF0
aF0
aF0
aF0
aF0
aF0
aa(lp1387
Vhip_eyelet_front_l_cv_1_anim
p1388
a(lp1389
VtranslateX
p1390
aVtranslateY
p1391
aVtranslateZ
p1392
aaF0
aF0
aF0
aa(lp1393
Vfk_hip_eyelet_front_l_03_anim
p1394
a(lp1395
VtranslateX
p1396
aVtranslateY
p1397
aVtranslateZ
p1398
aVrotateX
p1399
aVrotateY
p1400
aVrotateZ
p1401
aaF0
aF0
aF0
aF0
aF0
aF0
aa(lp1402
Vhip_eyelet_front_l_cv_2_anim
p1403
a(lp1404
VtranslateX
p1405
aVtranslateY
p1406
aVtranslateZ
p1407
aaF0
aF0
aF0
aa(lp1408
Vfk_hip_eyelet_front_l_04_anim
p1409
a(lp1410
VtranslateX
p1411
aVtranslateY
p1412
aVtranslateZ
p1413
aVrotateX
p1414
aVrotateY
p1415
aVrotateZ
p1416
aaF0
aF0
aF0
aF0
aF0
aF0
aa(lp1417
Vhip_eyelet_front_l_cv_3_anim
p1418
a(lp1419
VtranslateX
p1420
aVtranslateY
p1421
aVtranslateZ
p1422
aaF0
aF0
aF0
aa(lp1423
Vhip_eyelet_front_r_dyn_anim
p1424
a(lp1425
VtranslateX
p1426
aVtranslateY
p1427
aVtranslateZ
p1428
aVrotateX
p1429
aVrotateY
p1430
aVrotateZ
p1431
aVchainAttach
p1432
aVchainStartFrame
p1433
aVchainStiffness
p1434
aVchainDamping
p1435
aVchainGravity
p1436
aVchainIteration
p1437
aVchainCollide
p1438
aVchainWidthBase
p1439
aVchainWidthExtremity
p1440
aVchainCollideGround
p1441
aVchainCollideGroundHeight
p1442
aaF0
aF0
aF0
aF0
aF0
aF0
aI1
aF1
aF0.10000000000000001
aF0.20000000000000001
aF1
aI1
aI00
aF1
aF1
aI00
aF0
aa(lp1443
Vhip_eyelet_front_r_ik_2_anim
p1444
a(lp1445
VtranslateX
p1446
aVtranslateY
p1447
aVtranslateZ
p1448
aVrotateX
p1449
aVrotateY
p1450
aVrotateZ
p1451
aaF0
aF0
aF0
aF0
aF0
aF0
aa(lp1452
Vhip_eyelet_front_r_ik_3_anim
p1453
a(lp1454
VtranslateX
p1455
aVtranslateY
p1456
aVtranslateZ
p1457
aVrotateX
p1458
aVrotateY
p1459
aVrotateZ
p1460
aVclusterControlVis
p1461
aaF0
aF0
aF0
aF0
aF0
aF0
aI00
aa(lp1462
Vhip_eyelet_front_r_ik_base_anim
p1463
a(lp1464
VtranslateX
p1465
aVtranslateY
p1466
aVtranslateZ
p1467
aVrotateX
p1468
aVrotateY
p1469
aVrotateZ
p1470
aVglobal_scale
p1471
aaF0
aF0
aF0
aF0
aF0
aF0
aF1
aa(lp1472
Vfk_hip_eyelet_front_r_01_anim
p1473
a(lp1474
VtranslateX
p1475
aVtranslateY
p1476
aVtranslateZ
p1477
aVrotateX
p1478
aVrotateY
p1479
aVrotateZ
p1480
aVglobal_scale
p1481
aVlagMode
p1482
aaF0
aF0
aF0
aF0
aF0
aF0
aF1
aF0
aa(lp1483
Vhip_eyelet_front_r_cv_0_anim
p1484
a(lp1485
VtranslateX
p1486
aVtranslateY
p1487
aVtranslateZ
p1488
aaF0
aF0
aF0
aa(lp1489
Vfk_hip_eyelet_front_r_02_anim
p1490
a(lp1491
VtranslateX
p1492
aVtranslateY
p1493
aVtranslateZ
p1494
aVrotateX
p1495
aVrotateY
p1496
aVrotateZ
p1497
aaF0
aF0
aF0
aF0
aF0
aF0
aa(lp1498
Vhip_eyelet_front_r_cv_1_anim
p1499
a(lp1500
VtranslateX
p1501
aVtranslateY
p1502
aVtranslateZ
p1503
aaF0
aF0
aF0
aa(lp1504
Vfk_hip_eyelet_front_r_03_anim
p1505
a(lp1506
VtranslateX
p1507
aVtranslateY
p1508
aVtranslateZ
p1509
aVrotateX
p1510
aVrotateY
p1511
aVrotateZ
p1512
aaF0
aF0
aF0
aF0
aF0
aF0
aa(lp1513
Vhip_eyelet_front_r_cv_2_anim
p1514
a(lp1515
VtranslateX
p1516
aVtranslateY
p1517
aVtranslateZ
p1518
aaF0
aF0
aF0
aa(lp1519
Vfk_hip_eyelet_front_r_04_anim
p1520
a(lp1521
VtranslateX
p1522
aVtranslateY
p1523
aVtranslateZ
p1524
aVrotateX
p1525
aVrotateY
p1526
aVrotateZ
p1527
aaF0
aF0
aF0
aF0
aF0
aF0
aa(lp1528
Vhip_eyelet_front_r_cv_3_anim
p1529
a(lp1530
VtranslateX
p1531
aVtranslateY
p1532
aVtranslateZ
p1533
aaF0
aF0
aF0
aa(lp1534
Vhip_eyelet_rear_l_dyn_anim
p1535
a(lp1536
VtranslateX
p1537
aVtranslateY
p1538
aVtranslateZ
p1539
aVrotateX
p1540
aVrotateY
p1541
aVrotateZ
p1542
aVchainAttach
p1543
aVchainStartFrame
p1544
aVchainStiffness
p1545
aVchainDamping
p1546
aVchainGravity
p1547
aVchainIteration
p1548
aVchainCollide
p1549
aVchainWidthBase
p1550
aVchainWidthExtremity
p1551
aVchainCollideGround
p1552
aVchainCollideGroundHeight
p1553
aaF0
aF0
aF0
aF0
aF0
aF0
aI1
aF1
aF0.10000000000000001
aF0.20000000000000001
aF1
aI1
aI00
aF1
aF1
aI00
aF0
aa(lp1554
Vhip_eyelet_rear_l_ik_2_anim
p1555
a(lp1556
VtranslateX
p1557
aVtranslateY
p1558
aVtranslateZ
p1559
aVrotateX
p1560
aVrotateY
p1561
aVrotateZ
p1562
aaF0
aF0
aF0
aF0
aF0
aF0
aa(lp1563
Vhip_eyelet_rear_l_ik_3_anim
p1564
a(lp1565
VtranslateX
p1566
aVtranslateY
p1567
aVtranslateZ
p1568
aVrotateX
p1569
aVrotateY
p1570
aVrotateZ
p1571
aVclusterControlVis
p1572
aaF0
aF0
aF0
aF0
aF0
aF0
aI00
aa(lp1573
Vhip_eyelet_rear_l_ik_base_anim
p1574
a(lp1575
VtranslateX
p1576
aVtranslateY
p1577
aVtranslateZ
p1578
aVrotateX
p1579
aVrotateY
p1580
aVrotateZ
p1581
aVglobal_scale
p1582
aaF0
aF0
aF0
aF0
aF0
aF0
aF1.0000000000000002
aa(lp1583
Vfk_hip_eyelet_rear_l_01_anim
p1584
a(lp1585
VtranslateX
p1586
aVtranslateY
p1587
aVtranslateZ
p1588
aVrotateX
p1589
aVrotateY
p1590
aVrotateZ
p1591
aVglobal_scale
p1592
aVlagMode
p1593
aaF0
aF0
aF0
aF0
aF0
aF0
aF1
aF0
aa(lp1594
Vhip_eyelet_rear_l_cv_0_anim
p1595
a(lp1596
VtranslateX
p1597
aVtranslateY
p1598
aVtranslateZ
p1599
aaF0
aF0
aF0
aa(lp1600
Vfk_hip_eyelet_rear_l_02_anim
p1601
a(lp1602
VtranslateX
p1603
aVtranslateY
p1604
aVtranslateZ
p1605
aVrotateX
p1606
aVrotateY
p1607
aVrotateZ
p1608
aaF0
aF0
aF0
aF0
aF0
aF0
aa(lp1609
Vhip_eyelet_rear_l_cv_1_anim
p1610
a(lp1611
VtranslateX
p1612
aVtranslateY
p1613
aVtranslateZ
p1614
aaF0
aF0
aF0
aa(lp1615
Vfk_hip_eyelet_rear_l_03_anim
p1616
a(lp1617
VtranslateX
p1618
aVtranslateY
p1619
aVtranslateZ
p1620
aVrotateX
p1621
aVrotateY
p1622
aVrotateZ
p1623
aaF0
aF0
aF0
aF0
aF0
aF0
aa(lp1624
Vhip_eyelet_rear_l_cv_2_anim
p1625
a(lp1626
VtranslateX
p1627
aVtranslateY
p1628
aVtranslateZ
p1629
aaF0
aF0
aF0
aa(lp1630
Vfk_hip_eyelet_rear_l_04_anim
p1631
a(lp1632
VtranslateX
p1633
aVtranslateY
p1634
aVtranslateZ
p1635
aVrotateX
p1636
aVrotateY
p1637
aVrotateZ
p1638
aaF0
aF0
aF0
aF0
aF0
aF0
aa(lp1639
Vhip_eyelet_rear_l_cv_3_anim
p1640
a(lp1641
VtranslateX
p1642
aVtranslateY
p1643
aVtranslateZ
p1644
aaF0
aF0
aF0
aa(lp1645
Vhip_eyelet_rear_r_dyn_anim
p1646
a(lp1647
VtranslateX
p1648
aVtranslateY
p1649
aVtranslateZ
p1650
aVrotateX
p1651
aVrotateY
p1652
aVrotateZ
p1653
aVchainAttach
p1654
aVchainStartFrame
p1655
aVchainStiffness
p1656
aVchainDamping
p1657
aVchainGravity
p1658
aVchainIteration
p1659
aVchainCollide
p1660
aVchainWidthBase
p1661
aVchainWidthExtremity
p1662
aVchainCollideGround
p1663
aVchainCollideGroundHeight
p1664
aaF0
aF0
aF0
aF0
aF0
aF0
aI1
aF1
aF0.10000000000000001
aF0.20000000000000001
aF1
aI1
aI00
aF1
aF1
aI00
aF0
aa(lp1665
Vhip_eyelet_rear_r_ik_2_anim
p1666
a(lp1667
VtranslateX
p1668
aVtranslateY
p1669
aVtranslateZ
p1670
aVrotateX
p1671
aVrotateY
p1672
aVrotateZ
p1673
aaF0
aF0
aF0
aF0
aF0
aF0
aa(lp1674
Vhip_eyelet_rear_r_ik_3_anim
p1675
a(lp1676
VtranslateX
p1677
aVtranslateY
p1678
aVtranslateZ
p1679
aVrotateX
p1680
aVrotateY
p1681
aVrotateZ
p1682
aVclusterControlVis
p1683
aaF0
aF0
aF0
aF0
aF0
aF0
aI00
aa(lp1684
Vhip_eyelet_rear_r_ik_base_anim
p1685
a(lp1686
VtranslateX
p1687
aVtranslateY
p1688
aVtranslateZ
p1689
aVrotateX
p1690
aVrotateY
p1691
aVrotateZ
p1692
aVglobal_scale
p1693
aaF0
aF0
aF0
aF0
aF0
aF0
aF1.0000000000000002
aa(lp1694
Vfk_hip_eyelet_rear_r_01_anim
p1695
a(lp1696
VtranslateX
p1697
aVtranslateY
p1698
aVtranslateZ
p1699
aVrotateX
p1700
aVrotateY
p1701
aVrotateZ
p1702
aVglobal_scale
p1703
aVlagMode
p1704
aaF0
aF0
aF0
aF0
aF0
aF0
aF1
aF0
aa(lp1705
Vhip_eyelet_rear_r_cv_0_anim
p1706
a(lp1707
VtranslateX
p1708
aVtranslateY
p1709
aVtranslateZ
p1710
aaF0
aF0
aF0
aa(lp1711
Vfk_hip_eyelet_rear_r_02_anim
p1712
a(lp1713
VtranslateX
p1714
aVtranslateY
p1715
aVtranslateZ
p1716
aVrotateX
p1717
aVrotateY
p1718
aVrotateZ
p1719
aaF0
aF0
aF0
aF0
aF0
aF0
aa(lp1720
Vhip_eyelet_rear_r_cv_1_anim
p1721
a(lp1722
VtranslateX
p1723
aVtranslateY
p1724
aVtranslateZ
p1725
aaF0
aF0
aF0
aa(lp1726
Vfk_hip_eyelet_rear_r_03_anim
p1727
a(lp1728
VtranslateX
p1729
aVtranslateY
p1730
aVtranslateZ
p1731
aVrotateX
p1732
aVrotateY
p1733
aVrotateZ
p1734
aaF0
aF0
aF0
aF0
aF0
aF0
aa(lp1735
Vhip_eyelet_rear_r_cv_2_anim
p1736
a(lp1737
VtranslateX
p1738
aVtranslateY
p1739
aVtranslateZ
p1740
aaF0
aF0
aF0
aa(lp1741
Vfk_hip_eyelet_rear_r_04_anim
p1742
a(lp1743
VtranslateX
p1744
aVtranslateY
p1745
aVtranslateZ
p1746
aVrotateX
p1747
aVrotateY
p1748
aVrotateZ
p1749
aaF0
aF0
aF0
aF0
aF0
aF0
aa(lp1750
Vhip_eyelet_rear_r_cv_3_anim
p1751
a(lp1752
VtranslateX
p1753
aVtranslateY
p1754
aVtranslateZ
p1755
aaF0
aF0
aF0
aa(lp1756
Vjaw_anim
p1757
a(lp1758
VtranslateX
p1759
aVtranslateY
p1760
aVtranslateZ
p1761
aVrotateX
p1762
aVrotateY
p1763
aVrotateZ
p1764
aVscaleX
p1765
aVscaleY
p1766
aVscaleZ
p1767
aaF0
aF0
aF0
aF0
aF0
aF0
aF1
aF1
aF1
aa(lp1768
Vleg_shieldPad_A_l_anim
p1769
a(lp1770
VtranslateX
p1771
aVtranslateY
p1772
aVtranslateZ
p1773
aVrotateX
p1774
aVrotateY
p1775
aVrotateZ
p1776
aVchainAttach
p1777
aVchainStartFrame
p1778
aVchainStiffness
p1779
aVchainDamping
p1780
aVchainGravity
p1781
aVchainIteration
p1782
aVchainCollide
p1783
aVchainWidthBase
p1784
aVchainWidthExtremity
p1785
aVchainCollideGround
p1786
aVchainCollideGroundHeight
p1787
aaF0
aF0
aF0
aF0
aF0
aF0
aI0
aF1
aF0
aF0
aF1
aI0
aI00
aF1
aF1
aI00
aF0
aa(lp1788
Vleg_shieldPad_A_r_anim
p1789
a(lp1790
VtranslateX
p1791
aVtranslateY
p1792
aVtranslateZ
p1793
aVrotateX
p1794
aVrotateY
p1795
aVrotateZ
p1796
aVchainAttach
p1797
aVchainStartFrame
p1798
aVchainStiffness
p1799
aVchainDamping
p1800
aVchainGravity
p1801
aVchainIteration
p1802
aVchainCollide
p1803
aVchainWidthBase
p1804
aVchainWidthExtremity
p1805
aVchainCollideGround
p1806
aVchainCollideGroundHeight
p1807
aaF0
aF0
aF0
aF0
aF0
aF0
aI0
aF1
aF0
aF0
aF1
aI0
aI00
aF1
aF1
aI00
aF0
aa(lp1808
Vleg_shieldPad_B_l_anim
p1809
a(lp1810
VtranslateX
p1811
aVtranslateY
p1812
aVtranslateZ
p1813
aVrotateX
p1814
aVrotateY
p1815
aVrotateZ
p1816
aVchainAttach
p1817
aVchainStartFrame
p1818
aVchainStiffness
p1819
aVchainDamping
p1820
aVchainGravity
p1821
aVchainIteration
p1822
aVchainCollide
p1823
aVchainWidthBase
p1824
aVchainWidthExtremity
p1825
aVchainCollideGround
p1826
aVchainCollideGroundHeight
p1827
aaF0
aF0
aF0
aF0
aF0
aF0
aI0
aF1
aF0
aF0
aF1
aI0
aI00
aF1
aF1
aI00
aF0
aa(lp1828
Vleg_shieldPad_B_r_anim
p1829
a(lp1830
VtranslateX
p1831
aVtranslateY
p1832
aVtranslateZ
p1833
aVrotateX
p1834
aVrotateY
p1835
aVrotateZ
p1836
aVchainAttach
p1837
aVchainStartFrame
p1838
aVchainStiffness
p1839
aVchainDamping
p1840
aVchainGravity
p1841
aVchainIteration
p1842
aVchainCollide
p1843
aVchainWidthBase
p1844
aVchainWidthExtremity
p1845
aVchainCollideGround
p1846
aVchainCollideGroundHeight
p1847
aaF0
aF0
aF0
aF0
aF0
aF0
aI0
aF1
aF0
aF0
aF1
aI0
aI00
aF1
aF1
aI00
aF0
aa(lp1848
Vloin_cloth_bk_dyn_anim
p1849
a(lp1850
VtranslateX
p1851
aVtranslateY
p1852
aVtranslateZ
p1853
aVrotateX
p1854
aVrotateY
p1855
aVrotateZ
p1856
aVchainAttach
p1857
aVchainStartFrame
p1858
aVchainStiffness
p1859
aVchainDamping
p1860
aVchainGravity
p1861
aVchainIteration
p1862
aVchainCollide
p1863
aVchainWidthBase
p1864
aVchainWidthExtremity
p1865
aVchainCollideGround
p1866
aVchainCollideGroundHeight
p1867
aaF0
aF0
aF0
aF0
aF0
aF0
aI1
aF1
aF0.10000000000000001
aF0.20000000000000001
aF1
aI1
aI00
aF1
aF1
aI00
aF0
aa(lp1868
Vloin_cloth_bk_ik_2_anim
p1869
a(lp1870
VtranslateX
p1871
aVtranslateY
p1872
aVtranslateZ
p1873
aVrotateX
p1874
aVrotateY
p1875
aVrotateZ
p1876
aaF0
aF0
aF0
aF0
aF0
aF0
aa(lp1877
Vloin_cloth_bk_ik_3_anim
p1878
a(lp1879
VtranslateX
p1880
aVtranslateY
p1881
aVtranslateZ
p1882
aVrotateX
p1883
aVrotateY
p1884
aVrotateZ
p1885
aVclusterControlVis
p1886
aaF0
aF0
aF0
aF0
aF0
aF0
aI00
aa(lp1887
Vloin_cloth_bk_ik_base_anim
p1888
a(lp1889
VtranslateX
p1890
aVtranslateY
p1891
aVtranslateZ
p1892
aVrotateX
p1893
aVrotateY
p1894
aVrotateZ
p1895
aVglobal_scale
p1896
aaF0
aF0
aF0
aF0
aF0
aF0
aF1
aa(lp1897
Vfk_loin_cloth_bk_01_anim
p1898
a(lp1899
VtranslateX
p1900
aVtranslateY
p1901
aVtranslateZ
p1902
aVrotateX
p1903
aVrotateY
p1904
aVrotateZ
p1905
aVglobal_scale
p1906
aVlagMode
p1907
aaF0
aF0
aF0
aF0
aF0
aF0
aF1
aF0
aa(lp1908
Vloin_cloth_bk_cv_0_anim
p1909
a(lp1910
VtranslateX
p1911
aVtranslateY
p1912
aVtranslateZ
p1913
aaF0
aF0
aF0
aa(lp1914
Vfk_loin_cloth_bk_02_anim
p1915
a(lp1916
VtranslateX
p1917
aVtranslateY
p1918
aVtranslateZ
p1919
aVrotateX
p1920
aVrotateY
p1921
aVrotateZ
p1922
aaF0
aF0
aF0
aF0
aF0
aF0
aa(lp1923
Vloin_cloth_bk_cv_1_anim
p1924
a(lp1925
VtranslateX
p1926
aVtranslateY
p1927
aVtranslateZ
p1928
aaF0
aF0
aF0
aa(lp1929
Vloin_cloth_fr_dyn_anim
p1930
a(lp1931
VtranslateX
p1932
aVtranslateY
p1933
aVtranslateZ
p1934
aVrotateX
p1935
aVrotateY
p1936
aVrotateZ
p1937
aVchainAttach
p1938
aVchainStartFrame
p1939
aVchainStiffness
p1940
aVchainDamping
p1941
aVchainGravity
p1942
aVchainIteration
p1943
aVchainCollide
p1944
aVchainWidthBase
p1945
aVchainWidthExtremity
p1946
aVchainCollideGround
p1947
aVchainCollideGroundHeight
p1948
aaF0
aF0
aF0
aF0
aF0
aF0
aI1
aF1
aF0.10000000000000001
aF0.20000000000000001
aF1
aI1
aI00
aF1
aF1
aI00
aF0
aa(lp1949
Vloin_cloth_fr_ik_2_anim
p1950
a(lp1951
VtranslateX
p1952
aVtranslateY
p1953
aVtranslateZ
p1954
aVrotateX
p1955
aVrotateY
p1956
aVrotateZ
p1957
aaF0
aF0
aF0
aF0
aF0
aF0
aa(lp1958
Vloin_cloth_fr_ik_3_anim
p1959
a(lp1960
VtranslateX
p1961
aVtranslateY
p1962
aVtranslateZ
p1963
aVrotateX
p1964
aVrotateY
p1965
aVrotateZ
p1966
aVclusterControlVis
p1967
aaF0
aF0
aF0
aF0
aF0
aF0
aI00
aa(lp1968
Vloin_cloth_fr_ik_base_anim
p1969
a(lp1970
VtranslateX
p1971
aVtranslateY
p1972
aVtranslateZ
p1973
aVrotateX
p1974
aVrotateY
p1975
aVrotateZ
p1976
aVglobal_scale
p1977
aaF0
aF0
aF0
aF0
aF0
aF0
aF1
aa(lp1978
Vfk_loin_cloth_fr_01_anim
p1979
a(lp1980
VtranslateX
p1981
aVtranslateY
p1982
aVtranslateZ
p1983
aVrotateX
p1984
aVrotateY
p1985
aVrotateZ
p1986
aVglobal_scale
p1987
aVlagMode
p1988
aaF0
aF0
aF0
aF0
aF0
aF0
aF1
aF0
aa(lp1989
Vloin_cloth_fr_cv_0_anim
p1990
a(lp1991
VtranslateX
p1992
aVtranslateY
p1993
aVtranslateZ
p1994
aaF0
aF0
aF0
aa(lp1995
Vfk_loin_cloth_fr_02_anim
p1996
a(lp1997
VtranslateX
p1998
aVtranslateY
p1999
aVtranslateZ
p2000
aVrotateX
p2001
aVrotateY
p2002
aVrotateZ
p2003
aaF0
aF0
aF0
aF0
aF0
aF0
aa(lp2004
Vloin_cloth_fr_cv_1_anim
p2005
a(lp2006
VtranslateX
p2007
aVtranslateY
p2008
aVtranslateZ
p2009
aaF0
aF0
aF0
aa(lp2010
Vpadawan_l_dyn_anim
p2011
a(lp2012
VtranslateX
p2013
aVtranslateY
p2014
aVtranslateZ
p2015
aVrotateX
p2016
aVrotateY
p2017
aVrotateZ
p2018
aVchainAttach
p2019
aVchainStartFrame
p2020
aVchainStiffness
p2021
aVchainDamping
p2022
aVchainGravity
p2023
aVchainIteration
p2024
aVchainCollide
p2025
aVchainWidthBase
p2026
aVchainWidthExtremity
p2027
aVchainCollideGround
p2028
aVchainCollideGroundHeight
p2029
aaF0
aF0
aF0
aF0
aF0
aF0
aI1
aF1
aF0.10000000000000001
aF0.20000000000000001
aF1
aI1
aI00
aF1
aF1
aI00
aF0
aa(lp2030
Vpadawan_l_ik_2_anim
p2031
a(lp2032
VtranslateX
p2033
aVtranslateY
p2034
aVtranslateZ
p2035
aVrotateX
p2036
aVrotateY
p2037
aVrotateZ
p2038
aaF0
aF0
aF0
aF0
aF0
aF0
aa(lp2039
Vpadawan_l_ik_3_anim
p2040
a(lp2041
VtranslateX
p2042
aVtranslateY
p2043
aVtranslateZ
p2044
aVrotateX
p2045
aVrotateY
p2046
aVrotateZ
p2047
aVclusterControlVis
p2048
aaF0
aF0
aF0
aF0
aF0
aF0
aI00
aa(lp2049
Vpadawan_l_ik_base_anim
p2050
a(lp2051
VtranslateX
p2052
aVtranslateY
p2053
aVtranslateZ
p2054
aVrotateX
p2055
aVrotateY
p2056
aVrotateZ
p2057
aVglobal_scale
p2058
aaF0
aF0
aF0
aF0
aF0
aF0
aF1
aa(lp2059
Vfk_padawan_l_01_anim
p2060
a(lp2061
VtranslateX
p2062
aVtranslateY
p2063
aVtranslateZ
p2064
aVrotateX
p2065
aVrotateY
p2066
aVrotateZ
p2067
aVglobal_scale
p2068
aVlagMode
p2069
aaF0
aF0
aF0
aF0
aF0
aF0
aF1
aF0
aa(lp2070
Vpadawan_l_cv_0_anim
p2071
a(lp2072
VtranslateX
p2073
aVtranslateY
p2074
aVtranslateZ
p2075
aaF0
aF0
aF0
aa(lp2076
Vfk_padawan_l_02_anim
p2077
a(lp2078
VtranslateX
p2079
aVtranslateY
p2080
aVtranslateZ
p2081
aVrotateX
p2082
aVrotateY
p2083
aVrotateZ
p2084
aaF0
aF0
aF0
aF0
aF0
aF0
aa(lp2085
Vpadawan_l_cv_1_anim
p2086
a(lp2087
VtranslateX
p2088
aVtranslateY
p2089
aVtranslateZ
p2090
aaF0
aF0
aF0
aa(lp2091
Vfk_padawan_l_03_anim
p2092
a(lp2093
VtranslateX
p2094
aVtranslateY
p2095
aVtranslateZ
p2096
aVrotateX
p2097
aVrotateY
p2098
aVrotateZ
p2099
aaF0
aF0
aF0
aF0
aF0
aF0
aa(lp2100
Vpadawan_l_cv_2_anim
p2101
a(lp2102
VtranslateX
p2103
aVtranslateY
p2104
aVtranslateZ
p2105
aaF0
aF0
aF0
aa(lp2106
Vpadawan_r_dyn_anim
p2107
a(lp2108
VtranslateX
p2109
aVtranslateY
p2110
aVtranslateZ
p2111
aVrotateX
p2112
aVrotateY
p2113
aVrotateZ
p2114
aVchainAttach
p2115
aVchainStartFrame
p2116
aVchainStiffness
p2117
aVchainDamping
p2118
aVchainGravity
p2119
aVchainIteration
p2120
aVchainCollide
p2121
aVchainWidthBase
p2122
aVchainWidthExtremity
p2123
aVchainCollideGround
p2124
aVchainCollideGroundHeight
p2125
aaF0
aF0
aF0
aF0
aF0
aF0
aI1
aF1
aF0.10000000000000001
aF0.20000000000000001
aF1
aI1
aI00
aF1
aF1
aI00
aF0
aa(lp2126
Vpadawan_r_ik_2_anim
p2127
a(lp2128
VtranslateX
p2129
aVtranslateY
p2130
aVtranslateZ
p2131
aVrotateX
p2132
aVrotateY
p2133
aVrotateZ
p2134
aaF0
aF0
aF0
aF0
aF0
aF0
aa(lp2135
Vpadawan_r_ik_3_anim
p2136
a(lp2137
VtranslateX
p2138
aVtranslateY
p2139
aVtranslateZ
p2140
aVrotateX
p2141
aVrotateY
p2142
aVrotateZ
p2143
aVclusterControlVis
p2144
aaF0
aF0
aF0
aF0
aF0
aF0
aI00
aa(lp2145
Vpadawan_r_ik_base_anim
p2146
a(lp2147
VtranslateX
p2148
aVtranslateY
p2149
aVtranslateZ
p2150
aVrotateX
p2151
aVrotateY
p2152
aVrotateZ
p2153
aVglobal_scale
p2154
aaF0
aF0
aF0
aF0
aF0
aF0
aF1.0000000000000002
aa(lp2155
Vfk_padawan_r_01_anim
p2156
a(lp2157
VtranslateX
p2158
aVtranslateY
p2159
aVtranslateZ
p2160
aVrotateX
p2161
aVrotateY
p2162
aVrotateZ
p2163
aVglobal_scale
p2164
aVlagMode
p2165
aaF0
aF0
aF0
aF0
aF0
aF0
aF1
aF0
aa(lp2166
Vpadawan_r_cv_0_anim
p2167
a(lp2168
VtranslateX
p2169
aVtranslateY
p2170
aVtranslateZ
p2171
aaF0
aF0
aF0
aa(lp2172
Vfk_padawan_r_02_anim
p2173
a(lp2174
VtranslateX
p2175
aVtranslateY
p2176
aVtranslateZ
p2177
aVrotateX
p2178
aVrotateY
p2179
aVrotateZ
p2180
aaF0
aF0
aF0
aF0
aF0
aF0
aa(lp2181
Vpadawan_r_cv_1_anim
p2182
a(lp2183
VtranslateX
p2184
aVtranslateY
p2185
aVtranslateZ
p2186
aaF0
aF0
aF0
aa(lp2187
Vfk_padawan_r_03_anim
p2188
a(lp2189
VtranslateX
p2190
aVtranslateY
p2191
aVtranslateZ
p2192
aVrotateX
p2193
aVrotateY
p2194
aVrotateZ
p2195
aaF0
aF0
aF0
aF0
aF0
aF0
aa(lp2196
Vpadawan_r_cv_2_anim
p2197
a(lp2198
VtranslateX
p2199
aVtranslateY
p2200
aVtranslateZ
p2201
aaF0
aF0
aF0
aa(lp2202
Vpipe_anim
p2203
a(lp2204
VtranslateX
p2205
aVtranslateY
p2206
aVtranslateZ
p2207
aVrotateX
p2208
aVrotateY
p2209
aVrotateZ
p2210
aVscaleX
p2211
aVscaleY
p2212
aVscaleZ
p2213
aaF0
aF0
aF0
aF0
aF-0
aF0
aF1
aF1
aF1
aa(lp2214
Vponytail_dyn_anim
p2215
a(lp2216
VtranslateX
p2217
aVtranslateY
p2218
aVtranslateZ
p2219
aVrotateX
p2220
aVrotateY
p2221
aVrotateZ
p2222
aVchainAttach
p2223
aVchainStartFrame
p2224
aVchainStiffness
p2225
aVchainDamping
p2226
aVchainGravity
p2227
aVchainIteration
p2228
aVchainCollide
p2229
aVchainWidthBase
p2230
aVchainWidthExtremity
p2231
aVchainCollideGround
p2232
aVchainCollideGroundHeight
p2233
aaF0
aF0
aF0
aF0
aF0
aF0
aI1
aF1
aF0.10000000000000001
aF0.20000000000000001
aF1
aI1
aI00
aF1
aF1
aI00
aF0
aa(lp2234
Vponytail_ik_2_anim
p2235
a(lp2236
VtranslateX
p2237
aVtranslateY
p2238
aVtranslateZ
p2239
aVrotateX
p2240
aVrotateY
p2241
aVrotateZ
p2242
aaF0
aF0
aF0
aF0
aF0
aF0
aa(lp2243
Vponytail_ik_3_anim
p2244
a(lp2245
VtranslateX
p2246
aVtranslateY
p2247
aVtranslateZ
p2248
aVrotateX
p2249
aVrotateY
p2250
aVrotateZ
p2251
aVclusterControlVis
p2252
aaF0
aF0
aF0
aF0
aF0
aF0
aI00
aa(lp2253
Vponytail_ik_base_anim
p2254
a(lp2255
VtranslateX
p2256
aVtranslateY
p2257
aVtranslateZ
p2258
aVrotateX
p2259
aVrotateY
p2260
aVrotateZ
p2261
aVglobal_scale
p2262
aaF0
aF0
aF0
aF0
aF0
aF0
aF1
aa(lp2263
Vfk_ponytail_01_anim
p2264
a(lp2265
VtranslateX
p2266
aVtranslateY
p2267
aVtranslateZ
p2268
aVrotateX
p2269
aVrotateY
p2270
aVrotateZ
p2271
aVglobal_scale
p2272
aVlagMode
p2273
aaF0
aF0
aF0
aF0
aF0
aF0
aF1
aF0
aa(lp2274
Vponytail_cv_0_anim
p2275
a(lp2276
VtranslateX
p2277
aVtranslateY
p2278
aVtranslateZ
p2279
aaF0
aF0
aF0
aa(lp2280
Vfk_ponytail_02_anim
p2281
a(lp2282
VtranslateX
p2283
aVtranslateY
p2284
aVtranslateZ
p2285
aVrotateX
p2286
aVrotateY
p2287
aVrotateZ
p2288
aaF0
aF0
aF0
aF0
aF0
aF0
aa(lp2289
Vponytail_cv_1_anim
p2290
a(lp2291
VtranslateX
p2292
aVtranslateY
p2293
aVtranslateZ
p2294
aaF0
aF0
aF0
aa(lp2295
Vfk_ponytail_03_anim
p2296
a(lp2297
VtranslateX
p2298
aVtranslateY
p2299
aVtranslateZ
p2300
aVrotateX
p2301
aVrotateY
p2302
aVrotateZ
p2303
aaF0
aF0
aF0
aF0
aF0
aF0
aa(lp2304
Vponytail_cv_2_anim
p2305
a(lp2306
VtranslateX
p2307
aVtranslateY
p2308
aVtranslateZ
p2309
aaF0
aF0
aF0
aa(lp2310
Vshoulder_blade_in_r_anim
p2311
a(lp2312
VtranslateX
p2313
aVtranslateY
p2314
aVtranslateZ
p2315
aVrotateX
p2316
aVrotateY
p2317
aVrotateZ
p2318
aVscaleX
p2319
aVscaleY
p2320
aVscaleZ
p2321
aaF0
aF0
aF0
aF0
aF0
aF0
aF1
aF1
aF1
aa(lp2322
Vshoulder_blade_mid_r_anim
p2323
a(lp2324
VtranslateX
p2325
aVtranslateY
p2326
aVtranslateZ
p2327
aVrotateX
p2328
aVrotateY
p2329
aVrotateZ
p2330
aVscaleX
p2331
aVscaleY
p2332
aVscaleZ
p2333
aaF0
aF0
aF0
aF0
aF0
aF0
aF1
aF1
aF1
aa(lp2334
Vshoulder_blade_out_r_anim
p2335
a(lp2336
VtranslateX
p2337
aVtranslateY
p2338
aVtranslateZ
p2339
aVrotateX
p2340
aVrotateY
p2341
aVrotateZ
p2342
aVscaleX
p2343
aVscaleY
p2344
aVscaleZ
p2345
aaF0
aF0
aF0
aF0
aF0
aF0
aF1
aF1
aF1
aa(lp2346
Vshoulder_cloth_01_l_anim
p2347
a(lp2348
VtranslateX
p2349
aVtranslateY
p2350
aVtranslateZ
p2351
aVrotateX
p2352
aVrotateY
p2353
aVrotateZ
p2354
aVscaleX
p2355
aVscaleY
p2356
aVscaleZ
p2357
aaF0
aF0
aF0
aF0
aF0
aF0
aF1
aF1
aF1
aa(lp2358
Vshoulder_cloth_02_l_anim
p2359
a(lp2360
VtranslateX
p2361
aVtranslateY
p2362
aVtranslateZ
p2363
aVrotateX
p2364
aVrotateY
p2365
aVrotateZ
p2366
aVscaleX
p2367
aVscaleY
p2368
aVscaleZ
p2369
aaF0
aF0
aF0
aF0
aF0
aF0
aF1
aF1
aF1
aa(lp2370
Vshoulder_pad_r_anim
p2371
a(lp2372
VtranslateX
p2373
aVtranslateY
p2374
aVtranslateZ
p2375
aVrotateX
p2376
aVrotateY
p2377
aVrotateZ
p2378
aVscaleX
p2379
aVscaleY
p2380
aVscaleZ
p2381
aaF0
aF0
aF0
aF0
aF0
aF0
aF1
aF1
aF1
aa(lp2382
Vweapon_anim
p2383
a(lp2384
VtranslateX
p2385
aVtranslateY
p2386
aVtranslateZ
p2387
aVrotateX
p2388
aVrotateY
p2389
aVrotateZ
p2390
aVscaleX
p2391
aVscaleY
p2392
aVscaleZ
p2393
aVspace_ik_wrist_r_anim
p2394
aaF-57.842792043808949
aF-36.938646299221411
aF-5.9504893284027247
aF152.39789683938403
aF-77.962983370862617
aF187.25900883694143
aF1
aF1
aF1
aF0
aa(lp2395
Vweapon_bladeA_01_anim
p2396
a(lp2397
VtranslateX
p2398
aVtranslateY
p2399
aVtranslateZ
p2400
aVrotateX
p2401
aVrotateY
p2402
aVrotateZ
p2403
aVscaleX
p2404
aVscaleY
p2405
aVscaleZ
p2406
aaF0
aF0
aF0
aF0
aF0
aF0
aF1
aF1
aF1
aa(lp2407
Vweapon_bladeA_02_anim
p2408
a(lp2409
VtranslateZ
p2410
aVscaleX
p2411
aVscaleY
p2412
aVscaleZ
p2413
aaF0
aF1
aF1
aF1
aa(lp2414
Vweapon_bladeA_03_anim
p2415
a(lp2416
VtranslateX
p2417
aVtranslateY
p2418
aVtranslateZ
p2419
aVrotateX
p2420
aVrotateY
p2421
aVrotateZ
p2422
aVscaleX
p2423
aVscaleY
p2424
aVscaleZ
p2425
aaF0
aF0
aF0
aF0
aF0
aF0
aF1
aF1
aF1
aa(lp2426
Vweapon_bladeA_04_anim
p2427
a(lp2428
VtranslateX
p2429
aVtranslateY
p2430
aVtranslateZ
p2431
aVrotateX
p2432
aVrotateY
p2433
aVrotateZ
p2434
aVscaleX
p2435
aVscaleY
p2436
aVscaleZ
p2437
aaF0
aF0
aF0
aF0
aF0
aF0
aF1
aF1
aF1
aa(lp2438
Vweapon_bladeA_05_anim
p2439
a(lp2440
VtranslateX
p2441
aVtranslateY
p2442
aVtranslateZ
p2443
aVrotateX
p2444
aVrotateY
p2445
aVrotateZ
p2446
aVscaleX
p2447
aVscaleY
p2448
aVscaleZ
p2449
aaF0
aF0
aF0
aF0
aF0
aF0
aF1
aF1
aF1
aa(lp2450
Vweapon_bladeB_01_anim
p2451
a(lp2452
VtranslateX
p2453
aVtranslateY
p2454
aVtranslateZ
p2455
aVrotateX
p2456
aVrotateY
p2457
aVrotateZ
p2458
aVscaleX
p2459
aVscaleY
p2460
aVscaleZ
p2461
aaF0
aF0
aF0
aF0
aF0
aF0
aF1
aF1
aF1
aa(lp2462
Vweapon_bladeB_02_anim
p2463
a(lp2464
VtranslateZ
p2465
aVscaleX
p2466
aVscaleY
p2467
aVscaleZ
p2468
aaF0
aF1
aF1
aF1
aa(lp2469
Vweapon_bladeB_03_anim
p2470
a(lp2471
VtranslateX
p2472
aVtranslateY
p2473
aVtranslateZ
p2474
aVrotateX
p2475
aVrotateY
p2476
aVrotateZ
p2477
aVscaleX
p2478
aVscaleY
p2479
aVscaleZ
p2480
aaF0
aF0
aF0
aF0
aF0
aF0
aF1
aF1
aF1
aa(lp2481
Vweapon_bladeB_04_anim
p2482
a(lp2483
VtranslateX
p2484
aVtranslateY
p2485
aVtranslateZ
p2486
aVrotateX
p2487
aVrotateY
p2488
aVrotateZ
p2489
aVscaleX
p2490
aVscaleY
p2491
aVscaleZ
p2492
aaF0
aF0
aF0
aF0
aF0
aF0
aF1
aF1
aF1
aa(lp2493
Vweapon_bladeB_05_anim
p2494
a(lp2495
VtranslateX
p2496
aVtranslateY
p2497
aVtranslateZ
p2498
aVrotateX
p2499
aVrotateY
p2500
aVrotateZ
p2501
aVscaleX
p2502
aVscaleY
p2503
aVscaleZ
p2504
aaF0
aF0
aF0
aF0
aF0
aF0
aF1
aF1
aF1
aa(lp2505
Vweapon_bladeC_01_anim
p2506
a(lp2507
VtranslateX
p2508
aVtranslateY
p2509
aVtranslateZ
p2510
aVrotateX
p2511
aVrotateY
p2512
aVrotateZ
p2513
aVscaleX
p2514
aVscaleY
p2515
aVscaleZ
p2516
aaF0
aF0
aF0
aF0
aF0
aF0
aF1
aF1
aF1
aa(lp2517
Vweapon_bladeC_02_anim
p2518
a(lp2519
VtranslateY
p2520
aVscaleX
p2521
aVscaleY
p2522
aVscaleZ
p2523
aaF0
aF1
aF1
aF1
aa(lp2524
Vweapon_bladeC_03_anim
p2525
a(lp2526
VtranslateX
p2527
aVtranslateY
p2528
aVtranslateZ
p2529
aVrotateX
p2530
aVrotateY
p2531
aVrotateZ
p2532
aVscaleX
p2533
aVscaleY
p2534
aVscaleZ
p2535
aaF0
aF0
aF0
aF0
aF0
aF0
aF1
aF1
aF1
aa(lp2536
Vweapon_bladeD_01_anim
p2537
a(lp2538
VtranslateX
p2539
aVtranslateY
p2540
aVtranslateZ
p2541
aVrotateX
p2542
aVrotateY
p2543
aVrotateZ
p2544
aVscaleX
p2545
aVscaleY
p2546
aVscaleZ
p2547
aaF0
aF0
aF0
aF0
aF0
aF0
aF1
aF1
aF1
aa(lp2548
Vweapon_bladeE_01_anim
p2549
a(lp2550
VtranslateX
p2551
aVtranslateY
p2552
aVtranslateZ
p2553
aVrotateX
p2554
aVrotateY
p2555
aVrotateZ
p2556
aVscaleX
p2557
aVscaleY
p2558
aVscaleZ
p2559
aaF0
aF0
aF0
aF0
aF0
aF0
aF1
aF1
aF1
aa(lp2560
Vweapon_butt_dyn_anim
p2561
a(lp2562
VtranslateX
p2563
aVtranslateY
p2564
aVtranslateZ
p2565
aVrotateX
p2566
aVrotateY
p2567
aVrotateZ
p2568
aVchainAttach
p2569
aVchainStartFrame
p2570
aVchainStiffness
p2571
aVchainDamping
p2572
aVchainGravity
p2573
aVchainIteration
p2574
aVchainCollide
p2575
aVchainWidthBase
p2576
aVchainWidthExtremity
p2577
aVchainCollideGround
p2578
aVchainCollideGroundHeight
p2579
aaF0
aF0
aF0
aF0
aF0
aF0
aI1
aF1
aF0.10000000000000001
aF0.20000000000000001
aF1
aI1
aI00
aF1
aF1
aI00
aF0
aa(lp2580
Vweapon_butt_ik_2_anim
p2581
a(lp2582
VtranslateX
p2583
aVtranslateY
p2584
aVtranslateZ
p2585
aVrotateX
p2586
aVrotateY
p2587
aVrotateZ
p2588
aaF0
aF0
aF0
aF0
aF0
aF0
aa(lp2589
Vweapon_butt_ik_3_anim
p2590
a(lp2591
VtranslateX
p2592
aVtranslateY
p2593
aVtranslateZ
p2594
aVrotateX
p2595
aVrotateY
p2596
aVrotateZ
p2597
aaF0
aF0
aF0
aF0
aF0
aF0
aa(lp2598
Vweapon_butt_ik_4_anim
p2599
a(lp2600
VtranslateX
p2601
aVtranslateY
p2602
aVtranslateZ
p2603
aVrotateX
p2604
aVrotateY
p2605
aVrotateZ
p2606
aVclusterControlVis
p2607
aaF0
aF0
aF0
aF0
aF0
aF0
aI00
aa(lp2608
Vweapon_butt_ik_base_anim
p2609
a(lp2610
VtranslateX
p2611
aVtranslateY
p2612
aVtranslateZ
p2613
aVrotateX
p2614
aVrotateY
p2615
aVrotateZ
p2616
aVglobal_scale
p2617
aaF0
aF0
aF0
aF0
aF0
aF0
aF1
aa(lp2618
Vfk_weapon_butt_01_anim
p2619
a(lp2620
VtranslateX
p2621
aVtranslateY
p2622
aVtranslateZ
p2623
aVrotateX
p2624
aVrotateY
p2625
aVrotateZ
p2626
aVglobal_scale
p2627
aVlagMode
p2628
aaF0
aF0
aF0
aF0
aF0
aF0
aF1
aF0
aa(lp2629
Vweapon_butt_cv_0_anim
p2630
a(lp2631
VtranslateX
p2632
aVtranslateY
p2633
aVtranslateZ
p2634
aaF0
aF0
aF0
aa(lp2635
Vfk_weapon_butt_02_anim
p2636
a(lp2637
VtranslateX
p2638
aVtranslateY
p2639
aVtranslateZ
p2640
aVrotateX
p2641
aVrotateY
p2642
aVrotateZ
p2643
aaF0
aF0
aF0
aF0
aF0
aF0
aa(lp2644
Vweapon_butt_cv_1_anim
p2645
a(lp2646
VtranslateX
p2647
aVtranslateY
p2648
aVtranslateZ
p2649
aaF0
aF0
aF0
aa(lp2650
Vfk_weapon_butt_03_anim
p2651
a(lp2652
VtranslateX
p2653
aVtranslateY
p2654
aVtranslateZ
p2655
aVrotateX
p2656
aVrotateY
p2657
aVrotateZ
p2658
aaF0
aF0
aF0
aF0
aF0
aF0
aa(lp2659
Vweapon_butt_cv_2_anim
p2660
a(lp2661
VtranslateX
p2662
aVtranslateY
p2663
aVtranslateZ
p2664
aaF0
aF0
aF0
aa(lp2665
Vfk_weapon_butt_04_anim
p2666
a(lp2667
VtranslateX
p2668
aVtranslateY
p2669
aVtranslateZ
p2670
aVrotateX
p2671
aVrotateY
p2672
aVrotateZ
p2673
aaF0
aF0
aF0
aF0
aF0
aF0
aa(lp2674
Vweapon_butt_cv_3_anim
p2675
a(lp2676
VtranslateX
p2677
aVtranslateY
p2678
aVtranslateZ
p2679
aaF0
aF0
aF0
aa(lp2680
Vfk_weapon_butt_05_anim
p2681
a(lp2682
VtranslateX
p2683
aVtranslateY
p2684
aVtranslateZ
p2685
aVrotateX
p2686
aVrotateY
p2687
aVrotateZ
p2688
aaF0
aF0
aF0
aF0
aF0
aF0
aa(lp2689
Vweapon_butt_cv_4_anim
p2690
a(lp2691
VtranslateX
p2692
aVtranslateY
p2693
aVtranslateZ
p2694
aaF0
aF0
aF0
aa(lp2695
Vfk_weapon_butt_06_anim
p2696
a(lp2697
VtranslateX
p2698
aVtranslateY
p2699
aVtranslateZ
p2700
aVrotateX
p2701
aVrotateY
p2702
aVrotateZ
p2703
aaF0
aF0
aF0
aF0
aF0
aF0
aa(lp2704
Vweapon_butt_cv_5_anim
p2705
a(lp2706
VtranslateX
p2707
aVtranslateY
p2708
aVtranslateZ
p2709
aaF0
aF0
aF0
aa(lp2710
Vfk_weapon_butt_07_anim
p2711
a(lp2712
VtranslateX
p2713
aVtranslateY
p2714
aVtranslateZ
p2715
aVrotateX
p2716
aVrotateY
p2717
aVrotateZ
p2718
aaF0
aF0
aF0
aF0
aF0
aF0
aa(lp2719
Vweapon_butt_cv_6_anim
p2720
a(lp2721
VtranslateX
p2722
aVtranslateY
p2723
aVtranslateZ
p2724
aaF0
aF0
aF0
aa(lp2725
Vfk_weapon_butt_08_anim
p2726
a(lp2727
VtranslateX
p2728
aVtranslateY
p2729
aVtranslateZ
p2730
aVrotateX
p2731
aVrotateY
p2732
aVrotateZ
p2733
aaF0
aF0
aF0
aF0
aF0
aF0
aa(lp2734
Vweapon_butt_cv_7_anim
p2735
a(lp2736
VtranslateX
p2737
aVtranslateY
p2738
aVtranslateZ
p2739
aaF0
aF0
aF0
aa(lp2740
Vfk_weapon_butt_09_anim
p2741
a(lp2742
VtranslateX
p2743
aVtranslateY
p2744
aVtranslateZ
p2745
aVrotateX
p2746
aVrotateY
p2747
aVrotateZ
p2748
aaF0
aF0
aF0
aF0
aF0
aF0
aa(lp2749
Vweapon_butt_cv_8_anim
p2750
a(lp2751
VtranslateX
p2752
aVtranslateY
p2753
aVtranslateZ
p2754
aaF0
aF0
aF0
aa(lp2755
Vwrist_plate_r_anim
p2756
a(lp2757
VtranslateX
p2758
aVtranslateY
p2759
aVtranslateZ
p2760
aVrotateX
p2761
aVrotateY
p2762
aVrotateZ
p2763
aVscaleX
p2764
aVscaleY
p2765
aVscaleZ
p2766
aaF0
aF0
aF0
aF0
aF0
aF0
aF1
aF1
aF1
aa(lp2767
Vweapon_bladeD_02_anim
p2768
a(lp2769
VtranslateX
p2770
aVtranslateY
p2771
aVtranslateZ
p2772
aVrotateX
p2773
aVrotateY
p2774
aVrotateZ
p2775
aVscaleX
p2776
aVscaleY
p2777
aVscaleZ
p2778
aaF0
aF0
aF0
aF0
aF0
aF0
aF1
aF1
aF1
aa(lp2779
Vbody_anim_space_switcher
p2780
a(lp2781
Vvisibility
p2782
aVtranslateX
p2783
aVtranslateY
p2784
aVtranslateZ
p2785
aVrotateX
p2786
aVrotateY
p2787
aVrotateZ
p2788
aVscaleX
p2789
aVscaleY
p2790
aVscaleZ
p2791
aVspace_world
p2792
aaI01
aF0
aF0
aF5.856452433224257e-15
aF0
aF0
aF0
aF1
aF1
aF1
aF0
aa(lp2793
Vbracelet_A_l_anim_space_switcher
p2794
a(lp2795
Vvisibility
p2796
aVtranslateX
p2797
aVtranslateY
p2798
aVtranslateZ
p2799
aVrotateX
p2800
aVrotateY
p2801
aVrotateZ
p2802
aVscaleX
p2803
aVscaleY
p2804
aVscaleZ
p2805
aVspace_world
p2806
aaI01
aF1.4210854715202004e-14
aF0
aF0
aF3.1805546814635168e-15
aF1.5902773407317584e-15
aF-7.9513867036587919e-16
aF1
aF1
aF0.99999999999999989
aF0
aa(lp2807
Vbracelet_B_l_anim_space_switcher
p2808
a(lp2809
Vvisibility
p2810
aVtranslateX
p2811
aVtranslateY
p2812
aVtranslateZ
p2813
aVrotateX
p2814
aVrotateY
p2815
aVrotateZ
p2816
aVscaleX
p2817
aVscaleY
p2818
aVscaleZ
p2819
aVspace_world
p2820
aaI01
aF0
aF-1.4210854715202004e-14
aF0
aF-3.1805546814635168e-15
aF-0
aF-1.5902773407317584e-15
aF1
aF1
aF1
aF0
aa(lp2821
Vbracelet_C_l_anim_space_switcher
p2822
a(lp2823
Vvisibility
p2824
aVtranslateX
p2825
aVtranslateY
p2826
aVtranslateZ
p2827
aVrotateX
p2828
aVrotateY
p2829
aVrotateZ
p2830
aVscaleX
p2831
aVscaleY
p2832
aVscaleZ
p2833
aVspace_world
p2834
aaI01
aF1.4210854715202004e-14
aF1.4210854715202004e-14
aF2.8421709430404007e-14
aF3.180554681463516e-15
aF-3.180554681463516e-15
aF0
aF1.0000000000000002
aF1.0000000000000002
aF1.0000000000000002
aF0
aa(lp2835
Vchest_ik_anim_space_switcher
p2836
a(lp2837
Vvisibility
p2838
aVtranslateX
p2839
aVtranslateY
p2840
aVtranslateZ
p2841
aVrotateX
p2842
aVrotateY
p2843
aVrotateZ
p2844
aVscaleX
p2845
aVscaleY
p2846
aVscaleZ
p2847
aVspace_world
p2848
aVspace_chest_ik_world_aligned
p2849
aaI01
aF0
aF-8.8817841970012523e-15
aF-1.3555225542027927e-07
aF3.5311250384401269e-31
aF2.8249000307521015e-30
aF0
aF1
aF1
aF1
aF0
aF0
aa(lp2850
Veyeball_l_anim_space_switcher
p2851
a(lp2852
Vvisibility
p2853
aVtranslateX
p2854
aVtranslateY
p2855
aVtranslateZ
p2856
aVrotateX
p2857
aVrotateY
p2858
aVrotateZ
p2859
aVscaleX
p2860
aVscaleY
p2861
aVscaleZ
p2862
aVspace_world
p2863
aaI01
aF0
aF0
aF0
aF0
aF0
aF0
aF1
aF1
aF1
aF0
aa(lp2864
Veyeball_r_anim_space_switcher
p2865
a(lp2866
Vvisibility
p2867
aVtranslateX
p2868
aVtranslateY
p2869
aVtranslateZ
p2870
aVrotateX
p2871
aVrotateY
p2872
aVrotateZ
p2873
aVscaleX
p2874
aVscaleY
p2875
aVscaleZ
p2876
aVspace_world
p2877
aaI01
aF4.4408920985006262e-16
aF0
aF0
aF0
aF0
aF0
aF1
aF1
aF1
aF0
aa(lp2878
Veyebrow_in_l_anim_space_switcher
p2879
a(lp2880
Vvisibility
p2881
aVtranslateX
p2882
aVtranslateY
p2883
aVtranslateZ
p2884
aVrotateX
p2885
aVrotateY
p2886
aVrotateZ
p2887
aVscaleX
p2888
aVscaleY
p2889
aVscaleZ
p2890
aVspace_world
p2891
aaI01
aF0
aF-3.5527136788005009e-15
aF-2.8421709430404007e-14
aF0
aF9.9392333795734899e-17
aF-3.975693351829396e-16
aF1
aF1
aF1.0000000000000002
aF0
aa(lp2892
Veyebrow_in_r_anim_space_switcher
p2893
a(lp2894
Vvisibility
p2895
aVtranslateX
p2896
aVtranslateY
p2897
aVtranslateZ
p2898
aVrotateX
p2899
aVrotateY
p2900
aVrotateZ
p2901
aVscaleX
p2902
aVscaleY
p2903
aVscaleZ
p2904
aVspace_world
p2905
aaI01
aF-4.4408920985006262e-16
aF0
aF0
aF7.9513867036587919e-16
aF-9.9392333795734874e-17
aF4.5968954380527377e-16
aF1.0000000000000002
aF1
aF1.0000000000000002
aF0
aa(lp2906
Veyebrow_out_l_anim_space_switcher
p2907
a(lp2908
Vvisibility
p2909
aVtranslateX
p2910
aVtranslateY
p2911
aVtranslateZ
p2912
aVrotateX
p2913
aVrotateY
p2914
aVrotateZ
p2915
aVscaleX
p2916
aVscaleY
p2917
aVscaleZ
p2918
aVspace_world
p2919
aaI01
aF-1.4210854715202004e-14
aF0
aF0
aF0
aF1.5902773407317584e-15
aF-2.3854160110976376e-15
aF1
aF0.99999999999999989
aF1
aF0
aa(lp2920
Veyebrow_out_r_anim_space_switcher
p2921
a(lp2922
Vvisibility
p2923
aVtranslateX
p2924
aVtranslateY
p2925
aVtranslateZ
p2926
aVrotateX
p2927
aVrotateY
p2928
aVrotateZ
p2929
aVscaleX
p2930
aVscaleY
p2931
aVscaleZ
p2932
aVspace_world
p2933
aaI01
aF-7.1054273576010019e-15
aF0
aF-2.8421709430404007e-14
aF0
aF1.590277340731758e-15
aF7.9513867036587899e-16
aF1.0000000000000002
aF1
aF1
aF0
aa(lp2934
Veyelid_bott_l_anim_space_switcher
p2935
a(lp2936
Vvisibility
p2937
aVtranslateX
p2938
aVtranslateY
p2939
aVtranslateZ
p2940
aVrotateX
p2941
aVrotateY
p2942
aVrotateZ
p2943
aVscaleX
p2944
aVscaleY
p2945
aVscaleZ
p2946
aVspace_world
p2947
aaI01
aF0
aF0
aF0
aF0
aF0
aF0
aF1
aF1
aF1
aF0
aa(lp2948
Veyelid_bott_r_anim_space_switcher
p2949
a(lp2950
Vvisibility
p2951
aVtranslateX
p2952
aVtranslateY
p2953
aVtranslateZ
p2954
aVrotateX
p2955
aVrotateY
p2956
aVrotateZ
p2957
aVscaleX
p2958
aVscaleY
p2959
aVscaleZ
p2960
aVspace_world
p2961
aaI01
aF4.4408920985006262e-16
aF0
aF0
aF0
aF0
aF0
aF1
aF1
aF1
aF0
aa(lp2962
Veyelid_top_l_anim_space_switcher
p2963
a(lp2964
Vvisibility
p2965
aVtranslateX
p2966
aVtranslateY
p2967
aVtranslateZ
p2968
aVrotateX
p2969
aVrotateY
p2970
aVrotateZ
p2971
aVscaleX
p2972
aVscaleY
p2973
aVscaleZ
p2974
aVspace_world
p2975
aaI01
aF0
aF0
aF0
aF0
aF0
aF0
aF1
aF1
aF1
aF0
aa(lp2976
Veyelid_top_r_anim_space_switcher
p2977
a(lp2978
Vvisibility
p2979
aVtranslateX
p2980
aVtranslateY
p2981
aVtranslateZ
p2982
aVrotateX
p2983
aVrotateY
p2984
aVrotateZ
p2985
aVscaleX
p2986
aVscaleY
p2987
aVscaleZ
p2988
aVspace_world
p2989
aaI01
aF4.4408920985006262e-16
aF0
aF0
aF0
aF0
aF0
aF1
aF1
aF1
aF0
aa(lp2990
Vhip_back_flaps_anim_space_switcher
p2991
a(lp2992
Vvisibility
p2993
aVtranslateX
p2994
aVtranslateY
p2995
aVtranslateZ
p2996
aVrotateX
p2997
aVrotateY
p2998
aVrotateZ
p2999
aVscaleX
p3000
aVscaleY
p3001
aVscaleZ
p3002
aVspace_world
p3003
aaI01
aF0
aF0
aF0
aF0
aF0
aF0
aF1
aF1
aF1
aF0
aa(lp3004
Vik_elbow_l_anim_space_switcher
p3005
a(lp3006
Vvisibility
p3007
aVtranslateX
p3008
aVtranslateY
p3009
aVtranslateZ
p3010
aVrotateX
p3011
aVrotateY
p3012
aVrotateZ
p3013
aVscaleX
p3014
aVscaleY
p3015
aVscaleZ
p3016
aVspace_world
p3017
aVspace_body_anim
p3018
aVspace_chest_ik_anim
p3019
aaI01
aF-5.5530346187993018e-06
aF-8.2796614577773653e-06
aF0.00010569494523338108
aF0
aF0
aF0
aF1
aF1
aF1
aF0
aF0
aF0
aa(lp3020
Vik_elbow_r_anim_space_switcher
p3021
a(lp3022
Vvisibility
p3023
aVtranslateX
p3024
aVtranslateY
p3025
aVtranslateZ
p3026
aVrotateX
p3027
aVrotateY
p3028
aVrotateZ
p3029
aVscaleX
p3030
aVscaleY
p3031
aVscaleZ
p3032
aVspace_world
p3033
aVspace_body_anim
p3034
aVspace_chest_ik_anim
p3035
aaI01
aF-5.5530346187993018e-06
aF8.2796614577773653e-06
aF-0.00010569494523338108
aF0
aF0
aF0
aF1
aF1
aF1
aF0
aF0
aF0
aa(lp3036
Vik_foot_anim_l_space_switcher
p3037
a(lp3038
Vvisibility
p3039
aVtranslateX
p3040
aVtranslateY
p3041
aVtranslateZ
p3042
aVrotateX
p3043
aVrotateY
p3044
aVrotateZ
p3045
aVscaleX
p3046
aVscaleY
p3047
aVscaleZ
p3048
aVspace_world
p3049
aVspace_body_anim
p3050
aaI01
aF1.7795704437162385e-05
aF1.7388318187983032e-05
aF-0.00018205549879724003
aF0
aF0
aF0
aF1
aF1
aF1
aF0
aF0
aa(lp3051
Vik_foot_anim_r_space_switcher
p3052
a(lp3053
Vvisibility
p3054
aVtranslateX
p3055
aVtranslateY
p3056
aVtranslateZ
p3057
aVrotateX
p3058
aVrotateY
p3059
aVrotateZ
p3060
aVscaleX
p3061
aVscaleY
p3062
aVscaleZ
p3063
aVspace_world
p3064
aVspace_body_anim
p3065
aaI01
aF1.7795704437162385e-05
aF-1.7388318187983032e-05
aF0.00018205549879724003
aF0
aF0
aF0
aF1
aF1
aF1
aF0
aF0
aa(lp3066
Vik_wrist_l_anim_space_switcher
p3067
a(lp3068
Vvisibility
p3069
aVtranslateX
p3070
aVtranslateY
p3071
aVtranslateZ
p3072
aVrotateX
p3073
aVrotateY
p3074
aVrotateZ
p3075
aVscaleX
p3076
aVscaleY
p3077
aVscaleZ
p3078
aVspace_world
p3079
aVspace_body_anim
p3080
aVspace_head_fk_anim
p3081
aVspace_chest_ik_anim
p3082
aaI01
aF0
aF0
aF0
aF0
aF0
aF0
aF1
aF1
aF1
aF0
aF0
aF0
aF0
aa(lp3083
Vik_wrist_r_anim_space_switcher
p3084
a(lp3085
Vvisibility
p3086
aVtranslateX
p3087
aVtranslateY
p3088
aVtranslateZ
p3089
aVrotateX
p3090
aVrotateY
p3091
aVrotateZ
p3092
aVscaleX
p3093
aVscaleY
p3094
aVscaleZ
p3095
aVspace_world
p3096
aVspace_body_anim
p3097
aVspace_head_fk_anim
p3098
aVspace_chest_ik_anim
p3099
aaI01
aF0.00010365223528197021
aF1.4836969924658661e-05
aF-5.4660423444374828e-05
aF0
aF0
aF0
aF1
aF1
aF1
aF0
aF0
aF0
aF0
aa(lp3100
Vjaw_anim_space_switcher
p3101
a(lp3102
Vvisibility
p3103
aVtranslateX
p3104
aVtranslateY
p3105
aVtranslateZ
p3106
aVrotateX
p3107
aVrotateY
p3108
aVrotateZ
p3109
aVscaleX
p3110
aVscaleY
p3111
aVscaleZ
p3112
aVspace_world
p3113
aaI01
aF0
aF0
aF0
aF0
aF0
aF0
aF1
aF1
aF1
aF0
aa(lp3114
Vl_global_ik_anim_space_switcher
p3115
a(lp3116
Vvisibility
p3117
aVtranslateX
p3118
aVtranslateY
p3119
aVtranslateZ
p3120
aVrotateX
p3121
aVrotateY
p3122
aVrotateZ
p3123
aVscaleX
p3124
aVscaleY
p3125
aVscaleZ
p3126
aVspace_world
p3127
aaI01
aF0
aF0
aF0
aF0
aF0
aF0
aF1
aF1
aF1
aF0
aa(lp3128
Vmaster_anim_space_switcher
p3129
a(lp3130
Vvisibility
p3131
aVtranslateX
p3132
aVtranslateY
p3133
aVtranslateZ
p3134
aVrotateX
p3135
aVrotateY
p3136
aVrotateZ
p3137
aVscaleX
p3138
aVscaleY
p3139
aVscaleZ
p3140
aVspace_world
p3141
aaI01
aF0
aF0
aF0
aF0
aF0
aF0
aF1
aF1
aF1
aF0
aa(lp3142
Vpipe_anim_space_switcher
p3143
a(lp3144
Vvisibility
p3145
aVtranslateX
p3146
aVtranslateY
p3147
aVtranslateZ
p3148
aVrotateX
p3149
aVrotateY
p3150
aVrotateZ
p3151
aVscaleX
p3152
aVscaleY
p3153
aVscaleZ
p3154
aVspace_world
p3155
aaI01
aF0
aF0
aF0
aF0
aF0
aF0
aF1
aF1
aF1
aF0
aa(lp3156
Vr_global_ik_anim_space_switcher
p3157
a(lp3158
Vvisibility
p3159
aVtranslateX
p3160
aVtranslateY
p3161
aVtranslateZ
p3162
aVrotateX
p3163
aVrotateY
p3164
aVrotateZ
p3165
aVscaleX
p3166
aVscaleY
p3167
aVscaleZ
p3168
aVspace_world
p3169
aaI01
aF0
aF0
aF0
aF0
aF0
aF0
aF1
aF1
aF1
aF0
aa(lp3170
Vshoulder_blade_in_r_anim_space_switcher
p3171
a(lp3172
Vvisibility
p3173
aVtranslateX
p3174
aVtranslateY
p3175
aVtranslateZ
p3176
aVrotateX
p3177
aVrotateY
p3178
aVrotateZ
p3179
aVscaleX
p3180
aVscaleY
p3181
aVscaleZ
p3182
aVspace_world
p3183
aaI01
aF-3.5527136788005009e-15
aF3.5527136788005009e-15
aF0
aF0
aF-0
aF7.4544250346801174e-17
aF1
aF1
aF1.0000000000000002
aF0
aa(lp3184
Vshoulder_blade_mid_r_anim_space_switcher
p3185
a(lp3186
Vvisibility
p3187
aVtranslateX
p3188
aVtranslateY
p3189
aVtranslateZ
p3190
aVrotateX
p3191
aVrotateY
p3192
aVrotateZ
p3193
aVscaleX
p3194
aVscaleY
p3195
aVscaleZ
p3196
aVspace_world
p3197
aaI01
aF3.5527136788005009e-15
aF0
aF0
aF0
aF-0
aF7.4544250346801174e-17
aF1
aF1
aF1.0000000000000002
aF0
aa(lp3198
Vshoulder_blade_out_r_anim_space_switcher
p3199
a(lp3200
Vvisibility
p3201
aVtranslateX
p3202
aVtranslateY
p3203
aVtranslateZ
p3204
aVrotateX
p3205
aVrotateY
p3206
aVrotateZ
p3207
aVscaleX
p3208
aVscaleY
p3209
aVscaleZ
p3210
aVspace_world
p3211
aaI01
aF-3.5527136788005009e-15
aF0
aF0
aF0
aF-0
aF7.4544250346801174e-17
aF1
aF1
aF1.0000000000000002
aF0
aa(lp3212
Vshoulder_cloth_01_l_anim_space_switcher
p3213
a(lp3214
Vvisibility
p3215
aVtranslateX
p3216
aVtranslateY
p3217
aVtranslateZ
p3218
aVrotateX
p3219
aVrotateY
p3220
aVrotateZ
p3221
aVscaleX
p3222
aVscaleY
p3223
aVscaleZ
p3224
aVspace_world
p3225
aaI01
aF0
aF1.4210854715202004e-14
aF-2.8421709430404007e-14
aF0
aF-3.180554681463516e-15
aF0
aF1.0000000000000002
aF1.0000000000000002
aF1.0000000000000002
aF0
aa(lp3226
Vshoulder_cloth_02_l_anim_space_switcher
p3227
a(lp3228
Vvisibility
p3229
aVtranslateX
p3230
aVtranslateY
p3231
aVtranslateZ
p3232
aVrotateX
p3233
aVrotateY
p3234
aVrotateZ
p3235
aVscaleX
p3236
aVscaleY
p3237
aVscaleZ
p3238
aVspace_world
p3239
aaI01
aF-1.4210854715202004e-14
aF0
aF2.8421709430404007e-14
aF0
aF-6.3611093629270335e-15
aF1.5902773407317584e-15
aF1
aF1
aF1
aF0
aa(lp3240
Vshoulder_pad_r_anim_space_switcher
p3241
a(lp3242
Vvisibility
p3243
aVtranslateX
p3244
aVtranslateY
p3245
aVtranslateZ
p3246
aVrotateX
p3247
aVrotateY
p3248
aVrotateZ
p3249
aVscaleX
p3250
aVscaleY
p3251
aVscaleZ
p3252
aVspace_world
p3253
aaI01
aF0
aF-3.5527136788005009e-15
aF0
aF9.9392333795734899e-17
aF-1.987846675914698e-16
aF-7.765026077791789e-18
aF1
aF1
aF1
aF0
aa(lp3254
Vspine_01_space_switcher
p3255
a(lp3256
Vvisibility
p3257
aVtranslateX
p3258
aVtranslateY
p3259
aVtranslateZ
p3260
aVrotateX
p3261
aVrotateY
p3262
aVrotateZ
p3263
aVscaleX
p3264
aVscaleY
p3265
aVscaleZ
p3266
aVspace_world
p3267
aaI01
aF0
aF3.5527136788005009e-15
aF1.0097419586828951e-28
aF0
aF0
aF0
aF0.99999999999999989
aF0.99999999999999989
aF1
aF0
aa(lp3268
Vweapon_anim_space_switcher
p3269
a(lp3270
Vvisibility
p3271
aVtranslateX
p3272
aVtranslateY
p3273
aVtranslateZ
p3274
aVrotateX
p3275
aVrotateY
p3276
aVrotateZ
p3277
aVscaleX
p3278
aVscaleY
p3279
aVscaleZ
p3280
aVspace_world
p3281
aaI01
aF-2.8421709430404007e-14
aF0
aF-2.8421709430404007e-14
aF2.3854160110976376e-15
aF3.1805546814635168e-15
aF-1.1927080055488188e-15
aF1
aF1
aF1
aF0
aa(lp3282
Vweapon_bladeA_01_anim_space_switcher
p3283
a(lp3284
Vvisibility
p3285
aVtranslateX
p3286
aVtranslateY
p3287
aVtranslateZ
p3288
aVrotateX
p3289
aVrotateY
p3290
aVrotateZ
p3291
aVscaleX
p3292
aVscaleY
p3293
aVscaleZ
p3294
aVspace_world
p3295
aVspace_weapon_blades_master_anim
p3296
aaI01
aF2.8421709430404007e-14
aF0
aF-2.8421709430404007e-14
aF7.9513867036587919e-16
aF0
aF-1.5902773407317584e-15
aF1
aF1
aF0.99999999999999978
aF0
aF0
aa(lp3297
Vweapon_bladeA_02_anim_space_switcher
p3298
a(lp3299
Vvisibility
p3300
aVtranslateX
p3301
aVtranslateY
p3302
aVtranslateZ
p3303
aVrotateX
p3304
aVrotateY
p3305
aVrotateZ
p3306
aVscaleX
p3307
aVscaleY
p3308
aVscaleZ
p3309
aVspace_world
p3310
aaI01
aF0
aF-2.8421709430404007e-14
aF-4.2632564145606011e-14
aF7.9513867036587919e-16
aF0
aF-1.5902773407317584e-15
aF1
aF1
aF0.99999999999999978
aF0
aa(lp3311
Vweapon_bladeA_03_anim_space_switcher
p3312
a(lp3313
Vvisibility
p3314
aVtranslateX
p3315
aVtranslateY
p3316
aVtranslateZ
p3317
aVrotateX
p3318
aVrotateY
p3319
aVrotateZ
p3320
aVscaleX
p3321
aVscaleY
p3322
aVscaleZ
p3323
aVspace_world
p3324
aaI01
aF-2.8421709430404007e-14
aF0
aF-4.2632564145606011e-14
aF7.9513867036587919e-16
aF0
aF-1.5902773407317584e-15
aF1
aF1
aF0.99999999999999978
aF0
aa(lp3325
Vweapon_bladeA_04_anim_space_switcher
p3326
a(lp3327
Vvisibility
p3328
aVtranslateX
p3329
aVtranslateY
p3330
aVtranslateZ
p3331
aVrotateX
p3332
aVrotateY
p3333
aVrotateZ
p3334
aVscaleX
p3335
aVscaleY
p3336
aVscaleZ
p3337
aVspace_world
p3338
aaI01
aF0
aF0
aF-2.8421709430404007e-14
aF7.9513867036587919e-16
aF0
aF-1.5902773407317584e-15
aF1
aF1
aF0.99999999999999978
aF0
aa(lp3339
Vweapon_bladeA_05_anim_space_switcher
p3340
a(lp3341
Vvisibility
p3342
aVtranslateX
p3343
aVtranslateY
p3344
aVtranslateZ
p3345
aVrotateX
p3346
aVrotateY
p3347
aVrotateZ
p3348
aVscaleX
p3349
aVscaleY
p3350
aVscaleZ
p3351
aVspace_world
p3352
aaI01
aF0
aF0
aF-4.2632564145606011e-14
aF7.9513867036587919e-16
aF0
aF-1.5902773407317584e-15
aF1
aF1
aF0.99999999999999978
aF0
aa(lp3353
Vweapon_bladeB_01_anim_space_switcher
p3354
a(lp3355
Vvisibility
p3356
aVtranslateX
p3357
aVtranslateY
p3358
aVtranslateZ
p3359
aVrotateX
p3360
aVrotateY
p3361
aVrotateZ
p3362
aVscaleX
p3363
aVscaleY
p3364
aVscaleZ
p3365
aVspace_world
p3366
aVspace_weapon_blades_master_anim
p3367
aaI01
aF2.8421709430404007e-14
aF0
aF-2.8421709430404007e-14
aF7.9513867036587919e-16
aF0
aF-1.5902773407317584e-15
aF1
aF1
aF0.99999999999999978
aF0
aF0
aa(lp3368
Vweapon_bladeB_02_anim_space_switcher
p3369
a(lp3370
Vvisibility
p3371
aVtranslateX
p3372
aVtranslateY
p3373
aVtranslateZ
p3374
aVrotateX
p3375
aVrotateY
p3376
aVrotateZ
p3377
aVscaleX
p3378
aVscaleY
p3379
aVscaleZ
p3380
aVspace_world
p3381
aaI01
aF2.8421709430404007e-14
aF-2.1316282072803006e-14
aF0
aF3.1805546814635168e-15
aF3.1805546814635168e-15
aF-3.1805546814635168e-15
aF1
aF1
aF1
aF0
aa(lp3382
Vweapon_bladeB_03_anim_space_switcher
p3383
a(lp3384
Vvisibility
p3385
aVtranslateX
p3386
aVtranslateY
p3387
aVtranslateZ
p3388
aVrotateX
p3389
aVrotateY
p3390
aVrotateZ
p3391
aVscaleX
p3392
aVscaleY
p3393
aVscaleZ
p3394
aVspace_world
p3395
aaI01
aF2.8421709430404007e-14
aF0
aF0
aF-1.987846675914698e-15
aF0
aF1.987846675914698e-15
aF1
aF1
aF1
aF0
aa(lp3396
Vweapon_bladeB_04_anim_space_switcher
p3397
a(lp3398
Vvisibility
p3399
aVtranslateX
p3400
aVtranslateY
p3401
aVtranslateZ
p3402
aVrotateX
p3403
aVrotateY
p3404
aVrotateZ
p3405
aVscaleX
p3406
aVscaleY
p3407
aVscaleZ
p3408
aVspace_world
p3409
aaI01
aF2.8421709430404007e-14
aF-2.8421709430404007e-14
aF1.4210854715202004e-14
aF-7.9513867036587919e-16
aF0
aF0
aF1
aF1
aF1
aF0
aa(lp3410
Vweapon_bladeB_05_anim_space_switcher
p3411
a(lp3412
Vvisibility
p3413
aVtranslateX
p3414
aVtranslateY
p3415
aVtranslateZ
p3416
aVrotateX
p3417
aVrotateY
p3418
aVrotateZ
p3419
aVscaleX
p3420
aVscaleY
p3421
aVscaleZ
p3422
aVspace_world
p3423
aaI01
aF0
aF2.8421709430404007e-14
aF1.4210854715202004e-14
aF-7.9513867036587919e-16
aF0
aF0
aF1
aF1
aF1
aF0
aa(lp3424
Vweapon_bladeC_01_anim_space_switcher
p3425
a(lp3426
Vvisibility
p3427
aVtranslateX
p3428
aVtranslateY
p3429
aVtranslateZ
p3430
aVrotateX
p3431
aVrotateY
p3432
aVrotateZ
p3433
aVscaleX
p3434
aVscaleY
p3435
aVscaleZ
p3436
aVspace_world
p3437
aVspace_weapon_blades_master_anim
p3438
aaI01
aF2.8421709430404007e-14
aF0
aF-2.8421709430404007e-14
aF7.9513867036587919e-16
aF0
aF-1.5902773407317584e-15
aF1
aF1
aF0.99999999999999978
aF0
aF0
aa(lp3439
Vweapon_bladeC_02_anim_space_switcher
p3440
a(lp3441
Vvisibility
p3442
aVtranslateX
p3443
aVtranslateY
p3444
aVtranslateZ
p3445
aVrotateX
p3446
aVrotateY
p3447
aVrotateZ
p3448
aVscaleX
p3449
aVscaleY
p3450
aVscaleZ
p3451
aVspace_world
p3452
aaI01
aF2.8421709430404007e-14
aF-2.8421709430404007e-14
aF0
aF7.9513867036587919e-16
aF0
aF-1.5902773407317584e-15
aF1
aF1
aF0.99999999999999978
aF0
aa(lp3453
Vweapon_bladeC_03_anim_space_switcher
p3454
a(lp3455
Vvisibility
p3456
aVtranslateX
p3457
aVtranslateY
p3458
aVtranslateZ
p3459
aVrotateX
p3460
aVrotateY
p3461
aVrotateZ
p3462
aVscaleX
p3463
aVscaleY
p3464
aVscaleZ
p3465
aVspace_world
p3466
aaI01
aF0
aF0
aF-1.4210854715202004e-14
aF7.9513867036587919e-16
aF0
aF-1.5902773407317584e-15
aF1
aF1
aF0.99999999999999978
aF0
aa(lp3467
Vweapon_bladeD_01_anim_space_switcher
p3468
a(lp3469
Vvisibility
p3470
aVtranslateX
p3471
aVtranslateY
p3472
aVtranslateZ
p3473
aVrotateX
p3474
aVrotateY
p3475
aVrotateZ
p3476
aVscaleX
p3477
aVscaleY
p3478
aVscaleZ
p3479
aVspace_world
p3480
aVspace_weapon_blades_master_anim
p3481
aaI01
aF0
aF-2.8421709430404007e-14
aF-4.2632564145606011e-14
aF7.9513867036587919e-16
aF0
aF-1.5902773407317584e-15
aF1
aF1
aF0.99999999999999978
aF0
aF0
aa(lp3482
Vweapon_bladeD_02_anim_space_switcher
p3483
a(lp3484
Vvisibility
p3485
aVtranslateX
p3486
aVtranslateY
p3487
aVtranslateZ
p3488
aVrotateX
p3489
aVrotateY
p3490
aVrotateZ
p3491
aVscaleX
p3492
aVscaleY
p3493
aVscaleZ
p3494
aVspace_world
p3495
aaI01
aF0
aF0
aF0
aF0
aF0
aF0
aF1
aF1
aF1
aF0
aa(lp3496
Vweapon_bladeE_01_anim_space_switcher
p3497
a(lp3498
Vvisibility
p3499
aVtranslateX
p3500
aVtranslateY
p3501
aVtranslateZ
p3502
aVrotateX
p3503
aVrotateY
p3504
aVrotateZ
p3505
aVscaleX
p3506
aVscaleY
p3507
aVscaleZ
p3508
aVspace_world
p3509
aaI01
aF0
aF0
aF0
aF0
aF0
aF0
aF1
aF1
aF1
aF0
aa(lp3510
Vwrist_plate_r_anim_space_switcher
p3511
a(lp3512
Vvisibility
p3513
aVtranslateX
p3514
aVtranslateY
p3515
aVtranslateZ
p3516
aVrotateX
p3517
aVrotateY
p3518
aVrotateZ
p3519
aVscaleX
p3520
aVscaleY
p3521
aVscaleZ
p3522
aVspace_world
p3523
aaI01
aF0
aF0
aF-5.6843418860808015e-14
aF0
aF-0
aF9.9392333795734899e-17
aF1
aF1
aF1
aF0
aa.