(lp1
(lp2
Vhead_fk_anim
p3
a(lp4
VtranslateX
p5
aVtranslateY
p6
aVtranslateZ
p7
aVrotateX
p8
aVrotateY
p9
aVrotateZ
p10
aVscaleX
p11
aVscaleY
p12
aVscaleZ
p13
aVfkOrientation
p14
aaF0
aF0
aF0
aF-3.8386772923603685
aF-1.9552972198936349
aF-9.1584354820650642
aF1
aF1
aF1
aI3
aa(lp15
Vneck_01_fk_anim
p16
a(lp17
VtranslateX
p18
aVtranslateY
p19
aVtranslateZ
p20
aVrotateX
p21
aVrotateY
p22
aVrotateZ
p23
aVscaleX
p24
aVscaleY
p25
aVscaleZ
p26
aVfkOrientation
p27
aaF0
aF0
aF0
aF4.9491368471701609
aF2.6919994040791928
aF-3.5328735169011867
aF1
aF1
aF1
aI0
aa(lp28
Vneck_02_fk_anim
p29
a(lp30
VtranslateX
p31
aVtranslateY
p32
aVtranslateZ
p33
aVrotateX
p34
aVrotateY
p35
aVrotateZ
p36
aVscaleX
p37
aVscaleY
p38
aVscaleZ
p39
aaF0
aF0
aF0
aF7.7285650669392609
aF1.5721971436494453
aF2.0611678842242505
aF1
aF1
aF1
aa(lp40
Vik_wrist_r_anim
p41
a(lp42
VtranslateX
p43
aVtranslateY
p44
aVtranslateZ
p45
aVrotateX
p46
aVrotateY
p47
aVrotateZ
p48
aVstretch
p49
aVsquash
p50
aVstretchBias
p51
aVside
p52
aVmid_bend
p53
aVmid_swivel
p54
aVtip_pivot
p55
aVtip_swivel
p56
aVspace_weapon_anim
p57
aaF69.824951336267191
aF-76.556153630915304
aF-8.9604901412058524
aF-44.190260067239869
aF18.575673900769207
aF176.63169592159383
aF0
aF0
aF0
aF0
aF0
aF0
aF0
aF0
aF0
aa(lp58
Vik_elbow_r_anim
p59
a(lp60
VtranslateX
p61
aVtranslateY
p62
aVtranslateZ
p63
aaF-10.273859314884671
aF-84.751655650803713
aF-12.463466287253848
aa(lp64
Vfk_arm_r_anim
p65
a(lp66
VtranslateX
p67
aVtranslateY
p68
aVtranslateZ
p69
aVrotateX
p70
aVrotateY
p71
aVrotateZ
p72
aaF0
aF0
aF0
aF58.477864453773222
aF38.748422723132997
aF28.171672985400452
aa(lp73
Vfk_elbow_r_anim
p74
a(lp75
VtranslateX
p76
aVtranslateY
p77
aVtranslateZ
p78
aVrotateX
p79
aVrotateY
p80
aVrotateZ
p81
aaF0
aF0
aF0
aF-0.52588024302490266
aF-2.6614201973991678
aF-51.776411130171034
aa(lp82
Vfk_wrist_r_anim
p83
a(lp84
VtranslateX
p85
aVtranslateY
p86
aVtranslateZ
p87
aVrotateX
p88
aVrotateY
p89
aVrotateZ
p90
aaF0
aF0
aF0
aF-32.013238781316176
aF-15.034117222774677
aF3.0175756452272124
aa(lp91
Vclavicle_r_anim
p92
a(lp93
VtranslateX
p94
aVtranslateY
p95
aVtranslateZ
p96
aVautoShoulders
p97
aaF0.78355342249074145
aF-7.1817353520117848
aF7.4494306164647792
aF0
aa(lp98
Vik_wrist_l_anim
p99
a(lp100
VtranslateX
p101
aVtranslateY
p102
aVtranslateZ
p103
aVrotateX
p104
aVrotateY
p105
aVrotateZ
p106
aVstretch
p107
aVsquash
p108
aVstretchBias
p109
aVside
p110
aVmid_bend
p111
aVmid_swivel
p112
aVtip_pivot
p113
aVtip_swivel
p114
aaF-52.714832610835614
aF-31.075872224085451
aF-49.429119654223129
aF-19.51574878334176
aF41.431503580457289
aF-19.866137757150423
aF0
aF0
aF0
aF0
aF20.5
aF29.599999999999998
aF0
aF0
aa(lp115
Vik_elbow_l_anim
p116
a(lp117
VtranslateX
p118
aVtranslateY
p119
aVtranslateZ
p120
aaF-29.224140108850634
aF67.014957595664441
aF21.887747468516572
aa(lp121
Vfk_arm_l_anim
p122
a(lp123
VtranslateX
p124
aVtranslateY
p125
aVtranslateZ
p126
aVrotateX
p127
aVrotateY
p128
aVrotateZ
p129
aaF0
aF0
aF0
aF57.634108987162826
aF37.367093834882816
aF15.899168054337922
aa(lp130
Vfk_elbow_l_anim
p131
a(lp132
VtranslateX
p133
aVtranslateY
p134
aVtranslateZ
p135
aVrotateX
p136
aVrotateY
p137
aVrotateZ
p138
aaF0
aF0
aF0
aF0.098543634370746272
aF-12.68455247493446
aF-52.590294549564618
aa(lp139
Vfk_wrist_l_anim
p140
a(lp141
VtranslateX
p142
aVtranslateY
p143
aVtranslateZ
p144
aVrotateX
p145
aVrotateY
p146
aVrotateZ
p147
aaF0
aF0
aF0
aF-8.8492815014959376
aF5.0842017885019306
aF3.0441348725127937
aa(lp148
Vclavicle_l_anim
p149
a(lp150
VtranslateX
p151
aVtranslateY
p152
aVtranslateZ
p153
aVautoShoulders
p154
aaF0
aF0
aF0
aF0.29999999999999999
aa(lp155
Vhip_anim
p156
a(lp157
VtranslateX
p158
aVtranslateY
p159
aVtranslateZ
p160
aVrotateX
p161
aVrotateY
p162
aVrotateZ
p163
aVlCalfTwistCtrlVis
p164
aVrCalfTwistCtrlVis
p165
aVautoHips
p166
aaF0
aF0
aF0
aF0
aF0
aF0
aI00
aI00
aF0
aa(lp167
Vbody_anim
p168
a(lp169
VtranslateX
p170
aVtranslateY
p171
aVtranslateZ
p172
aVrotateX
p173
aVrotateY
p174
aVrotateZ
p175
aaF-12.471395521947921
aF-3.3647914597890969
aF-1.7380877710848543
aF-8.4754010318012991
aF4.303875738758892
aF-15.676138450130935
aa(lp176
Vspine_01_anim
p177
a(lp178
Vlength
p179
aVtranslateY
p180
aVtranslateZ
p181
aVrotateX
p182
aVrotateY
p183
aVrotateZ
p184
aaF0
aF0
aF0
aF-2.8645823848273446
aF3.4043455039764146
aF-8.9047847810322747
aa(lp185
Vspine_02_anim
p186
a(lp187
Vlength
p188
aVtranslateY
p189
aVtranslateZ
p190
aVrotateX
p191
aVrotateY
p192
aVrotateZ
p193
aaF0
aF0
aF0
aF-11.016906856808765
aF1.4471045956401312
aF-2.5579365148973103
aa(lp194
Vspine_03_anim
p195
a(lp196
Vlength
p197
aVtranslateY
p198
aVtranslateZ
p199
aVrotateX
p200
aVrotateY
p201
aVrotateZ
p202
aaF0
aF0
aF0
aF-10.921502734622154
aF0.85887937605029308
aF-2.9517195710192334
aa(lp203
Vmid_ik_anim
p204
a(lp205
VtranslateX
p206
aVtranslateY
p207
aVtranslateZ
p208
aVrotateX
p209
aVrotateY
p210
aVrotateZ
p211
aaF1.1845272869069468
aF-0.54725885493894755
aF0.35238830849783959
aF20.270900677426546
aF-1.7874534614354931
aF0.74967162595018244
aa(lp212
Vchest_ik_anim
p213
a(lp214
VtranslateX
p215
aVtranslateY
p216
aVtranslateZ
p217
aVrotateX
p218
aVrotateY
p219
aVrotateZ
p220
aVstretch
p221
aVsquash
p222
aVtwist_amount
p223
aVautoSpine
p224
aVrotationInfluence
p225
aaF0.35214178164535553
aF-3.3625155906008906
aF0.76340139136076623
aF-4.8538190599895845
aF0.44844652856786144
aF-0.5521315277004849
aF0
aF0
aF1
aF0
aF0.25
aa(lp226
Vweapon_anim
p227
a(lp228
VtranslateX
p229
aVtranslateY
p230
aVtranslateZ
p231
aVrotateX
p232
aVrotateY
p233
aVrotateZ
p234
aVscaleX
p235
aVscaleY
p236
aVscaleZ
p237
aVspace_ik_wrist_l_anim
p238
aaF-36.537633814426918
aF-17.589826986191376
aF-1.3621131990691282
aF36.121615174618348
aF-38.220126706957174
aF351.40946573348992
aF1
aF1
aF1
aF0
aa.