(lp1
(lp2
S'fk_clavicle_r_anim'
p3
a(lp4
VtranslateX
p5
aVtranslateY
p6
aVtranslateZ
p7
aVrotateX
p8
aVrotateY
p9
aVrotateZ
p10
aaF9.0931513874181746e-07
aF-8.1420258142284041e-06
aF0.00011724835644599807
aF0
aF0
aF0
aa(lp11
S'fk_clavicle_l_anim'
p12
a(lp13
VtranslateX
p14
aVtranslateY
p15
aVtranslateZ
p16
aVrotateX
p17
aVrotateY
p18
aVrotateZ
p19
aaF9.0926841167515704e-07
aF-8.1420848716540206e-06
aF0.00011724794947554074
aF0
aF0
aF0
aa(lp20
S'head_fk_anim'
p21
a(lp22
VtranslateX
p23
aVtranslateY
p24
aVtranslateZ
p25
aVrotateX
p26
aVrotateY
p27
aVrotateZ
p28
aVscaleX
p29
aVscaleY
p30
aVscaleZ
p31
aVfkOrientation
p32
aaF0
aF0
aF0
aF-8.3272297651760923
aF-7.4393030318133375
aF6.8787625015970111
aF1
aF1
aF1
aI0
aa(lp33
S'neck_01_fk_anim'
p34
a(lp35
VtranslateX
p36
aVtranslateY
p37
aVtranslateZ
p38
aVrotateX
p39
aVrotateY
p40
aVrotateZ
p41
aVscaleX
p42
aVscaleY
p43
aVscaleZ
p44
aVfkOrientation
p45
aaF0
aF0
aF0
aF-13.799896355430507
aF1.0882281564343312
aF-4.505042380390325
aF1
aF1
aF1
aI0
aa(lp46
S'neck_02_fk_anim'
p47
a(lp48
VtranslateX
p49
aVtranslateY
p50
aVtranslateZ
p51
aVrotateX
p52
aVrotateY
p53
aVrotateZ
p54
aVscaleX
p55
aVscaleY
p56
aVscaleZ
p57
aaF0
aF0
aF0
aF7.7285650669392574
aF1.5721971436494426
aF2.0611678842242496
aF1
aF1
aF1
aa(lp58
S'spine_01_anim'
p59
a(lp60
Vlength
p61
aVtranslateY
p62
aVtranslateZ
p63
aVrotateX
p64
aVrotateY
p65
aVrotateZ
p66
aaF0
aF0
aF0
aF6.6285855496411905
aF-1.4689741574378059
aF-2.7909881316047396
aa(lp67
S'spine_02_anim'
p68
a(lp69
Vlength
p70
aVtranslateY
p71
aVtranslateZ
p72
aVrotateX
p73
aVrotateY
p74
aVrotateZ
p75
aaF0
aF0
aF0
aF13.219190007582247
aF-3.1044786966570945
aF-5.8306078992023069
aa(lp76
S'spine_03_anim'
p77
a(lp78
Vlength
p79
aVtranslateY
p80
aVtranslateZ
p81
aVrotateX
p82
aVrotateY
p83
aVrotateZ
p84
aaF0
aF0
aF0
aF13.22348044650175
aF-3.0858091721067966
aF-5.8326573621037614
aa(lp85
S'mid_ik_anim'
p86
a(lp87
VtranslateX
p88
aVtranslateY
p89
aVtranslateZ
p90
aVrotateX
p91
aVrotateY
p92
aVrotateZ
p93
aaF1.1845272869069468
aF-0.54725885493894755
aF0.35238830849783959
aF20.270900677426553
aF-1.7874534614354927
aF0.74967162595018288
aa(lp94
S'chest_ik_anim'
p95
a(lp96
VtranslateX
p97
aVtranslateY
p98
aVtranslateZ
p99
aVrotateX
p100
aVrotateY
p101
aVrotateZ
p102
aVstretch
p103
aVsquash
p104
aVtwist_amount
p105
aVautoSpine
p106
aVrotationInfluence
p107
aaF0.35214178164535553
aF-3.3625155906008906
aF0.76340139136076623
aF-4.8538191532077937
aF0.44844652856785661
aF-0.55213152770048501
aF0
aF0
aF1
aF0
aF0.25
aa(lp108
S'body_anim'
p109
a(lp110
VtranslateX
p111
aVtranslateY
p112
aVtranslateZ
p113
aVrotateX
p114
aVrotateY
p115
aVrotateZ
p116
aaF-20.132444370455765
aF-0.0085284008303017911
aF3.1974918177329079
aF15.411907303349061
aF-2.0177977356518682
aF-11.951205341336371
aa(lp117
S'hip_anim'
p118
a(lp119
VtranslateX
p120
aVtranslateY
p121
aVtranslateZ
p122
aVrotateX
p123
aVrotateY
p124
aVrotateZ
p125
aVlCalfTwistCtrlVis
p126
aVrCalfTwistCtrlVis
p127
aVautoHips
p128
aaF0
aF0
aF0
aF-0
aF0
aF-0
aI00
aI00
aF0
aa(lp129
S'clavicle_l_anim'
p130
a(lp131
VtranslateX
p132
aVtranslateY
p133
aVtranslateZ
p134
aVautoShoulders
p135
aaF-2.6604132595193333
aF2.8928716137281132
aF13.428565411885106
aF0.29999999999999999
aa(lp136
S'clavicle_r_anim'
p137
a(lp138
VtranslateX
p139
aVtranslateY
p140
aVtranslateZ
p141
aVautoShoulders
p142
aaF0.78355342249074222
aF-7.1817353520117857
aF7.4494306164647792
aF0
aa(lp143
S'fk_arm_l_anim'
p144
a(lp145
VtranslateX
p146
aVtranslateY
p147
aVtranslateZ
p148
aVrotateX
p149
aVrotateY
p150
aVrotateZ
p151
aaF0
aF0
aF0
aF82.200542418945304
aF25.651268897690422
aF56.344851099110791
aa(lp152
S'fk_arm_r_anim'
p153
a(lp154
VtranslateX
p155
aVtranslateY
p156
aVtranslateZ
p157
aVrotateX
p158
aVrotateY
p159
aVrotateZ
p160
aaF0
aF0
aF0
aF5.2647079415632758
aF-44.325188129068657
aF-37.672156876882021
aa(lp161
S'fk_elbow_l_anim'
p162
a(lp163
VtranslateX
p164
aVtranslateY
p165
aVtranslateZ
p166
aVrotateX
p167
aVrotateY
p168
aVrotateZ
p169
aaF0
aF0
aF0
aF4.3374205784114901
aF-2.0748912166940174
aF-79.958845559617316
aa(lp170
S'fk_elbow_r_anim'
p171
a(lp172
VtranslateX
p173
aVtranslateY
p174
aVtranslateZ
p175
aVrotateX
p176
aVrotateY
p177
aVrotateZ
p178
aaF0
aF0
aF0
aF14.554635109561946
aF-3.0410136641880614
aF-91.39407011649628
aa(lp179
S'fk_wrist_l_anim'
p180
a(lp181
VtranslateX
p182
aVtranslateY
p183
aVtranslateZ
p184
aVrotateX
p185
aVrotateY
p186
aVrotateZ
p187
aaF0
aF0
aF0
aF-55.701565782060051
aF-34.652337222787665
aF-21.658742411455609
aa(lp188
S'fk_wrist_r_anim'
p189
a(lp190
VtranslateX
p191
aVtranslateY
p192
aVtranslateZ
p193
aVrotateX
p194
aVrotateY
p195
aVrotateZ
p196
aaF0
aF0
aF0
aF-34.685762515675087
aF4.187762742638399
aF-11.291353813803298
aa(lp197
S'ik_elbow_l_anim'
p198
a(lp199
VtranslateX
p200
aVtranslateY
p201
aVtranslateZ
p202
aaF-48.50934609687674
aF67.014957595664427
aF8.683482601838028
aa(lp203
S'ik_elbow_r_anim'
p204
a(lp205
VtranslateX
p206
aVtranslateY
p207
aVtranslateZ
p208
aaF-10.034074764145398
aF-84.751655650803727
aF-25.667731153932305
aa(lp209
S'ik_wrist_l_anim'
p210
a(lp211
VtranslateX
p212
aVtranslateY
p213
aVtranslateZ
p214
aVrotateX
p215
aVrotateY
p216
aVrotateZ
p217
aVstretch
p218
aVsquash
p219
aVstretchBias
p220
aVside
p221
aVmid_bend
p222
aVmid_swivel
p223
aVtip_pivot
p224
aVtip_swivel
p225
aVspace_weapon_anim
p226
aaF-54.012336142485864
aF32.769764186078163
aF-43.403094682020935
aF12.981354730815626
aF18.979944263260887
aF94.856218339439053
aF0
aF0
aF0
aF0
aF20.5
aF18.099999999999998
aF0
aF0
aF0
aa(lp227
S'ik_wrist_r_anim'
p228
a(lp229
VtranslateX
p230
aVtranslateY
p231
aVtranslateZ
p232
aVrotateX
p233
aVrotateY
p234
aVrotateZ
p235
aVstretch
p236
aVsquash
p237
aVstretchBias
p238
aVside
p239
aVmid_bend
p240
aVmid_swivel
p241
aVtip_pivot
p242
aVtip_swivel
p243
aaF70.064735887006464
aF-76.556153630915304
aF-22.16475500788431
aF-44.190260067239926
aF18.575673900769207
aF176.63169592159383
aF0
aF0
aF0
aF0
aF0
aF0
aF0
aF0
aa(lp244
S'fk_thigh_l_anim'
p245
a(lp246
VrotateX
p247
aVrotateY
p248
aVrotateZ
p249
aaF8.8272476810334108
aF17.618550299620949
aF69.554179727330848
aa(lp250
S'fk_thigh_r_anim'
p251
a(lp252
VrotateX
p253
aVrotateY
p254
aVrotateZ
p255
aaF9.7686937870175932
aF-8.6421458350627507
aF-3.0157928996603274
aa(lp256
S'fk_calf_l_anim'
p257
a(lp258
VrotateX
p259
aVrotateY
p260
aVrotateZ
p261
aaF8.3093468414746567
aF-9.6230980941256465
aF-47.706399992466551
aa(lp262
S'fk_calf_r_anim'
p263
a(lp264
VrotateX
p265
aVrotateY
p266
aVrotateZ
p267
aaF0.52631165229767607
aF4.2130709621126208
aF-44.496436720086891
aa(lp268
S'fk_foot_l_anim'
p269
a(lp270
VrotateX
p271
aVrotateY
p272
aVrotateZ
p273
aaF-38.38470300981971
aF0.68114294008791065
aF-9.6772499872370759
aa(lp274
S'fk_foot_r_anim'
p275
a(lp276
VrotateX
p277
aVrotateY
p278
aVrotateZ
p279
aaF-21.219704964086862
aF3.7039671259597808
aF17.52864891784407
aa(lp280
S'fk_ball_l_anim'
p281
a(lp282
VrotateX
p283
aVrotateY
p284
aVrotateZ
p285
aaF-0.0048436494544419418
aF0.0085100866855836489
aF0.31462460756300453
aa(lp286
S'fk_ball_r_anim'
p287
a(lp288
VrotateX
p289
aVrotateY
p290
aVrotateZ
p291
aaF-0.043767139315566382
aF-0.024487476796045255
aF-0.77028751373299253
aa(lp292
S'ik_foot_anim_l'
p293
a(lp294
VtranslateX
p295
aVtranslateY
p296
aVtranslateZ
p297
aVrotateX
p298
aVrotateY
p299
aVrotateZ
p300
aVknee_twist
p301
aVstretch
p302
aVsquash
p303
aVtoeCtrlVis
p304
aVstretchBias
p305
aaF1.8627065686458368
aF-31.113965548941202
aF-0.14192012890708713
aF0.41818001036277896
aF0.020338284512198278
aF-26.756025204856204
aF-2
aF0
aF0
aI00
aF0
aa(lp306
S'ik_foot_anim_r'
p307
a(lp308
VtranslateX
p309
aVtranslateY
p310
aVtranslateZ
p311
aVrotateX
p312
aVrotateY
p313
aVrotateZ
p314
aVknee_twist
p315
aVstretch
p316
aVsquash
p317
aVtoeCtrlVis
p318
aVstretchBias
p319
aaF-28.896000000000001
aF40.145000000000003
aF6.1449999999999996
aF37.955969492162787
aF9.628503730983363
aF-14.189094413422284
aF-2
aF0
aF0
aI00
aF0
aa(lp320
S'heel_ctrl_l'
p321
a(lp322
VrotateX
p323
aVrotateY
p324
aVrotateZ
p325
aVheelPivot
p326
aVballPivot
p327
aaF0
aF-0
aF0
aF0
aF0
aa(lp328
S'heel_ctrl_r'
p329
a(lp330
VrotateX
p331
aVrotateY
p332
aVrotateZ
p333
aVheelPivot
p334
aVballPivot
p335
aaF0
aF-0
aF0
aF0
aF0
aa(lp336
S'toe_wiggle_ctrl_l'
p337
a(lp338
VrotateX
p339
aVrotateY
p340
aVrotateZ
p341
aaF0
aF-0
aF0
aa(lp342
S'toe_wiggle_ctrl_r'
p343
a(lp344
VrotateX
p345
aVrotateY
p346
aVrotateZ
p347
aaF3.0334308937804826
aF-2.1392660929678597
aF18.606530469714397
aa(lp348
S'toe_tip_ctrl_l'
p349
a(lp350
VrotateX
p351
aVrotateY
p352
aVrotateZ
p353
aaF0
aF-0
aF0
aa(lp354
S'toe_tip_ctrl_r'
p355
a(lp356
VrotateX
p357
aVrotateY
p358
aVrotateZ
p359
aaF0
aF0.61604999437175034
aF0
aa(lp360
S'master_anim'
p361
a(lp362
VtranslateX
p363
aVtranslateY
p364
aVtranslateZ
p365
aVrotateX
p366
aVrotateY
p367
aVrotateZ
p368
aaF0
aF0
aF0
aF0
aF0
aF0
aa(lp369
S'offset_anim'
p370
a(lp371
VtranslateX
p372
aVtranslateY
p373
aVtranslateZ
p374
aVrotateX
p375
aVrotateY
p376
aVrotateZ
p377
aaF0
aF0
aF0
aF0
aF0
aF0
aa(lp378
S'root_anim'
p379
a(lp380
VtranslateX
p381
aVtranslateY
p382
aVtranslateZ
p383
aVrotateX
p384
aVrotateY
p385
aVrotateZ
p386
aaF0
aF0
aF0
aF0
aF0
aF0
aa(lp387
S'upperarm_l_twist_anim'
p388
a(lp389
VtranslateX
p390
aVtranslateY
p391
aVtranslateZ
p392
aVrotateX
p393
aVrotateY
p394
aVrotateZ
p395
aVscaleX
p396
aVscaleY
p397
aVscaleZ
p398
aaF0
aF0
aF0
aF0
aF0
aF0
aF1
aF1
aF1
aa(lp399
S'upperarm_l_twist_2_anim'
p400
a(lp401
VtranslateX
p402
aVtranslateY
p403
aVtranslateZ
p404
aVrotateX
p405
aVrotateY
p406
aVrotateZ
p407
aVscaleX
p408
aVscaleY
p409
aVscaleZ
p410
aaF0
aF0
aF0
aF0
aF0
aF0
aF1
aF1
aF1
aa(lp411
S'upperarm_r_twist_anim'
p412
a(lp413
VtranslateX
p414
aVtranslateY
p415
aVtranslateZ
p416
aVrotateX
p417
aVrotateY
p418
aVrotateZ
p419
aVscaleX
p420
aVscaleY
p421
aVscaleZ
p422
aaF0
aF-1.3682214241088474e-15
aF2.1891542785741559e-14
aF0
aF0
aF0
aF1
aF1
aF1
aa(lp423
S'upperarm_r_twist_2_anim'
p424
a(lp425
VtranslateX
p426
aVtranslateY
p427
aVtranslateZ
p428
aVrotateX
p429
aVrotateY
p430
aVrotateZ
p431
aVscaleX
p432
aVscaleY
p433
aVscaleZ
p434
aaF-5.4728856964353897e-15
aF-1.3682214241088474e-15
aF0
aF0
aF0
aF0
aF1
aF1
aF1
aa(lp435
S'lowerarm_l_twist_anim'
p436
a(lp437
VtranslateX
p438
aVtranslateY
p439
aVtranslateZ
p440
aVrotateX
p441
aVrotateY
p442
aVrotateZ
p443
aaF0
aF0
aF0
aF0
aF0
aF0
aa(lp444
S'lowerarm_r_twist_anim'
p445
a(lp446
VtranslateX
p447
aVtranslateY
p448
aVtranslateZ
p449
aVrotateX
p450
aVrotateY
p451
aVrotateZ
p452
aaF0
aF0
aF0
aF-4.7463213747306936
aF0
aF0
aa(lp453
S'l_thigh_twist_01_anim'
p454
a(lp455
VtranslateX
p456
aVtranslateY
p457
aVtranslateZ
p458
aVrotateX
p459
aVrotateY
p460
aVrotateZ
p461
aVscaleX
p462
aVscaleY
p463
aVscaleZ
p464
aaF0
aF6.8411071205442371e-16
aF-2.7364428482176948e-15
aF0
aF0
aF0
aF1
aF1
aF1
aa(lp465
S'r_thigh_twist_01_anim'
p466
a(lp467
VtranslateX
p468
aVtranslateY
p469
aVtranslateZ
p470
aVrotateX
p471
aVrotateY
p472
aVrotateZ
p473
aVscaleX
p474
aVscaleY
p475
aVscaleZ
p476
aaF0
aF-6.8411071205442371e-16
aF0
aF0
aF0
aF0
aF1
aF1
aF1
aa(lp477
S'pinky_finger_fk_ctrl_1_l'
p478
a(lp479
VtranslateX
p480
aVtranslateY
p481
aVtranslateZ
p482
aVrotateX
p483
aVrotateY
p484
aVrotateZ
p485
aVsticky
p486
aaF-0.28448754866970072
aF0.19948691675394606
aF-0.88082772337635151
aF5.1223742911603258
aF7.2538026665390127
aF35.377002607526471
aF0
aa(lp487
S'pinky_finger_fk_ctrl_1_r'
p488
a(lp489
VtranslateX
p490
aVtranslateY
p491
aVtranslateZ
p492
aVrotateX
p493
aVrotateY
p494
aVrotateZ
p495
aVsticky
p496
aaF0
aF0
aF0
aF-0.0024449551096603888
aF9.8425285824317279e-05
aF65.37644176950802
aF0
aa(lp497
S'pinky_finger_fk_ctrl_2_l'
p498
a(lp499
VtranslateX
p500
aVtranslateY
p501
aVtranslateZ
p502
aVrotateX
p503
aVrotateY
p504
aVrotateZ
p505
aaF0
aF0
aF0
aF-1.3787721053776962e-06
aF9.4787915988669299e-23
aF55.867673741451696
aa(lp506
S'pinky_finger_fk_ctrl_2_r'
p507
a(lp508
VtranslateX
p509
aVtranslateY
p510
aVtranslateZ
p511
aVrotateX
p512
aVrotateY
p513
aVrotateZ
p514
aaF0
aF0
aF0
aF0.55129554284868731
aF0.45844398444277235
aF79.56074937716636
aa(lp515
S'pinky_finger_fk_ctrl_3_l'
p516
a(lp517
VtranslateX
p518
aVtranslateY
p519
aVtranslateZ
p520
aVrotateX
p521
aVrotateY
p522
aVrotateZ
p523
aaF0
aF0
aF0
aF1.3764346708893762e-06
aF9.4787915988669323e-23
aF49.774601852955406
aa(lp524
S'pinky_finger_fk_ctrl_3_r'
p525
a(lp526
VtranslateX
p527
aVtranslateY
p528
aVtranslateZ
p529
aVrotateX
p530
aVrotateY
p531
aVrotateZ
p532
aaF0
aF0
aF0
aF-3.3207569181786316
aF2.68579680261012
aF102.44580008596111
aa(lp533
S'ring_finger_fk_ctrl_1_l'
p534
a(lp535
VtranslateX
p536
aVtranslateY
p537
aVtranslateZ
p538
aVrotateX
p539
aVrotateY
p540
aVrotateZ
p541
aVsticky
p542
aaF0
aF0
aF0
aF3.1376714934508119
aF7.9407269201271546
aF54.862591504947027
aF0
aa(lp543
S'ring_finger_fk_ctrl_1_r'
p544
a(lp545
VtranslateX
p546
aVtranslateY
p547
aVtranslateZ
p548
aVrotateX
p549
aVrotateY
p550
aVrotateZ
p551
aVsticky
p552
aaF0
aF0
aF0
aF-0.0024788905339880691
aF0.00019877245377010661
aF73.475318827537848
aF0
aa(lp553
S'ring_finger_fk_ctrl_2_l'
p554
a(lp555
VtranslateX
p556
aVtranslateY
p557
aVtranslateZ
p558
aVrotateX
p559
aVrotateY
p560
aVrotateZ
p561
aaF0
aF0
aF0
aF0
aF-0
aF54.736663769749129
aa(lp562
S'ring_finger_fk_ctrl_2_r'
p563
a(lp564
VtranslateX
p565
aVtranslateY
p566
aVtranslateZ
p567
aVrotateX
p568
aVrotateY
p569
aVrotateZ
p570
aaF0
aF0
aF0
aF0.54026008077883436
aF0.47139878169843791
aF78.200704338231688
aa(lp571
S'ring_finger_fk_ctrl_3_l'
p572
a(lp573
VtranslateX
p574
aVtranslateY
p575
aVtranslateZ
p576
aVrotateX
p577
aVrotateY
p578
aVrotateZ
p579
aaF0
aF0
aF0
aF0
aF-0
aF57.460286194286233
aa(lp580
S'ring_finger_fk_ctrl_3_r'
p581
a(lp582
VtranslateX
p583
aVtranslateY
p584
aVtranslateZ
p585
aVrotateX
p586
aVrotateY
p587
aVrotateZ
p588
aaF0
aF0
aF0
aF0.67328421710686814
aF0.24654074927368763
aF99.194930467426119
aa(lp589
S'middle_finger_fk_ctrl_1_l'
p590
a(lp591
VtranslateX
p592
aVtranslateY
p593
aVtranslateZ
p594
aVrotateX
p595
aVrotateY
p596
aVrotateZ
p597
aVsticky
p598
aaF0
aF0
aF0
aF-0.00044771247571781091
aF4.6328199258865776
aF61.680952050747052
aF0
aa(lp599
S'middle_finger_fk_ctrl_1_r'
p600
a(lp601
VtranslateX
p602
aVtranslateY
p603
aVtranslateZ
p604
aVrotateX
p605
aVrotateY
p606
aVrotateZ
p607
aVsticky
p608
aaF0
aF0
aF0
aF-0.0025388725599052842
aF-2.2935219920689776e-05
aF71.398075720596538
aF0
aa(lp609
S'middle_finger_fk_ctrl_2_l'
p610
a(lp611
VtranslateX
p612
aVtranslateY
p613
aVtranslateZ
p614
aVrotateX
p615
aVrotateY
p616
aVrotateZ
p617
aaF0
aF0
aF0
aF0
aF-0
aF47.684837521621425
aa(lp618
S'middle_finger_fk_ctrl_2_r'
p619
a(lp620
VtranslateX
p621
aVtranslateY
p622
aVtranslateZ
p623
aVrotateX
p624
aVrotateY
p625
aVrotateZ
p626
aaF0
aF0
aF0
aF0.55225569440898847
aF0.45728689475634959
aF79.680788945877339
aa(lp627
S'middle_finger_fk_ctrl_3_l'
p628
a(lp629
VtranslateX
p630
aVtranslateY
p631
aVtranslateZ
p632
aVrotateX
p633
aVrotateY
p634
aVrotateZ
p635
aaF0
aF0
aF0
aF0
aF-0
aF50.408461337602084
aa(lp636
S'middle_finger_fk_ctrl_3_r'
p637
a(lp638
VtranslateX
p639
aVtranslateY
p640
aVtranslateZ
p641
aVrotateX
p642
aVrotateY
p643
aVrotateZ
p644
aaF0
aF0
aF0
aF4.1343070639287935
aF3.7013156672062468
aF108.31126473511327
aa(lp645
S'index_finger_fk_ctrl_1_l'
p646
a(lp647
VtranslateX
p648
aVtranslateY
p649
aVtranslateZ
p650
aVrotateX
p651
aVrotateY
p652
aVrotateZ
p653
aVsticky
p654
aaF0
aF0
aF0
aF-11.521205606115631
aF7.5235153796454775
aF61.057322190316533
aF0
aa(lp655
S'index_finger_fk_ctrl_1_r'
p656
a(lp657
VtranslateX
p658
aVtranslateY
p659
aVtranslateZ
p660
aVrotateX
p661
aVrotateY
p662
aVrotateZ
p663
aVsticky
p664
aaF0
aF0
aF0
aF-13.673381985967559
aF2.9395776143797101
aF52.126696797049561
aF0
aa(lp665
S'index_finger_fk_ctrl_2_l'
p666
a(lp667
VtranslateX
p668
aVtranslateY
p669
aVtranslateZ
p670
aVrotateX
p671
aVrotateY
p672
aVrotateZ
p673
aaF0
aF0
aF0
aF0
aF-0
aF39.586352827998283
aa(lp674
S'index_finger_fk_ctrl_2_r'
p675
a(lp676
VtranslateX
p677
aVtranslateY
p678
aVtranslateZ
p679
aVrotateX
p680
aVrotateY
p681
aVrotateZ
p682
aaF0
aF0
aF0
aF0
aF-0
aF90.083269433246215
aa(lp683
S'index_finger_fk_ctrl_3_l'
p684
a(lp685
VtranslateX
p686
aVtranslateY
p687
aVtranslateZ
p688
aVrotateX
p689
aVrotateY
p690
aVrotateZ
p691
aaF0
aF0
aF0
aF-1.4871696543175743
aF-2.6895179822327617
aF67.749002871603793
aa(lp692
S'index_finger_fk_ctrl_3_r'
p693
a(lp694
VtranslateX
p695
aVtranslateY
p696
aVtranslateZ
p697
aVrotateX
p698
aVrotateY
p699
aVrotateZ
p700
aaF0
aF0
aF0
aF0
aF-0
aF99.269736861817123
aa(lp701
S'thumb_finger_fk_ctrl_1_l'
p702
a(lp703
VtranslateX
p704
aVtranslateY
p705
aVtranslateZ
p706
aVrotateX
p707
aVrotateY
p708
aVrotateZ
p709
aVsticky
p710
aaF0
aF0
aF0
aF32.521334412846038
aF35.179399433407362
aF3.0634641281025834
aF0
aa(lp711
S'thumb_finger_fk_ctrl_1_r'
p712
a(lp713
VtranslateX
p714
aVtranslateY
p715
aVtranslateZ
p716
aVrotateX
p717
aVrotateY
p718
aVrotateZ
p719
aVsticky
p720
aaF0
aF0
aF0
aF20.002756661453901
aF14.321971150515571
aF16.313378895868933
aF0
aa(lp721
S'thumb_finger_fk_ctrl_2_l'
p722
a(lp723
VtranslateX
p724
aVtranslateY
p725
aVtranslateZ
p726
aVrotateX
p727
aVrotateY
p728
aVrotateZ
p729
aaF0
aF0
aF0
aF-8.5391079138565171
aF17.623117184942448
aF36.13379251229874
aa(lp730
S'thumb_finger_fk_ctrl_2_r'
p731
a(lp732
VtranslateX
p733
aVtranslateY
p734
aVtranslateZ
p735
aVrotateX
p736
aVrotateY
p737
aVrotateZ
p738
aaF0
aF0
aF0
aF-1.7532247795724965
aF13.723054660490289
aF6.9401104392970581
aa(lp739
S'thumb_finger_fk_ctrl_3_l'
p740
a(lp741
VtranslateX
p742
aVtranslateY
p743
aVtranslateZ
p744
aVrotateX
p745
aVrotateY
p746
aVrotateZ
p747
aaF0
aF0
aF0
aF-1.8957583197733876e-22
aF1.8516110497486739e-06
aF62.745112692736974
aa(lp748
S'thumb_finger_fk_ctrl_3_r'
p749
a(lp750
VtranslateX
p751
aVtranslateY
p752
aVtranslateZ
p753
aVrotateX
p754
aVrotateY
p755
aVrotateZ
p756
aaF0
aF0
aF0
aF-7.5596937150583834
aF-26.307085545096715
aF65.103737358606224
aa(lp757
S'index_l_ik_anim'
p758
a(lp759
VtranslateX
p760
aVtranslateY
p761
aVtranslateZ
p762
aVrotateX
p763
aVrotateY
p764
aVrotateZ
p765
aVpoleVectorVis
p766
aaF0
aF0
aF0
aF0
aF0
aF0
aF0
aa(lp767
S'index_r_ik_anim'
p768
a(lp769
VtranslateX
p770
aVtranslateY
p771
aVtranslateZ
p772
aVrotateX
p773
aVrotateY
p774
aVrotateZ
p775
aVpoleVectorVis
p776
aaF0
aF0
aF0
aF0
aF0
aF0
aF0
aa(lp777
S'middle_l_ik_anim'
p778
a(lp779
VtranslateX
p780
aVtranslateY
p781
aVtranslateZ
p782
aVrotateX
p783
aVrotateY
p784
aVrotateZ
p785
aVpoleVectorVis
p786
aaF0
aF0
aF0
aF0
aF0
aF0
aF0
aa(lp787
S'middle_r_ik_anim'
p788
a(lp789
VtranslateX
p790
aVtranslateY
p791
aVtranslateZ
p792
aVrotateX
p793
aVrotateY
p794
aVrotateZ
p795
aVpoleVectorVis
p796
aaF0
aF0
aF0
aF0
aF0
aF0
aF0
aa(lp797
S'ring_l_ik_anim'
p798
a(lp799
VtranslateX
p800
aVtranslateY
p801
aVtranslateZ
p802
aVrotateX
p803
aVrotateY
p804
aVrotateZ
p805
aVpoleVectorVis
p806
aaF0
aF0
aF0
aF0
aF0
aF0
aF0
aa(lp807
S'ring_r_ik_anim'
p808
a(lp809
VtranslateX
p810
aVtranslateY
p811
aVtranslateZ
p812
aVrotateX
p813
aVrotateY
p814
aVrotateZ
p815
aVpoleVectorVis
p816
aaF0
aF0
aF0
aF0
aF0
aF0
aF0
aa(lp817
S'pinky_l_ik_anim'
p818
a(lp819
VtranslateX
p820
aVtranslateY
p821
aVtranslateZ
p822
aVrotateX
p823
aVrotateY
p824
aVrotateZ
p825
aVpoleVectorVis
p826
aaF0
aF0
aF0
aF0
aF0
aF0
aF0
aa(lp827
S'pinky_r_ik_anim'
p828
a(lp829
VtranslateX
p830
aVtranslateY
p831
aVtranslateZ
p832
aVrotateX
p833
aVrotateY
p834
aVrotateZ
p835
aVpoleVectorVis
p836
aaF0
aF0
aF0
aF0
aF0
aF0
aF0
aa(lp837
S'thumb_l_ik_anim'
p838
a(lp839
VtranslateX
p840
aVtranslateY
p841
aVtranslateZ
p842
aVrotateX
p843
aVrotateY
p844
aVrotateZ
p845
aVpoleVectorVis
p846
aaF0
aF0
aF0
aF0
aF0
aF0
aF0
aa(lp847
S'thumb_r_ik_anim'
p848
a(lp849
VtranslateX
p850
aVtranslateY
p851
aVtranslateZ
p852
aVrotateX
p853
aVrotateY
p854
aVrotateZ
p855
aVpoleVectorVis
p856
aaF0
aF0
aF0
aF0
aF0
aF0
aF0
aa(lp857
S'index_l_poleVector'
p858
a(lp859
VtranslateX
p860
aVtranslateY
p861
aVtranslateZ
p862
aVrotateX
p863
aVrotateY
p864
aVrotateZ
p865
aaF0
aF0
aF0
aF0
aF0
aF0
aa(lp866
S'index_r_poleVector'
p867
a(lp868
VtranslateX
p869
aVtranslateY
p870
aVtranslateZ
p871
aVrotateX
p872
aVrotateY
p873
aVrotateZ
p874
aaF0
aF0
aF0
aF0
aF0
aF0
aa(lp875
S'middle_l_poleVector'
p876
a(lp877
VtranslateX
p878
aVtranslateY
p879
aVtranslateZ
p880
aVrotateX
p881
aVrotateY
p882
aVrotateZ
p883
aaF0
aF0
aF0
aF0
aF0
aF0
aa(lp884
S'middle_r_poleVector'
p885
a(lp886
VtranslateX
p887
aVtranslateY
p888
aVtranslateZ
p889
aVrotateX
p890
aVrotateY
p891
aVrotateZ
p892
aaF0
aF0
aF0
aF0
aF0
aF0
aa(lp893
S'ring_l_poleVector'
p894
a(lp895
VtranslateX
p896
aVtranslateY
p897
aVtranslateZ
p898
aVrotateX
p899
aVrotateY
p900
aVrotateZ
p901
aaF0
aF0
aF0
aF0
aF0
aF0
aa(lp902
S'ring_r_poleVector'
p903
a(lp904
VtranslateX
p905
aVtranslateY
p906
aVtranslateZ
p907
aVrotateX
p908
aVrotateY
p909
aVrotateZ
p910
aaF0
aF0
aF0
aF0
aF0
aF0
aa(lp911
S'pinky_l_poleVector'
p912
a(lp913
VtranslateX
p914
aVtranslateY
p915
aVtranslateZ
p916
aVrotateX
p917
aVrotateY
p918
aVrotateZ
p919
aaF0
aF0
aF0
aF0
aF0
aF0
aa(lp920
S'pinky_r_poleVector'
p921
a(lp922
VtranslateX
p923
aVtranslateY
p924
aVtranslateZ
p925
aVrotateX
p926
aVrotateY
p927
aVrotateZ
p928
aaF0
aF0
aF0
aF0
aF0
aF0
aa(lp929
S'thumb_l_poleVector'
p930
a(lp931
VtranslateX
p932
aVtranslateY
p933
aVtranslateZ
p934
aVrotateX
p935
aVrotateY
p936
aVrotateZ
p937
aaF0
aF0
aF0
aF0
aF0
aF0
aa(lp938
S'thumb_r_poleVector'
p939
a(lp940
VtranslateX
p941
aVtranslateY
p942
aVtranslateZ
p943
aVrotateX
p944
aVrotateY
p945
aVrotateZ
p946
aaF0
aF0
aF0
aF0
aF0
aF0
aa(lp947
S'l_global_ik_anim'
p948
a(lp949
VtranslateX
p950
aVtranslateY
p951
aVtranslateZ
p952
aVrotateX
p953
aVrotateY
p954
aVrotateZ
p955
aaF0
aF0
aF0
aF0
aF0
aF0
aa(lp956
S'r_global_ik_anim'
p957
a(lp958
VtranslateX
p959
aVtranslateY
p960
aVtranslateZ
p961
aVrotateX
p962
aVrotateY
p963
aVrotateZ
p964
aaF0
aF0
aF0
aF0
aF0
aF0
aa(lp965
S'Rig_Settings'
p966
a(lp967
Vspine_ik
p968
aVspine_fk
p969
aVlLegMode
p970
aVlThighTwistAmount
p971
aVlThighTwist2Amount
p972
aVllegTwistCtrlVis
p973
aVlCalfTwistAmount
p974
aVllegTwistCtrlVisCalf
p975
aVrLegMode
p976
aVrThighTwistAmount
p977
aVrThighTwist2Amount
p978
aVrlegTwistCtrlVis
p979
aVrCalfTwistAmount
p980
aVrlegTwistCtrlVisCalf
p981
aVlFkArmOrient
p982
aVlArmMode
p983
aVlClavMode
p984
aVlUpperarmTwistAmount
p985
aVlUpperarmTwist2Amount
p986
aVltwistCtrlVis
p987
aVltwistCtrlVisLower
p988
aVlForearmTwistAmount
p989
aVrFkArmOrient
p990
aVrArmMode
p991
aVrClavMode
p992
aVrUpperarmTwistAmount
p993
aVrUpperarmTwist2Amount
p994
aVrtwistCtrlVis
p995
aVrtwistCtrlVisLower
p996
aVrForearmTwistAmount
p997
aVback_sash_fk
p998
aVback_sash_ik
p999
aVback_sash_dynamic
p1000
aVhip_eyelet_front_l_fk
p1001
aVhip_eyelet_front_l_ik
p1002
aVhip_eyelet_front_l_dynamic
p1003
aVhip_eyelet_front_r_fk
p1004
aVhip_eyelet_front_r_ik
p1005
aVhip_eyelet_front_r_dynamic
p1006
aVhip_eyelet_rear_l_fk
p1007
aVhip_eyelet_rear_l_ik
p1008
aVhip_eyelet_rear_l_dynamic
p1009
aVhip_eyelet_rear_r_fk
p1010
aVhip_eyelet_rear_r_ik
p1011
aVhip_eyelet_rear_r_dynamic
p1012
aVloin_cloth_bk_fk
p1013
aVloin_cloth_bk_ik
p1014
aVloin_cloth_bk_dynamic
p1015
aVloin_cloth_fr_fk
p1016
aVloin_cloth_fr_ik
p1017
aVloin_cloth_fr_dynamic
p1018
aVpadawan_l_fk
p1019
aVpadawan_l_ik
p1020
aVpadawan_l_dynamic
p1021
aVpadawan_r_fk
p1022
aVpadawan_r_ik
p1023
aVpadawan_r_dynamic
p1024
aVponytail_fk
p1025
aVponytail_ik
p1026
aVponytail_dynamic
p1027
aVweapon_butt_fk
p1028
aVweapon_butt_ik
p1029
aVweapon_butt_dynamic
p1030
aaF1
aF0
aI1
aF1
aF0.59999999999999998
aI00
aF0.5
aI00
aI1
aF1
aF0.59999999999999998
aI00
aF0.5
aI00
aI0
aI1
aI1
aF0.90000000000000002
aF0.59999999999999998
aI00
aI00
aF0.5
aI0
aI1
aI1
aF0.90000000000000002
aF0.59999999999999998
aI00
aI00
aF0.5
aF1
aF0
aF0
aF1
aF0
aF0
aF1
aF0
aF0
aF1
aF0
aF0
aF1
aF0
aF0
aF1
aF0
aF0
aF1
aF0
aF0
aF1
aF0
aF0
aF1
aF0
aF0
aF1
aF0
aF0
aF1
aF0
aF0
aa(lp1031
S'calf_l_twist_anim'
p1032
a(lp1033
VtranslateX
p1034
aVtranslateY
p1035
aVtranslateZ
p1036
aVrotateX
p1037
aVrotateY
p1038
aVrotateZ
p1039
aaF0
aF0
aF0
aF0
aF0
aF0
aa(lp1040
S'calf_r_twist_anim'
p1041
a(lp1042
VtranslateX
p1043
aVtranslateY
p1044
aVtranslateZ
p1045
aVrotateX
p1046
aVrotateY
p1047
aVrotateZ
p1048
aaF0
aF0
aF0
aF0
aF0
aF0
aa(lp1049
Vback_sash_dyn_anim
p1050
a(lp1051
VtranslateX
p1052
aVtranslateY
p1053
aVtranslateZ
p1054
aVrotateX
p1055
aVrotateY
p1056
aVrotateZ
p1057
aVchainAttach
p1058
aVchainStartEnvelope
p1059
aVchainStartFrame
p1060
aVchainStiffness
p1061
aVchainDamping
p1062
aVchainGravity
p1063
aVchainIteration
p1064
aVchainCollide
p1065
aVchainWidthBase
p1066
aVchainWidthExtremity
p1067
aVchainCollideGround
p1068
aVchainCollideGroundHeight
p1069
aaF0
aF0
aF0
aF0
aF0
aF0
aI1
aF1
aF1
aF0.10000000000000001
aF0.20000000000000001
aF1
aI1
aI00
aF1
aF1
aI00
aF0
aa(lp1070
Vback_sash_ik_2_anim
p1071
a(lp1072
VtranslateX
p1073
aVtranslateY
p1074
aVtranslateZ
p1075
aVrotateX
p1076
aVrotateY
p1077
aVrotateZ
p1078
aaF0
aF0
aF0
aF0
aF0
aF0
aa(lp1079
Vback_sash_ik_3_anim
p1080
a(lp1081
VtranslateX
p1082
aVtranslateY
p1083
aVtranslateZ
p1084
aVrotateX
p1085
aVrotateY
p1086
aVrotateZ
p1087
aVclusterControlVis
p1088
aaF0
aF0
aF0
aF0
aF0
aF0
aI00
aa(lp1089
Vback_sash_ik_base_anim
p1090
a(lp1091
VtranslateX
p1092
aVtranslateY
p1093
aVtranslateZ
p1094
aVrotateX
p1095
aVrotateY
p1096
aVrotateZ
p1097
aVglobal_scale
p1098
aaF0
aF0
aF0
aF0
aF0
aF0
aF1
aa(lp1099
Vfk_back_sash_01_anim
p1100
a(lp1101
VtranslateX
p1102
aVtranslateY
p1103
aVtranslateZ
p1104
aVrotateX
p1105
aVrotateY
p1106
aVrotateZ
p1107
aVglobal_scale
p1108
aVlagMode
p1109
aaF0
aF0
aF0
aF0
aF0
aF0
aF1
aF0
aa(lp1110
Vback_sash_cv_0_anim
p1111
a(lp1112
VtranslateX
p1113
aVtranslateY
p1114
aVtranslateZ
p1115
aaF0
aF0
aF0
aa(lp1116
Vfk_back_sash_02_anim
p1117
a(lp1118
VtranslateX
p1119
aVtranslateY
p1120
aVtranslateZ
p1121
aVrotateX
p1122
aVrotateY
p1123
aVrotateZ
p1124
aaF0
aF0
aF0
aF0
aF0
aF0
aa(lp1125
Vback_sash_cv_1_anim
p1126
a(lp1127
VtranslateX
p1128
aVtranslateY
p1129
aVtranslateZ
p1130
aaF0
aF0
aF0
aa(lp1131
Vfk_back_sash_03_anim
p1132
a(lp1133
VtranslateX
p1134
aVtranslateY
p1135
aVtranslateZ
p1136
aVrotateX
p1137
aVrotateY
p1138
aVrotateZ
p1139
aaF0
aF0
aF0
aF0
aF0
aF0
aa(lp1140
Vback_sash_cv_2_anim
p1141
a(lp1142
VtranslateX
p1143
aVtranslateY
p1144
aVtranslateZ
p1145
aaF0
aF0
aF0
aa(lp1146
Vbracelet_A_l_anim
p1147
a(lp1148
VtranslateX
p1149
aVtranslateY
p1150
aVtranslateZ
p1151
aVrotateX
p1152
aVrotateY
p1153
aVrotateZ
p1154
aVscaleX
p1155
aVscaleY
p1156
aVscaleZ
p1157
aaF0
aF0
aF0
aF0
aF0
aF0
aF1
aF1
aF1
aa(lp1158
Vbracelet_B_l_anim
p1159
a(lp1160
VtranslateX
p1161
aVtranslateY
p1162
aVtranslateZ
p1163
aVrotateX
p1164
aVrotateY
p1165
aVrotateZ
p1166
aVscaleX
p1167
aVscaleY
p1168
aVscaleZ
p1169
aaF0
aF0
aF0
aF0
aF0
aF0
aF1
aF1
aF1
aa(lp1170
Vbracelet_C_l_anim
p1171
a(lp1172
VtranslateX
p1173
aVtranslateY
p1174
aVtranslateZ
p1175
aVrotateX
p1176
aVrotateY
p1177
aVrotateZ
p1178
aVscaleX
p1179
aVscaleY
p1180
aVscaleZ
p1181
aaF0
aF0
aF0
aF0
aF0
aF0
aF1
aF1
aF1
aa(lp1182
Veyeball_l_anim
p1183
a(lp1184
VtranslateX
p1185
aVtranslateY
p1186
aVtranslateZ
p1187
aVrotateX
p1188
aVrotateY
p1189
aVrotateZ
p1190
aVscaleX
p1191
aVscaleY
p1192
aVscaleZ
p1193
aaF0
aF0
aF0
aF0
aF0
aF0
aF1
aF1
aF1
aa(lp1194
Veyeball_r_anim
p1195
a(lp1196
VtranslateX
p1197
aVtranslateY
p1198
aVtranslateZ
p1199
aVrotateX
p1200
aVrotateY
p1201
aVrotateZ
p1202
aVscaleX
p1203
aVscaleY
p1204
aVscaleZ
p1205
aaF0
aF0
aF0
aF0
aF0
aF0
aF1
aF1
aF1
aa(lp1206
Veyebrow_in_l_anim
p1207
a(lp1208
VtranslateX
p1209
aVtranslateY
p1210
aVtranslateZ
p1211
aVrotateX
p1212
aVrotateY
p1213
aVrotateZ
p1214
aVscaleX
p1215
aVscaleY
p1216
aVscaleZ
p1217
aaF0
aF0
aF0
aF0
aF0
aF0
aF1
aF1
aF0.99999999999999989
aa(lp1218
Veyebrow_in_r_anim
p1219
a(lp1220
VtranslateX
p1221
aVtranslateY
p1222
aVtranslateZ
p1223
aVrotateX
p1224
aVrotateY
p1225
aVrotateZ
p1226
aVscaleX
p1227
aVscaleY
p1228
aVscaleZ
p1229
aaF0
aF0
aF0
aF0
aF0
aF0
aF1
aF1
aF1
aa(lp1230
Veyebrow_out_l_anim
p1231
a(lp1232
VtranslateX
p1233
aVtranslateY
p1234
aVtranslateZ
p1235
aVrotateX
p1236
aVrotateY
p1237
aVrotateZ
p1238
aVscaleX
p1239
aVscaleY
p1240
aVscaleZ
p1241
aaF0
aF0
aF0
aF0
aF0
aF0
aF1
aF1
aF1
aa(lp1242
Veyebrow_out_r_anim
p1243
a(lp1244
VtranslateX
p1245
aVtranslateY
p1246
aVtranslateZ
p1247
aVrotateX
p1248
aVrotateY
p1249
aVrotateZ
p1250
aVscaleX
p1251
aVscaleY
p1252
aVscaleZ
p1253
aaF0
aF0
aF0
aF0
aF0
aF0
aF1
aF1
aF1
aa(lp1254
Veyelid_bott_l_anim
p1255
a(lp1256
VtranslateX
p1257
aVtranslateY
p1258
aVtranslateZ
p1259
aVrotateX
p1260
aVrotateY
p1261
aVrotateZ
p1262
aVscaleX
p1263
aVscaleY
p1264
aVscaleZ
p1265
aaF0
aF0
aF0
aF0
aF0
aF0
aF1
aF1
aF1
aa(lp1266
Veyelid_bott_r_anim
p1267
a(lp1268
VtranslateX
p1269
aVtranslateY
p1270
aVtranslateZ
p1271
aVrotateX
p1272
aVrotateY
p1273
aVrotateZ
p1274
aVscaleX
p1275
aVscaleY
p1276
aVscaleZ
p1277
aaF0
aF0
aF0
aF0
aF0
aF0
aF1
aF1
aF1
aa(lp1278
Veyelid_top_l_anim
p1279
a(lp1280
VtranslateX
p1281
aVtranslateY
p1282
aVtranslateZ
p1283
aVrotateX
p1284
aVrotateY
p1285
aVrotateZ
p1286
aVscaleX
p1287
aVscaleY
p1288
aVscaleZ
p1289
aaF0
aF0
aF0
aF0
aF0
aF0
aF1
aF1
aF1
aa(lp1290
Veyelid_top_r_anim
p1291
a(lp1292
VtranslateX
p1293
aVtranslateY
p1294
aVtranslateZ
p1295
aVrotateX
p1296
aVrotateY
p1297
aVrotateZ
p1298
aVscaleX
p1299
aVscaleY
p1300
aVscaleZ
p1301
aaF0
aF0
aF0
aF0
aF0
aF0
aF1
aF1
aF1
aa(lp1302
Vhip_back_flaps_anim
p1303
a(lp1304
VtranslateX
p1305
aVtranslateY
p1306
aVtranslateZ
p1307
aVrotateX
p1308
aVrotateY
p1309
aVrotateZ
p1310
aVscaleX
p1311
aVscaleY
p1312
aVscaleZ
p1313
aaF0
aF-0.0040149279208189399
aF-0.060754214317860995
aF-0.20827987371630699
aF0
aF0
aF1
aF1
aF1
aa(lp1314
Vhip_eyelet_front_l_dyn_anim
p1315
a(lp1316
VtranslateX
p1317
aVtranslateY
p1318
aVtranslateZ
p1319
aVrotateX
p1320
aVrotateY
p1321
aVrotateZ
p1322
aVchainAttach
p1323
aVchainStartEnvelope
p1324
aVchainStartFrame
p1325
aVchainStiffness
p1326
aVchainDamping
p1327
aVchainGravity
p1328
aVchainIteration
p1329
aVchainCollide
p1330
aVchainWidthBase
p1331
aVchainWidthExtremity
p1332
aVchainCollideGround
p1333
aVchainCollideGroundHeight
p1334
aaF-4.9588084749530026e-09
aF2.5921551127794373e-07
aF6.0684955371925753e-07
aF0
aF0
aF0
aI1
aF1
aF1
aF0.10000000000000001
aF0.20000000000000001
aF1
aI1
aI00
aF1
aF1
aI00
aF0
aa(lp1335
Vhip_eyelet_front_l_ik_2_anim
p1336
a(lp1337
VtranslateX
p1338
aVtranslateY
p1339
aVtranslateZ
p1340
aVrotateX
p1341
aVrotateY
p1342
aVrotateZ
p1343
aaF-3.8461289264546394e-07
aF-1.0094180780129136e-06
aF4.1534319166203204e-06
aF0
aF0
aF0
aa(lp1344
Vhip_eyelet_front_l_ik_3_anim
p1345
a(lp1346
VtranslateX
p1347
aVtranslateY
p1348
aVtranslateZ
p1349
aVrotateX
p1350
aVrotateY
p1351
aVrotateZ
p1352
aVclusterControlVis
p1353
aaF-1.9230644809908881e-07
aF-5.0470904966459784e-07
aF2.0767159725210149e-06
aF0
aF0
aF0
aI00
aa(lp1354
Vhip_eyelet_front_l_ik_base_anim
p1355
a(lp1356
VtranslateX
p1357
aVtranslateY
p1358
aVtranslateZ
p1359
aVrotateX
p1360
aVrotateY
p1361
aVrotateZ
p1362
aVglobal_scale
p1363
aaF-4.9502997256922754e-09
aF2.691877512006613e-07
aF6.0257472966895875e-07
aF0
aF0
aF0
aF1
aa(lp1364
Vfk_hip_eyelet_front_l_01_anim
p1365
a(lp1366
VtranslateX
p1367
aVtranslateY
p1368
aVtranslateZ
p1369
aVrotateX
p1370
aVrotateY
p1371
aVrotateZ
p1372
aVglobal_scale
p1373
aVlagMode
p1374
aaF-4.9503166010822497e-09
aF2.6918776541151601e-07
aF6.0257478651237761e-07
aF0
aF0
aF0
aF1
aF0
aa(lp1375
Vhip_eyelet_front_l_cv_0_anim
p1376
a(lp1377
VtranslateX
p1378
aVtranslateY
p1379
aVtranslateZ
p1380
aaF0
aF0
aF0
aa(lp1381
Vfk_hip_eyelet_front_l_02_anim
p1382
a(lp1383
VtranslateX
p1384
aVtranslateY
p1385
aVtranslateZ
p1386
aVrotateX
p1387
aVrotateY
p1388
aVrotateZ
p1389
aaF-2.2579490632779198e-07
aF-3.7199177427282848e-07
aF1.3131802845123275e-06
aF0
aF0
aF0
aa(lp1390
Vhip_eyelet_front_l_cv_1_anim
p1391
a(lp1392
VtranslateX
p1393
aVtranslateY
p1394
aVtranslateZ
p1395
aaF0
aF0
aF0
aa(lp1396
Vfk_hip_eyelet_front_l_03_anim
p1397
a(lp1398
VtranslateX
p1399
aVtranslateY
p1400
aVtranslateZ
p1401
aVrotateX
p1402
aVrotateY
p1403
aVrotateZ
p1404
aaF-9.8909598733598614e-08
aF-8.5001743599377733e-07
aF1.3050015894577882e-06
aF0
aF0
aF0
aa(lp1405
Vhip_eyelet_front_l_cv_2_anim
p1406
a(lp1407
VtranslateX
p1408
aVtranslateY
p1409
aVtranslateZ
p1410
aaF0
aF0
aF0
aa(lp1411
Vfk_hip_eyelet_front_l_04_anim
p1412
a(lp1413
VtranslateX
p1414
aVtranslateY
p1415
aVtranslateZ
p1416
aVrotateX
p1417
aVrotateY
p1418
aVrotateZ
p1419
aaF-6.5906077484356729e-08
aF2.7460401952339453e-07
aF1.5533885928675772e-06
aF0
aF0
aF0
aa(lp1420
Vhip_eyelet_front_l_cv_3_anim
p1421
a(lp1422
VtranslateX
p1423
aVtranslateY
p1424
aVtranslateZ
p1425
aaF0
aF0
aF0
aa(lp1426
Vhip_eyelet_front_r_dyn_anim
p1427
a(lp1428
VtranslateX
p1429
aVtranslateY
p1430
aVtranslateZ
p1431
aVrotateX
p1432
aVrotateY
p1433
aVrotateZ
p1434
aVchainAttach
p1435
aVchainStartEnvelope
p1436
aVchainStartFrame
p1437
aVchainStiffness
p1438
aVchainDamping
p1439
aVchainGravity
p1440
aVchainIteration
p1441
aVchainCollide
p1442
aVchainWidthBase
p1443
aVchainWidthExtremity
p1444
aVchainCollideGround
p1445
aVchainCollideGroundHeight
p1446
aaF-4.9587622896751782e-09
aF2.5921552548879845e-07
aF6.068495252975481e-07
aF0
aF0
aF0
aI1
aF1
aF1
aF0.10000000000000001
aF0.20000000000000001
aF1
aI1
aI00
aF1
aF1
aI00
aF0
aa(lp1447
Vhip_eyelet_front_r_ik_2_anim
p1448
a(lp1449
VtranslateX
p1450
aVtranslateY
p1451
aVtranslateZ
p1452
aVrotateX
p1453
aVrotateY
p1454
aVrotateZ
p1455
aaF-3.8461263862643591e-07
aF-1.0094177937958193e-06
aF4.1534320445180128e-06
aF0
aF0
aF0
aa(lp1456
Vhip_eyelet_front_r_ik_3_anim
p1457
a(lp1458
VtranslateX
p1459
aVtranslateY
p1460
aVtranslateZ
p1461
aVrotateX
p1462
aVrotateY
p1463
aVrotateZ
p1464
aVclusterControlVis
p1465
aaF-1.9230632020139637e-07
aF-5.0470895018861484e-07
aF2.0767160400225748e-06
aF0
aF0
aF0
aI00
aa(lp1466
Vhip_eyelet_front_r_ik_base_anim
p1467
a(lp1468
VtranslateX
p1469
aVtranslateY
p1470
aVtranslateZ
p1471
aVrotateX
p1472
aVrotateY
p1473
aVrotateZ
p1474
aVglobal_scale
p1475
aaF-4.9502553167712904e-09
aF2.6918777962237073e-07
aF6.0257470124724932e-07
aF0
aF0
aF0
aF1
aa(lp1476
Vfk_hip_eyelet_front_r_01_anim
p1477
a(lp1478
VtranslateX
p1479
aVtranslateY
p1480
aVtranslateZ
p1481
aVrotateX
p1482
aVrotateY
p1483
aVrotateZ
p1484
aVglobal_scale
p1485
aVlagMode
p1486
aaF-4.950271303982845e-09
aF2.6918776541151601e-07
aF6.0257476519609554e-07
aF0
aF0
aF0
aF1
aF0
aa(lp1487
Vhip_eyelet_front_r_cv_0_anim
p1488
a(lp1489
VtranslateX
p1490
aVtranslateY
p1491
aVtranslateZ
p1492
aaF0
aF0
aF0
aa(lp1493
Vfk_hip_eyelet_front_r_02_anim
p1494
a(lp1495
VtranslateX
p1496
aVtranslateY
p1497
aVtranslateZ
p1498
aVrotateX
p1499
aVrotateY
p1500
aVrotateZ
p1501
aaF-2.2579483349716156e-07
aF-3.7199171742940962e-07
aF1.3131803129340369e-06
aF0
aF0
aF0
aa(lp1502
Vhip_eyelet_front_r_cv_1_anim
p1503
a(lp1504
VtranslateX
p1505
aVtranslateY
p1506
aVtranslateZ
p1507
aaF0
aF0
aF0
aa(lp1508
Vfk_hip_eyelet_front_r_03_anim
p1509
a(lp1510
VtranslateX
p1511
aVtranslateY
p1512
aVtranslateZ
p1513
aVrotateX
p1514
aVrotateY
p1515
aVrotateZ
p1516
aaF-9.8909529455681877e-08
aF-8.5001735783407639e-07
aF1.3050016534066344e-06
aF0
aF0
aF0
aa(lp1517
Vhip_eyelet_front_r_cv_2_anim
p1518
a(lp1519
VtranslateX
p1520
aVtranslateY
p1521
aVtranslateZ
p1522
aaF0
aF0
aF0
aa(lp1523
Vfk_hip_eyelet_front_r_04_anim
p1524
a(lp1525
VtranslateX
p1526
aVtranslateY
p1527
aVtranslateZ
p1528
aVrotateX
p1529
aVrotateY
p1530
aVrotateZ
p1531
aaF-6.5905981561087401e-08
aF2.7460410478852282e-07
aF1.5533885964202909e-06
aF0
aF0
aF0
aa(lp1532
Vhip_eyelet_front_r_cv_3_anim
p1533
a(lp1534
VtranslateX
p1535
aVtranslateY
p1536
aVtranslateZ
p1537
aaF0
aF0
aF0
aa(lp1538
Vhip_eyelet_rear_l_dyn_anim
p1539
a(lp1540
VtranslateX
p1541
aVtranslateY
p1542
aVtranslateZ
p1543
aVrotateX
p1544
aVrotateY
p1545
aVrotateZ
p1546
aVchainAttach
p1547
aVchainStartEnvelope
p1548
aVchainStartFrame
p1549
aVchainStiffness
p1550
aVchainDamping
p1551
aVchainGravity
p1552
aVchainIteration
p1553
aVchainCollide
p1554
aVchainWidthBase
p1555
aVchainWidthExtremity
p1556
aVchainCollideGround
p1557
aVchainCollideGroundHeight
p1558
aaF-7.0606179747301212e-07
aF3.0596429212437215e-07
aF-6.6344174953769652e-07
aF0
aF0
aF0
aI1
aF1
aF1
aF0.10000000000000001
aF0.20000000000000001
aF1
aI1
aI00
aF1
aF1
aI00
aF0
aa(lp1559
Vhip_eyelet_rear_l_ik_2_anim
p1560
a(lp1561
VtranslateX
p1562
aVtranslateY
p1563
aVtranslateZ
p1564
aVrotateX
p1565
aVrotateY
p1566
aVrotateZ
p1567
aaF4.8626582804800478e-06
aF1.1071657333161511e-06
aF-3.0055707185283609e-06
aF0
aF0
aF0
aa(lp1568
Vhip_eyelet_rear_l_ik_3_anim
p1569
a(lp1570
VtranslateX
p1571
aVtranslateY
p1572
aVtranslateZ
p1573
aVrotateX
p1574
aVrotateY
p1575
aVrotateZ
p1576
aVclusterControlVis
p1577
aaF2.4313291486777189e-06
aF5.5358285067086399e-07
aF-1.5027853592641804e-06
aF0
aF0
aF0
aI00
aa(lp1578
Vhip_eyelet_rear_l_ik_base_anim
p1579
a(lp1580
VtranslateX
p1581
aVtranslateY
p1582
aVtranslateZ
p1583
aVrotateX
p1584
aVrotateY
p1585
aVrotateZ
p1586
aVglobal_scale
p1587
aaF-7.0568012944249858e-07
aF3.0380621751646686e-07
aF-6.6488068029002534e-07
aF0
aF0
aF0
aF1
aa(lp1588
Vfk_hip_eyelet_rear_l_01_anim
p1589
a(lp1590
VtranslateX
p1591
aVtranslateY
p1592
aVtranslateZ
p1593
aVrotateX
p1594
aVrotateY
p1595
aVrotateZ
p1596
aVglobal_scale
p1597
aVlagMode
p1598
aaF-7.0568014276517488e-07
aF3.0380610382962914e-07
aF-6.6488063055203384e-07
aF0
aF0
aF0
aF1
aF0
aa(lp1599
Vhip_eyelet_rear_l_cv_0_anim
p1600
a(lp1601
VtranslateX
p1602
aVtranslateY
p1603
aVtranslateZ
p1604
aaF0
aF0
aF0
aa(lp1605
Vfk_hip_eyelet_rear_l_02_anim
p1606
a(lp1607
VtranslateX
p1608
aVtranslateY
p1609
aVtranslateZ
p1610
aVrotateX
p1611
aVrotateY
p1612
aVrotateZ
p1613
aaF1.6195680885289221e-06
aF3.8423664250331058e-07
aF-9.9642731754556735e-07
aF0
aF0
aF0
aa(lp1614
Vhip_eyelet_rear_l_cv_1_anim
p1615
a(lp1616
VtranslateX
p1617
aVtranslateY
p1618
aVtranslateZ
p1619
aaF0
aF0
aF0
aa(lp1620
Vfk_hip_eyelet_rear_l_03_anim
p1621
a(lp1622
VtranslateX
p1623
aVtranslateY
p1624
aVtranslateZ
p1625
aVrotateX
p1626
aVrotateY
p1627
aVrotateZ
p1628
aaF1.6229865122951992e-06
aF3.6153686977513644e-07
aF-9.9642277362477216e-07
aF0
aF0
aF0
aa(lp1629
Vhip_eyelet_rear_l_cv_2_anim
p1630
a(lp1631
VtranslateX
p1632
aVtranslateY
p1633
aVtranslateZ
p1634
aaF0
aF0
aF0
aa(lp1635
Vfk_hip_eyelet_rear_l_04_anim
p1636
a(lp1637
VtranslateX
p1638
aVtranslateY
p1639
aVtranslateZ
p1640
aVrotateX
p1641
aVrotateY
p1642
aVrotateZ
p1643
aaF1.6201036920904244e-06
aF3.4184735397957411e-07
aF-1.0204794200774359e-06
aF0
aF0
aF0
aa(lp1644
Vhip_eyelet_rear_l_cv_3_anim
p1645
a(lp1646
VtranslateX
p1647
aVtranslateY
p1648
aVtranslateZ
p1649
aaF0
aF0
aF0
aa(lp1650
Vhip_eyelet_rear_r_dyn_anim
p1651
a(lp1652
VtranslateX
p1653
aVtranslateY
p1654
aVtranslateZ
p1655
aVrotateX
p1656
aVrotateY
p1657
aVrotateZ
p1658
aVchainAttach
p1659
aVchainStartEnvelope
p1660
aVchainStartFrame
p1661
aVchainStiffness
p1662
aVchainDamping
p1663
aVchainGravity
p1664
aVchainIteration
p1665
aVchainCollide
p1666
aVchainWidthBase
p1667
aVchainWidthExtremity
p1668
aVchainCollideGround
p1669
aVchainCollideGroundHeight
p1670
aaF-7.0606180724297474e-07
aF3.0596426370266272e-07
aF-6.6344176019583756e-07
aF0
aF0
aF0
aI1
aF1
aF1
aF0.10000000000000001
aF0.20000000000000001
aF1
aI1
aI00
aF1
aF1
aI00
aF0
aa(lp1671
Vhip_eyelet_rear_r_ik_2_anim
p1672
a(lp1673
VtranslateX
p1674
aVtranslateY
p1675
aVtranslateZ
p1676
aVrotateX
p1677
aVrotateY
p1678
aVrotateZ
p1679
aaF4.8626582529465168e-06
aF1.1071662164852114e-06
aF-3.0055707185283609e-06
aF0
aF0
aF0
aa(lp1680
Vhip_eyelet_rear_r_ik_3_anim
p1681
a(lp1682
VtranslateX
p1683
aVtranslateY
p1684
aVtranslateZ
p1685
aVrotateX
p1686
aVrotateY
p1687
aVrotateZ
p1688
aVclusterControlVis
p1689
aaF2.4313291309141505e-06
aF5.5358309225539415e-07
aF-1.5027853450533257e-06
aF0
aF0
aF0
aI00
aa(lp1690
Vhip_eyelet_rear_r_ik_base_anim
p1691
a(lp1692
VtranslateX
p1693
aVtranslateY
p1694
aVtranslateZ
p1695
aVrotateX
p1696
aVrotateY
p1697
aVrotateZ
p1698
aVglobal_scale
p1699
aaF-7.0568014276517488e-07
aF3.0380618909475743e-07
aF-6.6488071581716213e-07
aF0
aF0
aF0
aF1.0000000000000002
aa(lp1700
Vfk_hip_eyelet_rear_r_01_anim
p1701
a(lp1702
VtranslateX
p1703
aVtranslateY
p1704
aVtranslateZ
p1705
aVrotateX
p1706
aVrotateY
p1707
aVrotateZ
p1708
aVglobal_scale
p1709
aVlagMode
p1710
aaF-7.0568014987060224e-07
aF3.0380611804048385e-07
aF-6.6488065542102959e-07
aF0
aF0
aF0
aF0.99999999999999978
aF0
aa(lp1711
Vhip_eyelet_rear_r_cv_0_anim
p1712
a(lp1713
VtranslateX
p1714
aVtranslateY
p1715
aVtranslateZ
p1716
aaF0
aF0
aF0
aa(lp1717
Vfk_hip_eyelet_rear_r_02_anim
p1718
a(lp1719
VtranslateX
p1720
aVtranslateY
p1721
aVtranslateZ
p1722
aVrotateX
p1723
aVrotateY
p1724
aVrotateZ
p1725
aaF1.6195680698771753e-06
aF3.8423674197929358e-07
aF-9.9642728912385792e-07
aF0
aF0
aF0
aa(lp1726
Vhip_eyelet_rear_r_cv_1_anim
p1727
a(lp1728
VtranslateX
p1729
aVtranslateY
p1730
aVtranslateZ
p1731
aaF0
aF0
aF0
aa(lp1732
Vfk_hip_eyelet_rear_r_03_anim
p1733
a(lp1734
VtranslateX
p1735
aVtranslateY
p1736
aVtranslateZ
p1737
aVrotateX
p1738
aVrotateY
p1739
aVrotateZ
p1740
aaF1.6229865114070208e-06
aF3.6153706162167509e-07
aF-9.964227665193448e-07
aF0
aF0
aF0
aa(lp1741
Vhip_eyelet_rear_r_cv_2_anim
p1742
a(lp1743
VtranslateX
p1744
aVtranslateY
p1745
aVtranslateZ
p1746
aaF0
aF0
aF0
aa(lp1747
Vfk_hip_eyelet_rear_r_04_anim
p1748
a(lp1749
VtranslateX
p1750
aVtranslateY
p1751
aVtranslateZ
p1752
aVrotateX
p1753
aVrotateY
p1754
aVrotateZ
p1755
aaF1.6201036867613539e-06
aF3.4184753516797173e-07
aF-1.0204793809975854e-06
aF0
aF0
aF0
aa(lp1756
Vhip_eyelet_rear_r_cv_3_anim
p1757
a(lp1758
VtranslateX
p1759
aVtranslateY
p1760
aVtranslateZ
p1761
aaF0
aF0
aF0
aa(lp1762
Vjaw_anim
p1763
a(lp1764
VtranslateX
p1765
aVtranslateY
p1766
aVtranslateZ
p1767
aVrotateX
p1768
aVrotateY
p1769
aVrotateZ
p1770
aVscaleX
p1771
aVscaleY
p1772
aVscaleZ
p1773
aaF0
aF0
aF1.5718127720162437e-11
aF-0.82522174478021915
aF0
aF0
aF1
aF1
aF1
aa(lp1774
Vleg_shieldPad_A_l_anim
p1775
a(lp1776
VtranslateX
p1777
aVtranslateY
p1778
aVtranslateZ
p1779
aVrotateX
p1780
aVrotateY
p1781
aVrotateZ
p1782
aVchainAttach
p1783
aVchainStartEnvelope
p1784
aVchainStartFrame
p1785
aVchainStiffness
p1786
aVchainDamping
p1787
aVchainGravity
p1788
aVchainIteration
p1789
aVchainCollide
p1790
aVchainWidthBase
p1791
aVchainWidthExtremity
p1792
aVchainCollideGround
p1793
aVchainCollideGroundHeight
p1794
aaF0
aF0
aF0
aF0
aF0
aF0
aI1
aF0
aF1
aF0.10000000000000001
aF0.20000000000000001
aF1
aI1
aI00
aF1
aF1
aI00
aF0
aa(lp1795
Vleg_shieldPad_A_r_anim
p1796
a(lp1797
VtranslateX
p1798
aVtranslateY
p1799
aVtranslateZ
p1800
aVrotateX
p1801
aVrotateY
p1802
aVrotateZ
p1803
aVchainAttach
p1804
aVchainStartEnvelope
p1805
aVchainStartFrame
p1806
aVchainStiffness
p1807
aVchainDamping
p1808
aVchainGravity
p1809
aVchainIteration
p1810
aVchainCollide
p1811
aVchainWidthBase
p1812
aVchainWidthExtremity
p1813
aVchainCollideGround
p1814
aVchainCollideGroundHeight
p1815
aaF0
aF0
aF0
aF0
aF0
aF0
aI1
aF0
aF1
aF0.10000000000000001
aF0.20000000000000001
aF1
aI1
aI00
aF1
aF1
aI00
aF0
aa(lp1816
Vleg_shieldPad_B_l_anim
p1817
a(lp1818
VtranslateX
p1819
aVtranslateY
p1820
aVtranslateZ
p1821
aVrotateX
p1822
aVrotateY
p1823
aVrotateZ
p1824
aVchainAttach
p1825
aVchainStartEnvelope
p1826
aVchainStartFrame
p1827
aVchainStiffness
p1828
aVchainDamping
p1829
aVchainGravity
p1830
aVchainIteration
p1831
aVchainCollide
p1832
aVchainWidthBase
p1833
aVchainWidthExtremity
p1834
aVchainCollideGround
p1835
aVchainCollideGroundHeight
p1836
aaF0
aF0
aF0
aF0
aF0
aF0
aI1
aF0
aF1
aF0.10000000000000001
aF0.20000000000000001
aF1
aI1
aI00
aF1
aF1
aI00
aF0
aa(lp1837
Vleg_shieldPad_B_r_anim
p1838
a(lp1839
VtranslateX
p1840
aVtranslateY
p1841
aVtranslateZ
p1842
aVrotateX
p1843
aVrotateY
p1844
aVrotateZ
p1845
aVchainAttach
p1846
aVchainStartEnvelope
p1847
aVchainStartFrame
p1848
aVchainStiffness
p1849
aVchainDamping
p1850
aVchainGravity
p1851
aVchainIteration
p1852
aVchainCollide
p1853
aVchainWidthBase
p1854
aVchainWidthExtremity
p1855
aVchainCollideGround
p1856
aVchainCollideGroundHeight
p1857
aaF0
aF0
aF0
aF0
aF0
aF0
aI1
aF0
aF1
aF0.10000000000000001
aF0.20000000000000001
aF1
aI1
aI00
aF1
aF1
aI00
aF0
aa(lp1858
Vloin_cloth_bk_dyn_anim
p1859
a(lp1860
VtranslateX
p1861
aVtranslateY
p1862
aVtranslateZ
p1863
aVrotateX
p1864
aVrotateY
p1865
aVrotateZ
p1866
aVchainAttach
p1867
aVchainStartEnvelope
p1868
aVchainStartFrame
p1869
aVchainStiffness
p1870
aVchainDamping
p1871
aVchainGravity
p1872
aVchainIteration
p1873
aVchainCollide
p1874
aVchainWidthBase
p1875
aVchainWidthExtremity
p1876
aVchainCollideGround
p1877
aVchainCollideGroundHeight
p1878
aaF-9.4065222907483253e-15
aF0
aF1.0945771392870779e-14
aF0
aF0
aF0
aI1
aF1
aF1
aF0.10000000000000001
aF0.20000000000000001
aF1
aI1
aI00
aF1
aF1
aI00
aF0
aa(lp1879
Vloin_cloth_bk_ik_2_anim
p1880
a(lp1881
VtranslateX
p1882
aVtranslateY
p1883
aVtranslateZ
p1884
aVrotateX
p1885
aVrotateY
p1886
aVrotateZ
p1887
aaF-3.4205535602721185e-16
aF-1.0945771392870779e-14
aF1.0945771392870779e-14
aF0
aF0
aF0
aa(lp1888
Vloin_cloth_bk_ik_3_anim
p1889
a(lp1890
VtranslateX
p1891
aVtranslateY
p1892
aVtranslateZ
p1893
aVrotateX
p1894
aVrotateY
p1895
aVrotateZ
p1896
aVclusterControlVis
p1897
aaF2.2233598141768772e-15
aF1.0945771392870779e-14
aF1.0945771392870779e-14
aF0
aF0
aF0
aI00
aa(lp1898
Vloin_cloth_bk_ik_base_anim
p1899
a(lp1900
VtranslateX
p1901
aVtranslateY
p1902
aVtranslateZ
p1903
aVrotateX
p1904
aVrotateY
p1905
aVrotateZ
p1906
aVglobal_scale
p1907
aaF-7.0121347985578429e-15
aF-1.0945771392870779e-14
aF1.0945771392870779e-14
aF0
aF0
aF0
aF1
aa(lp1908
Vfk_loin_cloth_bk_01_anim
p1909
a(lp1910
VtranslateX
p1911
aVtranslateY
p1912
aVtranslateZ
p1913
aVrotateX
p1914
aVrotateY
p1915
aVrotateZ
p1916
aVglobal_scale
p1917
aVlagMode
p1918
aaF-7.3541901545850549e-15
aF0
aF5.4728856964353897e-15
aF0
aF0
aF0
aF1
aF0
aa(lp1919
Vloin_cloth_bk_cv_0_anim
p1920
a(lp1921
VtranslateX
p1922
aVtranslateY
p1923
aVtranslateZ
p1924
aaF0
aF0
aF0
aa(lp1925
Vfk_loin_cloth_bk_02_anim
p1926
a(lp1927
VtranslateX
p1928
aVtranslateY
p1929
aVtranslateZ
p1930
aVrotateX
p1931
aVrotateY
p1932
aVrotateZ
p1933
aaF-3.2495258822585124e-15
aF-1.0945771392870779e-14
aF5.4728856964353897e-15
aF0
aF0
aF0
aa(lp1934
Vloin_cloth_bk_cv_1_anim
p1935
a(lp1936
VtranslateX
p1937
aVtranslateY
p1938
aVtranslateZ
p1939
aaF0
aF0
aF0
aa(lp1940
Vloin_cloth_fr_dyn_anim
p1941
a(lp1942
VtranslateX
p1943
aVtranslateY
p1944
aVtranslateZ
p1945
aVrotateX
p1946
aVrotateY
p1947
aVrotateZ
p1948
aVchainAttach
p1949
aVchainStartEnvelope
p1950
aVchainStartFrame
p1951
aVchainStiffness
p1952
aVchainDamping
p1953
aVchainGravity
p1954
aVchainIteration
p1955
aVchainCollide
p1956
aVchainWidthBase
p1957
aVchainWidthExtremity
p1958
aVchainCollideGround
p1959
aVchainCollideGroundHeight
p1960
aaF1.0603716036843567e-14
aF0
aF6.8411071205442369e-15
aF0
aF0
aF0
aI1
aF1
aF1
aF0.10000000000000001
aF0.20000000000000001
aF1
aI1
aI00
aF1
aF1
aI00
aF0
aa(lp1961
Vloin_cloth_fr_ik_2_anim
p1962
a(lp1963
VtranslateX
p1964
aVtranslateY
p1965
aVtranslateZ
p1966
aVrotateX
p1967
aVrotateY
p1968
aVrotateZ
p1969
aaF-2.7364428482176948e-15
aF1.0945771392870779e-14
aF1.5050435665197322e-14
aF0
aF0
aF0
aa(lp1970
Vloin_cloth_fr_ik_3_anim
p1971
a(lp1972
VtranslateX
p1973
aVtranslateY
p1974
aVtranslateZ
p1975
aVrotateX
p1976
aVrotateY
p1977
aVrotateZ
p1978
aVclusterControlVis
p1979
aaF1.0261660680816356e-15
aF0
aF8.2093285446530849e-15
aF0
aF0
aF0
aI00
aa(lp1980
Vloin_cloth_fr_ik_base_anim
p1981
a(lp1982
VtranslateX
p1983
aVtranslateY
p1984
aVtranslateZ
p1985
aVrotateX
p1986
aVrotateY
p1987
aVrotateZ
p1988
aVglobal_scale
p1989
aaF1.0945771392870779e-14
aF1.0945771392870779e-14
aF2.7364428482176948e-15
aF0
aF0
aF0
aF1
aa(lp1990
Vfk_loin_cloth_fr_01_anim
p1991
a(lp1992
VtranslateX
p1993
aVtranslateY
p1994
aVtranslateZ
p1995
aVrotateX
p1996
aVrotateY
p1997
aVrotateZ
p1998
aVglobal_scale
p1999
aVlagMode
p2000
aaF1.0261660680816355e-14
aF1.0945771392870779e-14
aF5.4728856964353897e-15
aF0
aF0
aF0
aF1
aF0
aa(lp2001
Vloin_cloth_fr_cv_0_anim
p2002
a(lp2003
VtranslateX
p2004
aVtranslateY
p2005
aVtranslateZ
p2006
aaF0
aF0
aF0
aa(lp2007
Vfk_loin_cloth_fr_02_anim
p2008
a(lp2009
VtranslateX
p2010
aVtranslateY
p2011
aVtranslateZ
p2012
aVrotateX
p2013
aVrotateY
p2014
aVrotateZ
p2015
aaF-6.8411071205442369e-15
aF1.0945771392870779e-14
aF9.5775499687619313e-15
aF0
aF0
aF0
aa(lp2016
Vloin_cloth_fr_cv_1_anim
p2017
a(lp2018
VtranslateX
p2019
aVtranslateY
p2020
aVtranslateZ
p2021
aaF0
aF0
aF0
aa(lp2022
Vpadawan_l_dyn_anim
p2023
a(lp2024
VtranslateX
p2025
aVtranslateY
p2026
aVtranslateZ
p2027
aVrotateX
p2028
aVrotateY
p2029
aVrotateZ
p2030
aVchainAttach
p2031
aVchainStartEnvelope
p2032
aVchainStartFrame
p2033
aVchainStiffness
p2034
aVchainDamping
p2035
aVchainGravity
p2036
aVchainIteration
p2037
aVchainCollide
p2038
aVchainWidthBase
p2039
aVchainWidthExtremity
p2040
aVchainCollideGround
p2041
aVchainCollideGroundHeight
p2042
aaF5.6692137206937332e-07
aF-2.0772964148818573e-07
aF-2.7077916797679791e-07
aF0
aF0
aF0
aI1
aF1
aF1
aF0.10000000000000001
aF0.20000000000000001
aF1
aI1
aI00
aF1
aF1
aI00
aF0
aa(lp2043
Vpadawan_l_ik_2_anim
p2044
a(lp2045
VtranslateX
p2046
aVtranslateY
p2047
aVtranslateZ
p2048
aVrotateX
p2049
aVrotateY
p2050
aVrotateZ
p2051
aaF9.8929811898074149e-07
aF3.4911221291622496e-07
aF2.7295460824916518e-07
aF0
aF0
aF0
aa(lp2052
Vpadawan_l_ik_3_anim
p2053
a(lp2054
VtranslateX
p2055
aVtranslateY
p2056
aVtranslateZ
p2057
aVrotateX
p2058
aVrotateY
p2059
aVrotateZ
p2060
aVclusterControlVis
p2061
aaF5.363469295360801e-07
aF1.4553987170984328e-07
aF9.1610289132404432e-08
aF0
aF0
aF0
aI00
aa(lp2062
Vpadawan_l_ik_base_anim
p2063
a(lp2064
VtranslateX
p2065
aVtranslateY
p2066
aVtranslateZ
p2067
aVrotateX
p2068
aVrotateY
p2069
aVrotateZ
p2070
aVglobal_scale
p2071
aaF5.641167426517768e-07
aF-2.1178587417125527e-07
aF-2.7349295805834117e-07
aF0
aF0
aF0
aF1
aa(lp2072
Vfk_padawan_l_01_anim
p2073
a(lp2074
VtranslateX
p2075
aVtranslateY
p2076
aVtranslateZ
p2077
aVrotateX
p2078
aVrotateY
p2079
aVrotateZ
p2080
aVglobal_scale
p2081
aVlagMode
p2082
aaF5.6411675686263152e-07
aF-2.1178595943638356e-07
aF-2.7349290121492231e-07
aF0
aF0
aF0
aF1
aF0
aa(lp2083
Vpadawan_l_cv_0_anim
p2084
a(lp2085
VtranslateX
p2086
aVtranslateY
p2087
aVtranslateZ
p2088
aaF0
aF0
aF0
aa(lp2089
Vfk_padawan_l_02_anim
p2090
a(lp2091
VtranslateX
p2092
aVtranslateY
p2093
aVtranslateZ
p2094
aVrotateX
p2095
aVrotateY
p2096
aVrotateZ
p2097
aaF4.4171868474052189e-07
aF3.3581369507373893e-07
aF2.0699327762940811e-07
aF0
aF0
aF0
aa(lp2098
Vpadawan_l_cv_1_anim
p2099
a(lp2100
VtranslateX
p2101
aVtranslateY
p2102
aVtranslateZ
p2103
aaF0
aF0
aF0
aa(lp2104
Vfk_padawan_l_03_anim
p2105
a(lp2106
VtranslateX
p2107
aVtranslateY
p2108
aVtranslateZ
p2109
aVrotateX
p2110
aVrotateY
p2111
aVrotateZ
p2112
aaF4.6418361598909996e-07
aF7.1331214712699875e-08
aF1.5569537481496809e-07
aF0
aF0
aF0
aa(lp2113
Vpadawan_l_cv_2_anim
p2114
a(lp2115
VtranslateX
p2116
aVtranslateY
p2117
aVtranslateZ
p2118
aaF0
aF0
aF0
aa(lp2119
Vpadawan_r_dyn_anim
p2120
a(lp2121
VtranslateX
p2122
aVtranslateY
p2123
aVtranslateZ
p2124
aVrotateX
p2125
aVrotateY
p2126
aVrotateZ
p2127
aVchainAttach
p2128
aVchainStartEnvelope
p2129
aVchainStartFrame
p2130
aVchainStiffness
p2131
aVchainDamping
p2132
aVchainGravity
p2133
aVchainIteration
p2134
aVchainCollide
p2135
aVchainWidthBase
p2136
aVchainWidthExtremity
p2137
aVchainCollideGround
p2138
aVchainCollideGroundHeight
p2139
aaF6.5734752041635147e-07
aF-7.4608664135666913e-08
aF-1.3938219467490853e-08
aF0
aF0
aF0
aI1
aF1
aF1
aF0.10000000000000001
aF0.20000000000000001
aF1
aI1
aI00
aF1
aF1
aI00
aF0
aa(lp2140
Vpadawan_r_ik_2_anim
p2141
a(lp2142
VtranslateX
p2143
aVtranslateY
p2144
aVtranslateZ
p2145
aVrotateX
p2146
aVrotateY
p2147
aVrotateZ
p2148
aaF1.0333995508204907e-06
aF4.2689447354860022e-07
aF4.0427315184388135e-07
aF0
aF0
aF0
aa(lp2149
Vpadawan_r_ik_3_anim
p2150
a(lp2151
VtranslateX
p2152
aVtranslateY
p2153
aVtranslateZ
p2154
aVrotateX
p2155
aVrotateY
p2156
aVrotateZ
p2157
aVclusterControlVis
p2158
aaF5.8044837558668405e-07
aF2.2332196181196196e-07
aF2.2292874746199232e-07
aF0
aF0
aF0
aI00
aa(lp2159
Vpadawan_r_ik_base_anim
p2160
a(lp2161
VtranslateX
p2162
aVtranslateY
p2163
aVtranslateZ
p2164
aVrotateX
p2165
aVrotateY
p2166
aVrotateZ
p2167
aVglobal_scale
p2168
aaF6.5629663126287596e-07
aF-8.3225103253425914e-08
aF-1.4957976190999034e-08
aF0
aF0
aF0
aF1
aa(lp2169
Vfk_padawan_r_01_anim
p2170
a(lp2171
VtranslateX
p2172
aVtranslateY
p2173
aVtranslateZ
p2174
aVrotateX
p2175
aVrotateY
p2176
aVrotateZ
p2177
aVglobal_scale
p2178
aVlagMode
p2179
aaF0
aF0
aF0
aF0
aF0
aF0
aF1
aF0
aa(lp2180
Vpadawan_r_cv_0_anim
p2181
a(lp2182
VtranslateX
p2183
aVtranslateY
p2184
aVtranslateZ
p2185
aaF0
aF0
aF0
aa(lp2186
Vfk_padawan_r_02_anim
p2187
a(lp2188
VtranslateX
p2189
aVtranslateY
p2190
aVtranslateZ
p2191
aVrotateX
p2192
aVrotateY
p2193
aVrotateZ
p2194
aaF4.4171864921338511e-07
aF3.3581375191715779e-07
aF2.0699330605111754e-07
aF0
aF0
aF0
aa(lp2195
Vpadawan_r_cv_1_anim
p2196
a(lp2197
VtranslateX
p2198
aVtranslateY
p2199
aVtranslateZ
p2200
aaF0
aF0
aF0
aa(lp2201
Vfk_padawan_r_03_anim
p2202
a(lp2203
VtranslateX
p2204
aVtranslateY
p2205
aVtranslateZ
p2206
aVrotateX
p2207
aVrotateY
p2208
aVrotateZ
p2209
aaF4.6418361421274312e-07
aF7.1331214712699875e-08
aF1.5569546008009638e-07
aF0
aF0
aF0
aa(lp2210
Vpadawan_r_cv_2_anim
p2211
a(lp2212
VtranslateX
p2213
aVtranslateY
p2214
aVtranslateZ
p2215
aaF0
aF0
aF0
aa(lp2216
Vpipe_anim
p2217
a(lp2218
VtranslateX
p2219
aVtranslateY
p2220
aVtranslateZ
p2221
aVrotateX
p2222
aVrotateY
p2223
aVrotateZ
p2224
aVscaleX
p2225
aVscaleY
p2226
aVscaleZ
p2227
aaF0
aF0
aF0
aF0
aF0
aF-7.9214437030667315e-05
aF1
aF1
aF1
aa(lp2228
Vponytail_dyn_anim
p2229
a(lp2230
VtranslateX
p2231
aVtranslateY
p2232
aVtranslateZ
p2233
aVrotateX
p2234
aVrotateY
p2235
aVrotateZ
p2236
aVchainAttach
p2237
aVchainStartEnvelope
p2238
aVchainStartFrame
p2239
aVchainStiffness
p2240
aVchainDamping
p2241
aVchainGravity
p2242
aVchainIteration
p2243
aVchainCollide
p2244
aVchainWidthBase
p2245
aVchainWidthExtremity
p2246
aVchainCollideGround
p2247
aVchainCollideGroundHeight
p2248
aaF-2.246236600056406e-07
aF1.143462213804014e-07
aF9.9454837254597805e-08
aF0
aF0
aF0
aI1
aF1
aF1
aF0.10000000000000001
aF0.20000000000000001
aF1
aI1
aI00
aF1
aF1
aI00
aF0
aa(lp2249
Vponytail_ik_2_anim
p2250
a(lp2251
VtranslateX
p2252
aVtranslateY
p2253
aVtranslateZ
p2254
aVrotateX
p2255
aVrotateY
p2256
aVrotateZ
p2257
aaF-1.0984045117901076e-07
aF6.0196214235475054e-08
aF5.1829516678481014e-08
aF0
aF0
aF0
aa(lp2258
Vponytail_ik_3_anim
p2259
a(lp2260
VtranslateX
p2261
aVtranslateY
p2262
aVtranslateZ
p2263
aVrotateX
p2264
aVrotateY
p2265
aVrotateZ
p2266
aVclusterControlVis
p2267
aaF-1.0984051701523612e-07
aF6.0196185813765624e-08
aF5.1829545100190444e-08
aF0
aF0
aF0
aI00
aa(lp2268
Vponytail_ik_base_anim
p2269
a(lp2270
VtranslateX
p2271
aVtranslateY
p2272
aVtranslateZ
p2273
aVrotateX
p2274
aVrotateY
p2275
aVrotateZ
p2276
aVglobal_scale
p2277
aaF-2.246236600056406e-07
aF1.1402694610751496e-07
aF9.9820766763514257e-08
aF0
aF0
aF0
aF1
aa(lp2278
Vfk_ponytail_01_anim
p2279
a(lp2280
VtranslateX
p2281
aVtranslateY
p2282
aVtranslateZ
p2283
aVrotateX
p2284
aVrotateY
p2285
aVrotateZ
p2286
aVglobal_scale
p2287
aVlagMode
p2288
aaF-2.2462365911746218e-07
aF1.1402693189666024e-07
aF9.9820795185223687e-08
aF0
aF0
aF0
aF1
aF0
aa(lp2289
Vponytail_cv_0_anim
p2290
a(lp2291
VtranslateX
p2292
aVtranslateY
p2293
aVtranslateZ
p2294
aaF0
aF0
aF0
aa(lp2295
Vfk_ponytail_02_anim
p2296
a(lp2297
VtranslateX
p2298
aVtranslateY
p2299
aVtranslateZ
p2300
aVrotateX
p2301
aVrotateY
p2302
aVrotateZ
p2303
aaF5.0282137336000063e-14
aF0
aF2.1891542785741559e-14
aF0
aF0
aF0
aa(lp2304
Vponytail_cv_1_anim
p2305
a(lp2306
VtranslateX
p2307
aVtranslateY
p2308
aVtranslateZ
p2309
aaF0
aF0
aF0
aa(lp2310
Vfk_ponytail_03_anim
p2311
a(lp2312
VtranslateX
p2313
aVtranslateY
p2314
aVtranslateZ
p2315
aVrotateX
p2316
aVrotateY
p2317
aVrotateZ
p2318
aaF5.2676524828190547e-14
aF-2.1891542785741559e-14
aF-2.1891542785741559e-14
aF0
aF0
aF0
aa(lp2319
Vponytail_cv_2_anim
p2320
a(lp2321
VtranslateX
p2322
aVtranslateY
p2323
aVtranslateZ
p2324
aaF0
aF0
aF0
aa(lp2325
Vshoulder_blade_in_r_anim
p2326
a(lp2327
VtranslateX
p2328
aVtranslateY
p2329
aVtranslateZ
p2330
aVrotateX
p2331
aVrotateY
p2332
aVrotateZ
p2333
aVscaleX
p2334
aVscaleY
p2335
aVscaleZ
p2336
aaF0
aF0
aF0
aF0
aF0
aF0
aF1
aF1.0000000000000002
aF1.0000000000000004
aa(lp2337
Vshoulder_blade_mid_r_anim
p2338
a(lp2339
VtranslateX
p2340
aVtranslateY
p2341
aVtranslateZ
p2342
aVrotateX
p2343
aVrotateY
p2344
aVrotateZ
p2345
aVscaleX
p2346
aVscaleY
p2347
aVscaleZ
p2348
aaF0
aF0
aF0
aF0
aF0
aF0
aF1
aF1.0000000000000002
aF1.0000000000000004
aa(lp2349
Vshoulder_blade_out_r_anim
p2350
a(lp2351
VtranslateX
p2352
aVtranslateY
p2353
aVtranslateZ
p2354
aVrotateX
p2355
aVrotateY
p2356
aVrotateZ
p2357
aVscaleX
p2358
aVscaleY
p2359
aVscaleZ
p2360
aaF0
aF0
aF0
aF0
aF0
aF0
aF1
aF1.0000000000000002
aF1.0000000000000004
aa(lp2361
Vshoulder_cloth_01_l_anim
p2362
a(lp2363
VtranslateX
p2364
aVtranslateY
p2365
aVtranslateZ
p2366
aVrotateX
p2367
aVrotateY
p2368
aVrotateZ
p2369
aVscaleX
p2370
aVscaleY
p2371
aVscaleZ
p2372
aaF0
aF0
aF0
aF0
aF0
aF0
aF1
aF1
aF1
aa(lp2373
Vshoulder_cloth_02_l_anim
p2374
a(lp2375
VtranslateX
p2376
aVtranslateY
p2377
aVtranslateZ
p2378
aVrotateX
p2379
aVrotateY
p2380
aVrotateZ
p2381
aVscaleX
p2382
aVscaleY
p2383
aVscaleZ
p2384
aaF0
aF0
aF0
aF0
aF0
aF0
aF1
aF1
aF1
aa(lp2385
Vshoulder_pad_r_anim
p2386
a(lp2387
VtranslateX
p2388
aVtranslateY
p2389
aVtranslateZ
p2390
aVrotateX
p2391
aVrotateY
p2392
aVrotateZ
p2393
aVscaleX
p2394
aVscaleY
p2395
aVscaleZ
p2396
aaF-2.9633452877745925
aF-7.2027341608531792
aF10.664392780983048
aF-19.755064603775988
aF-15.707866207869985
aF46.003313717039141
aF1
aF1
aF1
aa(lp2397
Vweapon_anim
p2398
a(lp2399
VtranslateX
p2400
aVtranslateY
p2401
aVtranslateZ
p2402
aVrotateX
p2403
aVrotateY
p2404
aVrotateZ
p2405
aVscaleX
p2406
aVscaleY
p2407
aVscaleZ
p2408
aaF-41.036973109244471
aF50.924437951251797
aF7.3697230592114025
aF83.659408329328642
aF-53.121091371071309
aF53.875581139793972
aF1
aF1
aF1
aa(lp2409
Vweapon_bladeA_01_anim
p2410
a(lp2411
VtranslateX
p2412
aVtranslateY
p2413
aVtranslateZ
p2414
aVrotateX
p2415
aVrotateY
p2416
aVrotateZ
p2417
aVscaleX
p2418
aVscaleY
p2419
aVscaleZ
p2420
aaF0
aF7.5826210457563429e-06
aF1.6790777131383671e-07
aF0
aF0
aF0
aF1
aF1
aF1
aa(lp2421
Vweapon_bladeA_02_anim
p2422
a(lp2423
VtranslateZ
p2424
aVscaleX
p2425
aVscaleY
p2426
aVscaleZ
p2427
aaF0
aF1
aF1
aF1
aa(lp2428
Vweapon_bladeA_03_anim
p2429
a(lp2430
VtranslateX
p2431
aVtranslateY
p2432
aVtranslateZ
p2433
aVrotateX
p2434
aVrotateY
p2435
aVrotateZ
p2436
aVscaleX
p2437
aVscaleY
p2438
aVscaleZ
p2439
aaF0
aF-1.6778003184764859e-08
aF3.761589098407302e-08
aF0
aF0
aF0
aF1
aF1
aF1
aa(lp2440
Vweapon_bladeA_04_anim
p2441
a(lp2442
VtranslateX
p2443
aVtranslateY
p2444
aVtranslateZ
p2445
aVrotateX
p2446
aVrotateY
p2447
aVrotateZ
p2448
aVscaleX
p2449
aVscaleY
p2450
aVscaleZ
p2451
aaF0
aF7.3996318955842758e-08
aF-5.6965151222752656e-09
aF0
aF0
aF0
aF1
aF1
aF1
aa(lp2452
Vweapon_bladeA_05_anim
p2453
a(lp2454
VtranslateX
p2455
aVtranslateY
p2456
aVtranslateZ
p2457
aVrotateX
p2458
aVrotateY
p2459
aVrotateZ
p2460
aVscaleX
p2461
aVscaleY
p2462
aVscaleZ
p2463
aaF0
aF8.9828145632964151e-07
aF2.2093621565051831e-07
aF0
aF0
aF0
aF1
aF1
aF1
aa(lp2464
Vweapon_bladeB_01_anim
p2465
a(lp2466
VtranslateX
p2467
aVtranslateY
p2468
aVtranslateZ
p2469
aVrotateX
p2470
aVrotateY
p2471
aVrotateZ
p2472
aVscaleX
p2473
aVscaleY
p2474
aVscaleZ
p2475
aaF0
aF2.1418203395893216e-06
aF1.6790776958717383e-07
aF0
aF0
aF0
aF1
aF1
aF1
aa(lp2476
Vweapon_bladeB_02_anim
p2477
a(lp2478
VtranslateZ
p2479
aVscaleX
p2480
aVscaleY
p2481
aVscaleZ
p2482
aaF0
aF1
aF1
aF1
aa(lp2483
Vweapon_bladeB_03_anim
p2484
a(lp2485
VtranslateX
p2486
aVtranslateY
p2487
aVtranslateZ
p2488
aVrotateX
p2489
aVrotateY
p2490
aVrotateZ
p2491
aVscaleX
p2492
aVscaleY
p2493
aVscaleZ
p2494
aaF0
aF3.9960860931387288e-07
aF-1.0075551880132217e-07
aF0
aF0
aF0
aF1
aF1
aF1
aa(lp2495
Vweapon_bladeB_04_anim
p2496
a(lp2497
VtranslateX
p2498
aVtranslateY
p2499
aVtranslateZ
p2500
aVrotateX
p2501
aVrotateY
p2502
aVrotateZ
p2503
aVscaleX
p2504
aVscaleY
p2505
aVscaleZ
p2506
aaF0
aF-6.3225178405496386e-08
aF3.8364606539509887e-08
aF0
aF0
aF0
aF1
aF1
aF1
aa(lp2507
Vweapon_bladeB_05_anim
p2508
a(lp2509
VtranslateX
p2510
aVtranslateY
p2511
aVtranslateZ
p2512
aVrotateX
p2513
aVrotateY
p2514
aVrotateZ
p2515
aVscaleX
p2516
aVscaleY
p2517
aVscaleZ
p2518
aaF0
aF-1.3184278666667559e-07
aF-2.8910556865437985e-08
aF0
aF0
aF0
aF1
aF1
aF1
aa(lp2519
Vweapon_bladeC_01_anim
p2520
a(lp2521
VtranslateX
p2522
aVtranslateY
p2523
aVtranslateZ
p2524
aVrotateX
p2525
aVrotateY
p2526
aVrotateZ
p2527
aVscaleX
p2528
aVscaleY
p2529
aVscaleZ
p2530
aaF0
aF2.1418202763663437e-06
aF1.6790774923313606e-07
aF0
aF0
aF0
aF1
aF1
aF1
aa(lp2531
Vweapon_bladeC_02_anim
p2532
a(lp2533
VtranslateY
p2534
aVscaleX
p2535
aVscaleY
p2536
aVscaleZ
p2537
aaF0
aF1
aF1
aF1
aa(lp2538
Vweapon_bladeC_03_anim
p2539
a(lp2540
VtranslateX
p2541
aVtranslateY
p2542
aVtranslateZ
p2543
aVrotateX
p2544
aVrotateY
p2545
aVrotateZ
p2546
aVscaleX
p2547
aVscaleY
p2548
aVscaleZ
p2549
aaF0
aF4.9677527033173762e-07
aF0
aF0
aF0
aF0
aF1
aF1
aF1
aa(lp2550
Vweapon_bladeD_01_anim
p2551
a(lp2552
VtranslateX
p2553
aVtranslateY
p2554
aVtranslateZ
p2555
aVrotateX
p2556
aVrotateY
p2557
aVrotateZ
p2558
aVscaleX
p2559
aVscaleY
p2560
aVscaleZ
p2561
aaF0
aF-2.6753198976861849e-06
aF2.2095830695221529e-07
aF0
aF0
aF0
aF1
aF1
aF1
aa(lp2562
Vweapon_bladeE_01_anim
p2563
a(lp2564
VtranslateX
p2565
aVtranslateY
p2566
aVtranslateZ
p2567
aVrotateX
p2568
aVrotateY
p2569
aVrotateZ
p2570
aVscaleX
p2571
aVscaleY
p2572
aVscaleZ
p2573
aaF0
aF0
aF0
aF0
aF0
aF0
aF1
aF1
aF1
aa(lp2574
Vweapon_butt_dyn_anim
p2575
a(lp2576
VtranslateX
p2577
aVtranslateY
p2578
aVtranslateZ
p2579
aVrotateX
p2580
aVrotateY
p2581
aVrotateZ
p2582
aVchainAttach
p2583
aVchainStartEnvelope
p2584
aVchainStartFrame
p2585
aVchainStiffness
p2586
aVchainDamping
p2587
aVchainGravity
p2588
aVchainIteration
p2589
aVchainCollide
p2590
aVchainWidthBase
p2591
aVchainWidthExtremity
p2592
aVchainCollideGround
p2593
aVchainCollideGroundHeight
p2594
aaF0
aF0
aF0
aF0
aF0
aF0
aI1
aF1
aF1
aF0.10000000000000001
aF0.20000000000000001
aF1
aI1
aI00
aF1
aF1
aI00
aF0
aa(lp2595
Vweapon_butt_ik_2_anim
p2596
a(lp2597
VtranslateX
p2598
aVtranslateY
p2599
aVtranslateZ
p2600
aVrotateX
p2601
aVrotateY
p2602
aVrotateZ
p2603
aaF0
aF0
aF0
aF0
aF0
aF0
aa(lp2604
Vweapon_butt_ik_3_anim
p2605
a(lp2606
VtranslateX
p2607
aVtranslateY
p2608
aVtranslateZ
p2609
aVrotateX
p2610
aVrotateY
p2611
aVrotateZ
p2612
aaF0
aF0
aF0
aF0
aF0
aF0
aa(lp2613
Vweapon_butt_ik_4_anim
p2614
a(lp2615
VtranslateX
p2616
aVtranslateY
p2617
aVtranslateZ
p2618
aVrotateX
p2619
aVrotateY
p2620
aVrotateZ
p2621
aVclusterControlVis
p2622
aaF0
aF0
aF0
aF0
aF0
aF0
aI00
aa(lp2623
Vweapon_butt_ik_base_anim
p2624
a(lp2625
VtranslateX
p2626
aVtranslateY
p2627
aVtranslateZ
p2628
aVrotateX
p2629
aVrotateY
p2630
aVrotateZ
p2631
aVglobal_scale
p2632
aaF0
aF0
aF0
aF0
aF0
aF0
aF0.99999999999999978
aa(lp2633
Vfk_weapon_butt_01_anim
p2634
a(lp2635
VtranslateX
p2636
aVtranslateY
p2637
aVtranslateZ
p2638
aVrotateX
p2639
aVrotateY
p2640
aVrotateZ
p2641
aVglobal_scale
p2642
aVlagMode
p2643
aaF0
aF0
aF0
aF0
aF0
aF0
aF1.0000000000000002
aF0
aa(lp2644
Vweapon_butt_cv_0_anim
p2645
a(lp2646
VtranslateX
p2647
aVtranslateY
p2648
aVtranslateZ
p2649
aaF0
aF0
aF0
aa(lp2650
Vfk_weapon_butt_02_anim
p2651
a(lp2652
VtranslateX
p2653
aVtranslateY
p2654
aVtranslateZ
p2655
aVrotateX
p2656
aVrotateY
p2657
aVrotateZ
p2658
aaF0
aF0
aF0
aF0
aF0
aF0
aa(lp2659
Vweapon_butt_cv_1_anim
p2660
a(lp2661
VtranslateX
p2662
aVtranslateY
p2663
aVtranslateZ
p2664
aaF0
aF0
aF0
aa(lp2665
Vfk_weapon_butt_03_anim
p2666
a(lp2667
VtranslateX
p2668
aVtranslateY
p2669
aVtranslateZ
p2670
aVrotateX
p2671
aVrotateY
p2672
aVrotateZ
p2673
aaF0
aF0
aF0
aF0
aF0
aF0
aa(lp2674
Vweapon_butt_cv_2_anim
p2675
a(lp2676
VtranslateX
p2677
aVtranslateY
p2678
aVtranslateZ
p2679
aaF0
aF0
aF0
aa(lp2680
Vfk_weapon_butt_04_anim
p2681
a(lp2682
VtranslateX
p2683
aVtranslateY
p2684
aVtranslateZ
p2685
aVrotateX
p2686
aVrotateY
p2687
aVrotateZ
p2688
aaF0
aF0
aF0
aF0
aF0
aF0
aa(lp2689
Vweapon_butt_cv_3_anim
p2690
a(lp2691
VtranslateX
p2692
aVtranslateY
p2693
aVtranslateZ
p2694
aaF0
aF0
aF0
aa(lp2695
Vfk_weapon_butt_05_anim
p2696
a(lp2697
VtranslateX
p2698
aVtranslateY
p2699
aVtranslateZ
p2700
aVrotateX
p2701
aVrotateY
p2702
aVrotateZ
p2703
aaF0
aF0
aF0
aF0
aF0
aF0
aa(lp2704
Vweapon_butt_cv_4_anim
p2705
a(lp2706
VtranslateX
p2707
aVtranslateY
p2708
aVtranslateZ
p2709
aaF0
aF0
aF0
aa(lp2710
Vfk_weapon_butt_06_anim
p2711
a(lp2712
VtranslateX
p2713
aVtranslateY
p2714
aVtranslateZ
p2715
aVrotateX
p2716
aVrotateY
p2717
aVrotateZ
p2718
aaF0
aF0
aF0
aF0
aF0
aF0
aa(lp2719
Vweapon_butt_cv_5_anim
p2720
a(lp2721
VtranslateX
p2722
aVtranslateY
p2723
aVtranslateZ
p2724
aaF0
aF0
aF0
aa(lp2725
Vfk_weapon_butt_07_anim
p2726
a(lp2727
VtranslateX
p2728
aVtranslateY
p2729
aVtranslateZ
p2730
aVrotateX
p2731
aVrotateY
p2732
aVrotateZ
p2733
aaF0
aF0
aF0
aF0
aF0
aF0
aa(lp2734
Vweapon_butt_cv_6_anim
p2735
a(lp2736
VtranslateX
p2737
aVtranslateY
p2738
aVtranslateZ
p2739
aaF0
aF0
aF0
aa(lp2740
Vfk_weapon_butt_08_anim
p2741
a(lp2742
VtranslateX
p2743
aVtranslateY
p2744
aVtranslateZ
p2745
aVrotateX
p2746
aVrotateY
p2747
aVrotateZ
p2748
aaF0
aF0
aF0
aF0
aF0
aF0
aa(lp2749
Vweapon_butt_cv_7_anim
p2750
a(lp2751
VtranslateX
p2752
aVtranslateY
p2753
aVtranslateZ
p2754
aaF0
aF0
aF0
aa(lp2755
Vfk_weapon_butt_09_anim
p2756
a(lp2757
VtranslateX
p2758
aVtranslateY
p2759
aVtranslateZ
p2760
aVrotateX
p2761
aVrotateY
p2762
aVrotateZ
p2763
aaF0
aF0
aF0
aF0
aF0
aF0
aa(lp2764
Vweapon_butt_cv_8_anim
p2765
a(lp2766
VtranslateX
p2767
aVtranslateY
p2768
aVtranslateZ
p2769
aaF0
aF0
aF0
aa(lp2770
Vwrist_plate_r_anim
p2771
a(lp2772
VtranslateX
p2773
aVtranslateY
p2774
aVtranslateZ
p2775
aVrotateX
p2776
aVrotateY
p2777
aVrotateZ
p2778
aVscaleX
p2779
aVscaleY
p2780
aVscaleZ
p2781
aaF0
aF0
aF0
aF0
aF0
aF0
aF1
aF1
aF1
aa(lp2782
Vweapon_bladeD_02_anim
p2783
a(lp2784
VtranslateX
p2785
aVtranslateY
p2786
aVtranslateZ
p2787
aVrotateX
p2788
aVrotateY
p2789
aVrotateZ
p2790
aVscaleX
p2791
aVscaleY
p2792
aVscaleZ
p2793
aaF0
aF0
aF0
aF0
aF0
aF0
aF1
aF1
aF1
aa(lp2794
Vbody_anim_space_switcher
p2795
a(lp2796
Vvisibility
p2797
aVtranslateX
p2798
aVtranslateY
p2799
aVtranslateZ
p2800
aVrotateX
p2801
aVrotateY
p2802
aVrotateZ
p2803
aVscaleX
p2804
aVscaleY
p2805
aVscaleZ
p2806
aVspace_world
p2807
aaI01
aF0
aF0
aF5.856452433224257e-15
aF0
aF0
aF0
aF1
aF1
aF1
aF0
aa(lp2808
Vbracelet_A_l_anim_space_switcher
p2809
a(lp2810
Vvisibility
p2811
aVtranslateX
p2812
aVtranslateY
p2813
aVtranslateZ
p2814
aVrotateX
p2815
aVrotateY
p2816
aVrotateZ
p2817
aVscaleX
p2818
aVscaleY
p2819
aVscaleZ
p2820
aVspace_world
p2821
aaI01
aF1.4210854715202004e-14
aF0
aF0
aF3.1805546814635168e-15
aF1.5902773407317584e-15
aF-7.9513867036587919e-16
aF1
aF1
aF0.99999999999999989
aF0
aa(lp2822
Vbracelet_B_l_anim_space_switcher
p2823
a(lp2824
Vvisibility
p2825
aVtranslateX
p2826
aVtranslateY
p2827
aVtranslateZ
p2828
aVrotateX
p2829
aVrotateY
p2830
aVrotateZ
p2831
aVscaleX
p2832
aVscaleY
p2833
aVscaleZ
p2834
aVspace_world
p2835
aaI01
aF0
aF-1.4210854715202004e-14
aF0
aF-3.1805546814635168e-15
aF-0
aF-1.5902773407317584e-15
aF1
aF1
aF1
aF0
aa(lp2836
Vbracelet_C_l_anim_space_switcher
p2837
a(lp2838
Vvisibility
p2839
aVtranslateX
p2840
aVtranslateY
p2841
aVtranslateZ
p2842
aVrotateX
p2843
aVrotateY
p2844
aVrotateZ
p2845
aVscaleX
p2846
aVscaleY
p2847
aVscaleZ
p2848
aVspace_world
p2849
aaI01
aF1.4210854715202004e-14
aF1.4210854715202004e-14
aF2.8421709430404007e-14
aF3.180554681463516e-15
aF-3.180554681463516e-15
aF0
aF1.0000000000000002
aF1.0000000000000002
aF1.0000000000000002
aF0
aa(lp2850
Vchest_ik_anim_space_switcher
p2851
a(lp2852
Vvisibility
p2853
aVtranslateX
p2854
aVtranslateY
p2855
aVtranslateZ
p2856
aVrotateX
p2857
aVrotateY
p2858
aVrotateZ
p2859
aVscaleX
p2860
aVscaleY
p2861
aVscaleZ
p2862
aVspace_world
p2863
aVspace_chest_ik_world_aligned
p2864
aaI01
aF0
aF-8.8817841970012523e-15
aF-1.3555225542027927e-07
aF3.5311250384401269e-31
aF2.8249000307521015e-30
aF0
aF1
aF1
aF1
aF0
aF0
aa(lp2865
Veyeball_l_anim_space_switcher
p2866
a(lp2867
Vvisibility
p2868
aVtranslateX
p2869
aVtranslateY
p2870
aVtranslateZ
p2871
aVrotateX
p2872
aVrotateY
p2873
aVrotateZ
p2874
aVscaleX
p2875
aVscaleY
p2876
aVscaleZ
p2877
aVspace_world
p2878
aaI01
aF0
aF0
aF0
aF0
aF0
aF0
aF1
aF1
aF1
aF0
aa(lp2879
Veyeball_r_anim_space_switcher
p2880
a(lp2881
Vvisibility
p2882
aVtranslateX
p2883
aVtranslateY
p2884
aVtranslateZ
p2885
aVrotateX
p2886
aVrotateY
p2887
aVrotateZ
p2888
aVscaleX
p2889
aVscaleY
p2890
aVscaleZ
p2891
aVspace_world
p2892
aaI01
aF4.4408920985006262e-16
aF0
aF0
aF0
aF0
aF0
aF1
aF1
aF1
aF0
aa(lp2893
Veyebrow_in_l_anim_space_switcher
p2894
a(lp2895
Vvisibility
p2896
aVtranslateX
p2897
aVtranslateY
p2898
aVtranslateZ
p2899
aVrotateX
p2900
aVrotateY
p2901
aVrotateZ
p2902
aVscaleX
p2903
aVscaleY
p2904
aVscaleZ
p2905
aVspace_world
p2906
aaI01
aF0
aF-3.5527136788005009e-15
aF-2.8421709430404007e-14
aF0
aF9.9392333795734899e-17
aF-3.975693351829396e-16
aF1
aF1
aF1.0000000000000002
aF0
aa(lp2907
Veyebrow_in_r_anim_space_switcher
p2908
a(lp2909
Vvisibility
p2910
aVtranslateX
p2911
aVtranslateY
p2912
aVtranslateZ
p2913
aVrotateX
p2914
aVrotateY
p2915
aVrotateZ
p2916
aVscaleX
p2917
aVscaleY
p2918
aVscaleZ
p2919
aVspace_world
p2920
aaI01
aF-4.4408920985006262e-16
aF0
aF0
aF7.9513867036587919e-16
aF-9.9392333795734874e-17
aF4.5968954380527377e-16
aF1.0000000000000002
aF1
aF1.0000000000000002
aF0
aa(lp2921
Veyebrow_out_l_anim_space_switcher
p2922
a(lp2923
Vvisibility
p2924
aVtranslateX
p2925
aVtranslateY
p2926
aVtranslateZ
p2927
aVrotateX
p2928
aVrotateY
p2929
aVrotateZ
p2930
aVscaleX
p2931
aVscaleY
p2932
aVscaleZ
p2933
aVspace_world
p2934
aaI01
aF-1.4210854715202004e-14
aF0
aF0
aF0
aF1.5902773407317584e-15
aF-2.3854160110976376e-15
aF1
aF0.99999999999999989
aF1
aF0
aa(lp2935
Veyebrow_out_r_anim_space_switcher
p2936
a(lp2937
Vvisibility
p2938
aVtranslateX
p2939
aVtranslateY
p2940
aVtranslateZ
p2941
aVrotateX
p2942
aVrotateY
p2943
aVrotateZ
p2944
aVscaleX
p2945
aVscaleY
p2946
aVscaleZ
p2947
aVspace_world
p2948
aaI01
aF-7.1054273576010019e-15
aF0
aF-2.8421709430404007e-14
aF0
aF1.590277340731758e-15
aF7.9513867036587899e-16
aF1.0000000000000002
aF1
aF1
aF0
aa(lp2949
Veyelid_bott_l_anim_space_switcher
p2950
a(lp2951
Vvisibility
p2952
aVtranslateX
p2953
aVtranslateY
p2954
aVtranslateZ
p2955
aVrotateX
p2956
aVrotateY
p2957
aVrotateZ
p2958
aVscaleX
p2959
aVscaleY
p2960
aVscaleZ
p2961
aVspace_world
p2962
aaI01
aF0
aF0
aF0
aF0
aF0
aF0
aF1
aF1
aF1
aF0
aa(lp2963
Veyelid_bott_r_anim_space_switcher
p2964
a(lp2965
Vvisibility
p2966
aVtranslateX
p2967
aVtranslateY
p2968
aVtranslateZ
p2969
aVrotateX
p2970
aVrotateY
p2971
aVrotateZ
p2972
aVscaleX
p2973
aVscaleY
p2974
aVscaleZ
p2975
aVspace_world
p2976
aaI01
aF4.4408920985006262e-16
aF0
aF0
aF0
aF0
aF0
aF1
aF1
aF1
aF0
aa(lp2977
Veyelid_top_l_anim_space_switcher
p2978
a(lp2979
Vvisibility
p2980
aVtranslateX
p2981
aVtranslateY
p2982
aVtranslateZ
p2983
aVrotateX
p2984
aVrotateY
p2985
aVrotateZ
p2986
aVscaleX
p2987
aVscaleY
p2988
aVscaleZ
p2989
aVspace_world
p2990
aaI01
aF0
aF0
aF0
aF0
aF0
aF0
aF1
aF1
aF1
aF0
aa(lp2991
Veyelid_top_r_anim_space_switcher
p2992
a(lp2993
Vvisibility
p2994
aVtranslateX
p2995
aVtranslateY
p2996
aVtranslateZ
p2997
aVrotateX
p2998
aVrotateY
p2999
aVrotateZ
p3000
aVscaleX
p3001
aVscaleY
p3002
aVscaleZ
p3003
aVspace_world
p3004
aaI01
aF4.4408920985006262e-16
aF0
aF0
aF0
aF0
aF0
aF1
aF1
aF1
aF0
aa(lp3005
Vhip_back_flaps_anim_space_switcher
p3006
a(lp3007
Vvisibility
p3008
aVtranslateX
p3009
aVtranslateY
p3010
aVtranslateZ
p3011
aVrotateX
p3012
aVrotateY
p3013
aVrotateZ
p3014
aVscaleX
p3015
aVscaleY
p3016
aVscaleZ
p3017
aVspace_world
p3018
aaI01
aF0
aF0
aF0
aF0
aF0
aF0
aF1
aF1
aF1
aF0
aa(lp3019
Vik_elbow_l_anim_space_switcher
p3020
a(lp3021
Vvisibility
p3022
aVtranslateX
p3023
aVtranslateY
p3024
aVtranslateZ
p3025
aVrotateX
p3026
aVrotateY
p3027
aVrotateZ
p3028
aVscaleX
p3029
aVscaleY
p3030
aVscaleZ
p3031
aVspace_world
p3032
aVspace_body_anim
p3033
aVspace_chest_ik_anim
p3034
aaI01
aF-5.5530346187993018e-06
aF-8.2796614577773653e-06
aF0.00010569494523338108
aF0
aF0
aF0
aF1
aF1
aF1
aF0
aF0
aF0
aa(lp3035
Vik_elbow_r_anim_space_switcher
p3036
a(lp3037
Vvisibility
p3038
aVtranslateX
p3039
aVtranslateY
p3040
aVtranslateZ
p3041
aVrotateX
p3042
aVrotateY
p3043
aVrotateZ
p3044
aVscaleX
p3045
aVscaleY
p3046
aVscaleZ
p3047
aVspace_world
p3048
aVspace_body_anim
p3049
aVspace_chest_ik_anim
p3050
aaI01
aF-5.5530346187993018e-06
aF8.2796614577773653e-06
aF-0.00010569494523338108
aF0
aF0
aF0
aF1
aF1
aF1
aF0
aF0
aF0
aa(lp3051
Vik_foot_anim_l_space_switcher
p3052
a(lp3053
Vvisibility
p3054
aVtranslateX
p3055
aVtranslateY
p3056
aVtranslateZ
p3057
aVrotateX
p3058
aVrotateY
p3059
aVrotateZ
p3060
aVscaleX
p3061
aVscaleY
p3062
aVscaleZ
p3063
aVspace_world
p3064
aVspace_body_anim
p3065
aaI01
aF1.7795704437162385e-05
aF1.7388318187983032e-05
aF-0.00018205549879724003
aF0
aF-0
aF-0
aF1
aF1
aF1
aF0
aF0
aa(lp3066
Vik_foot_anim_r_space_switcher
p3067
a(lp3068
Vvisibility
p3069
aVtranslateX
p3070
aVtranslateY
p3071
aVtranslateZ
p3072
aVrotateX
p3073
aVrotateY
p3074
aVrotateZ
p3075
aVscaleX
p3076
aVscaleY
p3077
aVscaleZ
p3078
aVspace_world
p3079
aVspace_body_anim
p3080
aaI01
aF1.7795704437162385e-05
aF-1.7388318187983032e-05
aF0.00018205549879724003
aF0
aF-0
aF-0
aF1
aF1
aF1
aF0
aF0
aa(lp3081
Vik_wrist_l_anim_space_switcher
p3082
a(lp3083
Vvisibility
p3084
aVtranslateX
p3085
aVtranslateY
p3086
aVtranslateZ
p3087
aVrotateX
p3088
aVrotateY
p3089
aVrotateZ
p3090
aVscaleX
p3091
aVscaleY
p3092
aVscaleZ
p3093
aVspace_world
p3094
aVspace_body_anim
p3095
aVspace_head_fk_anim
p3096
aVspace_chest_ik_anim
p3097
aaI01
aF0
aF0
aF0
aF0
aF-0
aF-0
aF1
aF1
aF1
aF0
aF0
aF0
aF0
aa(lp3098
Vik_wrist_r_anim_space_switcher
p3099
a(lp3100
Vvisibility
p3101
aVtranslateX
p3102
aVtranslateY
p3103
aVtranslateZ
p3104
aVrotateX
p3105
aVrotateY
p3106
aVrotateZ
p3107
aVscaleX
p3108
aVscaleY
p3109
aVscaleZ
p3110
aVspace_world
p3111
aVspace_body_anim
p3112
aVspace_head_fk_anim
p3113
aVspace_chest_ik_anim
p3114
aaI01
aF0.00010365223528197021
aF1.4836969924658661e-05
aF-5.4660423444374828e-05
aF0
aF-0
aF-0
aF1
aF1
aF1
aF0
aF0
aF0
aF0
aa(lp3115
Vjaw_anim_space_switcher
p3116
a(lp3117
Vvisibility
p3118
aVtranslateX
p3119
aVtranslateY
p3120
aVtranslateZ
p3121
aVrotateX
p3122
aVrotateY
p3123
aVrotateZ
p3124
aVscaleX
p3125
aVscaleY
p3126
aVscaleZ
p3127
aVspace_world
p3128
aaI01
aF0
aF0
aF0
aF0
aF0
aF0
aF1
aF1
aF1
aF0
aa(lp3129
Vl_global_ik_anim_space_switcher
p3130
a(lp3131
Vvisibility
p3132
aVtranslateX
p3133
aVtranslateY
p3134
aVtranslateZ
p3135
aVrotateX
p3136
aVrotateY
p3137
aVrotateZ
p3138
aVscaleX
p3139
aVscaleY
p3140
aVscaleZ
p3141
aVspace_world
p3142
aaI01
aF0
aF0
aF0
aF0
aF0
aF0
aF1
aF1
aF1
aF0
aa(lp3143
Vmaster_anim_space_switcher
p3144
a(lp3145
Vvisibility
p3146
aVtranslateX
p3147
aVtranslateY
p3148
aVtranslateZ
p3149
aVrotateX
p3150
aVrotateY
p3151
aVrotateZ
p3152
aVscaleX
p3153
aVscaleY
p3154
aVscaleZ
p3155
aVspace_world
p3156
aaI01
aF0
aF0
aF0
aF0
aF0
aF0
aF1
aF1
aF1
aF0
aa(lp3157
Vpipe_anim_space_switcher
p3158
a(lp3159
Vvisibility
p3160
aVtranslateX
p3161
aVtranslateY
p3162
aVtranslateZ
p3163
aVrotateX
p3164
aVrotateY
p3165
aVrotateZ
p3166
aVscaleX
p3167
aVscaleY
p3168
aVscaleZ
p3169
aVspace_world
p3170
aaI01
aF0
aF0
aF0
aF0
aF0
aF0
aF1
aF1
aF1
aF0
aa(lp3171
Vr_global_ik_anim_space_switcher
p3172
a(lp3173
Vvisibility
p3174
aVtranslateX
p3175
aVtranslateY
p3176
aVtranslateZ
p3177
aVrotateX
p3178
aVrotateY
p3179
aVrotateZ
p3180
aVscaleX
p3181
aVscaleY
p3182
aVscaleZ
p3183
aVspace_world
p3184
aaI01
aF0
aF0
aF0
aF0
aF0
aF0
aF1
aF1
aF1
aF0
aa(lp3185
Vshoulder_blade_in_r_anim_space_switcher
p3186
a(lp3187
Vvisibility
p3188
aVtranslateX
p3189
aVtranslateY
p3190
aVtranslateZ
p3191
aVrotateX
p3192
aVrotateY
p3193
aVrotateZ
p3194
aVscaleX
p3195
aVscaleY
p3196
aVscaleZ
p3197
aVspace_world
p3198
aaI01
aF-3.5527136788005009e-15
aF3.5527136788005009e-15
aF0
aF0
aF-0
aF7.4544250346801174e-17
aF1
aF1
aF1.0000000000000002
aF0
aa(lp3199
Vshoulder_blade_mid_r_anim_space_switcher
p3200
a(lp3201
Vvisibility
p3202
aVtranslateX
p3203
aVtranslateY
p3204
aVtranslateZ
p3205
aVrotateX
p3206
aVrotateY
p3207
aVrotateZ
p3208
aVscaleX
p3209
aVscaleY
p3210
aVscaleZ
p3211
aVspace_world
p3212
aaI01
aF3.5527136788005009e-15
aF0
aF0
aF0
aF-0
aF7.4544250346801174e-17
aF1
aF1
aF1.0000000000000002
aF0
aa(lp3213
Vshoulder_blade_out_r_anim_space_switcher
p3214
a(lp3215
Vvisibility
p3216
aVtranslateX
p3217
aVtranslateY
p3218
aVtranslateZ
p3219
aVrotateX
p3220
aVrotateY
p3221
aVrotateZ
p3222
aVscaleX
p3223
aVscaleY
p3224
aVscaleZ
p3225
aVspace_world
p3226
aaI01
aF-3.5527136788005009e-15
aF0
aF0
aF0
aF-0
aF7.4544250346801174e-17
aF1
aF1
aF1.0000000000000002
aF0
aa(lp3227
Vshoulder_cloth_01_l_anim_space_switcher
p3228
a(lp3229
Vvisibility
p3230
aVtranslateX
p3231
aVtranslateY
p3232
aVtranslateZ
p3233
aVrotateX
p3234
aVrotateY
p3235
aVrotateZ
p3236
aVscaleX
p3237
aVscaleY
p3238
aVscaleZ
p3239
aVspace_world
p3240
aaI01
aF0
aF1.4210854715202004e-14
aF-2.8421709430404007e-14
aF0
aF-3.180554681463516e-15
aF0
aF1.0000000000000002
aF1.0000000000000002
aF1.0000000000000002
aF0
aa(lp3241
Vshoulder_cloth_02_l_anim_space_switcher
p3242
a(lp3243
Vvisibility
p3244
aVtranslateX
p3245
aVtranslateY
p3246
aVtranslateZ
p3247
aVrotateX
p3248
aVrotateY
p3249
aVrotateZ
p3250
aVscaleX
p3251
aVscaleY
p3252
aVscaleZ
p3253
aVspace_world
p3254
aaI01
aF-1.4210854715202004e-14
aF0
aF2.8421709430404007e-14
aF0
aF-6.3611093629270335e-15
aF1.5902773407317584e-15
aF1
aF1
aF1
aF0
aa(lp3255
Vshoulder_pad_r_anim_space_switcher
p3256
a(lp3257
Vvisibility
p3258
aVtranslateX
p3259
aVtranslateY
p3260
aVtranslateZ
p3261
aVrotateX
p3262
aVrotateY
p3263
aVrotateZ
p3264
aVscaleX
p3265
aVscaleY
p3266
aVscaleZ
p3267
aVspace_world
p3268
aaI01
aF0
aF-3.5527136788005009e-15
aF0
aF9.9392333795734899e-17
aF-1.987846675914698e-16
aF-7.765026077791789e-18
aF1
aF1
aF1
aF0
aa(lp3269
Vspine_01_space_switcher
p3270
a(lp3271
Vvisibility
p3272
aVtranslateX
p3273
aVtranslateY
p3274
aVtranslateZ
p3275
aVrotateX
p3276
aVrotateY
p3277
aVrotateZ
p3278
aVscaleX
p3279
aVscaleY
p3280
aVscaleZ
p3281
aVspace_world
p3282
aaI01
aF0
aF3.5527136788005009e-15
aF1.0097419586828951e-28
aF0
aF0
aF0
aF0.99999999999999989
aF0.99999999999999989
aF1
aF0
aa(lp3283
Vweapon_anim_space_switcher
p3284
a(lp3285
Vvisibility
p3286
aVtranslateX
p3287
aVtranslateY
p3288
aVtranslateZ
p3289
aVrotateX
p3290
aVrotateY
p3291
aVrotateZ
p3292
aVscaleX
p3293
aVscaleY
p3294
aVscaleZ
p3295
aVspace_world
p3296
aaI01
aF-2.8421709430404007e-14
aF0
aF-2.8421709430404007e-14
aF2.3854160110976376e-15
aF3.1805546814635168e-15
aF-1.1927080055488188e-15
aF1
aF1
aF1
aF0
aa(lp3297
Vweapon_bladeA_01_anim_space_switcher
p3298
a(lp3299
Vvisibility
p3300
aVtranslateX
p3301
aVtranslateY
p3302
aVtranslateZ
p3303
aVrotateX
p3304
aVrotateY
p3305
aVrotateZ
p3306
aVscaleX
p3307
aVscaleY
p3308
aVscaleZ
p3309
aVspace_world
p3310
aVspace_weapon_blades_master_anim
p3311
aaI01
aF2.8421709430404007e-14
aF0
aF-2.8421709430404007e-14
aF7.9513867036587919e-16
aF-0
aF-1.5902773407317584e-15
aF1
aF1
aF0.99999999999999978
aF0
aF0
aa(lp3312
Vweapon_bladeA_02_anim_space_switcher
p3313
a(lp3314
Vvisibility
p3315
aVtranslateX
p3316
aVtranslateY
p3317
aVtranslateZ
p3318
aVrotateX
p3319
aVrotateY
p3320
aVrotateZ
p3321
aVscaleX
p3322
aVscaleY
p3323
aVscaleZ
p3324
aVspace_world
p3325
aaI01
aF0
aF-2.8421709430404007e-14
aF-4.2632564145606011e-14
aF7.9513867036587919e-16
aF-0
aF-1.5902773407317584e-15
aF1
aF1
aF0.99999999999999978
aF0
aa(lp3326
Vweapon_bladeA_03_anim_space_switcher
p3327
a(lp3328
Vvisibility
p3329
aVtranslateX
p3330
aVtranslateY
p3331
aVtranslateZ
p3332
aVrotateX
p3333
aVrotateY
p3334
aVrotateZ
p3335
aVscaleX
p3336
aVscaleY
p3337
aVscaleZ
p3338
aVspace_world
p3339
aaI01
aF-2.8421709430404007e-14
aF0
aF-4.2632564145606011e-14
aF7.9513867036587919e-16
aF-0
aF-1.5902773407317584e-15
aF1
aF1
aF0.99999999999999978
aF0
aa(lp3340
Vweapon_bladeA_04_anim_space_switcher
p3341
a(lp3342
Vvisibility
p3343
aVtranslateX
p3344
aVtranslateY
p3345
aVtranslateZ
p3346
aVrotateX
p3347
aVrotateY
p3348
aVrotateZ
p3349
aVscaleX
p3350
aVscaleY
p3351
aVscaleZ
p3352
aVspace_world
p3353
aaI01
aF0
aF0
aF-2.8421709430404007e-14
aF7.9513867036587919e-16
aF-0
aF-1.5902773407317584e-15
aF1
aF1
aF0.99999999999999978
aF0
aa(lp3354
Vweapon_bladeA_05_anim_space_switcher
p3355
a(lp3356
Vvisibility
p3357
aVtranslateX
p3358
aVtranslateY
p3359
aVtranslateZ
p3360
aVrotateX
p3361
aVrotateY
p3362
aVrotateZ
p3363
aVscaleX
p3364
aVscaleY
p3365
aVscaleZ
p3366
aVspace_world
p3367
aaI01
aF0
aF0
aF-4.2632564145606011e-14
aF7.9513867036587919e-16
aF-0
aF-1.5902773407317584e-15
aF1
aF1
aF0.99999999999999978
aF0
aa(lp3368
Vweapon_bladeB_01_anim_space_switcher
p3369
a(lp3370
Vvisibility
p3371
aVtranslateX
p3372
aVtranslateY
p3373
aVtranslateZ
p3374
aVrotateX
p3375
aVrotateY
p3376
aVrotateZ
p3377
aVscaleX
p3378
aVscaleY
p3379
aVscaleZ
p3380
aVspace_world
p3381
aVspace_weapon_blades_master_anim
p3382
aaI01
aF2.8421709430404007e-14
aF0
aF-2.8421709430404007e-14
aF7.9513867036587919e-16
aF-0
aF-1.5902773407317584e-15
aF1
aF1
aF0.99999999999999978
aF0
aF0
aa(lp3383
Vweapon_bladeB_02_anim_space_switcher
p3384
a(lp3385
Vvisibility
p3386
aVtranslateX
p3387
aVtranslateY
p3388
aVtranslateZ
p3389
aVrotateX
p3390
aVrotateY
p3391
aVrotateZ
p3392
aVscaleX
p3393
aVscaleY
p3394
aVscaleZ
p3395
aVspace_world
p3396
aaI01
aF2.8421709430404007e-14
aF-2.1316282072803006e-14
aF0
aF3.1805546814635168e-15
aF3.1805546814635168e-15
aF-3.1805546814635168e-15
aF1
aF1
aF1
aF0
aa(lp3397
Vweapon_bladeB_03_anim_space_switcher
p3398
a(lp3399
Vvisibility
p3400
aVtranslateX
p3401
aVtranslateY
p3402
aVtranslateZ
p3403
aVrotateX
p3404
aVrotateY
p3405
aVrotateZ
p3406
aVscaleX
p3407
aVscaleY
p3408
aVscaleZ
p3409
aVspace_world
p3410
aaI01
aF2.8421709430404007e-14
aF0
aF0
aF-1.987846675914698e-15
aF-0
aF1.987846675914698e-15
aF1
aF1
aF1
aF0
aa(lp3411
Vweapon_bladeB_04_anim_space_switcher
p3412
a(lp3413
Vvisibility
p3414
aVtranslateX
p3415
aVtranslateY
p3416
aVtranslateZ
p3417
aVrotateX
p3418
aVrotateY
p3419
aVrotateZ
p3420
aVscaleX
p3421
aVscaleY
p3422
aVscaleZ
p3423
aVspace_world
p3424
aaI01
aF2.8421709430404007e-14
aF-2.8421709430404007e-14
aF1.4210854715202004e-14
aF-7.9513867036587919e-16
aF-0
aF0
aF1
aF1
aF1
aF0
aa(lp3425
Vweapon_bladeB_05_anim_space_switcher
p3426
a(lp3427
Vvisibility
p3428
aVtranslateX
p3429
aVtranslateY
p3430
aVtranslateZ
p3431
aVrotateX
p3432
aVrotateY
p3433
aVrotateZ
p3434
aVscaleX
p3435
aVscaleY
p3436
aVscaleZ
p3437
aVspace_world
p3438
aaI01
aF0
aF2.8421709430404007e-14
aF1.4210854715202004e-14
aF-7.9513867036587919e-16
aF-0
aF0
aF1
aF1
aF1
aF0
aa(lp3439
Vweapon_bladeC_01_anim_space_switcher
p3440
a(lp3441
Vvisibility
p3442
aVtranslateX
p3443
aVtranslateY
p3444
aVtranslateZ
p3445
aVrotateX
p3446
aVrotateY
p3447
aVrotateZ
p3448
aVscaleX
p3449
aVscaleY
p3450
aVscaleZ
p3451
aVspace_world
p3452
aVspace_weapon_blades_master_anim
p3453
aaI01
aF2.8421709430404007e-14
aF0
aF-2.8421709430404007e-14
aF7.9513867036587919e-16
aF-0
aF-1.5902773407317584e-15
aF1
aF1
aF0.99999999999999978
aF0
aF0
aa(lp3454
Vweapon_bladeC_02_anim_space_switcher
p3455
a(lp3456
Vvisibility
p3457
aVtranslateX
p3458
aVtranslateY
p3459
aVtranslateZ
p3460
aVrotateX
p3461
aVrotateY
p3462
aVrotateZ
p3463
aVscaleX
p3464
aVscaleY
p3465
aVscaleZ
p3466
aVspace_world
p3467
aaI01
aF2.8421709430404007e-14
aF-2.8421709430404007e-14
aF0
aF7.9513867036587919e-16
aF-0
aF-1.5902773407317584e-15
aF1
aF1
aF0.99999999999999978
aF0
aa(lp3468
Vweapon_bladeC_03_anim_space_switcher
p3469
a(lp3470
Vvisibility
p3471
aVtranslateX
p3472
aVtranslateY
p3473
aVtranslateZ
p3474
aVrotateX
p3475
aVrotateY
p3476
aVrotateZ
p3477
aVscaleX
p3478
aVscaleY
p3479
aVscaleZ
p3480
aVspace_world
p3481
aaI01
aF0
aF0
aF-1.4210854715202004e-14
aF7.9513867036587919e-16
aF-0
aF-1.5902773407317584e-15
aF1
aF1
aF0.99999999999999978
aF0
aa(lp3482
Vweapon_bladeD_01_anim_space_switcher
p3483
a(lp3484
Vvisibility
p3485
aVtranslateX
p3486
aVtranslateY
p3487
aVtranslateZ
p3488
aVrotateX
p3489
aVrotateY
p3490
aVrotateZ
p3491
aVscaleX
p3492
aVscaleY
p3493
aVscaleZ
p3494
aVspace_world
p3495
aVspace_weapon_blades_master_anim
p3496
aaI01
aF0
aF-2.8421709430404007e-14
aF-4.2632564145606011e-14
aF7.9513867036587919e-16
aF-0
aF-1.5902773407317584e-15
aF1
aF1
aF0.99999999999999978
aF0
aF0
aa(lp3497
Vweapon_bladeD_02_anim_space_switcher
p3498
a(lp3499
Vvisibility
p3500
aVtranslateX
p3501
aVtranslateY
p3502
aVtranslateZ
p3503
aVrotateX
p3504
aVrotateY
p3505
aVrotateZ
p3506
aVscaleX
p3507
aVscaleY
p3508
aVscaleZ
p3509
aVspace_world
p3510
aaI01
aF0
aF0
aF0
aF0
aF0
aF0
aF1
aF1
aF1
aF0
aa(lp3511
Vweapon_bladeE_01_anim_space_switcher
p3512
a(lp3513
Vvisibility
p3514
aVtranslateX
p3515
aVtranslateY
p3516
aVtranslateZ
p3517
aVrotateX
p3518
aVrotateY
p3519
aVrotateZ
p3520
aVscaleX
p3521
aVscaleY
p3522
aVscaleZ
p3523
aVspace_world
p3524
aaI01
aF0
aF0
aF0
aF0
aF0
aF0
aF1
aF1
aF1
aF0
aa(lp3525
Vwrist_plate_r_anim_space_switcher
p3526
a(lp3527
Vvisibility
p3528
aVtranslateX
p3529
aVtranslateY
p3530
aVtranslateZ
p3531
aVrotateX
p3532
aVrotateY
p3533
aVrotateZ
p3534
aVscaleX
p3535
aVscaleY
p3536
aVscaleZ
p3537
aVspace_world
p3538
aaI01
aF0
aF0
aF-5.6843418860808015e-14
aF0
aF-0
aF9.9392333795734899e-17
aF1
aF1
aF1
aF0
aa.