(lp1
(lp2
Vshoulder_pad_r_anim
p3
a(lp4
VtranslateX
p5
aVtranslateY
p6
aVtranslateZ
p7
aVrotateX
p8
aVrotateY
p9
aVrotateZ
p10
aVscaleX
p11
aVscaleY
p12
aVscaleZ
p13
aaF-1.770038825405126
aF-6.1180499938162907
aF12.516323874282687
aF-22.638651402871339
aF-11.709117753071819
aF55.302679994265795
aF1
aF1
aF1
aa.