(lp1
(lp2
S'fk_clavicle_r_anim'
p3
a(lp4
VtranslateX
p5
aVtranslateY
p6
aVtranslateZ
p7
aVrotateX
p8
aVrotateY
p9
aVrotateZ
p10
aaF9.0931500000000001e-07
aF-8.1420299999999997e-06
aF0.000117248
aF0
aF0
aF0
aa(lp11
S'fk_clavicle_l_anim'
p12
a(lp13
VtranslateX
p14
aVtranslateY
p15
aVtranslateZ
p16
aVrotateX
p17
aVrotateY
p18
aVrotateZ
p19
aaF9.0926799999999999e-07
aF-8.1420799999999998e-06
aF0.000117248
aF0
aF0
aF0
aa(lp20
S'head_fk_anim'
p21
a(lp22
VtranslateX
p23
aVtranslateY
p24
aVtranslateZ
p25
aVrotateX
p26
aVrotateY
p27
aVrotateZ
p28
aVscaleX
p29
aVscaleY
p30
aVscaleZ
p31
aVfkOrientation
p32
aaF0
aF0
aF0
aF20.882288294882262
aF-10.780072558438174
aF13.468070008388992
aF1
aF1
aF1
aI0
aa(lp33
S'neck_01_fk_anim'
p34
a(lp35
VtranslateX
p36
aVtranslateY
p37
aVtranslateZ
p38
aVrotateX
p39
aVrotateY
p40
aVrotateZ
p41
aVscaleX
p42
aVscaleY
p43
aVscaleZ
p44
aVfkOrientation
p45
aaF0
aF0
aF0
aF-91.056490750581091
aF-18.904568806953467
aF-18.642554962430587
aF1
aF1
aF1
aI0
aa(lp46
S'neck_02_fk_anim'
p47
a(lp48
VtranslateX
p49
aVtranslateY
p50
aVtranslateZ
p51
aVrotateX
p52
aVrotateY
p53
aVrotateZ
p54
aVscaleX
p55
aVscaleY
p56
aVscaleZ
p57
aaF-1.6356888024690406
aF1.0486833087529095
aF0.77810547852783141
aF20.161293430091789
aF-4.326031345058639
aF-4.6741055351508392
aF1
aF1
aF1
aa(lp58
S'spine_01_anim'
p59
a(lp60
Vlength
p61
aVtranslateY
p62
aVtranslateZ
p63
aVrotateX
p64
aVrotateY
p65
aVrotateZ
p66
aaF0
aF0
aF0
aF-2.6811413151464945
aF4.2487839864106105
aF-11.052877477826019
aa(lp67
S'spine_02_anim'
p68
a(lp69
Vlength
p70
aVtranslateY
p71
aVtranslateZ
p72
aVrotateX
p73
aVrotateY
p74
aVrotateZ
p75
aaF0
aF0
aF0
aF-12.233972408973784
aF2.0509954270490494
aF-2.7656904079489908
aa(lp76
S'spine_03_anim'
p77
a(lp78
Vlength
p79
aVtranslateY
p80
aVtranslateZ
p81
aVrotateX
p82
aVrotateY
p83
aVrotateZ
p84
aaF0
aF0
aF0
aF-12.109387777823184
aF1.2453170526655319
aF-3.3382125082180751
aa(lp85
S'mid_ik_anim'
p86
a(lp87
VtranslateX
p88
aVtranslateY
p89
aVtranslateZ
p90
aVrotateX
p91
aVrotateY
p92
aVrotateZ
p93
aaF0
aF0
aF0
aF-0
aF0
aF-0
aa(lp94
S'chest_ik_anim'
p95
a(lp96
VtranslateX
p97
aVtranslateY
p98
aVtranslateZ
p99
aVrotateX
p100
aVrotateY
p101
aVrotateZ
p102
aVstretch
p103
aVsquash
p104
aVtwist_amount
p105
aVautoSpine
p106
aVrotationInfluence
p107
aaF-0.022923950500681137
aF0.084491538085772283
aF-0.28121657994316451
aF47.35870735238796
aF-1.6488433840739845
aF-7.4082466479305236
aF1
aF1
aF1
aF0
aF0.25
aa(lp108
S'body_anim'
p109
a(lp110
VtranslateX
p111
aVtranslateY
p112
aVtranslateZ
p113
aVrotateX
p114
aVrotateY
p115
aVrotateZ
p116
aVblendOrient1
p117
aaF-10.348260442835567
aF0.43254967975775216
aF0.2790468182377106
aF7.225186056228341
aF-1.7845554077693468
aF-29.407475860572674
aF1
aa(lp118
S'hip_anim'
p119
a(lp120
VtranslateX
p121
aVtranslateY
p122
aVtranslateZ
p123
aVrotateX
p124
aVrotateY
p125
aVrotateZ
p126
aVlCalfTwistCtrlVis
p127
aVrCalfTwistCtrlVis
p128
aVautoHips
p129
aaF0
aF0
aF0
aF12.368511639869938
aF-0.013507736760080451
aF-0.13258400560730055
aI00
aI00
aF0
aa(lp130
S'clavicle_l_anim'
p131
a(lp132
VtranslateX
p133
aVtranslateY
p134
aVtranslateZ
p135
aVautoShoulders
p136
aaF3.6539512511212786
aF-3.1742320746844905
aF3.0025862162111761
aF1
aa(lp137
S'clavicle_r_anim'
p138
a(lp139
VtranslateX
p140
aVtranslateY
p141
aVtranslateZ
p142
aVautoShoulders
p143
aaF0.92044479710451677
aF0.50462612637058213
aF-0.33813401305032365
aF0
aa(lp144
S'fk_arm_l_anim'
p145
a(lp146
VtranslateX
p147
aVtranslateY
p148
aVtranslateZ
p149
aVrotateX
p150
aVrotateY
p151
aVrotateZ
p152
aaF0
aF0
aF0
aF3.2549578393898555
aF2.8342699870105723
aF-40.646825450571853
aa(lp153
S'fk_arm_r_anim'
p154
a(lp155
VtranslateX
p156
aVtranslateY
p157
aVtranslateZ
p158
aVrotateX
p159
aVrotateY
p160
aVrotateZ
p161
aaF0
aF0
aF0
aF73.617551098763045
aF54.900001362512583
aF71.759578945399056
aa(lp162
S'fk_elbow_l_anim'
p163
a(lp164
VtranslateX
p165
aVtranslateY
p166
aVtranslateZ
p167
aVrotateX
p168
aVrotateY
p169
aVrotateZ
p170
aaF0
aF0
aF0
aF3.596179723739624
aF-4.2803478240966824
aF-54.968814849853544
aa(lp171
S'fk_elbow_r_anim'
p172
a(lp173
VtranslateX
p174
aVtranslateY
p175
aVtranslateZ
p176
aVrotateX
p177
aVrotateY
p178
aVrotateZ
p179
aaF0
aF0
aF0
aF5.112821102142326
aF-2.0139985084533647
aF-91.27233123779304
aa(lp180
S'fk_wrist_l_anim'
p181
a(lp182
VtranslateX
p183
aVtranslateY
p184
aVtranslateZ
p185
aVrotateX
p186
aVrotateY
p187
aVrotateZ
p188
aaF0
aF0
aF0
aF18.62934684753419
aF26.421085357666019
aF-37.148540496826158
aa(lp189
S'fk_wrist_r_anim'
p190
a(lp191
VtranslateX
p192
aVtranslateY
p193
aVtranslateZ
p194
aVrotateX
p195
aVrotateY
p196
aVrotateZ
p197
aaF0
aF0
aF0
aF-61.983901977539112
aF-34.152790069580085
aF-16.250190734863256
aa(lp198
S'ik_elbow_l_anim'
p199
a(lp200
VtranslateX
p201
aVtranslateY
p202
aVtranslateZ
p203
aaF-14.980802046823612
aF108.5729222272679
aF13.843284323384513
aa(lp204
S'ik_elbow_r_anim'
p205
a(lp206
VtranslateX
p207
aVtranslateY
p208
aVtranslateZ
p209
aaF-53.887593789928601
aF-4.9553357439334604
aF-66.50497627888835
aa(lp210
S'ik_wrist_l_anim'
p211
a(lp212
VtranslateX
p213
aVtranslateY
p214
aVtranslateZ
p215
aVrotateX
p216
aVrotateY
p217
aVrotateZ
p218
aVstretch
p219
aVsquash
p220
aVstretchBias
p221
aVside
p222
aVmid_bend
p223
aVmid_swivel
p224
aVtip_pivot
p225
aVtip_swivel
p226
aaF-46.108854290238646
aF21.419541989499656
aF-40.23574861093374
aF25.085619587908617
aF67.807010230237893
aF6.5597466409674547
aF0
aF0
aF0
aF0
aF-33.502161042125906
aF7.2516207815944025
aF0
aF0
aa(lp227
S'ik_wrist_r_anim'
p228
a(lp229
VtranslateX
p230
aVtranslateY
p231
aVtranslateZ
p232
aVrotateX
p233
aVrotateY
p234
aVrotateZ
p235
aVstretch
p236
aVsquash
p237
aVstretchBias
p238
aVside
p239
aVmid_bend
p240
aVmid_swivel
p241
aVtip_pivot
p242
aVtip_swivel
p243
aVspace_weapon_anim
p244
aaF83.482232749859151
aF-62.081380346861593
aF-58.275007932479099
aF-113.19721939213876
aF-49.115055124511819
aF80.283587033923283
aF0
aF0
aF0
aF0
aF17.400000000000002
aF0
aF0
aF0
aF0
aa(lp245
S'fk_thigh_l_anim'
p246
a(lp247
VrotateX
p248
aVrotateY
p249
aVrotateZ
p250
aaF13.938427096674506
aF2.8322792805245878
aF10.473824890613079
aa(lp251
S'fk_thigh_r_anim'
p252
a(lp253
VrotateX
p254
aVrotateY
p255
aVrotateZ
p256
aaF-7.5324248298987309
aF12.889939149664411
aF59.48853060933758
aa(lp257
S'fk_calf_l_anim'
p258
a(lp259
VrotateX
p260
aVrotateY
p261
aVrotateZ
p262
aaF1.0970801115036004
aF-0.96328711509704645
aF-37.511417388915952
aa(lp263
S'fk_calf_r_anim'
p264
a(lp265
VrotateX
p266
aVrotateY
p267
aVrotateZ
p268
aaF-6.4742641448974645
aF5.3569259643554696
aF-102.27614593505859
aa(lp269
S'fk_foot_l_anim'
p270
a(lp271
VrotateX
p272
aVrotateY
p273
aVrotateZ
p274
aaF4.6191415786742933
aF-13.914047241210943
aF25.511520385742081
aa(lp275
S'fk_foot_r_anim'
p276
a(lp277
VrotateX
p278
aVrotateY
p279
aVrotateZ
p280
aaF8.5031538009643697
aF9.3719530105590358
aF-0.34655657410616181
aa(lp281
S'fk_ball_l_anim'
p282
a(lp283
VrotateX
p284
aVrotateY
p285
aVrotateZ
p286
aaF-0.93183010816572898
aF0.52684146165848644
aF10.142395019531293
aa(lp287
S'fk_ball_r_anim'
p288
a(lp289
VrotateX
p290
aVrotateY
p291
aVrotateZ
p292
aaF-0.11102306842803325
aF-0.022280123084756544
aF2.0277161598204949
aa(lp293
S'ik_foot_anim_l'
p294
a(lp295
VtranslateX
p296
aVtranslateY
p297
aVtranslateZ
p298
aVrotateX
p299
aVrotateY
p300
aVrotateZ
p301
aVknee_twist
p302
aVstretch
p303
aVsquash
p304
aVtoeCtrlVis
p305
aVstretchBias
p306
aaF-8.2134040727718336
aF28.603401633073645
aF-2.8421709430404007e-14
aF0
aF-0
aF0
aF0.92185354996086666
aF0
aF0
aI00
aF0
aa(lp307
S'ik_foot_anim_r'
p308
a(lp309
VtranslateX
p310
aVtranslateY
p311
aVtranslateZ
p312
aVrotateX
p313
aVrotateY
p314
aVrotateZ
p315
aVknee_twist
p316
aVstretch
p317
aVsquash
p318
aVtoeCtrlVis
p319
aVstretchBias
p320
aaF9.1232758016592896
aF6.9506311993749819
aF34.879026101329465
aF52.313273692639505
aF0.24161841518345714
aF-25.889003539848307
aF14
aF0
aF0
aI00
aF0
aa(lp321
S'heel_ctrl_l'
p322
a(lp323
VrotateX
p324
aVrotateY
p325
aVrotateZ
p326
aVheelPivot
p327
aVballPivot
p328
aaF0
aF0
aF-10.14239501953125
aF0
aF0
aa(lp329
S'heel_ctrl_r'
p330
a(lp331
VrotateX
p332
aVrotateY
p333
aVrotateZ
p334
aVheelPivot
p335
aVballPivot
p336
aaF0
aF-0
aF0
aF0
aF0
aa(lp337
S'toe_wiggle_ctrl_l'
p338
a(lp339
VrotateX
p340
aVrotateY
p341
aVrotateZ
p342
aaF0
aF-0
aF0
aa(lp343
S'toe_wiggle_ctrl_r'
p344
a(lp345
VrotateX
p346
aVrotateY
p347
aVrotateZ
p348
aaF0
aF-0
aF0
aa(lp349
S'toe_tip_ctrl_l'
p350
a(lp351
VrotateX
p352
aVrotateY
p353
aVrotateZ
p354
aaF0
aF-0
aF0
aa(lp355
S'toe_tip_ctrl_r'
p356
a(lp357
VrotateX
p358
aVrotateY
p359
aVrotateZ
p360
aaF0
aF-0
aF0
aa(lp361
S'master_anim'
p362
a(lp363
VtranslateX
p364
aVtranslateY
p365
aVtranslateZ
p366
aVrotateX
p367
aVrotateY
p368
aVrotateZ
p369
aaF0
aF0
aF0
aF0
aF0
aF0
aa(lp370
S'offset_anim'
p371
a(lp372
VtranslateX
p373
aVtranslateY
p374
aVtranslateZ
p375
aVrotateX
p376
aVrotateY
p377
aVrotateZ
p378
aaF0
aF-24.547936212692903
aF0
aF0
aF0
aF0
aa(lp379
S'root_anim'
p380
a(lp381
VtranslateX
p382
aVtranslateY
p383
aVtranslateZ
p384
aVrotateX
p385
aVrotateY
p386
aVrotateZ
p387
aaF0
aF0
aF0
aF0
aF0
aF0
aa(lp388
S'upperarm_l_twist_anim'
p389
a(lp390
VtranslateX
p391
aVtranslateY
p392
aVtranslateZ
p393
aVrotateX
p394
aVrotateY
p395
aVrotateZ
p396
aVscaleX
p397
aVscaleY
p398
aVscaleZ
p399
aaF-0.4488866607467733
aF1.6662959112878382
aF3.7650535853818332
aF0.32456395153790546
aF-6.3516687975470401
aF2.7887737640941852
aF1
aF1
aF1
aa(lp400
S'upperarm_l_twist_2_anim'
p401
a(lp402
VtranslateX
p403
aVtranslateY
p404
aVtranslateZ
p405
aVrotateX
p406
aVrotateY
p407
aVrotateZ
p408
aVscaleX
p409
aVscaleY
p410
aVscaleZ
p411
aaF-0.13509739056072662
aF0.80951105683758884
aF0.9381778911866796
aF0
aF0
aF0
aF1
aF1
aF1
aa(lp412
S'upperarm_r_twist_anim'
p413
a(lp414
VtranslateX
p415
aVtranslateY
p416
aVtranslateZ
p417
aVrotateX
p418
aVrotateY
p419
aVrotateZ
p420
aVscaleX
p421
aVscaleY
p422
aVscaleZ
p423
aaF0
aF0
aF0
aF0
aF0
aF0
aF1
aF1
aF1
aa(lp424
S'upperarm_r_twist_2_anim'
p425
a(lp426
VtranslateX
p427
aVtranslateY
p428
aVtranslateZ
p429
aVrotateX
p430
aVrotateY
p431
aVrotateZ
p432
aVscaleX
p433
aVscaleY
p434
aVscaleZ
p435
aaF0
aF0
aF0
aF0
aF0
aF0
aF1
aF1
aF1
aa(lp436
S'lowerarm_l_twist_anim'
p437
a(lp438
VtranslateX
p439
aVtranslateY
p440
aVtranslateZ
p441
aVrotateX
p442
aVrotateY
p443
aVrotateZ
p444
aaF0
aF0
aF0
aF0
aF0
aF0
aa(lp445
S'lowerarm_r_twist_anim'
p446
a(lp447
VtranslateX
p448
aVtranslateY
p449
aVtranslateZ
p450
aVrotateX
p451
aVrotateY
p452
aVrotateZ
p453
aaF0
aF0
aF0
aF0
aF0
aF0
aa(lp454
S'l_thigh_twist_01_anim'
p455
a(lp456
VtranslateX
p457
aVtranslateY
p458
aVtranslateZ
p459
aVrotateX
p460
aVrotateY
p461
aVrotateZ
p462
aVscaleX
p463
aVscaleY
p464
aVscaleZ
p465
aaF0
aF0
aF0
aF0
aF0
aF0
aF1
aF1
aF1
aa(lp466
S'r_thigh_twist_01_anim'
p467
a(lp468
VtranslateX
p469
aVtranslateY
p470
aVtranslateZ
p471
aVrotateX
p472
aVrotateY
p473
aVrotateZ
p474
aVscaleX
p475
aVscaleY
p476
aVscaleZ
p477
aaF0
aF0
aF0
aF0
aF0
aF0
aF1
aF1
aF1
aa(lp478
S'pinky_finger_fk_ctrl_1_l'
p479
a(lp480
VtranslateX
p481
aVtranslateY
p482
aVtranslateZ
p483
aVrotateX
p484
aVrotateY
p485
aVrotateZ
p486
aVsticky
p487
aaF-0.28448754866970072
aF0.19948691675394609
aF-0.88082772337635151
aF5.1226772360813992
aF7.2540835970798678
aF35.376903908316734
aF0
aa(lp488
S'pinky_finger_fk_ctrl_1_r'
p489
a(lp490
VtranslateX
p491
aVtranslateY
p492
aVtranslateZ
p493
aVrotateX
p494
aVrotateY
p495
aVrotateZ
p496
aVsticky
p497
aaF0
aF0
aF0
aF-0.0013304417769890724
aF-0.00045421005030458166
aF46.123269863759731
aF0
aa(lp498
S'pinky_finger_fk_ctrl_2_l'
p499
a(lp500
VtranslateX
p501
aVtranslateY
p502
aVtranslateZ
p503
aVrotateX
p504
aVrotateY
p505
aVrotateZ
p506
aaF0
aF0
aF0
aF-1.3648337172457701e-06
aF-0
aF55.867673741451696
aa(lp507
S'pinky_finger_fk_ctrl_2_r'
p508
a(lp509
VtranslateX
p510
aVtranslateY
p511
aVtranslateZ
p512
aVrotateX
p513
aVrotateY
p514
aVrotateZ
p515
aaF0
aF0
aF0
aF0.21761157645444287
aF0.68318271528504415
aF46.974178294221609
aa(lp516
S'pinky_finger_fk_ctrl_3_l'
p517
a(lp518
VtranslateX
p519
aVtranslateY
p520
aVtranslateZ
p521
aVrotateX
p522
aVrotateY
p523
aVrotateZ
p524
aaF0
aF0
aF0
aF1.3764308046477001e-06
aF-9.4787915988669323e-23
aF49.774601852955406
aa(lp525
S'pinky_finger_fk_ctrl_3_r'
p526
a(lp527
VtranslateX
p528
aVtranslateY
p529
aVtranslateZ
p530
aVrotateX
p531
aVrotateY
p532
aVrotateZ
p533
aaF0
aF0
aF0
aF0.22706965757758865
aF0.68009776684965695
aF47.769080064506333
aa(lp534
S'ring_finger_fk_ctrl_1_l'
p535
a(lp536
VtranslateX
p537
aVtranslateY
p538
aVtranslateZ
p539
aVrotateX
p540
aVrotateY
p541
aVrotateZ
p542
aVsticky
p543
aaF0
aF0
aF0
aF3.1380347045453405
aF7.9408963810831104
aF54.862468924375996
aF0
aa(lp544
S'ring_finger_fk_ctrl_1_r'
p545
a(lp546
VtranslateX
p547
aVtranslateY
p548
aVtranslateZ
p549
aVrotateX
p550
aVrotateY
p551
aVrotateZ
p552
aVsticky
p553
aaF0
aF0
aF0
aF-0.0013680467048598822
aF-0.00039172006942294777
aF54.222086850796728
aF0
aa(lp554
S'ring_finger_fk_ctrl_2_l'
p555
a(lp556
VtranslateX
p557
aVtranslateY
p558
aVtranslateZ
p559
aVrotateX
p560
aVrotateY
p561
aVrotateZ
p562
aaF0
aF0
aF0
aF0
aF-0
aF54.736663769749178
aa(lp563
S'ring_finger_fk_ctrl_2_r'
p564
a(lp565
VtranslateX
p566
aVtranslateY
p567
aVtranslateZ
p568
aVrotateX
p569
aVrotateY
p570
aVrotateZ
p571
aaF0
aF0
aF0
aF0.20133535966839156
aF0.68815492616615581
aF45.614028024812761
aa(lp572
S'ring_finger_fk_ctrl_3_l'
p573
a(lp574
VtranslateX
p575
aVtranslateY
p576
aVtranslateZ
p577
aVrotateX
p578
aVrotateY
p579
aVrotateZ
p580
aaF0
aF0
aF0
aF0
aF-0
aF57.46028619428624
aa(lp581
S'ring_finger_fk_ctrl_3_r'
p582
a(lp583
VtranslateX
p584
aVtranslateY
p585
aVtranslateZ
p586
aVrotateX
p587
aVrotateY
p588
aVrotateZ
p589
aaF0
aF0
aF0
aF0.43453147321362862
aF0.57033307419860213
aF66.609981735733584
aa(lp590
S'middle_finger_fk_ctrl_1_l'
p591
a(lp592
VtranslateX
p593
aVtranslateY
p594
aVtranslateZ
p595
aVrotateX
p596
aVrotateY
p597
aVrotateZ
p598
aVsticky
p599
aaF0
aF0
aF0
aF-9.5650813160605332e-05
aF4.6329333057341548
aF61.680754160462406
aF0
aa(lp600
S'middle_finger_fk_ctrl_1_r'
p601
a(lp602
VtranslateX
p603
aVtranslateY
p604
aVtranslateZ
p605
aVrotateX
p606
aVrotateY
p607
aVrotateZ
p608
aVsticky
p609
aaF0
aF0
aF0
aF-0.0013469415864430232
aF-0.00050657322655778432
aF52.144708177639629
aF0
aa(lp610
S'middle_finger_fk_ctrl_2_l'
p611
a(lp612
VtranslateX
p613
aVtranslateY
p614
aVtranslateZ
p615
aVrotateX
p616
aVrotateY
p617
aVrotateZ
p618
aaF0
aF0
aF0
aF0
aF-0
aF47.684837521621425
aa(lp619
S'middle_finger_fk_ctrl_2_r'
p620
a(lp621
VtranslateX
p622
aVtranslateY
p623
aVtranslateZ
p624
aVrotateX
p625
aVrotateY
p626
aVrotateZ
p627
aaF0
aF0
aF0
aF0.21904383316932111
aF0.68272487160078177
aF47.094227261992337
aa(lp628
S'middle_finger_fk_ctrl_3_l'
p629
a(lp630
VtranslateX
p631
aVtranslateY
p632
aVtranslateZ
p633
aVrotateX
p634
aVrotateY
p635
aVrotateZ
p636
aaF0
aF0
aF0
aF0
aF-0
aF50.408461337602077
aa(lp637
S'middle_finger_fk_ctrl_3_r'
p638
a(lp639
VtranslateX
p640
aVtranslateY
p641
aVtranslateZ
p642
aVrotateX
p643
aVrotateY
p644
aVrotateZ
p645
aaF0
aF0
aF0
aF1.4878721381752236
aF5.3442587515926734
aF75.661403853182691
aa(lp646
S'index_finger_fk_ctrl_1_l'
p647
a(lp648
VtranslateX
p649
aVtranslateY
p650
aVtranslateZ
p651
aVrotateX
p652
aVrotateY
p653
aVrotateZ
p654
aVsticky
p655
aaF0
aF0
aF0
aF-11.520892065326393
aF7.5235378178572185
aF61.057062186694274
aF0
aa(lp656
S'index_finger_fk_ctrl_1_r'
p657
a(lp658
VtranslateX
p659
aVtranslateY
p660
aVtranslateZ
p661
aVrotateX
p662
aVrotateY
p663
aVrotateZ
p664
aVsticky
p665
aaF0
aF0
aF0
aF-13.878859974732791
aF-1.6859502617289754
aF33.430886087529217
aF0
aa(lp666
S'index_finger_fk_ctrl_2_l'
p667
a(lp668
VtranslateX
p669
aVtranslateY
p670
aVtranslateZ
p671
aVrotateX
p672
aVrotateY
p673
aVrotateZ
p674
aaF0
aF0
aF0
aF0
aF-0
aF39.586352827998283
aa(lp675
S'index_finger_fk_ctrl_2_r'
p676
a(lp677
VtranslateX
p678
aVtranslateY
p679
aVtranslateZ
p680
aVrotateX
p681
aVrotateY
p682
aVrotateZ
p683
aaF0
aF0
aF0
aF0
aF-0
aF57.497606541241502
aa(lp684
S'index_finger_fk_ctrl_3_l'
p685
a(lp686
VtranslateX
p687
aVtranslateY
p688
aVtranslateZ
p689
aVrotateX
p690
aVrotateY
p691
aVrotateZ
p692
aaF0
aF0
aF0
aF-1.487169654317573
aF-2.6895179822327693
aF67.749002871603878
aa(lp693
S'index_finger_fk_ctrl_3_r'
p694
a(lp695
VtranslateX
p696
aVtranslateY
p697
aVtranslateZ
p698
aVrotateX
p699
aVrotateY
p700
aVrotateZ
p701
aaF0
aF0
aF0
aF0
aF-0
aF66.68407396981253
aa(lp702
S'thumb_finger_fk_ctrl_1_l'
p703
a(lp704
VtranslateX
p705
aVtranslateY
p706
aVtranslateZ
p707
aVrotateX
p708
aVrotateY
p709
aVrotateZ
p710
aVsticky
p711
aaF0
aF0
aF0
aF32.521661196515481
aF35.179252184383792
aF3.0633443790789081
aF0
aa(lp712
S'thumb_finger_fk_ctrl_1_r'
p713
a(lp714
VtranslateX
p715
aVtranslateY
p716
aVtranslateZ
p717
aVrotateX
p718
aVrotateY
p719
aVrotateZ
p720
aVsticky
p721
aaF0
aF0
aF0
aF17.289263398136775
aF14.200350096430832
aF19.126698983259672
aF0
aa(lp722
S'thumb_finger_fk_ctrl_2_l'
p723
a(lp724
VtranslateX
p725
aVtranslateY
p726
aVtranslateZ
p727
aVrotateX
p728
aVrotateY
p729
aVrotateZ
p730
aaF0
aF0
aF0
aF-8.5391079138565171
aF17.623117184942469
aF36.133792512298719
aa(lp731
S'thumb_finger_fk_ctrl_2_r'
p732
a(lp733
VtranslateX
p734
aVtranslateY
p735
aVtranslateZ
p736
aVrotateX
p737
aVrotateY
p738
aVrotateZ
p739
aaF0
aF0
aF0
aF-1.7532247795724927
aF13.72305466049033
aF6.9401104392970492
aa(lp740
S'thumb_finger_fk_ctrl_3_l'
p741
a(lp742
VtranslateX
p743
aVtranslateY
p744
aVtranslateZ
p745
aVrotateX
p746
aVrotateY
p747
aVrotateZ
p748
aaF0
aF0
aF0
aF-9.4787915988669358e-23
aF1.8516110813238271e-06
aF62.745112692737024
aa(lp749
S'thumb_finger_fk_ctrl_3_r'
p750
a(lp751
VtranslateX
p752
aVtranslateY
p753
aVtranslateZ
p754
aVrotateX
p755
aVrotateY
p756
aVrotateZ
p757
aaF0
aF0
aF0
aF11.142151140794894
aF-23.83839640459702
aF35.077641354833695
aa(lp758
S'index_l_ik_anim'
p759
a(lp760
VtranslateX
p761
aVtranslateY
p762
aVtranslateZ
p763
aVrotateX
p764
aVrotateY
p765
aVrotateZ
p766
aVpoleVectorVis
p767
aaF0
aF0
aF0
aF0
aF0
aF0
aF0
aa(lp768
S'index_r_ik_anim'
p769
a(lp770
VtranslateX
p771
aVtranslateY
p772
aVtranslateZ
p773
aVrotateX
p774
aVrotateY
p775
aVrotateZ
p776
aVpoleVectorVis
p777
aaF0
aF0
aF0
aF0
aF0
aF0
aF0
aa(lp778
S'middle_l_ik_anim'
p779
a(lp780
VtranslateX
p781
aVtranslateY
p782
aVtranslateZ
p783
aVrotateX
p784
aVrotateY
p785
aVrotateZ
p786
aVpoleVectorVis
p787
aaF0
aF0
aF0
aF0
aF0
aF0
aF0
aa(lp788
S'middle_r_ik_anim'
p789
a(lp790
VtranslateX
p791
aVtranslateY
p792
aVtranslateZ
p793
aVrotateX
p794
aVrotateY
p795
aVrotateZ
p796
aVpoleVectorVis
p797
aaF0
aF0
aF0
aF0
aF0
aF0
aF0
aa(lp798
S'ring_l_ik_anim'
p799
a(lp800
VtranslateX
p801
aVtranslateY
p802
aVtranslateZ
p803
aVrotateX
p804
aVrotateY
p805
aVrotateZ
p806
aVpoleVectorVis
p807
aaF0
aF0
aF0
aF0
aF0
aF0
aF0
aa(lp808
S'ring_r_ik_anim'
p809
a(lp810
VtranslateX
p811
aVtranslateY
p812
aVtranslateZ
p813
aVrotateX
p814
aVrotateY
p815
aVrotateZ
p816
aVpoleVectorVis
p817
aaF0
aF0
aF0
aF0
aF0
aF0
aF0
aa(lp818
S'pinky_l_ik_anim'
p819
a(lp820
VtranslateX
p821
aVtranslateY
p822
aVtranslateZ
p823
aVrotateX
p824
aVrotateY
p825
aVrotateZ
p826
aVpoleVectorVis
p827
aaF0
aF0
aF0
aF0
aF0
aF0
aF0
aa(lp828
S'pinky_r_ik_anim'
p829
a(lp830
VtranslateX
p831
aVtranslateY
p832
aVtranslateZ
p833
aVrotateX
p834
aVrotateY
p835
aVrotateZ
p836
aVpoleVectorVis
p837
aaF0
aF0
aF0
aF0
aF0
aF0
aF0
aa(lp838
S'thumb_l_ik_anim'
p839
a(lp840
VtranslateX
p841
aVtranslateY
p842
aVtranslateZ
p843
aVrotateX
p844
aVrotateY
p845
aVrotateZ
p846
aVpoleVectorVis
p847
aaF0
aF0
aF0
aF0
aF0
aF0
aF0
aa(lp848
S'thumb_r_ik_anim'
p849
a(lp850
VtranslateX
p851
aVtranslateY
p852
aVtranslateZ
p853
aVrotateX
p854
aVrotateY
p855
aVrotateZ
p856
aVpoleVectorVis
p857
aaF0
aF0
aF0
aF0
aF0
aF0
aF0
aa(lp858
S'index_l_poleVector'
p859
a(lp860
VtranslateX
p861
aVtranslateY
p862
aVtranslateZ
p863
aVrotateX
p864
aVrotateY
p865
aVrotateZ
p866
aaF0
aF0
aF0
aF0
aF0
aF0
aa(lp867
S'index_r_poleVector'
p868
a(lp869
VtranslateX
p870
aVtranslateY
p871
aVtranslateZ
p872
aVrotateX
p873
aVrotateY
p874
aVrotateZ
p875
aaF0
aF0
aF0
aF0
aF0
aF0
aa(lp876
S'middle_l_poleVector'
p877
a(lp878
VtranslateX
p879
aVtranslateY
p880
aVtranslateZ
p881
aVrotateX
p882
aVrotateY
p883
aVrotateZ
p884
aaF0
aF0
aF0
aF0
aF0
aF0
aa(lp885
S'middle_r_poleVector'
p886
a(lp887
VtranslateX
p888
aVtranslateY
p889
aVtranslateZ
p890
aVrotateX
p891
aVrotateY
p892
aVrotateZ
p893
aaF0
aF0
aF0
aF0
aF0
aF0
aa(lp894
S'ring_l_poleVector'
p895
a(lp896
VtranslateX
p897
aVtranslateY
p898
aVtranslateZ
p899
aVrotateX
p900
aVrotateY
p901
aVrotateZ
p902
aaF0
aF0
aF0
aF0
aF0
aF0
aa(lp903
S'ring_r_poleVector'
p904
a(lp905
VtranslateX
p906
aVtranslateY
p907
aVtranslateZ
p908
aVrotateX
p909
aVrotateY
p910
aVrotateZ
p911
aaF0
aF0
aF0
aF0
aF0
aF0
aa(lp912
S'pinky_l_poleVector'
p913
a(lp914
VtranslateX
p915
aVtranslateY
p916
aVtranslateZ
p917
aVrotateX
p918
aVrotateY
p919
aVrotateZ
p920
aaF0
aF0
aF0
aF0
aF0
aF0
aa(lp921
S'pinky_r_poleVector'
p922
a(lp923
VtranslateX
p924
aVtranslateY
p925
aVtranslateZ
p926
aVrotateX
p927
aVrotateY
p928
aVrotateZ
p929
aaF0
aF0
aF0
aF0
aF0
aF0
aa(lp930
S'thumb_l_poleVector'
p931
a(lp932
VtranslateX
p933
aVtranslateY
p934
aVtranslateZ
p935
aVrotateX
p936
aVrotateY
p937
aVrotateZ
p938
aaF0
aF0
aF0
aF0
aF0
aF0
aa(lp939
S'thumb_r_poleVector'
p940
a(lp941
VtranslateX
p942
aVtranslateY
p943
aVtranslateZ
p944
aVrotateX
p945
aVrotateY
p946
aVrotateZ
p947
aaF0
aF0
aF0
aF0
aF0
aF0
aa(lp948
S'l_global_ik_anim'
p949
a(lp950
VtranslateX
p951
aVtranslateY
p952
aVtranslateZ
p953
aVrotateX
p954
aVrotateY
p955
aVrotateZ
p956
aaF0
aF0
aF0
aF0
aF0
aF0
aa(lp957
S'r_global_ik_anim'
p958
a(lp959
VtranslateX
p960
aVtranslateY
p961
aVtranslateZ
p962
aVrotateX
p963
aVrotateY
p964
aVrotateZ
p965
aaF0
aF0
aF0
aF0
aF0
aF0
aa(lp966
S'Rig_Settings'
p967
a(lp968
Vspine_ik
p969
aVspine_fk
p970
aVlLegMode
p971
aVlThighTwistAmount
p972
aVlThighTwist2Amount
p973
aVllegTwistCtrlVis
p974
aVlCalfTwistAmount
p975
aVllegTwistCtrlVisCalf
p976
aVrLegMode
p977
aVrThighTwistAmount
p978
aVrThighTwist2Amount
p979
aVrlegTwistCtrlVis
p980
aVrCalfTwistAmount
p981
aVrlegTwistCtrlVisCalf
p982
aVlFkArmOrient
p983
aVlArmMode
p984
aVlClavMode
p985
aVlUpperarmTwistAmount
p986
aVlUpperarmTwist2Amount
p987
aVltwistCtrlVis
p988
aVltwistCtrlVisLower
p989
aVlForearmTwistAmount
p990
aVrFkArmOrient
p991
aVrArmMode
p992
aVrClavMode
p993
aVrUpperarmTwistAmount
p994
aVrUpperarmTwist2Amount
p995
aVrtwistCtrlVis
p996
aVrtwistCtrlVisLower
p997
aVrForearmTwistAmount
p998
aVback_sash_fk
p999
aVback_sash_ik
p1000
aVback_sash_dynamic
p1001
aVhip_eyelet_front_l_fk
p1002
aVhip_eyelet_front_l_ik
p1003
aVhip_eyelet_front_l_dynamic
p1004
aVhip_eyelet_front_r_fk
p1005
aVhip_eyelet_front_r_ik
p1006
aVhip_eyelet_front_r_dynamic
p1007
aVhip_eyelet_rear_l_fk
p1008
aVhip_eyelet_rear_l_ik
p1009
aVhip_eyelet_rear_l_dynamic
p1010
aVhip_eyelet_rear_r_fk
p1011
aVhip_eyelet_rear_r_ik
p1012
aVhip_eyelet_rear_r_dynamic
p1013
aVloin_cloth_bk_fk
p1014
aVloin_cloth_bk_ik
p1015
aVloin_cloth_bk_dynamic
p1016
aVloin_cloth_fr_fk
p1017
aVloin_cloth_fr_ik
p1018
aVloin_cloth_fr_dynamic
p1019
aVpadawan_l_fk
p1020
aVpadawan_l_ik
p1021
aVpadawan_l_dynamic
p1022
aVpadawan_r_fk
p1023
aVpadawan_r_ik
p1024
aVpadawan_r_dynamic
p1025
aVponytail_fk
p1026
aVponytail_ik
p1027
aVponytail_dynamic
p1028
aVweapon_butt_fk
p1029
aVweapon_butt_ik
p1030
aVweapon_butt_dynamic
p1031
aaF1
aF0
aI1
aF1
aF0.59999999999999998
aI00
aF0.5
aI00
aI1
aF1
aF0.59999999999999998
aI00
aF0.5
aI00
aI0
aI1
aI1
aF0.90000000000000002
aF0.59999999999999998
aI00
aI00
aF0.5
aI0
aI1
aI1
aF0.90000000000000002
aF0.59999999999999998
aI00
aI00
aF0.5
aF1
aF0
aF0
aF1
aF0
aF0
aF1
aF0
aF0
aF1
aF0
aF0
aF1
aF0
aF0
aF1
aF0
aF0
aF1
aF0
aF0
aF1
aF0
aF0
aF1
aF0
aF0
aF1
aF0
aF0
aF1
aF0
aF0
aa(lp1032
S'calf_l_twist_anim'
p1033
a(lp1034
VtranslateX
p1035
aVtranslateY
p1036
aVtranslateZ
p1037
aVrotateX
p1038
aVrotateY
p1039
aVrotateZ
p1040
aaF0
aF0
aF0
aF0
aF0
aF0
aa(lp1041
S'calf_r_twist_anim'
p1042
a(lp1043
VtranslateX
p1044
aVtranslateY
p1045
aVtranslateZ
p1046
aVrotateX
p1047
aVrotateY
p1048
aVrotateZ
p1049
aaF0
aF0
aF0
aF0
aF0
aF0
aa(lp1050
Vback_sash_dyn_anim
p1051
a(lp1052
VtranslateX
p1053
aVtranslateY
p1054
aVtranslateZ
p1055
aVrotateX
p1056
aVrotateY
p1057
aVrotateZ
p1058
aVchainAttach
p1059
aVchainStartFrame
p1060
aVchainStiffness
p1061
aVchainDamping
p1062
aVchainGravity
p1063
aVchainIteration
p1064
aVchainCollide
p1065
aVchainWidthBase
p1066
aVchainWidthExtremity
p1067
aVchainCollideGround
p1068
aVchainCollideGroundHeight
p1069
aaF0
aF0
aF0
aF0
aF0
aF0
aI1
aF1
aF0.10000000000000001
aF0.20000000000000001
aF1
aI1
aI00
aF1
aF1
aI00
aF0
aa(lp1070
Vback_sash_ik_2_anim
p1071
a(lp1072
VtranslateX
p1073
aVtranslateY
p1074
aVtranslateZ
p1075
aVrotateX
p1076
aVrotateY
p1077
aVrotateZ
p1078
aaF0
aF0
aF0
aF0
aF0
aF0
aa(lp1079
Vback_sash_ik_3_anim
p1080
a(lp1081
VtranslateX
p1082
aVtranslateY
p1083
aVtranslateZ
p1084
aVrotateX
p1085
aVrotateY
p1086
aVrotateZ
p1087
aVclusterControlVis
p1088
aaF0
aF0
aF0
aF0
aF0
aF0
aI00
aa(lp1089
Vback_sash_ik_base_anim
p1090
a(lp1091
VtranslateX
p1092
aVtranslateY
p1093
aVtranslateZ
p1094
aVrotateX
p1095
aVrotateY
p1096
aVrotateZ
p1097
aVglobal_scale
p1098
aaF0
aF0
aF0
aF0
aF0
aF0
aF1
aa(lp1099
Vfk_back_sash_01_anim
p1100
a(lp1101
VtranslateX
p1102
aVtranslateY
p1103
aVtranslateZ
p1104
aVrotateX
p1105
aVrotateY
p1106
aVrotateZ
p1107
aVglobal_scale
p1108
aVlagMode
p1109
aaF0
aF0
aF0
aF0
aF0
aF0
aF1
aF0
aa(lp1110
Vback_sash_cv_0_anim
p1111
a(lp1112
VtranslateX
p1113
aVtranslateY
p1114
aVtranslateZ
p1115
aaF0
aF0
aF0
aa(lp1116
Vfk_back_sash_02_anim
p1117
a(lp1118
VtranslateX
p1119
aVtranslateY
p1120
aVtranslateZ
p1121
aVrotateX
p1122
aVrotateY
p1123
aVrotateZ
p1124
aaF0
aF0
aF0
aF0
aF0
aF0
aa(lp1125
Vback_sash_cv_1_anim
p1126
a(lp1127
VtranslateX
p1128
aVtranslateY
p1129
aVtranslateZ
p1130
aaF0
aF0
aF0
aa(lp1131
Vfk_back_sash_03_anim
p1132
a(lp1133
VtranslateX
p1134
aVtranslateY
p1135
aVtranslateZ
p1136
aVrotateX
p1137
aVrotateY
p1138
aVrotateZ
p1139
aaF0
aF0
aF0
aF0
aF0
aF0
aa(lp1140
Vback_sash_cv_2_anim
p1141
a(lp1142
VtranslateX
p1143
aVtranslateY
p1144
aVtranslateZ
p1145
aaF0
aF0
aF0
aa(lp1146
Vbracelet_A_l_anim
p1147
a(lp1148
VtranslateX
p1149
aVtranslateY
p1150
aVtranslateZ
p1151
aVrotateX
p1152
aVrotateY
p1153
aVrotateZ
p1154
aVscaleX
p1155
aVscaleY
p1156
aVscaleZ
p1157
aaF0
aF0
aF0
aF0
aF0
aF0
aF1
aF1
aF1
aa(lp1158
Vbracelet_B_l_anim
p1159
a(lp1160
VtranslateX
p1161
aVtranslateY
p1162
aVtranslateZ
p1163
aVrotateX
p1164
aVrotateY
p1165
aVrotateZ
p1166
aVscaleX
p1167
aVscaleY
p1168
aVscaleZ
p1169
aaF0
aF0
aF0
aF0
aF0
aF0
aF1
aF1
aF1
aa(lp1170
Vbracelet_C_l_anim
p1171
a(lp1172
VtranslateX
p1173
aVtranslateY
p1174
aVtranslateZ
p1175
aVrotateX
p1176
aVrotateY
p1177
aVrotateZ
p1178
aVscaleX
p1179
aVscaleY
p1180
aVscaleZ
p1181
aaF0
aF0
aF0
aF0
aF0
aF0
aF1
aF1
aF1
aa(lp1182
Veyeball_l_anim
p1183
a(lp1184
VtranslateX
p1185
aVtranslateY
p1186
aVtranslateZ
p1187
aVrotateX
p1188
aVrotateY
p1189
aVrotateZ
p1190
aVscaleX
p1191
aVscaleY
p1192
aVscaleZ
p1193
aaF0
aF0
aF0
aF0
aF0
aF0
aF1
aF1
aF1
aa(lp1194
Veyeball_r_anim
p1195
a(lp1196
VtranslateX
p1197
aVtranslateY
p1198
aVtranslateZ
p1199
aVrotateX
p1200
aVrotateY
p1201
aVrotateZ
p1202
aVscaleX
p1203
aVscaleY
p1204
aVscaleZ
p1205
aaF0
aF0
aF0
aF0
aF0
aF0
aF1
aF1
aF1
aa(lp1206
Veyebrow_in_l_anim
p1207
a(lp1208
VtranslateX
p1209
aVtranslateY
p1210
aVtranslateZ
p1211
aVrotateX
p1212
aVrotateY
p1213
aVrotateZ
p1214
aVscaleX
p1215
aVscaleY
p1216
aVscaleZ
p1217
aaF0
aF0
aF0
aF0
aF0
aF0
aF1
aF1
aF1
aa(lp1218
Veyebrow_in_r_anim
p1219
a(lp1220
VtranslateX
p1221
aVtranslateY
p1222
aVtranslateZ
p1223
aVrotateX
p1224
aVrotateY
p1225
aVrotateZ
p1226
aVscaleX
p1227
aVscaleY
p1228
aVscaleZ
p1229
aaF0
aF0
aF0
aF0
aF0
aF0
aF1
aF1
aF1
aa(lp1230
Veyebrow_out_l_anim
p1231
a(lp1232
VtranslateX
p1233
aVtranslateY
p1234
aVtranslateZ
p1235
aVrotateX
p1236
aVrotateY
p1237
aVrotateZ
p1238
aVscaleX
p1239
aVscaleY
p1240
aVscaleZ
p1241
aaF0
aF0
aF0
aF0
aF0
aF0
aF1
aF1
aF1
aa(lp1242
Veyebrow_out_r_anim
p1243
a(lp1244
VtranslateX
p1245
aVtranslateY
p1246
aVtranslateZ
p1247
aVrotateX
p1248
aVrotateY
p1249
aVrotateZ
p1250
aVscaleX
p1251
aVscaleY
p1252
aVscaleZ
p1253
aaF0
aF0
aF0
aF0
aF0
aF0
aF1
aF1
aF1
aa(lp1254
Veyelid_bott_l_anim
p1255
a(lp1256
VtranslateX
p1257
aVtranslateY
p1258
aVtranslateZ
p1259
aVrotateX
p1260
aVrotateY
p1261
aVrotateZ
p1262
aVscaleX
p1263
aVscaleY
p1264
aVscaleZ
p1265
aaF0
aF0
aF0
aF0
aF0
aF0
aF1
aF1
aF1
aa(lp1266
Veyelid_bott_r_anim
p1267
a(lp1268
VtranslateX
p1269
aVtranslateY
p1270
aVtranslateZ
p1271
aVrotateX
p1272
aVrotateY
p1273
aVrotateZ
p1274
aVscaleX
p1275
aVscaleY
p1276
aVscaleZ
p1277
aaF0
aF0
aF0
aF0
aF0
aF0
aF1
aF1
aF1
aa(lp1278
Veyelid_top_l_anim
p1279
a(lp1280
VtranslateX
p1281
aVtranslateY
p1282
aVtranslateZ
p1283
aVrotateX
p1284
aVrotateY
p1285
aVrotateZ
p1286
aVscaleX
p1287
aVscaleY
p1288
aVscaleZ
p1289
aaF0
aF0
aF0
aF0
aF0
aF0
aF1
aF1
aF1
aa(lp1290
Veyelid_top_r_anim
p1291
a(lp1292
VtranslateX
p1293
aVtranslateY
p1294
aVtranslateZ
p1295
aVrotateX
p1296
aVrotateY
p1297
aVrotateZ
p1298
aVscaleX
p1299
aVscaleY
p1300
aVscaleZ
p1301
aaF0
aF0
aF0
aF0
aF0
aF0
aF1
aF1
aF1
aa(lp1302
Vhip_back_flaps_anim
p1303
a(lp1304
VtranslateX
p1305
aVtranslateY
p1306
aVtranslateZ
p1307
aVrotateX
p1308
aVrotateY
p1309
aVrotateZ
p1310
aVscaleX
p1311
aVscaleY
p1312
aVscaleZ
p1313
aaF1.3322676295501878e-15
aF-0.0040149279208137045
aF-0.060754214318222921
aF-0.20827987371630705
aF0
aF0
aF1
aF1
aF1
aa(lp1314
Vhip_eyelet_front_l_dyn_anim
p1315
a(lp1316
VtranslateX
p1317
aVtranslateY
p1318
aVtranslateZ
p1319
aVrotateX
p1320
aVrotateY
p1321
aVrotateZ
p1322
aVchainAttach
p1323
aVchainStartFrame
p1324
aVchainStiffness
p1325
aVchainDamping
p1326
aVchainGravity
p1327
aVchainIteration
p1328
aVchainCollide
p1329
aVchainWidthBase
p1330
aVchainWidthExtremity
p1331
aVchainCollideGround
p1332
aVchainCollideGroundHeight
p1333
aaF-4.9588099999999998e-09
aF2.5921599999999996e-07
aF6.0685000000000006e-07
aF0
aF0
aF0
aI1
aF1
aF0.10000000000000001
aF0.20000000000000001
aF1
aI1
aI00
aF1
aF1
aI00
aF0
aa(lp1334
Vhip_eyelet_front_l_ik_2_anim
p1335
a(lp1336
VtranslateX
p1337
aVtranslateY
p1338
aVtranslateZ
p1339
aVrotateX
p1340
aVrotateY
p1341
aVrotateZ
p1342
aaF-3.8461300000000003e-07
aF-1.0094199999999999e-06
aF4.1534300000000003e-06
aF0
aF0
aF0
aa(lp1343
Vhip_eyelet_front_l_ik_3_anim
p1344
a(lp1345
VtranslateX
p1346
aVtranslateY
p1347
aVtranslateZ
p1348
aVrotateX
p1349
aVrotateY
p1350
aVrotateZ
p1351
aVclusterControlVis
p1352
aaF-1.92306e-07
aF-5.0470899999999994e-07
aF2.0767200000000001e-06
aF0
aF0
aF0
aI00
aa(lp1353
Vhip_eyelet_front_l_ik_base_anim
p1354
a(lp1355
VtranslateX
p1356
aVtranslateY
p1357
aVtranslateZ
p1358
aVrotateX
p1359
aVrotateY
p1360
aVrotateZ
p1361
aVglobal_scale
p1362
aaF-4.9503000000000002e-09
aF2.6918799999999999e-07
aF6.0257500000000001e-07
aF0
aF0
aF0
aF1
aa(lp1363
Vfk_hip_eyelet_front_l_01_anim
p1364
a(lp1365
VtranslateX
p1366
aVtranslateY
p1367
aVtranslateZ
p1368
aVrotateX
p1369
aVrotateY
p1370
aVrotateZ
p1371
aVglobal_scale
p1372
aVlagMode
p1373
aaF-4.9503199999999999e-09
aF2.6918799999999999e-07
aF6.0257500000000001e-07
aF0
aF0
aF0
aF1
aF0
aa(lp1374
Vhip_eyelet_front_l_cv_0_anim
p1375
a(lp1376
VtranslateX
p1377
aVtranslateY
p1378
aVtranslateZ
p1379
aaF0
aF0
aF0
aa(lp1380
Vfk_hip_eyelet_front_l_02_anim
p1381
a(lp1382
VtranslateX
p1383
aVtranslateY
p1384
aVtranslateZ
p1385
aVrotateX
p1386
aVrotateY
p1387
aVrotateZ
p1388
aaF-2.2579500000000002e-07
aF-3.7199199999999999e-07
aF1.3131800000000001e-06
aF0
aF0
aF0
aa(lp1389
Vhip_eyelet_front_l_cv_1_anim
p1390
a(lp1391
VtranslateX
p1392
aVtranslateY
p1393
aVtranslateZ
p1394
aaF0
aF0
aF0
aa(lp1395
Vfk_hip_eyelet_front_l_03_anim
p1396
a(lp1397
VtranslateX
p1398
aVtranslateY
p1399
aVtranslateZ
p1400
aVrotateX
p1401
aVrotateY
p1402
aVrotateZ
p1403
aaF-9.8909599999999995e-08
aF-8.5001700000000006e-07
aF1.305e-06
aF0
aF0
aF0
aa(lp1404
Vhip_eyelet_front_l_cv_2_anim
p1405
a(lp1406
VtranslateX
p1407
aVtranslateY
p1408
aVtranslateZ
p1409
aaF0
aF0
aF0
aa(lp1410
Vfk_hip_eyelet_front_l_04_anim
p1411
a(lp1412
VtranslateX
p1413
aVtranslateY
p1414
aVtranslateZ
p1415
aVrotateX
p1416
aVrotateY
p1417
aVrotateZ
p1418
aaF-6.59061e-08
aF2.7460399999999999e-07
aF1.55339e-06
aF0
aF0
aF0
aa(lp1419
Vhip_eyelet_front_l_cv_3_anim
p1420
a(lp1421
VtranslateX
p1422
aVtranslateY
p1423
aVtranslateZ
p1424
aaF0
aF0
aF0
aa(lp1425
Vhip_eyelet_front_r_dyn_anim
p1426
a(lp1427
VtranslateX
p1428
aVtranslateY
p1429
aVtranslateZ
p1430
aVrotateX
p1431
aVrotateY
p1432
aVrotateZ
p1433
aVchainAttach
p1434
aVchainStartFrame
p1435
aVchainStiffness
p1436
aVchainDamping
p1437
aVchainGravity
p1438
aVchainIteration
p1439
aVchainCollide
p1440
aVchainWidthBase
p1441
aVchainWidthExtremity
p1442
aVchainCollideGround
p1443
aVchainCollideGroundHeight
p1444
aaF-4.9587599999999995e-09
aF2.5921599999999996e-07
aF6.0685000000000006e-07
aF0
aF0
aF0
aI1
aF1
aF0.10000000000000001
aF0.20000000000000001
aF1
aI1
aI00
aF1
aF1
aI00
aF0
aa(lp1445
Vhip_eyelet_front_r_ik_2_anim
p1446
a(lp1447
VtranslateX
p1448
aVtranslateY
p1449
aVtranslateZ
p1450
aVrotateX
p1451
aVrotateY
p1452
aVrotateZ
p1453
aaF-3.8461300000000003e-07
aF-1.0094199999999999e-06
aF4.1534300000000003e-06
aF0
aF0
aF0
aa(lp1454
Vhip_eyelet_front_r_ik_3_anim
p1455
a(lp1456
VtranslateX
p1457
aVtranslateY
p1458
aVtranslateZ
p1459
aVrotateX
p1460
aVrotateY
p1461
aVrotateZ
p1462
aVclusterControlVis
p1463
aaF-1.92306e-07
aF-5.0470899999999994e-07
aF2.0767200000000001e-06
aF0
aF0
aF0
aI00
aa(lp1464
Vhip_eyelet_front_r_ik_base_anim
p1465
a(lp1466
VtranslateX
p1467
aVtranslateY
p1468
aVtranslateZ
p1469
aVrotateX
p1470
aVrotateY
p1471
aVrotateZ
p1472
aVglobal_scale
p1473
aaF-4.9502599999999998e-09
aF2.6918799999999999e-07
aF6.0257500000000001e-07
aF0
aF0
aF0
aF1
aa(lp1474
Vfk_hip_eyelet_front_r_01_anim
p1475
a(lp1476
VtranslateX
p1477
aVtranslateY
p1478
aVtranslateZ
p1479
aVrotateX
p1480
aVrotateY
p1481
aVrotateZ
p1482
aVglobal_scale
p1483
aVlagMode
p1484
aaF-4.9502699999999997e-09
aF2.6918799999999999e-07
aF6.0257500000000001e-07
aF0
aF0
aF0
aF1
aF0
aa(lp1485
Vhip_eyelet_front_r_cv_0_anim
p1486
a(lp1487
VtranslateX
p1488
aVtranslateY
p1489
aVtranslateZ
p1490
aaF0
aF0
aF0
aa(lp1491
Vfk_hip_eyelet_front_r_02_anim
p1492
a(lp1493
VtranslateX
p1494
aVtranslateY
p1495
aVtranslateZ
p1496
aVrotateX
p1497
aVrotateY
p1498
aVrotateZ
p1499
aaF-2.2579500000000002e-07
aF-3.7199199999999999e-07
aF1.3131800000000001e-06
aF0
aF0
aF0
aa(lp1500
Vhip_eyelet_front_r_cv_1_anim
p1501
a(lp1502
VtranslateX
p1503
aVtranslateY
p1504
aVtranslateZ
p1505
aaF0
aF0
aF0
aa(lp1506
Vfk_hip_eyelet_front_r_03_anim
p1507
a(lp1508
VtranslateX
p1509
aVtranslateY
p1510
aVtranslateZ
p1511
aVrotateX
p1512
aVrotateY
p1513
aVrotateZ
p1514
aaF-9.8909500000000003e-08
aF-8.5001700000000006e-07
aF1.305e-06
aF0
aF0
aF0
aa(lp1515
Vhip_eyelet_front_r_cv_2_anim
p1516
a(lp1517
VtranslateX
p1518
aVtranslateY
p1519
aVtranslateZ
p1520
aaF0
aF0
aF0
aa(lp1521
Vfk_hip_eyelet_front_r_04_anim
p1522
a(lp1523
VtranslateX
p1524
aVtranslateY
p1525
aVtranslateZ
p1526
aVrotateX
p1527
aVrotateY
p1528
aVrotateZ
p1529
aaF-6.5906000000000008e-08
aF2.7460399999999999e-07
aF1.55339e-06
aF0
aF0
aF0
aa(lp1530
Vhip_eyelet_front_r_cv_3_anim
p1531
a(lp1532
VtranslateX
p1533
aVtranslateY
p1534
aVtranslateZ
p1535
aaF0
aF0
aF0
aa(lp1536
Vhip_eyelet_rear_l_dyn_anim
p1537
a(lp1538
VtranslateX
p1539
aVtranslateY
p1540
aVtranslateZ
p1541
aVrotateX
p1542
aVrotateY
p1543
aVrotateZ
p1544
aVchainAttach
p1545
aVchainStartFrame
p1546
aVchainStiffness
p1547
aVchainDamping
p1548
aVchainGravity
p1549
aVchainIteration
p1550
aVchainCollide
p1551
aVchainWidthBase
p1552
aVchainWidthExtremity
p1553
aVchainCollideGround
p1554
aVchainCollideGroundHeight
p1555
aaF-7.0606200000000001e-07
aF3.0596399999999997e-07
aF-6.6344200000000007e-07
aF0
aF0
aF0
aI1
aF1
aF0.10000000000000001
aF0.20000000000000001
aF1
aI1
aI00
aF1
aF1
aI00
aF0
aa(lp1556
Vhip_eyelet_rear_l_ik_2_anim
p1557
a(lp1558
VtranslateX
p1559
aVtranslateY
p1560
aVtranslateZ
p1561
aVrotateX
p1562
aVrotateY
p1563
aVrotateZ
p1564
aaF4.8626599999999998e-06
aF1.10717e-06
aF-3.0055700000000001e-06
aF0
aF0
aF0
aa(lp1565
Vhip_eyelet_rear_l_ik_3_anim
p1566
a(lp1567
VtranslateX
p1568
aVtranslateY
p1569
aVtranslateZ
p1570
aVrotateX
p1571
aVrotateY
p1572
aVrotateZ
p1573
aVclusterControlVis
p1574
aaF2.4313299999999999e-06
aF5.5358299999999994e-07
aF-1.50279e-06
aF0
aF0
aF0
aI00
aa(lp1575
Vhip_eyelet_rear_l_ik_base_anim
p1576
a(lp1577
VtranslateX
p1578
aVtranslateY
p1579
aVtranslateZ
p1580
aVrotateX
p1581
aVrotateY
p1582
aVrotateZ
p1583
aVglobal_scale
p1584
aaF-7.0567999999999995e-07
aF3.0380600000000001e-07
aF-6.6488099999999998e-07
aF0
aF0
aF0
aF1
aa(lp1585
Vfk_hip_eyelet_rear_l_01_anim
p1586
a(lp1587
VtranslateX
p1588
aVtranslateY
p1589
aVtranslateZ
p1590
aVrotateX
p1591
aVrotateY
p1592
aVrotateZ
p1593
aVglobal_scale
p1594
aVlagMode
p1595
aaF-7.0567999999999995e-07
aF3.0380600000000001e-07
aF-6.6488099999999998e-07
aF0
aF0
aF0
aF1
aF0
aa(lp1596
Vhip_eyelet_rear_l_cv_0_anim
p1597
a(lp1598
VtranslateX
p1599
aVtranslateY
p1600
aVtranslateZ
p1601
aaF0
aF0
aF0
aa(lp1602
Vfk_hip_eyelet_rear_l_02_anim
p1603
a(lp1604
VtranslateX
p1605
aVtranslateY
p1606
aVtranslateZ
p1607
aVrotateX
p1608
aVrotateY
p1609
aVrotateZ
p1610
aaF1.6195699999999999e-06
aF3.8423699999999998e-07
aF-9.9642700000000001e-07
aF0
aF0
aF0
aa(lp1611
Vhip_eyelet_rear_l_cv_1_anim
p1612
a(lp1613
VtranslateX
p1614
aVtranslateY
p1615
aVtranslateZ
p1616
aaF0
aF0
aF0
aa(lp1617
Vfk_hip_eyelet_rear_l_03_anim
p1618
a(lp1619
VtranslateX
p1620
aVtranslateY
p1621
aVtranslateZ
p1622
aVrotateX
p1623
aVrotateY
p1624
aVrotateZ
p1625
aaF1.6229899999999999e-06
aF3.6153700000000002e-07
aF-9.9642300000000011e-07
aF0
aF0
aF0
aa(lp1626
Vhip_eyelet_rear_l_cv_2_anim
p1627
a(lp1628
VtranslateX
p1629
aVtranslateY
p1630
aVtranslateZ
p1631
aaF0
aF0
aF0
aa(lp1632
Vfk_hip_eyelet_rear_l_04_anim
p1633
a(lp1634
VtranslateX
p1635
aVtranslateY
p1636
aVtranslateZ
p1637
aVrotateX
p1638
aVrotateY
p1639
aVrotateZ
p1640
aaF1.6201000000000002e-06
aF3.4184700000000003e-07
aF-1.0204800000000001e-06
aF0
aF0
aF0
aa(lp1641
Vhip_eyelet_rear_l_cv_3_anim
p1642
a(lp1643
VtranslateX
p1644
aVtranslateY
p1645
aVtranslateZ
p1646
aaF0
aF0
aF0
aa(lp1647
Vhip_eyelet_rear_r_dyn_anim
p1648
a(lp1649
VtranslateX
p1650
aVtranslateY
p1651
aVtranslateZ
p1652
aVrotateX
p1653
aVrotateY
p1654
aVrotateZ
p1655
aVchainAttach
p1656
aVchainStartFrame
p1657
aVchainStiffness
p1658
aVchainDamping
p1659
aVchainGravity
p1660
aVchainIteration
p1661
aVchainCollide
p1662
aVchainWidthBase
p1663
aVchainWidthExtremity
p1664
aVchainCollideGround
p1665
aVchainCollideGroundHeight
p1666
aaF-7.0606200000000001e-07
aF3.0596399999999997e-07
aF-6.6344200000000007e-07
aF0
aF0
aF0
aI1
aF1
aF0.10000000000000001
aF0.20000000000000001
aF1
aI1
aI00
aF1
aF1
aI00
aF0
aa(lp1667
Vhip_eyelet_rear_r_ik_2_anim
p1668
a(lp1669
VtranslateX
p1670
aVtranslateY
p1671
aVtranslateZ
p1672
aVrotateX
p1673
aVrotateY
p1674
aVrotateZ
p1675
aaF4.8626599999999998e-06
aF1.10717e-06
aF-3.0055700000000001e-06
aF0
aF0
aF0
aa(lp1676
Vhip_eyelet_rear_r_ik_3_anim
p1677
a(lp1678
VtranslateX
p1679
aVtranslateY
p1680
aVtranslateZ
p1681
aVrotateX
p1682
aVrotateY
p1683
aVrotateZ
p1684
aVclusterControlVis
p1685
aaF2.4313299999999999e-06
aF5.5358299999999994e-07
aF-1.50279e-06
aF0
aF0
aF0
aI00
aa(lp1686
Vhip_eyelet_rear_r_ik_base_anim
p1687
a(lp1688
VtranslateX
p1689
aVtranslateY
p1690
aVtranslateZ
p1691
aVrotateX
p1692
aVrotateY
p1693
aVrotateZ
p1694
aVglobal_scale
p1695
aaF-7.0567999999999995e-07
aF3.0380600000000001e-07
aF-6.6488099999999998e-07
aF0
aF0
aF0
aF1
aa(lp1696
Vfk_hip_eyelet_rear_r_01_anim
p1697
a(lp1698
VtranslateX
p1699
aVtranslateY
p1700
aVtranslateZ
p1701
aVrotateX
p1702
aVrotateY
p1703
aVrotateZ
p1704
aVglobal_scale
p1705
aVlagMode
p1706
aaF-7.0567999999999995e-07
aF3.0380600000000001e-07
aF-6.6488099999999998e-07
aF0
aF0
aF0
aF1
aF0
aa(lp1707
Vhip_eyelet_rear_r_cv_0_anim
p1708
a(lp1709
VtranslateX
p1710
aVtranslateY
p1711
aVtranslateZ
p1712
aaF0
aF0
aF0
aa(lp1713
Vfk_hip_eyelet_rear_r_02_anim
p1714
a(lp1715
VtranslateX
p1716
aVtranslateY
p1717
aVtranslateZ
p1718
aVrotateX
p1719
aVrotateY
p1720
aVrotateZ
p1721
aaF1.6195699999999999e-06
aF3.8423699999999998e-07
aF-9.9642700000000001e-07
aF0
aF0
aF0
aa(lp1722
Vhip_eyelet_rear_r_cv_1_anim
p1723
a(lp1724
VtranslateX
p1725
aVtranslateY
p1726
aVtranslateZ
p1727
aaF0
aF0
aF0
aa(lp1728
Vfk_hip_eyelet_rear_r_03_anim
p1729
a(lp1730
VtranslateX
p1731
aVtranslateY
p1732
aVtranslateZ
p1733
aVrotateX
p1734
aVrotateY
p1735
aVrotateZ
p1736
aaF1.6229899999999999e-06
aF3.6153700000000002e-07
aF-9.9642300000000011e-07
aF0
aF0
aF0
aa(lp1737
Vhip_eyelet_rear_r_cv_2_anim
p1738
a(lp1739
VtranslateX
p1740
aVtranslateY
p1741
aVtranslateZ
p1742
aaF0
aF0
aF0
aa(lp1743
Vfk_hip_eyelet_rear_r_04_anim
p1744
a(lp1745
VtranslateX
p1746
aVtranslateY
p1747
aVtranslateZ
p1748
aVrotateX
p1749
aVrotateY
p1750
aVrotateZ
p1751
aaF1.6201000000000002e-06
aF3.41848e-07
aF-1.0204800000000001e-06
aF0
aF0
aF0
aa(lp1752
Vhip_eyelet_rear_r_cv_3_anim
p1753
a(lp1754
VtranslateX
p1755
aVtranslateY
p1756
aVtranslateZ
p1757
aaF0
aF0
aF0
aa(lp1758
Vjaw_anim
p1759
a(lp1760
VtranslateX
p1761
aVtranslateY
p1762
aVtranslateZ
p1763
aVrotateX
p1764
aVrotateY
p1765
aVrotateZ
p1766
aVscaleX
p1767
aVscaleY
p1768
aVscaleZ
p1769
aaF0
aF0
aF0
aF-0.82522200000000001
aF0
aF0
aF1
aF1
aF1
aa(lp1770
Vleg_shieldPad_A_l_anim
p1771
a(lp1772
VtranslateX
p1773
aVtranslateY
p1774
aVtranslateZ
p1775
aVrotateX
p1776
aVrotateY
p1777
aVrotateZ
p1778
aVchainAttach
p1779
aVchainStartFrame
p1780
aVchainStiffness
p1781
aVchainDamping
p1782
aVchainGravity
p1783
aVchainIteration
p1784
aVchainCollide
p1785
aVchainWidthBase
p1786
aVchainWidthExtremity
p1787
aVchainCollideGround
p1788
aVchainCollideGroundHeight
p1789
aaF0
aF0
aF0
aF0
aF-4.4000964466660637
aF0
aI0
aF1
aF0
aF0
aF1
aI0
aI00
aF1
aF1
aI00
aF0
aa(lp1790
Vleg_shieldPad_A_r_anim
p1791
a(lp1792
VtranslateX
p1793
aVtranslateY
p1794
aVtranslateZ
p1795
aVrotateX
p1796
aVrotateY
p1797
aVrotateZ
p1798
aVchainAttach
p1799
aVchainStartFrame
p1800
aVchainStiffness
p1801
aVchainDamping
p1802
aVchainGravity
p1803
aVchainIteration
p1804
aVchainCollide
p1805
aVchainWidthBase
p1806
aVchainWidthExtremity
p1807
aVchainCollideGround
p1808
aVchainCollideGroundHeight
p1809
aaF0
aF0
aF0
aF0
aF-1.96625259423166
aF0
aI1
aF1
aF0.10000000000000001
aF0.20000000000000001
aF1
aI1
aI00
aF1
aF1
aI00
aF0
aa(lp1810
Vleg_shieldPad_B_l_anim
p1811
a(lp1812
VtranslateX
p1813
aVtranslateY
p1814
aVtranslateZ
p1815
aVrotateX
p1816
aVrotateY
p1817
aVrotateZ
p1818
aVchainAttach
p1819
aVchainStartFrame
p1820
aVchainStiffness
p1821
aVchainDamping
p1822
aVchainGravity
p1823
aVchainIteration
p1824
aVchainCollide
p1825
aVchainWidthBase
p1826
aVchainWidthExtremity
p1827
aVchainCollideGround
p1828
aVchainCollideGroundHeight
p1829
aaF0
aF0
aF0
aF0
aF0
aF0
aI1
aF1
aF0.10000000000000001
aF0.20000000000000001
aF1
aI1
aI00
aF1
aF1
aI00
aF0
aa(lp1830
Vleg_shieldPad_B_r_anim
p1831
a(lp1832
VtranslateX
p1833
aVtranslateY
p1834
aVtranslateZ
p1835
aVrotateX
p1836
aVrotateY
p1837
aVrotateZ
p1838
aVchainAttach
p1839
aVchainStartFrame
p1840
aVchainStiffness
p1841
aVchainDamping
p1842
aVchainGravity
p1843
aVchainIteration
p1844
aVchainCollide
p1845
aVchainWidthBase
p1846
aVchainWidthExtremity
p1847
aVchainCollideGround
p1848
aVchainCollideGroundHeight
p1849
aaF0
aF0
aF0
aF0
aF0
aF0
aI1
aF1
aF0.10000000000000001
aF0.20000000000000001
aF1
aI1
aI00
aF1
aF1
aI00
aF0
aa(lp1850
Vloin_cloth_bk_dyn_anim
p1851
a(lp1852
VtranslateX
p1853
aVtranslateY
p1854
aVtranslateZ
p1855
aVrotateX
p1856
aVrotateY
p1857
aVrotateZ
p1858
aVchainAttach
p1859
aVchainStartFrame
p1860
aVchainStiffness
p1861
aVchainDamping
p1862
aVchainGravity
p1863
aVchainIteration
p1864
aVchainCollide
p1865
aVchainWidthBase
p1866
aVchainWidthExtremity
p1867
aVchainCollideGround
p1868
aVchainCollideGroundHeight
p1869
aaF0
aF0
aF0
aF0
aF0
aF0
aI1
aF1
aF0.10000000000000001
aF0.20000000000000001
aF1
aI1
aI00
aF1
aF1
aI00
aF0
aa(lp1870
Vloin_cloth_bk_ik_2_anim
p1871
a(lp1872
VtranslateX
p1873
aVtranslateY
p1874
aVtranslateZ
p1875
aVrotateX
p1876
aVrotateY
p1877
aVrotateZ
p1878
aaF0
aF0
aF0
aF0
aF0
aF0
aa(lp1879
Vloin_cloth_bk_ik_3_anim
p1880
a(lp1881
VtranslateX
p1882
aVtranslateY
p1883
aVtranslateZ
p1884
aVrotateX
p1885
aVrotateY
p1886
aVrotateZ
p1887
aVclusterControlVis
p1888
aaF0
aF0
aF0
aF0
aF0
aF0
aI00
aa(lp1889
Vloin_cloth_bk_ik_base_anim
p1890
a(lp1891
VtranslateX
p1892
aVtranslateY
p1893
aVtranslateZ
p1894
aVrotateX
p1895
aVrotateY
p1896
aVrotateZ
p1897
aVglobal_scale
p1898
aaF0
aF0
aF0
aF0
aF0
aF0
aF1
aa(lp1899
Vfk_loin_cloth_bk_01_anim
p1900
a(lp1901
VtranslateX
p1902
aVtranslateY
p1903
aVtranslateZ
p1904
aVrotateX
p1905
aVrotateY
p1906
aVrotateZ
p1907
aVglobal_scale
p1908
aVlagMode
p1909
aaF0
aF0
aF0
aF0
aF0
aF0
aF1
aF0
aa(lp1910
Vloin_cloth_bk_cv_0_anim
p1911
a(lp1912
VtranslateX
p1913
aVtranslateY
p1914
aVtranslateZ
p1915
aaF0
aF0
aF0
aa(lp1916
Vfk_loin_cloth_bk_02_anim
p1917
a(lp1918
VtranslateX
p1919
aVtranslateY
p1920
aVtranslateZ
p1921
aVrotateX
p1922
aVrotateY
p1923
aVrotateZ
p1924
aaF0
aF0
aF0
aF0
aF0
aF0
aa(lp1925
Vloin_cloth_bk_cv_1_anim
p1926
a(lp1927
VtranslateX
p1928
aVtranslateY
p1929
aVtranslateZ
p1930
aaF0
aF0
aF0
aa(lp1931
Vloin_cloth_fr_dyn_anim
p1932
a(lp1933
VtranslateX
p1934
aVtranslateY
p1935
aVtranslateZ
p1936
aVrotateX
p1937
aVrotateY
p1938
aVrotateZ
p1939
aVchainAttach
p1940
aVchainStartFrame
p1941
aVchainStiffness
p1942
aVchainDamping
p1943
aVchainGravity
p1944
aVchainIteration
p1945
aVchainCollide
p1946
aVchainWidthBase
p1947
aVchainWidthExtremity
p1948
aVchainCollideGround
p1949
aVchainCollideGroundHeight
p1950
aaF0
aF0
aF0
aF0
aF0
aF0
aI1
aF1
aF0.10000000000000001
aF0.20000000000000001
aF1
aI1
aI00
aF1
aF1
aI00
aF0
aa(lp1951
Vloin_cloth_fr_ik_2_anim
p1952
a(lp1953
VtranslateX
p1954
aVtranslateY
p1955
aVtranslateZ
p1956
aVrotateX
p1957
aVrotateY
p1958
aVrotateZ
p1959
aaF0
aF0
aF0
aF0
aF0
aF0
aa(lp1960
Vloin_cloth_fr_ik_3_anim
p1961
a(lp1962
VtranslateX
p1963
aVtranslateY
p1964
aVtranslateZ
p1965
aVrotateX
p1966
aVrotateY
p1967
aVrotateZ
p1968
aVclusterControlVis
p1969
aaF0
aF0
aF0
aF0
aF0
aF0
aI00
aa(lp1970
Vloin_cloth_fr_ik_base_anim
p1971
a(lp1972
VtranslateX
p1973
aVtranslateY
p1974
aVtranslateZ
p1975
aVrotateX
p1976
aVrotateY
p1977
aVrotateZ
p1978
aVglobal_scale
p1979
aaF0
aF0
aF0
aF0
aF0
aF0
aF1
aa(lp1980
Vfk_loin_cloth_fr_01_anim
p1981
a(lp1982
VtranslateX
p1983
aVtranslateY
p1984
aVtranslateZ
p1985
aVrotateX
p1986
aVrotateY
p1987
aVrotateZ
p1988
aVglobal_scale
p1989
aVlagMode
p1990
aaF0
aF0
aF0
aF0
aF0
aF0
aF1
aF0
aa(lp1991
Vloin_cloth_fr_cv_0_anim
p1992
a(lp1993
VtranslateX
p1994
aVtranslateY
p1995
aVtranslateZ
p1996
aaF0
aF0
aF0
aa(lp1997
Vfk_loin_cloth_fr_02_anim
p1998
a(lp1999
VtranslateX
p2000
aVtranslateY
p2001
aVtranslateZ
p2002
aVrotateX
p2003
aVrotateY
p2004
aVrotateZ
p2005
aaF0
aF0
aF0
aF0
aF0
aF0
aa(lp2006
Vloin_cloth_fr_cv_1_anim
p2007
a(lp2008
VtranslateX
p2009
aVtranslateY
p2010
aVtranslateZ
p2011
aaF0
aF0
aF0
aa(lp2012
Vpadawan_l_dyn_anim
p2013
a(lp2014
VtranslateX
p2015
aVtranslateY
p2016
aVtranslateZ
p2017
aVrotateX
p2018
aVrotateY
p2019
aVrotateZ
p2020
aVchainAttach
p2021
aVchainStartFrame
p2022
aVchainStiffness
p2023
aVchainDamping
p2024
aVchainGravity
p2025
aVchainIteration
p2026
aVchainCollide
p2027
aVchainWidthBase
p2028
aVchainWidthExtremity
p2029
aVchainCollideGround
p2030
aVchainCollideGroundHeight
p2031
aaF5.6692099999999997e-07
aF-2.0773000000000002e-07
aF-2.7077900000000002e-07
aF0
aF0
aF0
aI1
aF1
aF0.10000000000000001
aF0.20000000000000001
aF1
aI1
aI00
aF1
aF1
aI00
aF0
aa(lp2032
Vpadawan_l_ik_2_anim
p2033
a(lp2034
VtranslateX
p2035
aVtranslateY
p2036
aVtranslateZ
p2037
aVrotateX
p2038
aVrotateY
p2039
aVrotateZ
p2040
aaF9.8929799999999994e-07
aF3.4911199999999998e-07
aF2.72955e-07
aF0
aF0
aF0
aa(lp2041
Vpadawan_l_ik_3_anim
p2042
a(lp2043
VtranslateX
p2044
aVtranslateY
p2045
aVtranslateZ
p2046
aVrotateX
p2047
aVrotateY
p2048
aVrotateZ
p2049
aVclusterControlVis
p2050
aaF5.3634700000000008e-07
aF1.4553999999999999e-07
aF9.1610300000000001e-08
aF0
aF0
aF0
aI00
aa(lp2051
Vpadawan_l_ik_base_anim
p2052
a(lp2053
VtranslateX
p2054
aVtranslateY
p2055
aVtranslateZ
p2056
aVrotateX
p2057
aVrotateY
p2058
aVrotateZ
p2059
aVglobal_scale
p2060
aaF5.6411699999999997e-07
aF-2.1178599999999999e-07
aF-2.7349299999999997e-07
aF0
aF0
aF0
aF1
aa(lp2061
Vfk_padawan_l_01_anim
p2062
a(lp2063
VtranslateX
p2064
aVtranslateY
p2065
aVtranslateZ
p2066
aVrotateX
p2067
aVrotateY
p2068
aVrotateZ
p2069
aVglobal_scale
p2070
aVlagMode
p2071
aaF5.6411699999999997e-07
aF-2.1178599999999999e-07
aF-2.7349299999999997e-07
aF0
aF0
aF0
aF1
aF0
aa(lp2072
Vpadawan_l_cv_0_anim
p2073
a(lp2074
VtranslateX
p2075
aVtranslateY
p2076
aVtranslateZ
p2077
aaF0
aF0
aF0
aa(lp2078
Vfk_padawan_l_02_anim
p2079
a(lp2080
VtranslateX
p2081
aVtranslateY
p2082
aVtranslateZ
p2083
aVrotateX
p2084
aVrotateY
p2085
aVrotateZ
p2086
aaF4.4171899999999999e-07
aF3.3581399999999999e-07
aF2.0699299999999998e-07
aF0
aF0
aF0
aa(lp2087
Vpadawan_l_cv_1_anim
p2088
a(lp2089
VtranslateX
p2090
aVtranslateY
p2091
aVtranslateZ
p2092
aaF0
aF0
aF0
aa(lp2093
Vfk_padawan_l_03_anim
p2094
a(lp2095
VtranslateX
p2096
aVtranslateY
p2097
aVtranslateZ
p2098
aVrotateX
p2099
aVrotateY
p2100
aVrotateZ
p2101
aaF4.6418400000000002e-07
aF7.1331200000000003e-08
aF1.5569500000000002e-07
aF0
aF0
aF0
aa(lp2102
Vpadawan_l_cv_2_anim
p2103
a(lp2104
VtranslateX
p2105
aVtranslateY
p2106
aVtranslateZ
p2107
aaF0
aF0
aF0
aa(lp2108
Vpadawan_r_dyn_anim
p2109
a(lp2110
VtranslateX
p2111
aVtranslateY
p2112
aVtranslateZ
p2113
aVrotateX
p2114
aVrotateY
p2115
aVrotateZ
p2116
aVchainAttach
p2117
aVchainStartFrame
p2118
aVchainStiffness
p2119
aVchainDamping
p2120
aVchainGravity
p2121
aVchainIteration
p2122
aVchainCollide
p2123
aVchainWidthBase
p2124
aVchainWidthExtremity
p2125
aVchainCollideGround
p2126
aVchainCollideGroundHeight
p2127
aaF6.5734799999999999e-07
aF-7.46087e-08
aF-1.3938200000000001e-08
aF0
aF0
aF0
aI1
aF1
aF0.10000000000000001
aF0.20000000000000001
aF1
aI1
aI00
aF1
aF1
aI00
aF0
aa(lp2128
Vpadawan_r_ik_2_anim
p2129
a(lp2130
VtranslateX
p2131
aVtranslateY
p2132
aVtranslateZ
p2133
aVrotateX
p2134
aVrotateY
p2135
aVrotateZ
p2136
aaF1.0334000000000001e-06
aF4.2689399999999998e-07
aF4.0427299999999998e-07
aF0
aF0
aF0
aa(lp2137
Vpadawan_r_ik_3_anim
p2138
a(lp2139
VtranslateX
p2140
aVtranslateY
p2141
aVtranslateZ
p2142
aVrotateX
p2143
aVrotateY
p2144
aVrotateZ
p2145
aVclusterControlVis
p2146
aaF5.8044800000000004e-07
aF2.2332200000000002e-07
aF2.2292900000000002e-07
aF0
aF0
aF0
aI00
aa(lp2147
Vpadawan_r_ik_base_anim
p2148
a(lp2149
VtranslateX
p2150
aVtranslateY
p2151
aVtranslateZ
p2152
aVrotateX
p2153
aVrotateY
p2154
aVrotateZ
p2155
aVglobal_scale
p2156
aaF6.5629699999999999e-07
aF-8.3225099999999998e-08
aF-1.4958000000000001e-08
aF0
aF0
aF0
aF1
aa(lp2157
Vfk_padawan_r_01_anim
p2158
a(lp2159
VtranslateX
p2160
aVtranslateY
p2161
aVtranslateZ
p2162
aVrotateX
p2163
aVrotateY
p2164
aVrotateZ
p2165
aVglobal_scale
p2166
aVlagMode
p2167
aaF0
aF0
aF0
aF0
aF0
aF0
aF1
aF0
aa(lp2168
Vpadawan_r_cv_0_anim
p2169
a(lp2170
VtranslateX
p2171
aVtranslateY
p2172
aVtranslateZ
p2173
aaF0
aF0
aF0
aa(lp2174
Vfk_padawan_r_02_anim
p2175
a(lp2176
VtranslateX
p2177
aVtranslateY
p2178
aVtranslateZ
p2179
aVrotateX
p2180
aVrotateY
p2181
aVrotateZ
p2182
aaF4.4171899999999999e-07
aF3.3581399999999999e-07
aF2.0699299999999998e-07
aF0
aF0
aF0
aa(lp2183
Vpadawan_r_cv_1_anim
p2184
a(lp2185
VtranslateX
p2186
aVtranslateY
p2187
aVtranslateZ
p2188
aaF0
aF0
aF0
aa(lp2189
Vfk_padawan_r_03_anim
p2190
a(lp2191
VtranslateX
p2192
aVtranslateY
p2193
aVtranslateZ
p2194
aVrotateX
p2195
aVrotateY
p2196
aVrotateZ
p2197
aaF4.6418400000000002e-07
aF7.1331200000000003e-08
aF1.5569500000000002e-07
aF0
aF0
aF0
aa(lp2198
Vpadawan_r_cv_2_anim
p2199
a(lp2200
VtranslateX
p2201
aVtranslateY
p2202
aVtranslateZ
p2203
aaF0
aF0
aF0
aa(lp2204
Vpipe_anim
p2205
a(lp2206
VtranslateX
p2207
aVtranslateY
p2208
aVtranslateZ
p2209
aVrotateX
p2210
aVrotateY
p2211
aVrotateZ
p2212
aVscaleX
p2213
aVscaleY
p2214
aVscaleZ
p2215
aaF0
aF0
aF0
aF0
aF0
aF-7.9214399999999992e-05
aF1
aF1
aF1
aa(lp2216
Vponytail_dyn_anim
p2217
a(lp2218
VtranslateX
p2219
aVtranslateY
p2220
aVtranslateZ
p2221
aVrotateX
p2222
aVrotateY
p2223
aVrotateZ
p2224
aVchainAttach
p2225
aVchainStartFrame
p2226
aVchainStiffness
p2227
aVchainDamping
p2228
aVchainGravity
p2229
aVchainIteration
p2230
aVchainCollide
p2231
aVchainWidthBase
p2232
aVchainWidthExtremity
p2233
aVchainCollideGround
p2234
aVchainCollideGroundHeight
p2235
aaF-2.2462399999999999e-07
aF1.14346e-07
aF9.9454800000000002e-08
aF0
aF0
aF0
aI1
aF1
aF0.10000000000000001
aF0.20000000000000001
aF1
aI1
aI00
aF1
aF1
aI00
aF0
aa(lp2236
Vponytail_ik_2_anim
p2237
a(lp2238
VtranslateX
p2239
aVtranslateY
p2240
aVtranslateZ
p2241
aVrotateX
p2242
aVrotateY
p2243
aVrotateZ
p2244
aaF-1.0984000000000001e-07
aF6.0196200000000003e-08
aF5.1829500000000001e-08
aF0
aF0
aF0
aa(lp2245
Vponytail_ik_3_anim
p2246
a(lp2247
VtranslateX
p2248
aVtranslateY
p2249
aVtranslateZ
p2250
aVrotateX
p2251
aVrotateY
p2252
aVrotateZ
p2253
aVclusterControlVis
p2254
aaF-1.0984100000000001e-07
aF6.0196200000000003e-08
aF5.1829500000000001e-08
aF0
aF0
aF0
aI00
aa(lp2255
Vponytail_ik_base_anim
p2256
a(lp2257
VtranslateX
p2258
aVtranslateY
p2259
aVtranslateZ
p2260
aVrotateX
p2261
aVrotateY
p2262
aVrotateZ
p2263
aVglobal_scale
p2264
aaF-2.2462399999999999e-07
aF1.1402699999999999e-07
aF9.9820799999999993e-08
aF0
aF0
aF0
aF1
aa(lp2265
Vfk_ponytail_01_anim
p2266
a(lp2267
VtranslateX
p2268
aVtranslateY
p2269
aVtranslateZ
p2270
aVrotateX
p2271
aVrotateY
p2272
aVrotateZ
p2273
aVglobal_scale
p2274
aVlagMode
p2275
aaF-2.2462399999999999e-07
aF1.1402699999999999e-07
aF9.9820799999999993e-08
aF0
aF0
aF0
aF1
aF0
aa(lp2276
Vponytail_cv_0_anim
p2277
a(lp2278
VtranslateX
p2279
aVtranslateY
p2280
aVtranslateZ
p2281
aaF0
aF0
aF0
aa(lp2282
Vfk_ponytail_02_anim
p2283
a(lp2284
VtranslateX
p2285
aVtranslateY
p2286
aVtranslateZ
p2287
aVrotateX
p2288
aVrotateY
p2289
aVrotateZ
p2290
aaF0
aF0
aF0
aF0
aF0
aF0
aa(lp2291
Vponytail_cv_1_anim
p2292
a(lp2293
VtranslateX
p2294
aVtranslateY
p2295
aVtranslateZ
p2296
aaF0
aF0
aF0
aa(lp2297
Vfk_ponytail_03_anim
p2298
a(lp2299
VtranslateX
p2300
aVtranslateY
p2301
aVtranslateZ
p2302
aVrotateX
p2303
aVrotateY
p2304
aVrotateZ
p2305
aaF0
aF0
aF0
aF0
aF0
aF0
aa(lp2306
Vponytail_cv_2_anim
p2307
a(lp2308
VtranslateX
p2309
aVtranslateY
p2310
aVtranslateZ
p2311
aaF0
aF0
aF0
aa(lp2312
Vshoulder_blade_in_r_anim
p2313
a(lp2314
VtranslateX
p2315
aVtranslateY
p2316
aVtranslateZ
p2317
aVrotateX
p2318
aVrotateY
p2319
aVrotateZ
p2320
aVscaleX
p2321
aVscaleY
p2322
aVscaleZ
p2323
aaF0
aF0
aF0
aF0
aF0
aF0
aF1
aF1
aF1
aa(lp2324
Vshoulder_blade_mid_r_anim
p2325
a(lp2326
VtranslateX
p2327
aVtranslateY
p2328
aVtranslateZ
p2329
aVrotateX
p2330
aVrotateY
p2331
aVrotateZ
p2332
aVscaleX
p2333
aVscaleY
p2334
aVscaleZ
p2335
aaF0
aF0
aF0
aF0
aF0
aF0
aF1
aF1
aF1
aa(lp2336
Vshoulder_blade_out_r_anim
p2337
a(lp2338
VtranslateX
p2339
aVtranslateY
p2340
aVtranslateZ
p2341
aVrotateX
p2342
aVrotateY
p2343
aVrotateZ
p2344
aVscaleX
p2345
aVscaleY
p2346
aVscaleZ
p2347
aaF0
aF0
aF0
aF0
aF0
aF0
aF1
aF1
aF1
aa(lp2348
Vshoulder_cloth_01_l_anim
p2349
a(lp2350
VtranslateX
p2351
aVtranslateY
p2352
aVtranslateZ
p2353
aVrotateX
p2354
aVrotateY
p2355
aVrotateZ
p2356
aVscaleX
p2357
aVscaleY
p2358
aVscaleZ
p2359
aaF0
aF0
aF0
aF0
aF0
aF0
aF1
aF1
aF1
aa(lp2360
Vshoulder_cloth_02_l_anim
p2361
a(lp2362
VtranslateX
p2363
aVtranslateY
p2364
aVtranslateZ
p2365
aVrotateX
p2366
aVrotateY
p2367
aVrotateZ
p2368
aVscaleX
p2369
aVscaleY
p2370
aVscaleZ
p2371
aaF0
aF0
aF0
aF0
aF0
aF0
aF1
aF1
aF1
aa(lp2372
Vshoulder_pad_r_anim
p2373
a(lp2374
VtranslateX
p2375
aVtranslateY
p2376
aVtranslateZ
p2377
aVrotateX
p2378
aVrotateY
p2379
aVrotateZ
p2380
aVscaleX
p2381
aVscaleY
p2382
aVscaleZ
p2383
aaF-5.1133339663921218
aF-1.9401289104658321
aF9.3181456285834319
aF-6.1702174213987453
aF-20.603034234912073
aF10.372426699020892
aF1
aF1
aF1
aa(lp2384
Vweapon_anim
p2385
a(lp2386
VtranslateX
p2387
aVtranslateY
p2388
aVtranslateZ
p2389
aVrotateX
p2390
aVrotateY
p2391
aVrotateZ
p2392
aVscaleX
p2393
aVscaleY
p2394
aVscaleZ
p2395
aVspace_ik_wrist_l_anim
p2396
aaF-49.656316871427009
aF-54.800035875551707
aF-11.254778605802656
aF188.50287331959191
aF-130.3988973468843
aF155.46302265567098
aF1
aF1
aF1
aF0
aa(lp2397
Vweapon_bladeA_01_anim
p2398
a(lp2399
VtranslateX
p2400
aVtranslateY
p2401
aVtranslateZ
p2402
aVrotateX
p2403
aVrotateY
p2404
aVrotateZ
p2405
aVscaleX
p2406
aVscaleY
p2407
aVscaleZ
p2408
aaF0
aF0
aF0
aF0
aF0
aF0
aF1
aF1
aF1
aa(lp2409
Vweapon_bladeA_02_anim
p2410
a(lp2411
VtranslateZ
p2412
aVscaleX
p2413
aVscaleY
p2414
aVscaleZ
p2415
aaF0
aF1
aF1
aF1
aa(lp2416
Vweapon_bladeA_03_anim
p2417
a(lp2418
VtranslateX
p2419
aVtranslateY
p2420
aVtranslateZ
p2421
aVrotateX
p2422
aVrotateY
p2423
aVrotateZ
p2424
aVscaleX
p2425
aVscaleY
p2426
aVscaleZ
p2427
aaF0
aF0
aF0
aF0
aF0
aF0
aF1
aF1
aF1
aa(lp2428
Vweapon_bladeA_04_anim
p2429
a(lp2430
VtranslateX
p2431
aVtranslateY
p2432
aVtranslateZ
p2433
aVrotateX
p2434
aVrotateY
p2435
aVrotateZ
p2436
aVscaleX
p2437
aVscaleY
p2438
aVscaleZ
p2439
aaF0
aF0
aF0
aF0
aF0
aF0
aF1
aF1
aF1
aa(lp2440
Vweapon_bladeA_05_anim
p2441
a(lp2442
VtranslateX
p2443
aVtranslateY
p2444
aVtranslateZ
p2445
aVrotateX
p2446
aVrotateY
p2447
aVrotateZ
p2448
aVscaleX
p2449
aVscaleY
p2450
aVscaleZ
p2451
aaF0
aF0
aF0
aF0
aF0
aF0
aF1
aF1
aF1
aa(lp2452
Vweapon_bladeB_01_anim
p2453
a(lp2454
VtranslateX
p2455
aVtranslateY
p2456
aVtranslateZ
p2457
aVrotateX
p2458
aVrotateY
p2459
aVrotateZ
p2460
aVscaleX
p2461
aVscaleY
p2462
aVscaleZ
p2463
aaF0
aF0
aF0
aF0
aF0
aF0
aF1
aF1
aF1
aa(lp2464
Vweapon_bladeB_02_anim
p2465
a(lp2466
VtranslateZ
p2467
aVscaleX
p2468
aVscaleY
p2469
aVscaleZ
p2470
aaF0
aF1
aF1
aF1
aa(lp2471
Vweapon_bladeB_03_anim
p2472
a(lp2473
VtranslateX
p2474
aVtranslateY
p2475
aVtranslateZ
p2476
aVrotateX
p2477
aVrotateY
p2478
aVrotateZ
p2479
aVscaleX
p2480
aVscaleY
p2481
aVscaleZ
p2482
aaF0
aF0
aF0
aF0
aF0
aF0
aF1
aF1
aF1
aa(lp2483
Vweapon_bladeB_04_anim
p2484
a(lp2485
VtranslateX
p2486
aVtranslateY
p2487
aVtranslateZ
p2488
aVrotateX
p2489
aVrotateY
p2490
aVrotateZ
p2491
aVscaleX
p2492
aVscaleY
p2493
aVscaleZ
p2494
aaF0
aF0
aF0
aF0
aF0
aF0
aF1
aF1
aF1
aa(lp2495
Vweapon_bladeB_05_anim
p2496
a(lp2497
VtranslateX
p2498
aVtranslateY
p2499
aVtranslateZ
p2500
aVrotateX
p2501
aVrotateY
p2502
aVrotateZ
p2503
aVscaleX
p2504
aVscaleY
p2505
aVscaleZ
p2506
aaF0
aF0
aF0
aF0
aF0
aF0
aF1
aF1
aF1
aa(lp2507
Vweapon_bladeC_01_anim
p2508
a(lp2509
VtranslateX
p2510
aVtranslateY
p2511
aVtranslateZ
p2512
aVrotateX
p2513
aVrotateY
p2514
aVrotateZ
p2515
aVscaleX
p2516
aVscaleY
p2517
aVscaleZ
p2518
aaF0
aF0
aF0
aF0
aF0
aF0
aF1
aF1
aF1
aa(lp2519
Vweapon_bladeC_02_anim
p2520
a(lp2521
VtranslateY
p2522
aVscaleX
p2523
aVscaleY
p2524
aVscaleZ
p2525
aaF0
aF1
aF1
aF1
aa(lp2526
Vweapon_bladeC_03_anim
p2527
a(lp2528
VtranslateX
p2529
aVtranslateY
p2530
aVtranslateZ
p2531
aVrotateX
p2532
aVrotateY
p2533
aVrotateZ
p2534
aVscaleX
p2535
aVscaleY
p2536
aVscaleZ
p2537
aaF0
aF0
aF0
aF0
aF0
aF0
aF1
aF1
aF1
aa(lp2538
Vweapon_bladeD_01_anim
p2539
a(lp2540
VtranslateX
p2541
aVtranslateY
p2542
aVtranslateZ
p2543
aVrotateX
p2544
aVrotateY
p2545
aVrotateZ
p2546
aVscaleX
p2547
aVscaleY
p2548
aVscaleZ
p2549
aaF0
aF0
aF0
aF0
aF0
aF0
aF1
aF1
aF1
aa(lp2550
Vweapon_bladeE_01_anim
p2551
a(lp2552
VtranslateX
p2553
aVtranslateY
p2554
aVtranslateZ
p2555
aVrotateX
p2556
aVrotateY
p2557
aVrotateZ
p2558
aVscaleX
p2559
aVscaleY
p2560
aVscaleZ
p2561
aaF0
aF0
aF0
aF0
aF0
aF0
aF1
aF1
aF1
aa(lp2562
Vweapon_butt_dyn_anim
p2563
a(lp2564
VtranslateX
p2565
aVtranslateY
p2566
aVtranslateZ
p2567
aVrotateX
p2568
aVrotateY
p2569
aVrotateZ
p2570
aVchainAttach
p2571
aVchainStartFrame
p2572
aVchainStiffness
p2573
aVchainDamping
p2574
aVchainGravity
p2575
aVchainIteration
p2576
aVchainCollide
p2577
aVchainWidthBase
p2578
aVchainWidthExtremity
p2579
aVchainCollideGround
p2580
aVchainCollideGroundHeight
p2581
aaF0
aF0
aF0
aF0
aF0
aF0
aI1
aF1
aF0.10000000000000001
aF0.20000000000000001
aF1
aI1
aI00
aF1
aF1
aI00
aF0
aa(lp2582
Vweapon_butt_ik_2_anim
p2583
a(lp2584
VtranslateX
p2585
aVtranslateY
p2586
aVtranslateZ
p2587
aVrotateX
p2588
aVrotateY
p2589
aVrotateZ
p2590
aaF0
aF0
aF0
aF0
aF0
aF0
aa(lp2591
Vweapon_butt_ik_3_anim
p2592
a(lp2593
VtranslateX
p2594
aVtranslateY
p2595
aVtranslateZ
p2596
aVrotateX
p2597
aVrotateY
p2598
aVrotateZ
p2599
aaF0
aF0
aF0
aF0
aF0
aF0
aa(lp2600
Vweapon_butt_ik_4_anim
p2601
a(lp2602
VtranslateX
p2603
aVtranslateY
p2604
aVtranslateZ
p2605
aVrotateX
p2606
aVrotateY
p2607
aVrotateZ
p2608
aVclusterControlVis
p2609
aaF0
aF0
aF0
aF0
aF0
aF0
aI00
aa(lp2610
Vweapon_butt_ik_base_anim
p2611
a(lp2612
VtranslateX
p2613
aVtranslateY
p2614
aVtranslateZ
p2615
aVrotateX
p2616
aVrotateY
p2617
aVrotateZ
p2618
aVglobal_scale
p2619
aaF0
aF0
aF0
aF0
aF0
aF0
aF1
aa(lp2620
Vfk_weapon_butt_01_anim
p2621
a(lp2622
VtranslateX
p2623
aVtranslateY
p2624
aVtranslateZ
p2625
aVrotateX
p2626
aVrotateY
p2627
aVrotateZ
p2628
aVglobal_scale
p2629
aVlagMode
p2630
aaF0
aF0
aF0
aF0
aF0
aF0
aF1
aF0
aa(lp2631
Vweapon_butt_cv_0_anim
p2632
a(lp2633
VtranslateX
p2634
aVtranslateY
p2635
aVtranslateZ
p2636
aaF0
aF0
aF0
aa(lp2637
Vfk_weapon_butt_02_anim
p2638
a(lp2639
VtranslateX
p2640
aVtranslateY
p2641
aVtranslateZ
p2642
aVrotateX
p2643
aVrotateY
p2644
aVrotateZ
p2645
aaF0
aF0
aF0
aF0
aF0
aF0
aa(lp2646
Vweapon_butt_cv_1_anim
p2647
a(lp2648
VtranslateX
p2649
aVtranslateY
p2650
aVtranslateZ
p2651
aaF0
aF0
aF0
aa(lp2652
Vfk_weapon_butt_03_anim
p2653
a(lp2654
VtranslateX
p2655
aVtranslateY
p2656
aVtranslateZ
p2657
aVrotateX
p2658
aVrotateY
p2659
aVrotateZ
p2660
aaF0
aF0
aF0
aF0
aF0
aF0
aa(lp2661
Vweapon_butt_cv_2_anim
p2662
a(lp2663
VtranslateX
p2664
aVtranslateY
p2665
aVtranslateZ
p2666
aaF0
aF0
aF0
aa(lp2667
Vfk_weapon_butt_04_anim
p2668
a(lp2669
VtranslateX
p2670
aVtranslateY
p2671
aVtranslateZ
p2672
aVrotateX
p2673
aVrotateY
p2674
aVrotateZ
p2675
aaF0
aF0
aF0
aF0
aF0
aF0
aa(lp2676
Vweapon_butt_cv_3_anim
p2677
a(lp2678
VtranslateX
p2679
aVtranslateY
p2680
aVtranslateZ
p2681
aaF0
aF0
aF0
aa(lp2682
Vfk_weapon_butt_05_anim
p2683
a(lp2684
VtranslateX
p2685
aVtranslateY
p2686
aVtranslateZ
p2687
aVrotateX
p2688
aVrotateY
p2689
aVrotateZ
p2690
aaF0
aF0
aF0
aF0
aF0
aF0
aa(lp2691
Vweapon_butt_cv_4_anim
p2692
a(lp2693
VtranslateX
p2694
aVtranslateY
p2695
aVtranslateZ
p2696
aaF0
aF0
aF0
aa(lp2697
Vfk_weapon_butt_06_anim
p2698
a(lp2699
VtranslateX
p2700
aVtranslateY
p2701
aVtranslateZ
p2702
aVrotateX
p2703
aVrotateY
p2704
aVrotateZ
p2705
aaF0
aF0
aF0
aF0
aF0
aF0
aa(lp2706
Vweapon_butt_cv_5_anim
p2707
a(lp2708
VtranslateX
p2709
aVtranslateY
p2710
aVtranslateZ
p2711
aaF0
aF0
aF0
aa(lp2712
Vfk_weapon_butt_07_anim
p2713
a(lp2714
VtranslateX
p2715
aVtranslateY
p2716
aVtranslateZ
p2717
aVrotateX
p2718
aVrotateY
p2719
aVrotateZ
p2720
aaF0
aF0
aF0
aF0
aF0
aF0
aa(lp2721
Vweapon_butt_cv_6_anim
p2722
a(lp2723
VtranslateX
p2724
aVtranslateY
p2725
aVtranslateZ
p2726
aaF0
aF0
aF0
aa(lp2727
Vfk_weapon_butt_08_anim
p2728
a(lp2729
VtranslateX
p2730
aVtranslateY
p2731
aVtranslateZ
p2732
aVrotateX
p2733
aVrotateY
p2734
aVrotateZ
p2735
aaF0
aF0
aF0
aF0
aF0
aF0
aa(lp2736
Vweapon_butt_cv_7_anim
p2737
a(lp2738
VtranslateX
p2739
aVtranslateY
p2740
aVtranslateZ
p2741
aaF0
aF0
aF0
aa(lp2742
Vfk_weapon_butt_09_anim
p2743
a(lp2744
VtranslateX
p2745
aVtranslateY
p2746
aVtranslateZ
p2747
aVrotateX
p2748
aVrotateY
p2749
aVrotateZ
p2750
aaF0
aF0
aF0
aF0
aF0
aF0
aa(lp2751
Vweapon_butt_cv_8_anim
p2752
a(lp2753
VtranslateX
p2754
aVtranslateY
p2755
aVtranslateZ
p2756
aaF0
aF0
aF0
aa(lp2757
Vwrist_plate_r_anim
p2758
a(lp2759
VtranslateX
p2760
aVtranslateY
p2761
aVtranslateZ
p2762
aVrotateX
p2763
aVrotateY
p2764
aVrotateZ
p2765
aVscaleX
p2766
aVscaleY
p2767
aVscaleZ
p2768
aaF0
aF0
aF0
aF0
aF0
aF0
aF1
aF1
aF1
aa(lp2769
Vweapon_bladeD_02_anim
p2770
a(lp2771
VtranslateX
p2772
aVtranslateY
p2773
aVtranslateZ
p2774
aVrotateX
p2775
aVrotateY
p2776
aVrotateZ
p2777
aVscaleX
p2778
aVscaleY
p2779
aVscaleZ
p2780
aaF0
aF0
aF0
aF0
aF0
aF0
aF1
aF1
aF1
aa(lp2781
Vbody_anim_space_switcher
p2782
a(lp2783
Vvisibility
p2784
aVtranslateX
p2785
aVtranslateY
p2786
aVtranslateZ
p2787
aVrotateX
p2788
aVrotateY
p2789
aVrotateZ
p2790
aVscaleX
p2791
aVscaleY
p2792
aVscaleZ
p2793
aVspace_world
p2794
aaI01
aF0
aF0
aF0
aF0
aF0
aF0
aF1
aF1
aF1
aF0
aa(lp2795
Vbracelet_A_l_anim_space_switcher
p2796
a(lp2797
Vvisibility
p2798
aVtranslateX
p2799
aVtranslateY
p2800
aVtranslateZ
p2801
aVrotateX
p2802
aVrotateY
p2803
aVrotateZ
p2804
aVscaleX
p2805
aVscaleY
p2806
aVscaleZ
p2807
aVspace_world
p2808
aaI01
aF0
aF0
aF0
aF0
aF0
aF0
aF1
aF1
aF1
aF0
aa(lp2809
Vbracelet_B_l_anim_space_switcher
p2810
a(lp2811
Vvisibility
p2812
aVtranslateX
p2813
aVtranslateY
p2814
aVtranslateZ
p2815
aVrotateX
p2816
aVrotateY
p2817
aVrotateZ
p2818
aVscaleX
p2819
aVscaleY
p2820
aVscaleZ
p2821
aVspace_world
p2822
aaI01
aF0
aF0
aF0
aF0
aF0
aF0
aF1
aF1
aF1
aF0
aa(lp2823
Vbracelet_C_l_anim_space_switcher
p2824
a(lp2825
Vvisibility
p2826
aVtranslateX
p2827
aVtranslateY
p2828
aVtranslateZ
p2829
aVrotateX
p2830
aVrotateY
p2831
aVrotateZ
p2832
aVscaleX
p2833
aVscaleY
p2834
aVscaleZ
p2835
aVspace_world
p2836
aaI01
aF0
aF0
aF0
aF0
aF0
aF0
aF1
aF1
aF1
aF0
aa(lp2837
Vchest_ik_anim_space_switcher
p2838
a(lp2839
Vvisibility
p2840
aVtranslateX
p2841
aVtranslateY
p2842
aVtranslateZ
p2843
aVrotateX
p2844
aVrotateY
p2845
aVrotateZ
p2846
aVscaleX
p2847
aVscaleY
p2848
aVscaleZ
p2849
aVspace_world
p2850
aVspace_chest_ik_world_aligned
p2851
aaI01
aF0
aF0
aF-1.35552e-07
aF0
aF0
aF0
aF1
aF1
aF1
aF0
aF0
aa(lp2852
Veyeball_l_anim_space_switcher
p2853
a(lp2854
Vvisibility
p2855
aVtranslateX
p2856
aVtranslateY
p2857
aVtranslateZ
p2858
aVrotateX
p2859
aVrotateY
p2860
aVrotateZ
p2861
aVscaleX
p2862
aVscaleY
p2863
aVscaleZ
p2864
aVspace_world
p2865
aaI01
aF0
aF0
aF0
aF0
aF0
aF0
aF1
aF1
aF1
aF0
aa(lp2866
Veyeball_r_anim_space_switcher
p2867
a(lp2868
Vvisibility
p2869
aVtranslateX
p2870
aVtranslateY
p2871
aVtranslateZ
p2872
aVrotateX
p2873
aVrotateY
p2874
aVrotateZ
p2875
aVscaleX
p2876
aVscaleY
p2877
aVscaleZ
p2878
aVspace_world
p2879
aaI01
aF0
aF0
aF0
aF0
aF0
aF0
aF1
aF1
aF1
aF0
aa(lp2880
Veyebrow_in_l_anim_space_switcher
p2881
a(lp2882
Vvisibility
p2883
aVtranslateX
p2884
aVtranslateY
p2885
aVtranslateZ
p2886
aVrotateX
p2887
aVrotateY
p2888
aVrotateZ
p2889
aVscaleX
p2890
aVscaleY
p2891
aVscaleZ
p2892
aVspace_world
p2893
aaI01
aF0
aF0
aF0
aF0
aF0
aF0
aF1
aF1
aF1
aF0
aa(lp2894
Veyebrow_in_r_anim_space_switcher
p2895
a(lp2896
Vvisibility
p2897
aVtranslateX
p2898
aVtranslateY
p2899
aVtranslateZ
p2900
aVrotateX
p2901
aVrotateY
p2902
aVrotateZ
p2903
aVscaleX
p2904
aVscaleY
p2905
aVscaleZ
p2906
aVspace_world
p2907
aaI01
aF0
aF0
aF0
aF0
aF0
aF0
aF1
aF1
aF1
aF0
aa(lp2908
Veyebrow_out_l_anim_space_switcher
p2909
a(lp2910
Vvisibility
p2911
aVtranslateX
p2912
aVtranslateY
p2913
aVtranslateZ
p2914
aVrotateX
p2915
aVrotateY
p2916
aVrotateZ
p2917
aVscaleX
p2918
aVscaleY
p2919
aVscaleZ
p2920
aVspace_world
p2921
aaI01
aF0
aF0
aF0
aF0
aF0
aF0
aF1
aF1
aF1
aF0
aa(lp2922
Veyebrow_out_r_anim_space_switcher
p2923
a(lp2924
Vvisibility
p2925
aVtranslateX
p2926
aVtranslateY
p2927
aVtranslateZ
p2928
aVrotateX
p2929
aVrotateY
p2930
aVrotateZ
p2931
aVscaleX
p2932
aVscaleY
p2933
aVscaleZ
p2934
aVspace_world
p2935
aaI01
aF0
aF0
aF0
aF0
aF0
aF0
aF1
aF1
aF1
aF0
aa(lp2936
Veyelid_bott_l_anim_space_switcher
p2937
a(lp2938
Vvisibility
p2939
aVtranslateX
p2940
aVtranslateY
p2941
aVtranslateZ
p2942
aVrotateX
p2943
aVrotateY
p2944
aVrotateZ
p2945
aVscaleX
p2946
aVscaleY
p2947
aVscaleZ
p2948
aVspace_world
p2949
aaI01
aF0
aF0
aF0
aF0
aF0
aF0
aF1
aF1
aF1
aF0
aa(lp2950
Veyelid_bott_r_anim_space_switcher
p2951
a(lp2952
Vvisibility
p2953
aVtranslateX
p2954
aVtranslateY
p2955
aVtranslateZ
p2956
aVrotateX
p2957
aVrotateY
p2958
aVrotateZ
p2959
aVscaleX
p2960
aVscaleY
p2961
aVscaleZ
p2962
aVspace_world
p2963
aaI01
aF0
aF0
aF0
aF0
aF0
aF0
aF1
aF1
aF1
aF0
aa(lp2964
Veyelid_top_l_anim_space_switcher
p2965
a(lp2966
Vvisibility
p2967
aVtranslateX
p2968
aVtranslateY
p2969
aVtranslateZ
p2970
aVrotateX
p2971
aVrotateY
p2972
aVrotateZ
p2973
aVscaleX
p2974
aVscaleY
p2975
aVscaleZ
p2976
aVspace_world
p2977
aaI01
aF0
aF0
aF0
aF0
aF0
aF0
aF1
aF1
aF1
aF0
aa(lp2978
Veyelid_top_r_anim_space_switcher
p2979
a(lp2980
Vvisibility
p2981
aVtranslateX
p2982
aVtranslateY
p2983
aVtranslateZ
p2984
aVrotateX
p2985
aVrotateY
p2986
aVrotateZ
p2987
aVscaleX
p2988
aVscaleY
p2989
aVscaleZ
p2990
aVspace_world
p2991
aaI01
aF0
aF0
aF0
aF0
aF0
aF0
aF1
aF1
aF1
aF0
aa(lp2992
Vhip_back_flaps_anim_space_switcher
p2993
a(lp2994
Vvisibility
p2995
aVtranslateX
p2996
aVtranslateY
p2997
aVtranslateZ
p2998
aVrotateX
p2999
aVrotateY
p3000
aVrotateZ
p3001
aVscaleX
p3002
aVscaleY
p3003
aVscaleZ
p3004
aVspace_world
p3005
aaI01
aF0
aF0
aF0
aF0
aF0
aF0
aF1
aF1
aF1
aF0
aa(lp3006
Vik_elbow_l_anim_space_switcher
p3007
a(lp3008
Vvisibility
p3009
aVtranslateX
p3010
aVtranslateY
p3011
aVtranslateZ
p3012
aVrotateX
p3013
aVrotateY
p3014
aVrotateZ
p3015
aVscaleX
p3016
aVscaleY
p3017
aVscaleZ
p3018
aVspace_world
p3019
aVspace_body_anim
p3020
aVspace_chest_ik_anim
p3021
aaI01
aF-5.5530299999999996e-06
aF-8.2796600000000003e-06
aF0.000105695
aF0
aF0
aF0
aF1
aF1
aF1
aF0
aF0
aF0
aa(lp3022
Vik_elbow_r_anim_space_switcher
p3023
a(lp3024
Vvisibility
p3025
aVtranslateX
p3026
aVtranslateY
p3027
aVtranslateZ
p3028
aVrotateX
p3029
aVrotateY
p3030
aVrotateZ
p3031
aVscaleX
p3032
aVscaleY
p3033
aVscaleZ
p3034
aVspace_world
p3035
aVspace_body_anim
p3036
aVspace_chest_ik_anim
p3037
aaI01
aF-5.5530299999999996e-06
aF8.2796600000000003e-06
aF-0.000105695
aF0
aF0
aF0
aF1
aF1
aF1
aF0
aF0
aF0
aa(lp3038
Vik_foot_anim_l_space_switcher
p3039
a(lp3040
Vvisibility
p3041
aVtranslateX
p3042
aVtranslateY
p3043
aVtranslateZ
p3044
aVrotateX
p3045
aVrotateY
p3046
aVrotateZ
p3047
aVscaleX
p3048
aVscaleY
p3049
aVscaleZ
p3050
aVspace_world
p3051
aVspace_body_anim
p3052
aaI01
aF1.77957e-05
aF1.7388300000000001e-05
aF-0.000182055
aF0
aF0
aF0
aF1
aF1
aF1
aF0
aF0
aa(lp3053
Vik_foot_anim_r_space_switcher
p3054
a(lp3055
Vvisibility
p3056
aVtranslateX
p3057
aVtranslateY
p3058
aVtranslateZ
p3059
aVrotateX
p3060
aVrotateY
p3061
aVrotateZ
p3062
aVscaleX
p3063
aVscaleY
p3064
aVscaleZ
p3065
aVspace_world
p3066
aVspace_body_anim
p3067
aaI01
aF1.77957e-05
aF-1.7388300000000001e-05
aF0.000182055
aF0
aF0
aF0
aF1
aF1
aF1
aF0
aF0
aa(lp3068
Vik_wrist_l_anim_space_switcher
p3069
a(lp3070
Vvisibility
p3071
aVtranslateX
p3072
aVtranslateY
p3073
aVtranslateZ
p3074
aVrotateX
p3075
aVrotateY
p3076
aVrotateZ
p3077
aVscaleX
p3078
aVscaleY
p3079
aVscaleZ
p3080
aVspace_world
p3081
aVspace_body_anim
p3082
aVspace_head_fk_anim
p3083
aVspace_chest_ik_anim
p3084
aaI01
aF0
aF0
aF0
aF0
aF0
aF0
aF1
aF1
aF1
aF0
aF0
aF0
aF0
aa(lp3085
Vik_wrist_r_anim_space_switcher
p3086
a(lp3087
Vvisibility
p3088
aVtranslateX
p3089
aVtranslateY
p3090
aVtranslateZ
p3091
aVrotateX
p3092
aVrotateY
p3093
aVrotateZ
p3094
aVscaleX
p3095
aVscaleY
p3096
aVscaleZ
p3097
aVspace_world
p3098
aVspace_body_anim
p3099
aVspace_head_fk_anim
p3100
aVspace_chest_ik_anim
p3101
aaI01
aF0
aF0
aF0
aF0
aF0
aF0
aF1
aF1
aF1
aF0
aF0
aF0
aF0
aa(lp3102
Vjaw_anim_space_switcher
p3103
a(lp3104
Vvisibility
p3105
aVtranslateX
p3106
aVtranslateY
p3107
aVtranslateZ
p3108
aVrotateX
p3109
aVrotateY
p3110
aVrotateZ
p3111
aVscaleX
p3112
aVscaleY
p3113
aVscaleZ
p3114
aVspace_world
p3115
aaI01
aF0
aF0
aF0
aF0
aF0
aF0
aF1
aF1
aF1
aF0
aa(lp3116
Vl_global_ik_anim_space_switcher
p3117
a(lp3118
Vvisibility
p3119
aVtranslateX
p3120
aVtranslateY
p3121
aVtranslateZ
p3122
aVrotateX
p3123
aVrotateY
p3124
aVrotateZ
p3125
aVscaleX
p3126
aVscaleY
p3127
aVscaleZ
p3128
aVspace_world
p3129
aaI01
aF0
aF0
aF0
aF0
aF0
aF0
aF1
aF1
aF1
aF0
aa(lp3130
Vmaster_anim_space_switcher
p3131
a(lp3132
Vvisibility
p3133
aVtranslateX
p3134
aVtranslateY
p3135
aVtranslateZ
p3136
aVrotateX
p3137
aVrotateY
p3138
aVrotateZ
p3139
aVscaleX
p3140
aVscaleY
p3141
aVscaleZ
p3142
aVspace_world
p3143
aaI01
aF0
aF0
aF0
aF0
aF0
aF0
aF1
aF1
aF1
aF0
aa(lp3144
Vpipe_anim_space_switcher
p3145
a(lp3146
Vvisibility
p3147
aVtranslateX
p3148
aVtranslateY
p3149
aVtranslateZ
p3150
aVrotateX
p3151
aVrotateY
p3152
aVrotateZ
p3153
aVscaleX
p3154
aVscaleY
p3155
aVscaleZ
p3156
aVspace_world
p3157
aaI01
aF0
aF0
aF0
aF0
aF0
aF0
aF1
aF1
aF1
aF0
aa(lp3158
Vr_global_ik_anim_space_switcher
p3159
a(lp3160
Vvisibility
p3161
aVtranslateX
p3162
aVtranslateY
p3163
aVtranslateZ
p3164
aVrotateX
p3165
aVrotateY
p3166
aVrotateZ
p3167
aVscaleX
p3168
aVscaleY
p3169
aVscaleZ
p3170
aVspace_world
p3171
aaI01
aF0
aF0
aF0
aF0
aF0
aF0
aF1
aF1
aF1
aF0
aa(lp3172
Vshoulder_blade_in_r_anim_space_switcher
p3173
a(lp3174
Vvisibility
p3175
aVtranslateX
p3176
aVtranslateY
p3177
aVtranslateZ
p3178
aVrotateX
p3179
aVrotateY
p3180
aVrotateZ
p3181
aVscaleX
p3182
aVscaleY
p3183
aVscaleZ
p3184
aVspace_world
p3185
aaI01
aF0
aF0
aF0
aF0
aF0
aF0
aF1
aF1
aF1
aF0
aa(lp3186
Vshoulder_blade_mid_r_anim_space_switcher
p3187
a(lp3188
Vvisibility
p3189
aVtranslateX
p3190
aVtranslateY
p3191
aVtranslateZ
p3192
aVrotateX
p3193
aVrotateY
p3194
aVrotateZ
p3195
aVscaleX
p3196
aVscaleY
p3197
aVscaleZ
p3198
aVspace_world
p3199
aaI01
aF0
aF0
aF0
aF0
aF0
aF0
aF1
aF1
aF1
aF0
aa(lp3200
Vshoulder_blade_out_r_anim_space_switcher
p3201
a(lp3202
Vvisibility
p3203
aVtranslateX
p3204
aVtranslateY
p3205
aVtranslateZ
p3206
aVrotateX
p3207
aVrotateY
p3208
aVrotateZ
p3209
aVscaleX
p3210
aVscaleY
p3211
aVscaleZ
p3212
aVspace_world
p3213
aaI01
aF0
aF0
aF0
aF0
aF0
aF0
aF1
aF1
aF1
aF0
aa(lp3214
Vshoulder_cloth_01_l_anim_space_switcher
p3215
a(lp3216
Vvisibility
p3217
aVtranslateX
p3218
aVtranslateY
p3219
aVtranslateZ
p3220
aVrotateX
p3221
aVrotateY
p3222
aVrotateZ
p3223
aVscaleX
p3224
aVscaleY
p3225
aVscaleZ
p3226
aVspace_world
p3227
aaI01
aF0
aF0
aF0
aF0
aF0
aF0
aF1
aF1
aF1
aF0
aa(lp3228
Vshoulder_cloth_02_l_anim_space_switcher
p3229
a(lp3230
Vvisibility
p3231
aVtranslateX
p3232
aVtranslateY
p3233
aVtranslateZ
p3234
aVrotateX
p3235
aVrotateY
p3236
aVrotateZ
p3237
aVscaleX
p3238
aVscaleY
p3239
aVscaleZ
p3240
aVspace_world
p3241
aaI01
aF0
aF0
aF0
aF0
aF0
aF0
aF1
aF1
aF1
aF0
aa(lp3242
Vshoulder_pad_r_anim_space_switcher
p3243
a(lp3244
Vvisibility
p3245
aVtranslateX
p3246
aVtranslateY
p3247
aVtranslateZ
p3248
aVrotateX
p3249
aVrotateY
p3250
aVrotateZ
p3251
aVscaleX
p3252
aVscaleY
p3253
aVscaleZ
p3254
aVspace_world
p3255
aaI01
aF0
aF0
aF0
aF0
aF0
aF0
aF1
aF1
aF1
aF0
aa(lp3256
Vspine_01_space_switcher
p3257
a(lp3258
Vvisibility
p3259
aVtranslateX
p3260
aVtranslateY
p3261
aVtranslateZ
p3262
aVrotateX
p3263
aVrotateY
p3264
aVrotateZ
p3265
aVscaleX
p3266
aVscaleY
p3267
aVscaleZ
p3268
aVspace_world
p3269
aaI01
aF0
aF0
aF0
aF0
aF0
aF0
aF1
aF1
aF1
aF0
aa(lp3270
Vweapon_anim_space_switcher
p3271
a(lp3272
Vvisibility
p3273
aVtranslateX
p3274
aVtranslateY
p3275
aVtranslateZ
p3276
aVrotateX
p3277
aVrotateY
p3278
aVrotateZ
p3279
aVscaleX
p3280
aVscaleY
p3281
aVscaleZ
p3282
aVspace_world
p3283
aaI01
aF0
aF0
aF0
aF0
aF0
aF0
aF1
aF1
aF1
aF0
aa(lp3284
Vweapon_bladeA_01_anim_space_switcher
p3285
a(lp3286
Vvisibility
p3287
aVtranslateX
p3288
aVtranslateY
p3289
aVtranslateZ
p3290
aVrotateX
p3291
aVrotateY
p3292
aVrotateZ
p3293
aVscaleX
p3294
aVscaleY
p3295
aVscaleZ
p3296
aVspace_world
p3297
aVspace_weapon_blades_master_anim
p3298
aaI01
aF0
aF0
aF0
aF0
aF0
aF0
aF1
aF1
aF1
aF0
aF1
aa(lp3299
Vweapon_bladeA_02_anim_space_switcher
p3300
a(lp3301
Vvisibility
p3302
aVtranslateX
p3303
aVtranslateY
p3304
aVtranslateZ
p3305
aVrotateX
p3306
aVrotateY
p3307
aVrotateZ
p3308
aVscaleX
p3309
aVscaleY
p3310
aVscaleZ
p3311
aVspace_world
p3312
aaI01
aF0
aF0
aF0
aF0
aF0
aF0
aF1
aF1
aF1
aF0
aa(lp3313
Vweapon_bladeA_03_anim_space_switcher
p3314
a(lp3315
Vvisibility
p3316
aVtranslateX
p3317
aVtranslateY
p3318
aVtranslateZ
p3319
aVrotateX
p3320
aVrotateY
p3321
aVrotateZ
p3322
aVscaleX
p3323
aVscaleY
p3324
aVscaleZ
p3325
aVspace_world
p3326
aaI01
aF0
aF0
aF0
aF0
aF0
aF0
aF1
aF1
aF1
aF0
aa(lp3327
Vweapon_bladeA_04_anim_space_switcher
p3328
a(lp3329
Vvisibility
p3330
aVtranslateX
p3331
aVtranslateY
p3332
aVtranslateZ
p3333
aVrotateX
p3334
aVrotateY
p3335
aVrotateZ
p3336
aVscaleX
p3337
aVscaleY
p3338
aVscaleZ
p3339
aVspace_world
p3340
aaI01
aF0
aF0
aF0
aF0
aF0
aF0
aF1
aF1
aF1
aF0
aa(lp3341
Vweapon_bladeA_05_anim_space_switcher
p3342
a(lp3343
Vvisibility
p3344
aVtranslateX
p3345
aVtranslateY
p3346
aVtranslateZ
p3347
aVrotateX
p3348
aVrotateY
p3349
aVrotateZ
p3350
aVscaleX
p3351
aVscaleY
p3352
aVscaleZ
p3353
aVspace_world
p3354
aaI01
aF0
aF0
aF0
aF0
aF0
aF0
aF1
aF1
aF1
aF0
aa(lp3355
Vweapon_bladeB_01_anim_space_switcher
p3356
a(lp3357
Vvisibility
p3358
aVtranslateX
p3359
aVtranslateY
p3360
aVtranslateZ
p3361
aVrotateX
p3362
aVrotateY
p3363
aVrotateZ
p3364
aVscaleX
p3365
aVscaleY
p3366
aVscaleZ
p3367
aVspace_world
p3368
aVspace_weapon_blades_master_anim
p3369
aaI01
aF0
aF0
aF0
aF0
aF0
aF0
aF1
aF1
aF1
aF0
aF1
aa(lp3370
Vweapon_bladeB_02_anim_space_switcher
p3371
a(lp3372
Vvisibility
p3373
aVtranslateX
p3374
aVtranslateY
p3375
aVtranslateZ
p3376
aVrotateX
p3377
aVrotateY
p3378
aVrotateZ
p3379
aVscaleX
p3380
aVscaleY
p3381
aVscaleZ
p3382
aVspace_world
p3383
aaI01
aF0
aF0
aF0
aF0
aF0
aF0
aF1
aF1
aF1
aF0
aa(lp3384
Vweapon_bladeB_03_anim_space_switcher
p3385
a(lp3386
Vvisibility
p3387
aVtranslateX
p3388
aVtranslateY
p3389
aVtranslateZ
p3390
aVrotateX
p3391
aVrotateY
p3392
aVrotateZ
p3393
aVscaleX
p3394
aVscaleY
p3395
aVscaleZ
p3396
aVspace_world
p3397
aaI01
aF0
aF0
aF0
aF0
aF0
aF0
aF1
aF1
aF1
aF0
aa(lp3398
Vweapon_bladeB_04_anim_space_switcher
p3399
a(lp3400
Vvisibility
p3401
aVtranslateX
p3402
aVtranslateY
p3403
aVtranslateZ
p3404
aVrotateX
p3405
aVrotateY
p3406
aVrotateZ
p3407
aVscaleX
p3408
aVscaleY
p3409
aVscaleZ
p3410
aVspace_world
p3411
aaI01
aF0
aF0
aF0
aF0
aF0
aF0
aF1
aF1
aF1
aF0
aa(lp3412
Vweapon_bladeB_05_anim_space_switcher
p3413
a(lp3414
Vvisibility
p3415
aVtranslateX
p3416
aVtranslateY
p3417
aVtranslateZ
p3418
aVrotateX
p3419
aVrotateY
p3420
aVrotateZ
p3421
aVscaleX
p3422
aVscaleY
p3423
aVscaleZ
p3424
aVspace_world
p3425
aaI01
aF0
aF0
aF0
aF0
aF0
aF0
aF1
aF1
aF1
aF0
aa(lp3426
Vweapon_bladeC_01_anim_space_switcher
p3427
a(lp3428
Vvisibility
p3429
aVtranslateX
p3430
aVtranslateY
p3431
aVtranslateZ
p3432
aVrotateX
p3433
aVrotateY
p3434
aVrotateZ
p3435
aVscaleX
p3436
aVscaleY
p3437
aVscaleZ
p3438
aVspace_world
p3439
aVspace_weapon_blades_master_anim
p3440
aaI01
aF0
aF0
aF0
aF0
aF0
aF0
aF1
aF1
aF1
aF0
aF1
aa(lp3441
Vweapon_bladeC_02_anim_space_switcher
p3442
a(lp3443
Vvisibility
p3444
aVtranslateX
p3445
aVtranslateY
p3446
aVtranslateZ
p3447
aVrotateX
p3448
aVrotateY
p3449
aVrotateZ
p3450
aVscaleX
p3451
aVscaleY
p3452
aVscaleZ
p3453
aVspace_world
p3454
aaI01
aF0
aF0
aF0
aF0
aF0
aF0
aF1
aF1
aF1
aF0
aa(lp3455
Vweapon_bladeC_03_anim_space_switcher
p3456
a(lp3457
Vvisibility
p3458
aVtranslateX
p3459
aVtranslateY
p3460
aVtranslateZ
p3461
aVrotateX
p3462
aVrotateY
p3463
aVrotateZ
p3464
aVscaleX
p3465
aVscaleY
p3466
aVscaleZ
p3467
aVspace_world
p3468
aaI01
aF0
aF0
aF0
aF0
aF0
aF0
aF1
aF1
aF1
aF0
aa(lp3469
Vweapon_bladeD_01_anim_space_switcher
p3470
a(lp3471
Vvisibility
p3472
aVtranslateX
p3473
aVtranslateY
p3474
aVtranslateZ
p3475
aVrotateX
p3476
aVrotateY
p3477
aVrotateZ
p3478
aVscaleX
p3479
aVscaleY
p3480
aVscaleZ
p3481
aVspace_world
p3482
aVspace_weapon_blades_master_anim
p3483
aaI01
aF0
aF0
aF0
aF0
aF0
aF0
aF1
aF1
aF1
aF0
aF1
aa(lp3484
Vweapon_bladeD_02_anim_space_switcher
p3485
a(lp3486
Vvisibility
p3487
aVtranslateX
p3488
aVtranslateY
p3489
aVtranslateZ
p3490
aVrotateX
p3491
aVrotateY
p3492
aVrotateZ
p3493
aVscaleX
p3494
aVscaleY
p3495
aVscaleZ
p3496
aVspace_world
p3497
aaI01
aF0
aF0
aF0
aF0
aF0
aF0
aF1
aF1
aF1
aF0
aa(lp3498
Vweapon_bladeE_01_anim_space_switcher
p3499
a(lp3500
Vvisibility
p3501
aVtranslateX
p3502
aVtranslateY
p3503
aVtranslateZ
p3504
aVrotateX
p3505
aVrotateY
p3506
aVrotateZ
p3507
aVscaleX
p3508
aVscaleY
p3509
aVscaleZ
p3510
aVspace_world
p3511
aaI01
aF0
aF0
aF0
aF0
aF0
aF0
aF1
aF1
aF1
aF0
aa(lp3512
Vwrist_plate_r_anim_space_switcher
p3513
a(lp3514
Vvisibility
p3515
aVtranslateX
p3516
aVtranslateY
p3517
aVtranslateZ
p3518
aVrotateX
p3519
aVrotateY
p3520
aVrotateZ
p3521
aVscaleX
p3522
aVscaleY
p3523
aVscaleZ
p3524
aVspace_world
p3525
aaI01
aF0
aF0
aF0
aF0
aF0
aF0
aF1
aF1
aF1
aF0
aa.