(lp1
(lp2
S'fk_clavicle_r_anim'
p3
a(lp4
VtranslateX
p5
aVtranslateY
p6
aVtranslateZ
p7
aVrotateX
p8
aVrotateY
p9
aVrotateZ
p10
aaF0
aF0
aF0
aF0
aF-0
aF0
aa(lp11
S'fk_clavicle_l_anim'
p12
a(lp13
VtranslateX
p14
aVtranslateY
p15
aVtranslateZ
p16
aVrotateX
p17
aVrotateY
p18
aVrotateZ
p19
aaF0
aF0
aF0
aF0
aF-0
aF0
aa(lp20
S'head_fk_anim'
p21
a(lp22
VtranslateX
p23
aVtranslateY
p24
aVtranslateZ
p25
aVrotateX
p26
aVrotateY
p27
aVrotateZ
p28
aVscaleX
p29
aVscaleY
p30
aVscaleZ
p31
aVfkOrientation
p32
aaF0
aF0
aF0
aF-9.5786909560448183
aF-3.3851185105477404
aF30.039848341864769
aF1
aF1
aF1
aI0
aa(lp33
S'neck_01_fk_anim'
p34
a(lp35
VtranslateX
p36
aVtranslateY
p37
aVtranslateZ
p38
aVrotateX
p39
aVrotateY
p40
aVrotateZ
p41
aVscaleX
p42
aVscaleY
p43
aVscaleZ
p44
aVfkOrientation
p45
aaF0
aF0
aF0
aF20.58173174242561
aF4.4788690999329193
aF-34.751521398648549
aF1
aF1
aF1
aI2
aa(lp46
S'neck_02_fk_anim'
p47
a(lp48
VtranslateX
p49
aVtranslateY
p50
aVtranslateZ
p51
aVrotateX
p52
aVrotateY
p53
aVrotateZ
p54
aVscaleX
p55
aVscaleY
p56
aVscaleZ
p57
aaF0
aF0
aF0
aF-0
aF0
aF-0
aF1
aF1
aF1
aa(lp58
S'spine_01_anim'
p59
a(lp60
Vlength
p61
aVtranslateY
p62
aVtranslateZ
p63
aVrotateX
p64
aVrotateY
p65
aVrotateZ
p66
aVlength
p67
aaF0
aF0
aF0
aF-0
aF0
aF-0
aF0
aa(lp68
S'spine_02_anim'
p69
a(lp70
Vlength
p71
aVtranslateY
p72
aVtranslateZ
p73
aVrotateX
p74
aVrotateY
p75
aVrotateZ
p76
aVlength
p77
aaF0
aF0
aF0
aF-0
aF0
aF-0
aF0
aa(lp78
S'spine_03_anim'
p79
a(lp80
Vlength
p81
aVtranslateY
p82
aVtranslateZ
p83
aVrotateX
p84
aVrotateY
p85
aVrotateZ
p86
aVlength
p87
aaF0
aF0
aF0
aF-0
aF0
aF-0
aF0
aa(lp88
S'mid_ik_anim'
p89
a(lp90
VtranslateX
p91
aVtranslateY
p92
aVtranslateZ
p93
aVrotateX
p94
aVrotateY
p95
aVrotateZ
p96
aaF0
aF0
aF0
aF-0
aF0
aF-0
aa(lp97
S'chest_ik_anim'
p98
a(lp99
VtranslateX
p100
aVtranslateY
p101
aVtranslateZ
p102
aVrotateX
p103
aVrotateY
p104
aVrotateZ
p105
aVstretch
p106
aVsquash
p107
aVtwist_amount
p108
aVautoSpine
p109
aVrotationInfluence
p110
aaF-2.7676862853782049
aF-9.0501756139515699
aF5.2986331772025164
aF-9.7730893420729377
aF-7.6868948425315935
aF-41.770818889682296
aF0
aF0
aF1
aF0
aF0.25
aa(lp111
S'body_anim'
p112
a(lp113
VtranslateX
p114
aVtranslateY
p115
aVtranslateZ
p116
aVrotateX
p117
aVrotateY
p118
aVrotateZ
p119
aaF-85.586500415713587
aF-36.360706810703668
aF-1.252051071042946
aF36.403494089152105
aF-21.288365772055574
aF-41.426187002903696
aa(lp120
S'hip_anim'
p121
a(lp122
VtranslateX
p123
aVtranslateY
p124
aVtranslateZ
p125
aVrotateX
p126
aVrotateY
p127
aVrotateZ
p128
aVlCalfTwistCtrlVis
p129
aVrCalfTwistCtrlVis
p130
aVautoHips
p131
aaF0.13717465628949291
aF-0.99612858980985652
aF0.41900711706450561
aF-13.085687819261143
aF12.444533395689005
aF28.292996221767538
aI00
aI00
aF0
aa(lp132
S'clavicle_l_anim'
p133
a(lp134
VtranslateX
p135
aVtranslateY
p136
aVtranslateZ
p137
aVautoShoulders
p138
aaF-0.13506260663744524
aF-0.98342558941607372
aF-0.036101690983139936
aF0
aa(lp139
S'clavicle_r_anim'
p140
a(lp141
VtranslateX
p142
aVtranslateY
p143
aVtranslateZ
p144
aVautoShoulders
p145
aaF0.08376035745504333
aF0.0046111814987362925
aF12.331858238746555
aF0
aa(lp146
S'fk_arm_l_anim'
p147
a(lp148
VtranslateX
p149
aVtranslateY
p150
aVtranslateZ
p151
aVrotateX
p152
aVrotateY
p153
aVrotateZ
p154
aaF0
aF0
aF0
aF43.432206339496602
aF46.942996305323462
aF31.952924098480761
aa(lp155
S'fk_arm_r_anim'
p156
a(lp157
VtranslateX
p158
aVtranslateY
p159
aVtranslateZ
p160
aVrotateX
p161
aVrotateY
p162
aVrotateZ
p163
aaF0
aF0
aF0
aF-7.1374847901708005
aF26.866743756835934
aF-29.524840937304802
aa(lp164
S'fk_elbow_l_anim'
p165
a(lp166
VtranslateX
p167
aVtranslateY
p168
aVtranslateZ
p169
aVrotateX
p170
aVrotateY
p171
aVrotateZ
p172
aaF0
aF0
aF0
aF0
aF0
aF-35.402635785228462
aa(lp173
S'fk_elbow_r_anim'
p174
a(lp175
VtranslateX
p176
aVtranslateY
p177
aVtranslateZ
p178
aVrotateX
p179
aVrotateY
p180
aVrotateZ
p181
aaF0
aF0
aF0
aF-4.8195231955668333e-06
aF1.1218631994021412e-05
aF-63.382994337806565
aa(lp182
S'fk_wrist_l_anim'
p183
a(lp184
VtranslateX
p185
aVtranslateY
p186
aVtranslateZ
p187
aVrotateX
p188
aVrotateY
p189
aVrotateZ
p190
aaF0
aF0
aF0
aF-43.779091080591378
aF-42.351286187775692
aF29.740920528128758
aa(lp191
S'fk_wrist_r_anim'
p192
a(lp193
VtranslateX
p194
aVtranslateY
p195
aVtranslateZ
p196
aVrotateX
p197
aVrotateY
p198
aVrotateZ
p199
aaF0
aF0
aF0
aF-20.847498478725999
aF16.429661184265008
aF1.8321425797965496
aa(lp200
S'ik_elbow_l_anim'
p201
a(lp202
VtranslateX
p203
aVtranslateY
p204
aVtranslateZ
p205
aaF78.601291063772635
aF83.305468019848377
aF-107.44649118133124
aa(lp206
S'ik_elbow_r_anim'
p207
a(lp208
VtranslateX
p209
aVtranslateY
p210
aVtranslateZ
p211
aaF6.7420524590970174
aF-124.92739673214214
aF-146.89820230319702
aa(lp212
S'ik_wrist_l_anim'
p213
a(lp214
VtranslateX
p215
aVtranslateY
p216
aVtranslateZ
p217
aVrotateX
p218
aVrotateY
p219
aVrotateZ
p220
aVstretch
p221
aVsquash
p222
aVstretchBias
p223
aVside
p224
aVmid_bend
p225
aVmid_swivel
p226
aVtip_pivot
p227
aVtip_swivel
p228
aVspace_weapon_anim
p229
aaF-134.30108589659886
aF-39.751320351688683
aF173.58584131339663
aF31.123063082543815
aF-54.164221826075064
aF102.25763468196919
aF0
aF0
aF0
aF0
aF12.700000000000001
aF30
aF0
aF0
aF1
aa(lp230
S'ik_wrist_r_anim'
p231
a(lp232
VtranslateX
p233
aVtranslateY
p234
aVtranslateZ
p235
aVrotateX
p236
aVrotateY
p237
aVrotateZ
p238
aVstretch
p239
aVsquash
p240
aVstretchBias
p241
aVside
p242
aVmid_bend
p243
aVmid_swivel
p244
aVtip_pivot
p245
aVtip_swivel
p246
aVspace_weapon_anim
p247
aaF55.062513475238553
aF-0.64288146959957193
aF165.13891379707005
aF135.55869400276521
aF48.180612554424741
aF-96.79065160197905
aF0
aF0
aF0
aF0
aF3.8000000000000003
aF18.300000000000001
aF0
aF0
aF1
aa(lp248
S'fk_thigh_l_anim'
p249
a(lp250
VrotateX
p251
aVrotateY
p252
aVrotateZ
p253
aaF0
aF-0
aF0
aa(lp254
S'fk_thigh_r_anim'
p255
a(lp256
VrotateX
p257
aVrotateY
p258
aVrotateZ
p259
aaF0
aF-0
aF0
aa(lp260
S'fk_calf_l_anim'
p261
a(lp262
VrotateX
p263
aVrotateY
p264
aVrotateZ
p265
aaF0
aF-0
aF0
aa(lp266
S'fk_calf_r_anim'
p267
a(lp268
VrotateX
p269
aVrotateY
p270
aVrotateZ
p271
aaF0
aF-0
aF0
aa(lp272
S'fk_foot_l_anim'
p273
a(lp274
VrotateX
p275
aVrotateY
p276
aVrotateZ
p277
aaF0
aF-0
aF0
aa(lp278
S'fk_foot_r_anim'
p279
a(lp280
VrotateX
p281
aVrotateY
p282
aVrotateZ
p283
aaF0
aF-0
aF0
aa(lp284
S'fk_ball_l_anim'
p285
a(lp286
VrotateX
p287
aVrotateY
p288
aVrotateZ
p289
aaF0
aF-0
aF0
aa(lp290
S'fk_ball_r_anim'
p291
a(lp292
VrotateX
p293
aVrotateY
p294
aVrotateZ
p295
aaF0
aF-0
aF0
aa(lp296
S'ik_foot_anim_l'
p297
a(lp298
VtranslateX
p299
aVtranslateY
p300
aVtranslateZ
p301
aVrotateX
p302
aVrotateY
p303
aVrotateZ
p304
aVknee_twist
p305
aVstretch
p306
aVsquash
p307
aVtoeCtrlVis
p308
aVstretchBias
p309
aaF-3.5053118793716749
aF-37.161577403754684
aF0
aF7.9088015245680463
aF-4.2498214173130133
aF86.282730560889149
aF452.90000000000003
aF0
aF0
aI00
aF0
aa(lp310
S'ik_foot_anim_r'
p311
a(lp312
VtranslateX
p313
aVtranslateY
p314
aVtranslateZ
p315
aVrotateX
p316
aVrotateY
p317
aVrotateZ
p318
aVknee_twist
p319
aVstretch
p320
aVsquash
p321
aVtoeCtrlVis
p322
aVstretchBias
p323
aaF13.81476157856425
aF-148.14564558428955
aF-0.53248032563695524
aF-33.026232272192381
aF3.2588160395533521
aF8.5600913630555766
aF-378.98228942553914
aF0
aF0
aI00
aF0
aa(lp324
S'heel_ctrl_l'
p325
a(lp326
VrotateX
p327
aVrotateY
p328
aVrotateZ
p329
aVheelPivot
p330
aVballPivot
p331
aaF0
aF-0
aF0
aF0
aF0
aa(lp332
S'heel_ctrl_r'
p333
a(lp334
VrotateX
p335
aVrotateY
p336
aVrotateZ
p337
aVheelPivot
p338
aVballPivot
p339
aaF0
aF-0
aF0
aF0
aF0
aa(lp340
S'toe_wiggle_ctrl_l'
p341
a(lp342
VrotateX
p343
aVrotateY
p344
aVrotateZ
p345
aaF0
aF-0
aF0
aa(lp346
S'toe_wiggle_ctrl_r'
p347
a(lp348
VrotateX
p349
aVrotateY
p350
aVrotateZ
p351
aaF0
aF-0
aF0
aa(lp352
S'toe_tip_ctrl_l'
p353
a(lp354
VrotateX
p355
aVrotateY
p356
aVrotateZ
p357
aaF0
aF-0
aF0
aa(lp358
S'toe_tip_ctrl_r'
p359
a(lp360
VrotateX
p361
aVrotateY
p362
aVrotateZ
p363
aaF0
aF-0
aF0
aa(lp364
S'master_anim'
p365
a(lp366
VtranslateX
p367
aVtranslateY
p368
aVtranslateZ
p369
aVrotateX
p370
aVrotateY
p371
aVrotateZ
p372
aaF0
aF0
aF0
aF0
aF-0
aF0
aa(lp373
S'offset_anim'
p374
a(lp375
VtranslateX
p376
aVtranslateY
p377
aVtranslateZ
p378
aVrotateX
p379
aVrotateY
p380
aVrotateZ
p381
aaF0
aF0
aF0
aF0
aF-0
aF0
aa(lp382
S'root_anim'
p383
a(lp384
VtranslateX
p385
aVtranslateY
p386
aVtranslateZ
p387
aVrotateX
p388
aVrotateY
p389
aVrotateZ
p390
aaF0
aF0
aF0
aF0
aF-0
aF0
aa(lp391
S'upperarm_l_twist_anim'
p392
a(lp393
VtranslateX
p394
aVtranslateY
p395
aVtranslateZ
p396
aVrotateX
p397
aVrotateY
p398
aVrotateZ
p399
aVscaleX
p400
aVscaleY
p401
aVscaleZ
p402
aaF0
aF0
aF0
aF0
aF-0
aF0
aF1
aF1
aF1
aa(lp403
S'upperarm_l_twist_2_anim'
p404
a(lp405
VtranslateX
p406
aVtranslateY
p407
aVtranslateZ
p408
aVrotateX
p409
aVrotateY
p410
aVrotateZ
p411
aVscaleX
p412
aVscaleY
p413
aVscaleZ
p414
aaF0
aF0
aF0
aF0
aF0
aF0
aF1
aF1
aF1
aa(lp415
S'upperarm_r_twist_anim'
p416
a(lp417
VtranslateX
p418
aVtranslateY
p419
aVtranslateZ
p420
aVrotateX
p421
aVrotateY
p422
aVrotateZ
p423
aVscaleX
p424
aVscaleY
p425
aVscaleZ
p426
aaF0
aF0
aF0
aF0
aF-0
aF0
aF0.99999999999999989
aF0.99999999999999989
aF0.99999999999999989
aa(lp427
S'upperarm_r_twist_2_anim'
p428
a(lp429
VtranslateX
p430
aVtranslateY
p431
aVtranslateZ
p432
aVrotateX
p433
aVrotateY
p434
aVrotateZ
p435
aVscaleX
p436
aVscaleY
p437
aVscaleZ
p438
aaF0
aF0
aF0
aF0
aF-0
aF0
aF0.99999999999999989
aF0.99999999999999989
aF0.99999999999999989
aa(lp439
S'lowerarm_l_twist_anim'
p440
a(lp441
VtranslateX
p442
aVtranslateY
p443
aVtranslateZ
p444
aVrotateX
p445
aVrotateY
p446
aVrotateZ
p447
aaF0
aF0
aF0
aF0
aF-0
aF0
aa(lp448
S'lowerarm_r_twist_anim'
p449
a(lp450
VtranslateX
p451
aVtranslateY
p452
aVtranslateZ
p453
aVrotateX
p454
aVrotateY
p455
aVrotateZ
p456
aaF0
aF0
aF0
aF0
aF-0
aF0
aa(lp457
S'l_thigh_twist_01_anim'
p458
a(lp459
VtranslateX
p460
aVtranslateY
p461
aVtranslateZ
p462
aVrotateX
p463
aVrotateY
p464
aVrotateZ
p465
aVscaleX
p466
aVscaleY
p467
aVscaleZ
p468
aaF0
aF0
aF0
aF0
aF-0
aF0
aF0.99999999999999989
aF1
aF0.99999999999999989
aa(lp469
S'r_thigh_twist_01_anim'
p470
a(lp471
VtranslateX
p472
aVtranslateY
p473
aVtranslateZ
p474
aVrotateX
p475
aVrotateY
p476
aVrotateZ
p477
aVscaleX
p478
aVscaleY
p479
aVscaleZ
p480
aaF0
aF0
aF0
aF0
aF-0
aF0
aF1
aF1
aF1
aa(lp481
S'pinky_finger_fk_ctrl_1_l'
p482
a(lp483
VtranslateX
p484
aVtranslateY
p485
aVtranslateZ
p486
aVrotateX
p487
aVrotateY
p488
aVrotateZ
p489
aVsticky
p490
aaF-0.28448754866970072
aF0.19948691675394606
aF-0.88082772337635151
aF5.122677236081401
aF7.2540835970798661
aF35.376903908316763
aF0
aa(lp491
S'pinky_finger_fk_ctrl_1_r'
p492
a(lp493
VtranslateX
p494
aVtranslateY
p495
aVtranslateZ
p496
aVrotateX
p497
aVrotateY
p498
aVrotateZ
p499
aVsticky
p500
aaF0
aF0
aF0
aF-0.0013304417769890707
aF-0.00045421005030458068
aF46.123269863759724
aF0
aa(lp501
S'pinky_finger_fk_ctrl_2_l'
p502
a(lp503
VtranslateX
p504
aVtranslateY
p505
aVtranslateZ
p506
aVrotateX
p507
aVrotateY
p508
aVrotateZ
p509
aaF0
aF0
aF0
aF-1.3648337172457701e-06
aF-0
aF55.867673741451696
aa(lp510
S'pinky_finger_fk_ctrl_2_r'
p511
a(lp512
VtranslateX
p513
aVtranslateY
p514
aVtranslateZ
p515
aVrotateX
p516
aVrotateY
p517
aVrotateZ
p518
aaF0
aF0
aF0
aF0.21761157645444287
aF0.68318271528504415
aF46.974178294221609
aa(lp519
S'pinky_finger_fk_ctrl_3_l'
p520
a(lp521
VtranslateX
p522
aVtranslateY
p523
aVtranslateZ
p524
aVrotateX
p525
aVrotateY
p526
aVrotateZ
p527
aaF0
aF0
aF0
aF1.3764308046476971e-06
aF-0
aF49.774601852955406
aa(lp528
S'pinky_finger_fk_ctrl_3_r'
p529
a(lp530
VtranslateX
p531
aVtranslateY
p532
aVtranslateZ
p533
aVrotateX
p534
aVrotateY
p535
aVrotateZ
p536
aaF0
aF0
aF0
aF0.22706965757758885
aF0.68009776684965684
aF47.769080064506362
aa(lp537
S'ring_finger_fk_ctrl_1_l'
p538
a(lp539
VtranslateX
p540
aVtranslateY
p541
aVtranslateZ
p542
aVrotateX
p543
aVrotateY
p544
aVrotateZ
p545
aVsticky
p546
aaF0
aF0
aF0
aF3.1380347045453356
aF7.9408963810831068
aF54.862468924375989
aF0
aa(lp547
S'ring_finger_fk_ctrl_1_r'
p548
a(lp549
VtranslateX
p550
aVtranslateY
p551
aVtranslateZ
p552
aVrotateX
p553
aVrotateY
p554
aVrotateZ
p555
aVsticky
p556
aaF0
aF0
aF0
aF-0.0013680467048598783
aF-0.00039172006942294805
aF54.222086850796614
aF0
aa(lp557
S'ring_finger_fk_ctrl_2_l'
p558
a(lp559
VtranslateX
p560
aVtranslateY
p561
aVtranslateZ
p562
aVrotateX
p563
aVrotateY
p564
aVrotateZ
p565
aaF0
aF0
aF0
aF0
aF-0
aF54.736663769749136
aa(lp566
S'ring_finger_fk_ctrl_2_r'
p567
a(lp568
VtranslateX
p569
aVtranslateY
p570
aVtranslateZ
p571
aVrotateX
p572
aVrotateY
p573
aVrotateZ
p574
aaF0
aF0
aF0
aF0.20133535966839178
aF0.68815492616615503
aF45.614028024812768
aa(lp575
S'ring_finger_fk_ctrl_3_l'
p576
a(lp577
VtranslateX
p578
aVtranslateY
p579
aVtranslateZ
p580
aVrotateX
p581
aVrotateY
p582
aVrotateZ
p583
aaF0
aF0
aF0
aF0
aF-0
aF57.46028619428624
aa(lp584
S'ring_finger_fk_ctrl_3_r'
p585
a(lp586
VtranslateX
p587
aVtranslateY
p588
aVtranslateZ
p589
aVrotateX
p590
aVrotateY
p591
aVrotateZ
p592
aaF0
aF0
aF0
aF0.43453147321362862
aF0.57033307419860213
aF66.609981735733584
aa(lp593
S'middle_finger_fk_ctrl_1_l'
p594
a(lp595
VtranslateX
p596
aVtranslateY
p597
aVtranslateZ
p598
aVrotateX
p599
aVrotateY
p600
aVrotateZ
p601
aVsticky
p602
aaF0
aF0
aF0
aF-9.5650813160206454e-05
aF4.6329333057341531
aF61.680754160462442
aF0
aa(lp603
S'middle_finger_fk_ctrl_1_r'
p604
a(lp605
VtranslateX
p606
aVtranslateY
p607
aVtranslateZ
p608
aVrotateX
p609
aVrotateY
p610
aVrotateZ
p611
aVsticky
p612
aaF0
aF0
aF0
aF-0.0013469415864430226
aF-0.00050657322655778519
aF52.144708177639664
aF0
aa(lp613
S'middle_finger_fk_ctrl_2_l'
p614
a(lp615
VtranslateX
p616
aVtranslateY
p617
aVtranslateZ
p618
aVrotateX
p619
aVrotateY
p620
aVrotateZ
p621
aaF0
aF0
aF0
aF0
aF-0
aF47.684837521621425
aa(lp622
S'middle_finger_fk_ctrl_2_r'
p623
a(lp624
VtranslateX
p625
aVtranslateY
p626
aVtranslateZ
p627
aVrotateX
p628
aVrotateY
p629
aVrotateZ
p630
aaF0
aF0
aF0
aF0.21904383316932102
aF0.68272487160078132
aF47.094227261992337
aa(lp631
S'middle_finger_fk_ctrl_3_l'
p632
a(lp633
VtranslateX
p634
aVtranslateY
p635
aVtranslateZ
p636
aVrotateX
p637
aVrotateY
p638
aVrotateZ
p639
aaF0
aF0
aF0
aF0
aF-0
aF50.408461337602084
aa(lp640
S'middle_finger_fk_ctrl_3_r'
p641
a(lp642
VtranslateX
p643
aVtranslateY
p644
aVtranslateZ
p645
aVrotateX
p646
aVrotateY
p647
aVrotateZ
p648
aaF0
aF0
aF0
aF1.4878721381752236
aF5.3442587515926734
aF75.661403853182691
aa(lp649
S'index_finger_fk_ctrl_1_l'
p650
a(lp651
VtranslateX
p652
aVtranslateY
p653
aVtranslateZ
p654
aVrotateX
p655
aVrotateY
p656
aVrotateZ
p657
aVsticky
p658
aaF0
aF0
aF0
aF-11.520892065326397
aF7.5235378178572265
aF61.057062186694274
aF0
aa(lp659
S'index_finger_fk_ctrl_1_r'
p660
a(lp661
VtranslateX
p662
aVtranslateY
p663
aVtranslateZ
p664
aVrotateX
p665
aVrotateY
p666
aVrotateZ
p667
aVsticky
p668
aaF0
aF0
aF0
aF-13.878859974732794
aF-1.6859502617289723
aF33.430886087529217
aF0
aa(lp669
S'index_finger_fk_ctrl_2_l'
p670
a(lp671
VtranslateX
p672
aVtranslateY
p673
aVtranslateZ
p674
aVrotateX
p675
aVrotateY
p676
aVrotateZ
p677
aaF0
aF0
aF0
aF0
aF-0
aF39.586352827998283
aa(lp678
S'index_finger_fk_ctrl_2_r'
p679
a(lp680
VtranslateX
p681
aVtranslateY
p682
aVtranslateZ
p683
aVrotateX
p684
aVrotateY
p685
aVrotateZ
p686
aaF0
aF0
aF0
aF0
aF-0
aF57.497606541241502
aa(lp687
S'index_finger_fk_ctrl_3_l'
p688
a(lp689
VtranslateX
p690
aVtranslateY
p691
aVtranslateZ
p692
aVrotateX
p693
aVrotateY
p694
aVrotateZ
p695
aaF0
aF0
aF0
aF-1.4871696543175723
aF-2.6895179822327724
aF67.749002871603878
aa(lp696
S'index_finger_fk_ctrl_3_r'
p697
a(lp698
VtranslateX
p699
aVtranslateY
p700
aVtranslateZ
p701
aVrotateX
p702
aVrotateY
p703
aVrotateZ
p704
aaF0
aF0
aF0
aF0
aF-0
aF66.68407396981253
aa(lp705
S'thumb_finger_fk_ctrl_1_l'
p706
a(lp707
VtranslateX
p708
aVtranslateY
p709
aVtranslateZ
p710
aVrotateX
p711
aVrotateY
p712
aVrotateZ
p713
aVsticky
p714
aaF0
aF0
aF0
aF32.521661196515474
aF35.179252184383778
aF3.0633443790789086
aF0
aa(lp715
S'thumb_finger_fk_ctrl_1_r'
p716
a(lp717
VtranslateX
p718
aVtranslateY
p719
aVtranslateZ
p720
aVrotateX
p721
aVrotateY
p722
aVrotateZ
p723
aVsticky
p724
aaF0
aF0
aF0
aF17.289263398136779
aF14.20035009643083
aF19.126698983259676
aF0
aa(lp725
S'thumb_finger_fk_ctrl_2_l'
p726
a(lp727
VtranslateX
p728
aVtranslateY
p729
aVtranslateZ
p730
aVrotateX
p731
aVrotateY
p732
aVrotateZ
p733
aaF0
aF0
aF0
aF-8.5391079138565189
aF17.623117184942473
aF36.133792512298719
aa(lp734
S'thumb_finger_fk_ctrl_2_r'
p735
a(lp736
VtranslateX
p737
aVtranslateY
p738
aVtranslateZ
p739
aVrotateX
p740
aVrotateY
p741
aVrotateZ
p742
aaF0
aF0
aF0
aF-1.7532247795724938
aF13.723054660490316
aF6.9401104392970421
aa(lp743
S'thumb_finger_fk_ctrl_3_l'
p744
a(lp745
VtranslateX
p746
aVtranslateY
p747
aVtranslateZ
p748
aVrotateX
p749
aVrotateY
p750
aVrotateZ
p751
aaF0
aF0
aF0
aF-9.4787915988669358e-23
aF1.8516110813238267e-06
aF62.745112692737059
aa(lp752
S'thumb_finger_fk_ctrl_3_r'
p753
a(lp754
VtranslateX
p755
aVtranslateY
p756
aVtranslateZ
p757
aVrotateX
p758
aVrotateY
p759
aVrotateZ
p760
aaF0
aF0
aF0
aF11.142151140794894
aF-23.83839640459702
aF35.077641354833695
aa(lp761
S'index_l_ik_anim'
p762
a(lp763
VtranslateX
p764
aVtranslateY
p765
aVtranslateZ
p766
aVrotateX
p767
aVrotateY
p768
aVrotateZ
p769
aVpoleVectorVis
p770
aaF0
aF0
aF0
aF0
aF-0
aF0
aF0
aa(lp771
S'index_r_ik_anim'
p772
a(lp773
VtranslateX
p774
aVtranslateY
p775
aVtranslateZ
p776
aVrotateX
p777
aVrotateY
p778
aVrotateZ
p779
aVpoleVectorVis
p780
aaF0
aF0
aF0
aF0
aF-0
aF0
aF0
aa(lp781
S'middle_l_ik_anim'
p782
a(lp783
VtranslateX
p784
aVtranslateY
p785
aVtranslateZ
p786
aVrotateX
p787
aVrotateY
p788
aVrotateZ
p789
aVpoleVectorVis
p790
aaF0
aF0
aF0
aF0
aF-0
aF0
aF0
aa(lp791
S'middle_r_ik_anim'
p792
a(lp793
VtranslateX
p794
aVtranslateY
p795
aVtranslateZ
p796
aVrotateX
p797
aVrotateY
p798
aVrotateZ
p799
aVpoleVectorVis
p800
aaF0
aF0
aF0
aF0
aF-0
aF0
aF0
aa(lp801
S'ring_l_ik_anim'
p802
a(lp803
VtranslateX
p804
aVtranslateY
p805
aVtranslateZ
p806
aVrotateX
p807
aVrotateY
p808
aVrotateZ
p809
aVpoleVectorVis
p810
aaF0
aF0
aF0
aF0
aF-0
aF0
aF0
aa(lp811
S'ring_r_ik_anim'
p812
a(lp813
VtranslateX
p814
aVtranslateY
p815
aVtranslateZ
p816
aVrotateX
p817
aVrotateY
p818
aVrotateZ
p819
aVpoleVectorVis
p820
aaF0
aF0
aF0
aF0
aF-0
aF0
aF0
aa(lp821
S'pinky_l_ik_anim'
p822
a(lp823
VtranslateX
p824
aVtranslateY
p825
aVtranslateZ
p826
aVrotateX
p827
aVrotateY
p828
aVrotateZ
p829
aVpoleVectorVis
p830
aaF0
aF0
aF0
aF0
aF-0
aF0
aF0
aa(lp831
S'pinky_r_ik_anim'
p832
a(lp833
VtranslateX
p834
aVtranslateY
p835
aVtranslateZ
p836
aVrotateX
p837
aVrotateY
p838
aVrotateZ
p839
aVpoleVectorVis
p840
aaF0
aF0
aF0
aF0
aF-0
aF0
aF0
aa(lp841
S'thumb_l_ik_anim'
p842
a(lp843
VtranslateX
p844
aVtranslateY
p845
aVtranslateZ
p846
aVrotateX
p847
aVrotateY
p848
aVrotateZ
p849
aVpoleVectorVis
p850
aaF0
aF0
aF0
aF0
aF-0
aF0
aF0
aa(lp851
S'thumb_r_ik_anim'
p852
a(lp853
VtranslateX
p854
aVtranslateY
p855
aVtranslateZ
p856
aVrotateX
p857
aVrotateY
p858
aVrotateZ
p859
aVpoleVectorVis
p860
aaF0
aF0
aF0
aF0
aF-0
aF0
aF0
aa(lp861
S'index_l_poleVector'
p862
a(lp863
VtranslateX
p864
aVtranslateY
p865
aVtranslateZ
p866
aVrotateX
p867
aVrotateY
p868
aVrotateZ
p869
aaF0
aF0
aF0
aF0
aF-0
aF0
aa(lp870
S'index_r_poleVector'
p871
a(lp872
VtranslateX
p873
aVtranslateY
p874
aVtranslateZ
p875
aVrotateX
p876
aVrotateY
p877
aVrotateZ
p878
aaF0
aF0
aF0
aF0
aF-0
aF0
aa(lp879
S'middle_l_poleVector'
p880
a(lp881
VtranslateX
p882
aVtranslateY
p883
aVtranslateZ
p884
aVrotateX
p885
aVrotateY
p886
aVrotateZ
p887
aaF0
aF0
aF0
aF0
aF-0
aF0
aa(lp888
S'middle_r_poleVector'
p889
a(lp890
VtranslateX
p891
aVtranslateY
p892
aVtranslateZ
p893
aVrotateX
p894
aVrotateY
p895
aVrotateZ
p896
aaF0
aF0
aF0
aF0
aF-0
aF0
aa(lp897
S'ring_l_poleVector'
p898
a(lp899
VtranslateX
p900
aVtranslateY
p901
aVtranslateZ
p902
aVrotateX
p903
aVrotateY
p904
aVrotateZ
p905
aaF0
aF0
aF0
aF0
aF-0
aF0
aa(lp906
S'ring_r_poleVector'
p907
a(lp908
VtranslateX
p909
aVtranslateY
p910
aVtranslateZ
p911
aVrotateX
p912
aVrotateY
p913
aVrotateZ
p914
aaF0
aF0
aF0
aF0
aF-0
aF0
aa(lp915
S'pinky_l_poleVector'
p916
a(lp917
VtranslateX
p918
aVtranslateY
p919
aVtranslateZ
p920
aVrotateX
p921
aVrotateY
p922
aVrotateZ
p923
aaF0
aF0
aF0
aF0
aF-0
aF0
aa(lp924
S'pinky_r_poleVector'
p925
a(lp926
VtranslateX
p927
aVtranslateY
p928
aVtranslateZ
p929
aVrotateX
p930
aVrotateY
p931
aVrotateZ
p932
aaF0
aF0
aF0
aF0
aF-0
aF0
aa(lp933
S'thumb_l_poleVector'
p934
a(lp935
VtranslateX
p936
aVtranslateY
p937
aVtranslateZ
p938
aVrotateX
p939
aVrotateY
p940
aVrotateZ
p941
aaF0
aF0
aF0
aF0
aF-0
aF0
aa(lp942
S'thumb_r_poleVector'
p943
a(lp944
VtranslateX
p945
aVtranslateY
p946
aVtranslateZ
p947
aVrotateX
p948
aVrotateY
p949
aVrotateZ
p950
aaF0
aF0
aF0
aF0
aF-0
aF0
aa(lp951
S'l_global_ik_anim'
p952
a(lp953
VtranslateX
p954
aVtranslateY
p955
aVtranslateZ
p956
aVrotateX
p957
aVrotateY
p958
aVrotateZ
p959
aaF0
aF0
aF0
aF0
aF-0
aF0
aa(lp960
S'r_global_ik_anim'
p961
a(lp962
VtranslateX
p963
aVtranslateY
p964
aVtranslateZ
p965
aVrotateX
p966
aVrotateY
p967
aVrotateZ
p968
aaF0
aF0
aF0
aF0.33859466100611724
aF-1.8839694534436275
aF-1.9565911793909803
aa(lp969
S'Rig_Settings'
p970
a(lp971
Vspine_ik
p972
aVspine_fk
p973
aVlLegMode
p974
aVlThighTwistAmount
p975
aVlThighTwist2Amount
p976
aVllegTwistCtrlVis
p977
aVlCalfTwistAmount
p978
aVllegTwistCtrlVisCalf
p979
aVrLegMode
p980
aVrThighTwistAmount
p981
aVrThighTwist2Amount
p982
aVrlegTwistCtrlVis
p983
aVrCalfTwistAmount
p984
aVrlegTwistCtrlVisCalf
p985
aVlFkArmOrient
p986
aVlArmMode
p987
aVlClavMode
p988
aVlUpperarmTwistAmount
p989
aVlUpperarmTwist2Amount
p990
aVltwistCtrlVis
p991
aVltwistCtrlVisLower
p992
aVlForearmTwistAmount
p993
aVrFkArmOrient
p994
aVrArmMode
p995
aVrClavMode
p996
aVrUpperarmTwistAmount
p997
aVrUpperarmTwist2Amount
p998
aVrtwistCtrlVis
p999
aVrtwistCtrlVisLower
p1000
aVrForearmTwistAmount
p1001
aVback_sash_fk
p1002
aVback_sash_ik
p1003
aVback_sash_dynamic
p1004
aVhip_eyelet_front_l_fk
p1005
aVhip_eyelet_front_l_ik
p1006
aVhip_eyelet_front_l_dynamic
p1007
aVhip_eyelet_front_r_fk
p1008
aVhip_eyelet_front_r_ik
p1009
aVhip_eyelet_front_r_dynamic
p1010
aVhip_eyelet_rear_l_fk
p1011
aVhip_eyelet_rear_l_ik
p1012
aVhip_eyelet_rear_l_dynamic
p1013
aVhip_eyelet_rear_r_fk
p1014
aVhip_eyelet_rear_r_ik
p1015
aVhip_eyelet_rear_r_dynamic
p1016
aVloin_cloth_bk_fk
p1017
aVloin_cloth_bk_ik
p1018
aVloin_cloth_bk_dynamic
p1019
aVloin_cloth_fr_fk
p1020
aVloin_cloth_fr_ik
p1021
aVloin_cloth_fr_dynamic
p1022
aVpadawan_l_fk
p1023
aVpadawan_l_ik
p1024
aVpadawan_l_dynamic
p1025
aVpadawan_r_fk
p1026
aVpadawan_r_ik
p1027
aVpadawan_r_dynamic
p1028
aVponytail_fk
p1029
aVponytail_ik
p1030
aVponytail_dynamic
p1031
aVweapon_butt_fk
p1032
aVweapon_butt_ik
p1033
aVweapon_butt_dynamic
p1034
aaF1
aF0
aI1
aF0.90000000000000002
aF0.29999999999999999
aI00
aF0.5
aI00
aI1
aF0.90000000000000002
aF0.29999999999999999
aI00
aF0.5
aI00
aI0
aI1
aI1
aF0.90000000000000002
aF0.29999999999999999
aI00
aI00
aF0.5
aI0
aI1
aI1
aF0.90000000000000002
aF0.29999999999999999
aI00
aI00
aF0.5
aF1
aF0
aF0
aF1
aF0
aF0
aF1
aF0
aF0
aF1
aF0
aF0
aF1
aF0
aF0
aF1
aF0
aF0
aF1
aF0
aF0
aF1
aF0
aF0
aF1
aF0
aF0
aF1
aF0
aF0
aF1
aF0
aF0
aa(lp1035
S'calf_l_twist_anim'
p1036
a(lp1037
VtranslateX
p1038
aVtranslateY
p1039
aVtranslateZ
p1040
aVrotateX
p1041
aVrotateY
p1042
aVrotateZ
p1043
aaF0
aF0
aF0
aF0
aF-0
aF0
aa(lp1044
S'calf_r_twist_anim'
p1045
a(lp1046
VtranslateX
p1047
aVtranslateY
p1048
aVtranslateZ
p1049
aVrotateX
p1050
aVrotateY
p1051
aVrotateZ
p1052
aaF0
aF0
aF0
aF0
aF-0
aF0
aa(lp1053
Vback_sash_dyn_anim
p1054
a(lp1055
VtranslateX
p1056
aVtranslateY
p1057
aVtranslateZ
p1058
aVrotateX
p1059
aVrotateY
p1060
aVrotateZ
p1061
aVchainAttach
p1062
aVchainStartEnvelope
p1063
aVchainStartFrame
p1064
aVchainStiffness
p1065
aVchainDamping
p1066
aVchainGravity
p1067
aVchainIteration
p1068
aVchainCollide
p1069
aVchainWidthBase
p1070
aVchainWidthExtremity
p1071
aVchainCollideGround
p1072
aVchainCollideGroundHeight
p1073
aaF0
aF0
aF0
aF0
aF-0
aF0
aI1
aF0
aF1
aF0.10000000000000001
aF0.20000000000000001
aF1
aI1
aI00
aF1
aF1
aI00
aF0
aa(lp1074
Vback_sash_ik_2_anim
p1075
a(lp1076
VtranslateX
p1077
aVtranslateY
p1078
aVtranslateZ
p1079
aVrotateX
p1080
aVrotateY
p1081
aVrotateZ
p1082
aaF0
aF0
aF0
aF0
aF-0
aF0
aa(lp1083
Vback_sash_ik_3_anim
p1084
a(lp1085
VtranslateX
p1086
aVtranslateY
p1087
aVtranslateZ
p1088
aVrotateX
p1089
aVrotateY
p1090
aVrotateZ
p1091
aVclusterControlVis
p1092
aaF0
aF0
aF0
aF0
aF-0
aF0
aI00
aa(lp1093
Vback_sash_ik_base_anim
p1094
a(lp1095
VtranslateX
p1096
aVtranslateY
p1097
aVtranslateZ
p1098
aVrotateX
p1099
aVrotateY
p1100
aVrotateZ
p1101
aVglobal_scale
p1102
aVglobal_scale
p1103
aaF0
aF0
aF0
aF0
aF-0
aF0
aF1
aF1
aa(lp1104
Vfk_back_sash_01_anim
p1105
a(lp1106
VtranslateX
p1107
aVtranslateY
p1108
aVtranslateZ
p1109
aVrotateX
p1110
aVrotateY
p1111
aVrotateZ
p1112
aVglobal_scale
p1113
aVlagMode
p1114
aVglobal_scale
p1115
aaF0
aF0
aF0
aF0
aF-0
aF0
aF1
aF0
aF1
aa(lp1116
Vback_sash_cv_0_anim
p1117
a(lp1118
VtranslateX
p1119
aVtranslateY
p1120
aVtranslateZ
p1121
aaF0
aF0
aF0
aa(lp1122
Vfk_back_sash_02_anim
p1123
a(lp1124
VtranslateX
p1125
aVtranslateY
p1126
aVtranslateZ
p1127
aVrotateX
p1128
aVrotateY
p1129
aVrotateZ
p1130
aaF0
aF0
aF0
aF0
aF-0
aF0
aa(lp1131
Vback_sash_cv_1_anim
p1132
a(lp1133
VtranslateX
p1134
aVtranslateY
p1135
aVtranslateZ
p1136
aaF0
aF0
aF0
aa(lp1137
Vfk_back_sash_03_anim
p1138
a(lp1139
VtranslateX
p1140
aVtranslateY
p1141
aVtranslateZ
p1142
aVrotateX
p1143
aVrotateY
p1144
aVrotateZ
p1145
aaF0
aF0
aF0
aF0
aF-0
aF0
aa(lp1146
Vback_sash_cv_2_anim
p1147
a(lp1148
VtranslateX
p1149
aVtranslateY
p1150
aVtranslateZ
p1151
aaF0
aF0
aF0
aa(lp1152
Vbracelet_A_l_anim
p1153
a(lp1154
VtranslateX
p1155
aVtranslateY
p1156
aVtranslateZ
p1157
aVrotateX
p1158
aVrotateY
p1159
aVrotateZ
p1160
aVscaleX
p1161
aVscaleY
p1162
aVscaleZ
p1163
aaF0
aF0
aF0
aF0
aF-0
aF0
aF0.99999999999999978
aF0.99999999999999978
aF0.99999999999999978
aa(lp1164
Vbracelet_B_l_anim
p1165
a(lp1166
VtranslateX
p1167
aVtranslateY
p1168
aVtranslateZ
p1169
aVrotateX
p1170
aVrotateY
p1171
aVrotateZ
p1172
aVscaleX
p1173
aVscaleY
p1174
aVscaleZ
p1175
aaF0
aF0
aF0
aF0
aF-0
aF0
aF1
aF1
aF1
aa(lp1176
Vbracelet_C_l_anim
p1177
a(lp1178
VtranslateX
p1179
aVtranslateY
p1180
aVtranslateZ
p1181
aVrotateX
p1182
aVrotateY
p1183
aVrotateZ
p1184
aVscaleX
p1185
aVscaleY
p1186
aVscaleZ
p1187
aaF0
aF0
aF0
aF0
aF-0
aF0
aF1
aF1
aF1
aa(lp1188
Veyeball_l_anim
p1189
a(lp1190
VtranslateX
p1191
aVtranslateY
p1192
aVtranslateZ
p1193
aVrotateX
p1194
aVrotateY
p1195
aVrotateZ
p1196
aVscaleX
p1197
aVscaleY
p1198
aVscaleZ
p1199
aaF0
aF0
aF0
aF0
aF-0
aF0
aF1
aF1
aF1
aa(lp1200
Veyeball_r_anim
p1201
a(lp1202
VtranslateX
p1203
aVtranslateY
p1204
aVtranslateZ
p1205
aVrotateX
p1206
aVrotateY
p1207
aVrotateZ
p1208
aVscaleX
p1209
aVscaleY
p1210
aVscaleZ
p1211
aaF0
aF0
aF0
aF0
aF-0
aF0
aF1
aF0.99999999999999989
aF0.99999999999999989
aa(lp1212
Veyebrow_in_l_anim
p1213
a(lp1214
VtranslateX
p1215
aVtranslateY
p1216
aVtranslateZ
p1217
aVrotateX
p1218
aVrotateY
p1219
aVrotateZ
p1220
aVscaleX
p1221
aVscaleY
p1222
aVscaleZ
p1223
aaF0
aF0
aF0
aF0
aF-0
aF0
aF1
aF1
aF0.99999999999999989
aa(lp1224
Veyebrow_in_r_anim
p1225
a(lp1226
VtranslateX
p1227
aVtranslateY
p1228
aVtranslateZ
p1229
aVrotateX
p1230
aVrotateY
p1231
aVrotateZ
p1232
aVscaleX
p1233
aVscaleY
p1234
aVscaleZ
p1235
aaF0
aF0
aF0
aF0
aF-0
aF0
aF1
aF1
aF1
aa(lp1236
Veyebrow_out_l_anim
p1237
a(lp1238
VtranslateX
p1239
aVtranslateY
p1240
aVtranslateZ
p1241
aVrotateX
p1242
aVrotateY
p1243
aVrotateZ
p1244
aVscaleX
p1245
aVscaleY
p1246
aVscaleZ
p1247
aaF0
aF0
aF0
aF0
aF-0
aF0
aF1.0000000000000004
aF1.0000000000000004
aF1.0000000000000002
aa(lp1248
Veyebrow_out_r_anim
p1249
a(lp1250
VtranslateX
p1251
aVtranslateY
p1252
aVtranslateZ
p1253
aVrotateX
p1254
aVrotateY
p1255
aVrotateZ
p1256
aVscaleX
p1257
aVscaleY
p1258
aVscaleZ
p1259
aaF0
aF0
aF0
aF0
aF-0
aF0
aF1
aF1
aF1
aa(lp1260
Veyelid_bott_l_anim
p1261
a(lp1262
VtranslateX
p1263
aVtranslateY
p1264
aVtranslateZ
p1265
aVrotateX
p1266
aVrotateY
p1267
aVrotateZ
p1268
aVscaleX
p1269
aVscaleY
p1270
aVscaleZ
p1271
aaF0
aF0
aF0
aF0
aF-0
aF0
aF1
aF1
aF1
aa(lp1272
Veyelid_bott_r_anim
p1273
a(lp1274
VtranslateX
p1275
aVtranslateY
p1276
aVtranslateZ
p1277
aVrotateX
p1278
aVrotateY
p1279
aVrotateZ
p1280
aVscaleX
p1281
aVscaleY
p1282
aVscaleZ
p1283
aaF0
aF0
aF0
aF0
aF-0
aF0
aF1
aF0.99999999999999989
aF0.99999999999999989
aa(lp1284
Veyelid_top_l_anim
p1285
a(lp1286
VtranslateX
p1287
aVtranslateY
p1288
aVtranslateZ
p1289
aVrotateX
p1290
aVrotateY
p1291
aVrotateZ
p1292
aVscaleX
p1293
aVscaleY
p1294
aVscaleZ
p1295
aaF0
aF0
aF0
aF0
aF-0
aF0
aF1
aF1
aF1
aa(lp1296
Veyelid_top_r_anim
p1297
a(lp1298
VtranslateX
p1299
aVtranslateY
p1300
aVtranslateZ
p1301
aVrotateX
p1302
aVrotateY
p1303
aVrotateZ
p1304
aVscaleX
p1305
aVscaleY
p1306
aVscaleZ
p1307
aaF0
aF0
aF0
aF0
aF-0
aF0
aF1
aF0.99999999999999989
aF0.99999999999999989
aa(lp1308
Vhip_back_flaps_anim
p1309
a(lp1310
VtranslateX
p1311
aVtranslateY
p1312
aVtranslateZ
p1313
aVrotateX
p1314
aVrotateY
p1315
aVrotateZ
p1316
aVscaleX
p1317
aVscaleY
p1318
aVscaleZ
p1319
aaF0
aF0
aF0
aF0
aF0
aF0
aF1
aF1
aF1
aa(lp1320
Vhip_eyelet_front_l_dyn_anim
p1321
a(lp1322
VtranslateX
p1323
aVtranslateY
p1324
aVtranslateZ
p1325
aVrotateX
p1326
aVrotateY
p1327
aVrotateZ
p1328
aVchainAttach
p1329
aVchainStartEnvelope
p1330
aVchainStartFrame
p1331
aVchainStiffness
p1332
aVchainDamping
p1333
aVchainGravity
p1334
aVchainIteration
p1335
aVchainCollide
p1336
aVchainWidthBase
p1337
aVchainWidthExtremity
p1338
aVchainCollideGround
p1339
aVchainCollideGroundHeight
p1340
aaF0
aF0
aF0
aF0
aF-0
aF0
aI1
aF1
aF1
aF0.10000000000000001
aF0.20000000000000001
aF1
aI1
aI00
aF1
aF1
aI00
aF0
aa(lp1341
Vhip_eyelet_front_l_ik_2_anim
p1342
a(lp1343
VtranslateX
p1344
aVtranslateY
p1345
aVtranslateZ
p1346
aVrotateX
p1347
aVrotateY
p1348
aVrotateZ
p1349
aaF0
aF0
aF0
aF0
aF-0
aF0
aa(lp1350
Vhip_eyelet_front_l_ik_3_anim
p1351
a(lp1352
VtranslateX
p1353
aVtranslateY
p1354
aVtranslateZ
p1355
aVrotateX
p1356
aVrotateY
p1357
aVrotateZ
p1358
aVclusterControlVis
p1359
aaF0
aF0
aF0
aF0
aF-0
aF0
aI00
aa(lp1360
Vhip_eyelet_front_l_ik_base_anim
p1361
a(lp1362
VtranslateX
p1363
aVtranslateY
p1364
aVtranslateZ
p1365
aVrotateX
p1366
aVrotateY
p1367
aVrotateZ
p1368
aVglobal_scale
p1369
aVglobal_scale
p1370
aaF0
aF0
aF0
aF0
aF-0
aF0
aF1
aF1
aa(lp1371
Vfk_hip_eyelet_front_l_01_anim
p1372
a(lp1373
VtranslateX
p1374
aVtranslateY
p1375
aVtranslateZ
p1376
aVrotateX
p1377
aVrotateY
p1378
aVrotateZ
p1379
aVglobal_scale
p1380
aVlagMode
p1381
aVglobal_scale
p1382
aaF0
aF0
aF0
aF0
aF-0
aF0
aF1
aF0
aF1
aa(lp1383
Vhip_eyelet_front_l_cv_0_anim
p1384
a(lp1385
VtranslateX
p1386
aVtranslateY
p1387
aVtranslateZ
p1388
aaF0
aF0
aF0
aa(lp1389
Vfk_hip_eyelet_front_l_02_anim
p1390
a(lp1391
VtranslateX
p1392
aVtranslateY
p1393
aVtranslateZ
p1394
aVrotateX
p1395
aVrotateY
p1396
aVrotateZ
p1397
aaF0
aF0
aF0
aF0
aF-0
aF0
aa(lp1398
Vhip_eyelet_front_l_cv_1_anim
p1399
a(lp1400
VtranslateX
p1401
aVtranslateY
p1402
aVtranslateZ
p1403
aaF0
aF0
aF0
aa(lp1404
Vfk_hip_eyelet_front_l_03_anim
p1405
a(lp1406
VtranslateX
p1407
aVtranslateY
p1408
aVtranslateZ
p1409
aVrotateX
p1410
aVrotateY
p1411
aVrotateZ
p1412
aaF0
aF0
aF0
aF0
aF-0
aF0
aa(lp1413
Vhip_eyelet_front_l_cv_2_anim
p1414
a(lp1415
VtranslateX
p1416
aVtranslateY
p1417
aVtranslateZ
p1418
aaF0
aF0
aF0
aa(lp1419
Vfk_hip_eyelet_front_l_04_anim
p1420
a(lp1421
VtranslateX
p1422
aVtranslateY
p1423
aVtranslateZ
p1424
aVrotateX
p1425
aVrotateY
p1426
aVrotateZ
p1427
aaF0
aF0
aF0
aF0
aF-0
aF0
aa(lp1428
Vhip_eyelet_front_l_cv_3_anim
p1429
a(lp1430
VtranslateX
p1431
aVtranslateY
p1432
aVtranslateZ
p1433
aaF0
aF0
aF0
aa(lp1434
Vhip_eyelet_front_r_dyn_anim
p1435
a(lp1436
VtranslateX
p1437
aVtranslateY
p1438
aVtranslateZ
p1439
aVrotateX
p1440
aVrotateY
p1441
aVrotateZ
p1442
aVchainAttach
p1443
aVchainStartEnvelope
p1444
aVchainStartFrame
p1445
aVchainStiffness
p1446
aVchainDamping
p1447
aVchainGravity
p1448
aVchainIteration
p1449
aVchainCollide
p1450
aVchainWidthBase
p1451
aVchainWidthExtremity
p1452
aVchainCollideGround
p1453
aVchainCollideGroundHeight
p1454
aaF0
aF0
aF0
aF0
aF-0
aF0
aI1
aF1
aF1
aF0.10000000000000001
aF0.20000000000000001
aF1
aI1
aI00
aF1
aF1
aI00
aF0
aa(lp1455
Vhip_eyelet_front_r_ik_2_anim
p1456
a(lp1457
VtranslateX
p1458
aVtranslateY
p1459
aVtranslateZ
p1460
aVrotateX
p1461
aVrotateY
p1462
aVrotateZ
p1463
aaF0
aF0
aF0
aF0
aF-0
aF0
aa(lp1464
Vhip_eyelet_front_r_ik_3_anim
p1465
a(lp1466
VtranslateX
p1467
aVtranslateY
p1468
aVtranslateZ
p1469
aVrotateX
p1470
aVrotateY
p1471
aVrotateZ
p1472
aVclusterControlVis
p1473
aaF0
aF0
aF0
aF0
aF-0
aF0
aI00
aa(lp1474
Vhip_eyelet_front_r_ik_base_anim
p1475
a(lp1476
VtranslateX
p1477
aVtranslateY
p1478
aVtranslateZ
p1479
aVrotateX
p1480
aVrotateY
p1481
aVrotateZ
p1482
aVglobal_scale
p1483
aVglobal_scale
p1484
aaF0
aF0
aF0
aF0
aF-0
aF0
aF1
aF1
aa(lp1485
Vfk_hip_eyelet_front_r_01_anim
p1486
a(lp1487
VtranslateX
p1488
aVtranslateY
p1489
aVtranslateZ
p1490
aVrotateX
p1491
aVrotateY
p1492
aVrotateZ
p1493
aVglobal_scale
p1494
aVlagMode
p1495
aVglobal_scale
p1496
aaF0
aF0
aF0
aF0
aF-0
aF0
aF1
aF0
aF1
aa(lp1497
Vhip_eyelet_front_r_cv_0_anim
p1498
a(lp1499
VtranslateX
p1500
aVtranslateY
p1501
aVtranslateZ
p1502
aaF0
aF0
aF0
aa(lp1503
Vfk_hip_eyelet_front_r_02_anim
p1504
a(lp1505
VtranslateX
p1506
aVtranslateY
p1507
aVtranslateZ
p1508
aVrotateX
p1509
aVrotateY
p1510
aVrotateZ
p1511
aaF0
aF0
aF0
aF0
aF-0
aF0
aa(lp1512
Vhip_eyelet_front_r_cv_1_anim
p1513
a(lp1514
VtranslateX
p1515
aVtranslateY
p1516
aVtranslateZ
p1517
aaF0
aF0
aF0
aa(lp1518
Vfk_hip_eyelet_front_r_03_anim
p1519
a(lp1520
VtranslateX
p1521
aVtranslateY
p1522
aVtranslateZ
p1523
aVrotateX
p1524
aVrotateY
p1525
aVrotateZ
p1526
aaF0
aF0
aF0
aF0
aF-0
aF0
aa(lp1527
Vhip_eyelet_front_r_cv_2_anim
p1528
a(lp1529
VtranslateX
p1530
aVtranslateY
p1531
aVtranslateZ
p1532
aaF0
aF0
aF0
aa(lp1533
Vfk_hip_eyelet_front_r_04_anim
p1534
a(lp1535
VtranslateX
p1536
aVtranslateY
p1537
aVtranslateZ
p1538
aVrotateX
p1539
aVrotateY
p1540
aVrotateZ
p1541
aaF0
aF0
aF0
aF0
aF-0
aF0
aa(lp1542
Vhip_eyelet_front_r_cv_3_anim
p1543
a(lp1544
VtranslateX
p1545
aVtranslateY
p1546
aVtranslateZ
p1547
aaF0
aF0
aF0
aa(lp1548
Vhip_eyelet_rear_l_dyn_anim
p1549
a(lp1550
VtranslateX
p1551
aVtranslateY
p1552
aVtranslateZ
p1553
aVrotateX
p1554
aVrotateY
p1555
aVrotateZ
p1556
aVchainAttach
p1557
aVchainStartEnvelope
p1558
aVchainStartFrame
p1559
aVchainStiffness
p1560
aVchainDamping
p1561
aVchainGravity
p1562
aVchainIteration
p1563
aVchainCollide
p1564
aVchainWidthBase
p1565
aVchainWidthExtremity
p1566
aVchainCollideGround
p1567
aVchainCollideGroundHeight
p1568
aaF0
aF0
aF0
aF0
aF-0
aF0
aI1
aF1
aF1
aF0.10000000000000001
aF0.20000000000000001
aF1
aI1
aI00
aF1
aF1
aI00
aF0
aa(lp1569
Vhip_eyelet_rear_l_ik_2_anim
p1570
a(lp1571
VtranslateX
p1572
aVtranslateY
p1573
aVtranslateZ
p1574
aVrotateX
p1575
aVrotateY
p1576
aVrotateZ
p1577
aaF0
aF0
aF0
aF0
aF-0
aF0
aa(lp1578
Vhip_eyelet_rear_l_ik_3_anim
p1579
a(lp1580
VtranslateX
p1581
aVtranslateY
p1582
aVtranslateZ
p1583
aVrotateX
p1584
aVrotateY
p1585
aVrotateZ
p1586
aVclusterControlVis
p1587
aaF0
aF0
aF0
aF0
aF-0
aF0
aI00
aa(lp1588
Vhip_eyelet_rear_l_ik_base_anim
p1589
a(lp1590
VtranslateX
p1591
aVtranslateY
p1592
aVtranslateZ
p1593
aVrotateX
p1594
aVrotateY
p1595
aVrotateZ
p1596
aVglobal_scale
p1597
aVglobal_scale
p1598
aaF0
aF0
aF0
aF0
aF-0
aF0
aF1
aF1
aa(lp1599
Vfk_hip_eyelet_rear_l_01_anim
p1600
a(lp1601
VtranslateX
p1602
aVtranslateY
p1603
aVtranslateZ
p1604
aVrotateX
p1605
aVrotateY
p1606
aVrotateZ
p1607
aVglobal_scale
p1608
aVlagMode
p1609
aVglobal_scale
p1610
aaF0
aF0
aF0
aF0
aF-0
aF0
aF1
aF0
aF1
aa(lp1611
Vhip_eyelet_rear_l_cv_0_anim
p1612
a(lp1613
VtranslateX
p1614
aVtranslateY
p1615
aVtranslateZ
p1616
aaF0
aF0
aF0
aa(lp1617
Vfk_hip_eyelet_rear_l_02_anim
p1618
a(lp1619
VtranslateX
p1620
aVtranslateY
p1621
aVtranslateZ
p1622
aVrotateX
p1623
aVrotateY
p1624
aVrotateZ
p1625
aaF0
aF0
aF0
aF0
aF-0
aF0
aa(lp1626
Vhip_eyelet_rear_l_cv_1_anim
p1627
a(lp1628
VtranslateX
p1629
aVtranslateY
p1630
aVtranslateZ
p1631
aaF0
aF0
aF0
aa(lp1632
Vfk_hip_eyelet_rear_l_03_anim
p1633
a(lp1634
VtranslateX
p1635
aVtranslateY
p1636
aVtranslateZ
p1637
aVrotateX
p1638
aVrotateY
p1639
aVrotateZ
p1640
aaF0
aF0
aF0
aF0
aF-0
aF0
aa(lp1641
Vhip_eyelet_rear_l_cv_2_anim
p1642
a(lp1643
VtranslateX
p1644
aVtranslateY
p1645
aVtranslateZ
p1646
aaF0
aF0
aF0
aa(lp1647
Vfk_hip_eyelet_rear_l_04_anim
p1648
a(lp1649
VtranslateX
p1650
aVtranslateY
p1651
aVtranslateZ
p1652
aVrotateX
p1653
aVrotateY
p1654
aVrotateZ
p1655
aaF0
aF0
aF0
aF0
aF-0
aF0
aa(lp1656
Vhip_eyelet_rear_l_cv_3_anim
p1657
a(lp1658
VtranslateX
p1659
aVtranslateY
p1660
aVtranslateZ
p1661
aaF0
aF0
aF0
aa(lp1662
Vhip_eyelet_rear_r_dyn_anim
p1663
a(lp1664
VtranslateX
p1665
aVtranslateY
p1666
aVtranslateZ
p1667
aVrotateX
p1668
aVrotateY
p1669
aVrotateZ
p1670
aVchainAttach
p1671
aVchainStartEnvelope
p1672
aVchainStartFrame
p1673
aVchainStiffness
p1674
aVchainDamping
p1675
aVchainGravity
p1676
aVchainIteration
p1677
aVchainCollide
p1678
aVchainWidthBase
p1679
aVchainWidthExtremity
p1680
aVchainCollideGround
p1681
aVchainCollideGroundHeight
p1682
aaF0
aF0
aF0
aF0
aF-0
aF0
aI1
aF1
aF1
aF0.10000000000000001
aF0.20000000000000001
aF1
aI1
aI00
aF1
aF1
aI00
aF0
aa(lp1683
Vhip_eyelet_rear_r_ik_2_anim
p1684
a(lp1685
VtranslateX
p1686
aVtranslateY
p1687
aVtranslateZ
p1688
aVrotateX
p1689
aVrotateY
p1690
aVrotateZ
p1691
aaF0
aF0
aF0
aF0
aF-0
aF0
aa(lp1692
Vhip_eyelet_rear_r_ik_3_anim
p1693
a(lp1694
VtranslateX
p1695
aVtranslateY
p1696
aVtranslateZ
p1697
aVrotateX
p1698
aVrotateY
p1699
aVrotateZ
p1700
aVclusterControlVis
p1701
aaF0
aF0
aF0
aF0
aF-0
aF0
aI00
aa(lp1702
Vhip_eyelet_rear_r_ik_base_anim
p1703
a(lp1704
VtranslateX
p1705
aVtranslateY
p1706
aVtranslateZ
p1707
aVrotateX
p1708
aVrotateY
p1709
aVrotateZ
p1710
aVglobal_scale
p1711
aVglobal_scale
p1712
aaF0
aF0
aF0
aF0
aF-0
aF0
aF1
aF1
aa(lp1713
Vfk_hip_eyelet_rear_r_01_anim
p1714
a(lp1715
VtranslateX
p1716
aVtranslateY
p1717
aVtranslateZ
p1718
aVrotateX
p1719
aVrotateY
p1720
aVrotateZ
p1721
aVglobal_scale
p1722
aVlagMode
p1723
aVglobal_scale
p1724
aaF0
aF0
aF0
aF0
aF-0
aF0
aF1
aF0
aF1
aa(lp1725
Vhip_eyelet_rear_r_cv_0_anim
p1726
a(lp1727
VtranslateX
p1728
aVtranslateY
p1729
aVtranslateZ
p1730
aaF0
aF0
aF0
aa(lp1731
Vfk_hip_eyelet_rear_r_02_anim
p1732
a(lp1733
VtranslateX
p1734
aVtranslateY
p1735
aVtranslateZ
p1736
aVrotateX
p1737
aVrotateY
p1738
aVrotateZ
p1739
aaF0
aF0
aF0
aF0
aF-0
aF0
aa(lp1740
Vhip_eyelet_rear_r_cv_1_anim
p1741
a(lp1742
VtranslateX
p1743
aVtranslateY
p1744
aVtranslateZ
p1745
aaF0
aF0
aF0
aa(lp1746
Vfk_hip_eyelet_rear_r_03_anim
p1747
a(lp1748
VtranslateX
p1749
aVtranslateY
p1750
aVtranslateZ
p1751
aVrotateX
p1752
aVrotateY
p1753
aVrotateZ
p1754
aaF0
aF0
aF0
aF0
aF-0
aF0
aa(lp1755
Vhip_eyelet_rear_r_cv_2_anim
p1756
a(lp1757
VtranslateX
p1758
aVtranslateY
p1759
aVtranslateZ
p1760
aaF0
aF0
aF0
aa(lp1761
Vfk_hip_eyelet_rear_r_04_anim
p1762
a(lp1763
VtranslateX
p1764
aVtranslateY
p1765
aVtranslateZ
p1766
aVrotateX
p1767
aVrotateY
p1768
aVrotateZ
p1769
aaF0
aF0
aF0
aF0
aF-0
aF0
aa(lp1770
Vhip_eyelet_rear_r_cv_3_anim
p1771
a(lp1772
VtranslateX
p1773
aVtranslateY
p1774
aVtranslateZ
p1775
aaF0
aF0
aF0
aa(lp1776
Vjaw_anim
p1777
a(lp1778
VtranslateX
p1779
aVtranslateY
p1780
aVtranslateZ
p1781
aVrotateX
p1782
aVrotateY
p1783
aVrotateZ
p1784
aVscaleX
p1785
aVscaleY
p1786
aVscaleZ
p1787
aaF0
aF0
aF0
aF0
aF0
aF0
aF1
aF1
aF1
aa(lp1788
Vleg_shieldPad_A_l_anim
p1789
a(lp1790
VtranslateX
p1791
aVtranslateY
p1792
aVtranslateZ
p1793
aVrotateX
p1794
aVrotateY
p1795
aVrotateZ
p1796
aVchainAttach
p1797
aVchainStartEnvelope
p1798
aVchainStartFrame
p1799
aVchainStiffness
p1800
aVchainDamping
p1801
aVchainGravity
p1802
aVchainIteration
p1803
aVchainCollide
p1804
aVchainWidthBase
p1805
aVchainWidthExtremity
p1806
aVchainCollideGround
p1807
aVchainCollideGroundHeight
p1808
aaF0
aF0
aF0
aF0
aF-0
aF0
aI1
aF0
aF1
aF0.10000000000000001
aF0.20000000000000001
aF1
aI1
aI00
aF1
aF1
aI00
aF0
aa(lp1809
Vleg_shieldPad_A_r_anim
p1810
a(lp1811
VtranslateX
p1812
aVtranslateY
p1813
aVtranslateZ
p1814
aVrotateX
p1815
aVrotateY
p1816
aVrotateZ
p1817
aVchainAttach
p1818
aVchainStartEnvelope
p1819
aVchainStartFrame
p1820
aVchainStiffness
p1821
aVchainDamping
p1822
aVchainGravity
p1823
aVchainIteration
p1824
aVchainCollide
p1825
aVchainWidthBase
p1826
aVchainWidthExtremity
p1827
aVchainCollideGround
p1828
aVchainCollideGroundHeight
p1829
aaF0
aF0
aF0
aF0
aF-0
aF0
aI1
aF0
aF1
aF0.10000000000000001
aF0.20000000000000001
aF1
aI1
aI00
aF1
aF1
aI00
aF0
aa(lp1830
Vleg_shieldPad_B_l_anim
p1831
a(lp1832
VtranslateX
p1833
aVtranslateY
p1834
aVtranslateZ
p1835
aVrotateX
p1836
aVrotateY
p1837
aVrotateZ
p1838
aVchainAttach
p1839
aVchainStartEnvelope
p1840
aVchainStartFrame
p1841
aVchainStiffness
p1842
aVchainDamping
p1843
aVchainGravity
p1844
aVchainIteration
p1845
aVchainCollide
p1846
aVchainWidthBase
p1847
aVchainWidthExtremity
p1848
aVchainCollideGround
p1849
aVchainCollideGroundHeight
p1850
aaF0
aF0
aF0
aF0
aF-0
aF0
aI1
aF0
aF1
aF0.10000000000000001
aF0.20000000000000001
aF1
aI1
aI00
aF1
aF1
aI00
aF0
aa(lp1851
Vleg_shieldPad_B_r_anim
p1852
a(lp1853
VtranslateX
p1854
aVtranslateY
p1855
aVtranslateZ
p1856
aVrotateX
p1857
aVrotateY
p1858
aVrotateZ
p1859
aVchainAttach
p1860
aVchainStartEnvelope
p1861
aVchainStartFrame
p1862
aVchainStiffness
p1863
aVchainDamping
p1864
aVchainGravity
p1865
aVchainIteration
p1866
aVchainCollide
p1867
aVchainWidthBase
p1868
aVchainWidthExtremity
p1869
aVchainCollideGround
p1870
aVchainCollideGroundHeight
p1871
aaF0
aF0
aF0
aF0
aF-0
aF0
aI1
aF0
aF1
aF0.10000000000000001
aF0.20000000000000001
aF1
aI1
aI00
aF1
aF1
aI00
aF0
aa(lp1872
Vloin_cloth_bk_dyn_anim
p1873
a(lp1874
VtranslateX
p1875
aVtranslateY
p1876
aVtranslateZ
p1877
aVrotateX
p1878
aVrotateY
p1879
aVrotateZ
p1880
aVchainAttach
p1881
aVchainStartEnvelope
p1882
aVchainStartFrame
p1883
aVchainStiffness
p1884
aVchainDamping
p1885
aVchainGravity
p1886
aVchainIteration
p1887
aVchainCollide
p1888
aVchainWidthBase
p1889
aVchainWidthExtremity
p1890
aVchainCollideGround
p1891
aVchainCollideGroundHeight
p1892
aaF0
aF0
aF0
aF0
aF-0
aF0
aI1
aF0
aF1
aF0.10000000000000001
aF0.20000000000000001
aF1
aI1
aI00
aF1
aF1
aI00
aF0
aa(lp1893
Vloin_cloth_bk_ik_2_anim
p1894
a(lp1895
VtranslateX
p1896
aVtranslateY
p1897
aVtranslateZ
p1898
aVrotateX
p1899
aVrotateY
p1900
aVrotateZ
p1901
aaF0
aF0
aF0
aF0
aF-0
aF0
aa(lp1902
Vloin_cloth_bk_ik_3_anim
p1903
a(lp1904
VtranslateX
p1905
aVtranslateY
p1906
aVtranslateZ
p1907
aVrotateX
p1908
aVrotateY
p1909
aVrotateZ
p1910
aVclusterControlVis
p1911
aaF0
aF0
aF0
aF0
aF-0
aF0
aI00
aa(lp1912
Vloin_cloth_bk_ik_base_anim
p1913
a(lp1914
VtranslateX
p1915
aVtranslateY
p1916
aVtranslateZ
p1917
aVrotateX
p1918
aVrotateY
p1919
aVrotateZ
p1920
aVglobal_scale
p1921
aVglobal_scale
p1922
aaF0
aF0
aF0
aF0
aF-0
aF0
aF1
aF1
aa(lp1923
Vfk_loin_cloth_bk_01_anim
p1924
a(lp1925
VtranslateX
p1926
aVtranslateY
p1927
aVtranslateZ
p1928
aVrotateX
p1929
aVrotateY
p1930
aVrotateZ
p1931
aVglobal_scale
p1932
aVlagMode
p1933
aVglobal_scale
p1934
aaF0
aF0
aF0
aF0
aF-0
aF0
aF1
aF0
aF1
aa(lp1935
Vloin_cloth_bk_cv_0_anim
p1936
a(lp1937
VtranslateX
p1938
aVtranslateY
p1939
aVtranslateZ
p1940
aaF0
aF0
aF0
aa(lp1941
Vfk_loin_cloth_bk_02_anim
p1942
a(lp1943
VtranslateX
p1944
aVtranslateY
p1945
aVtranslateZ
p1946
aVrotateX
p1947
aVrotateY
p1948
aVrotateZ
p1949
aaF0
aF0
aF0
aF0
aF-0
aF0
aa(lp1950
Vloin_cloth_bk_cv_1_anim
p1951
a(lp1952
VtranslateX
p1953
aVtranslateY
p1954
aVtranslateZ
p1955
aaF0
aF0
aF0
aa(lp1956
Vloin_cloth_fr_dyn_anim
p1957
a(lp1958
VtranslateX
p1959
aVtranslateY
p1960
aVtranslateZ
p1961
aVrotateX
p1962
aVrotateY
p1963
aVrotateZ
p1964
aVchainAttach
p1965
aVchainStartEnvelope
p1966
aVchainStartFrame
p1967
aVchainStiffness
p1968
aVchainDamping
p1969
aVchainGravity
p1970
aVchainIteration
p1971
aVchainCollide
p1972
aVchainWidthBase
p1973
aVchainWidthExtremity
p1974
aVchainCollideGround
p1975
aVchainCollideGroundHeight
p1976
aaF0
aF0
aF0
aF0
aF-0
aF0
aI1
aF0
aF1
aF0.10000000000000001
aF0.20000000000000001
aF1
aI1
aI00
aF1
aF1
aI00
aF0
aa(lp1977
Vloin_cloth_fr_ik_2_anim
p1978
a(lp1979
VtranslateX
p1980
aVtranslateY
p1981
aVtranslateZ
p1982
aVrotateX
p1983
aVrotateY
p1984
aVrotateZ
p1985
aaF0
aF0
aF0
aF0
aF-0
aF0
aa(lp1986
Vloin_cloth_fr_ik_3_anim
p1987
a(lp1988
VtranslateX
p1989
aVtranslateY
p1990
aVtranslateZ
p1991
aVrotateX
p1992
aVrotateY
p1993
aVrotateZ
p1994
aVclusterControlVis
p1995
aaF0
aF0
aF0
aF0
aF-0
aF0
aI00
aa(lp1996
Vloin_cloth_fr_ik_base_anim
p1997
a(lp1998
VtranslateX
p1999
aVtranslateY
p2000
aVtranslateZ
p2001
aVrotateX
p2002
aVrotateY
p2003
aVrotateZ
p2004
aVglobal_scale
p2005
aVglobal_scale
p2006
aaF0
aF0
aF0
aF0
aF-0
aF0
aF1
aF1
aa(lp2007
Vfk_loin_cloth_fr_01_anim
p2008
a(lp2009
VtranslateX
p2010
aVtranslateY
p2011
aVtranslateZ
p2012
aVrotateX
p2013
aVrotateY
p2014
aVrotateZ
p2015
aVglobal_scale
p2016
aVlagMode
p2017
aVglobal_scale
p2018
aaF0
aF0
aF0
aF0
aF-0
aF0
aF1
aF0
aF1
aa(lp2019
Vloin_cloth_fr_cv_0_anim
p2020
a(lp2021
VtranslateX
p2022
aVtranslateY
p2023
aVtranslateZ
p2024
aaF0
aF0
aF0
aa(lp2025
Vfk_loin_cloth_fr_02_anim
p2026
a(lp2027
VtranslateX
p2028
aVtranslateY
p2029
aVtranslateZ
p2030
aVrotateX
p2031
aVrotateY
p2032
aVrotateZ
p2033
aaF0
aF0
aF0
aF0
aF-0
aF0
aa(lp2034
Vloin_cloth_fr_cv_1_anim
p2035
a(lp2036
VtranslateX
p2037
aVtranslateY
p2038
aVtranslateZ
p2039
aaF0
aF0
aF0
aa(lp2040
Vpadawan_l_dyn_anim
p2041
a(lp2042
VtranslateX
p2043
aVtranslateY
p2044
aVtranslateZ
p2045
aVrotateX
p2046
aVrotateY
p2047
aVrotateZ
p2048
aVchainAttach
p2049
aVchainStartEnvelope
p2050
aVchainStartFrame
p2051
aVchainStiffness
p2052
aVchainDamping
p2053
aVchainGravity
p2054
aVchainIteration
p2055
aVchainCollide
p2056
aVchainWidthBase
p2057
aVchainWidthExtremity
p2058
aVchainCollideGround
p2059
aVchainCollideGroundHeight
p2060
aaF0
aF0
aF0
aF0
aF-0
aF0
aI1
aF0
aF1
aF0.10000000000000001
aF0.20000000000000001
aF1
aI1
aI00
aF1
aF1
aI00
aF0
aa(lp2061
Vpadawan_l_ik_2_anim
p2062
a(lp2063
VtranslateX
p2064
aVtranslateY
p2065
aVtranslateZ
p2066
aVrotateX
p2067
aVrotateY
p2068
aVrotateZ
p2069
aaF0
aF0
aF0
aF0
aF-0
aF0
aa(lp2070
Vpadawan_l_ik_3_anim
p2071
a(lp2072
VtranslateX
p2073
aVtranslateY
p2074
aVtranslateZ
p2075
aVrotateX
p2076
aVrotateY
p2077
aVrotateZ
p2078
aVclusterControlVis
p2079
aaF0
aF0
aF0
aF0
aF-0
aF0
aI00
aa(lp2080
Vpadawan_l_ik_base_anim
p2081
a(lp2082
VtranslateX
p2083
aVtranslateY
p2084
aVtranslateZ
p2085
aVrotateX
p2086
aVrotateY
p2087
aVrotateZ
p2088
aVglobal_scale
p2089
aVglobal_scale
p2090
aaF0
aF0
aF0
aF0
aF-0
aF0
aF1
aF1
aa(lp2091
Vfk_padawan_l_01_anim
p2092
a(lp2093
VtranslateX
p2094
aVtranslateY
p2095
aVtranslateZ
p2096
aVrotateX
p2097
aVrotateY
p2098
aVrotateZ
p2099
aVglobal_scale
p2100
aVlagMode
p2101
aVglobal_scale
p2102
aaF0
aF0
aF0
aF0
aF-0
aF0
aF0.99999999999999989
aF0
aF0.99999999999999989
aa(lp2103
Vpadawan_l_cv_0_anim
p2104
a(lp2105
VtranslateX
p2106
aVtranslateY
p2107
aVtranslateZ
p2108
aaF0
aF0
aF0
aa(lp2109
Vfk_padawan_l_02_anim
p2110
a(lp2111
VtranslateX
p2112
aVtranslateY
p2113
aVtranslateZ
p2114
aVrotateX
p2115
aVrotateY
p2116
aVrotateZ
p2117
aaF0
aF0
aF0
aF0
aF-0
aF0
aa(lp2118
Vpadawan_l_cv_1_anim
p2119
a(lp2120
VtranslateX
p2121
aVtranslateY
p2122
aVtranslateZ
p2123
aaF0
aF0
aF0
aa(lp2124
Vfk_padawan_l_03_anim
p2125
a(lp2126
VtranslateX
p2127
aVtranslateY
p2128
aVtranslateZ
p2129
aVrotateX
p2130
aVrotateY
p2131
aVrotateZ
p2132
aaF0
aF0
aF0
aF0
aF-0
aF0
aa(lp2133
Vpadawan_l_cv_2_anim
p2134
a(lp2135
VtranslateX
p2136
aVtranslateY
p2137
aVtranslateZ
p2138
aaF0
aF0
aF0
aa(lp2139
Vpadawan_r_dyn_anim
p2140
a(lp2141
VtranslateX
p2142
aVtranslateY
p2143
aVtranslateZ
p2144
aVrotateX
p2145
aVrotateY
p2146
aVrotateZ
p2147
aVchainAttach
p2148
aVchainStartEnvelope
p2149
aVchainStartFrame
p2150
aVchainStiffness
p2151
aVchainDamping
p2152
aVchainGravity
p2153
aVchainIteration
p2154
aVchainCollide
p2155
aVchainWidthBase
p2156
aVchainWidthExtremity
p2157
aVchainCollideGround
p2158
aVchainCollideGroundHeight
p2159
aaF0
aF0
aF0
aF0
aF-0
aF0
aI1
aF0
aF1
aF0.10000000000000001
aF0.20000000000000001
aF1
aI1
aI00
aF1
aF1
aI00
aF0
aa(lp2160
Vpadawan_r_ik_2_anim
p2161
a(lp2162
VtranslateX
p2163
aVtranslateY
p2164
aVtranslateZ
p2165
aVrotateX
p2166
aVrotateY
p2167
aVrotateZ
p2168
aaF0
aF0
aF0
aF0
aF-0
aF0
aa(lp2169
Vpadawan_r_ik_3_anim
p2170
a(lp2171
VtranslateX
p2172
aVtranslateY
p2173
aVtranslateZ
p2174
aVrotateX
p2175
aVrotateY
p2176
aVrotateZ
p2177
aVclusterControlVis
p2178
aaF0
aF0
aF0
aF0
aF-0
aF0
aI00
aa(lp2179
Vpadawan_r_ik_base_anim
p2180
a(lp2181
VtranslateX
p2182
aVtranslateY
p2183
aVtranslateZ
p2184
aVrotateX
p2185
aVrotateY
p2186
aVrotateZ
p2187
aVglobal_scale
p2188
aVglobal_scale
p2189
aaF0
aF0
aF0
aF0
aF-0
aF0
aF1.0000000000000002
aF1.0000000000000002
aa(lp2190
Vfk_padawan_r_01_anim
p2191
a(lp2192
VtranslateX
p2193
aVtranslateY
p2194
aVtranslateZ
p2195
aVrotateX
p2196
aVrotateY
p2197
aVrotateZ
p2198
aVglobal_scale
p2199
aVlagMode
p2200
aVglobal_scale
p2201
aaF0
aF0
aF0
aF0
aF-0
aF0
aF0.99999999999999978
aF0
aF0.99999999999999978
aa(lp2202
Vpadawan_r_cv_0_anim
p2203
a(lp2204
VtranslateX
p2205
aVtranslateY
p2206
aVtranslateZ
p2207
aaF0
aF0
aF0
aa(lp2208
Vfk_padawan_r_02_anim
p2209
a(lp2210
VtranslateX
p2211
aVtranslateY
p2212
aVtranslateZ
p2213
aVrotateX
p2214
aVrotateY
p2215
aVrotateZ
p2216
aaF0
aF0
aF0
aF0
aF-0
aF0
aa(lp2217
Vpadawan_r_cv_1_anim
p2218
a(lp2219
VtranslateX
p2220
aVtranslateY
p2221
aVtranslateZ
p2222
aaF0
aF0
aF0
aa(lp2223
Vfk_padawan_r_03_anim
p2224
a(lp2225
VtranslateX
p2226
aVtranslateY
p2227
aVtranslateZ
p2228
aVrotateX
p2229
aVrotateY
p2230
aVrotateZ
p2231
aaF0
aF0
aF0
aF0
aF-0
aF0
aa(lp2232
Vpadawan_r_cv_2_anim
p2233
a(lp2234
VtranslateX
p2235
aVtranslateY
p2236
aVtranslateZ
p2237
aaF0
aF0
aF0
aa(lp2238
Vpipe_anim
p2239
a(lp2240
VtranslateX
p2241
aVtranslateY
p2242
aVtranslateZ
p2243
aVrotateX
p2244
aVrotateY
p2245
aVrotateZ
p2246
aVscaleX
p2247
aVscaleY
p2248
aVscaleZ
p2249
aaF0
aF0
aF0
aF0
aF0
aF-7.9214437030667315e-05
aF1
aF1
aF1
aa(lp2250
Vponytail_dyn_anim
p2251
a(lp2252
VtranslateX
p2253
aVtranslateY
p2254
aVtranslateZ
p2255
aVrotateX
p2256
aVrotateY
p2257
aVrotateZ
p2258
aVchainAttach
p2259
aVchainStartEnvelope
p2260
aVchainStartFrame
p2261
aVchainStiffness
p2262
aVchainDamping
p2263
aVchainGravity
p2264
aVchainIteration
p2265
aVchainCollide
p2266
aVchainWidthBase
p2267
aVchainWidthExtremity
p2268
aVchainCollideGround
p2269
aVchainCollideGroundHeight
p2270
aaF0
aF0
aF0
aF0
aF-0
aF0
aI1
aF0
aF1
aF0.10000000000000001
aF0.20000000000000001
aF1
aI1
aI00
aF1
aF1
aI00
aF0
aa(lp2271
Vponytail_ik_2_anim
p2272
a(lp2273
VtranslateX
p2274
aVtranslateY
p2275
aVtranslateZ
p2276
aVrotateX
p2277
aVrotateY
p2278
aVrotateZ
p2279
aaF0
aF0
aF0
aF0
aF-0
aF0
aa(lp2280
Vponytail_ik_3_anim
p2281
a(lp2282
VtranslateX
p2283
aVtranslateY
p2284
aVtranslateZ
p2285
aVrotateX
p2286
aVrotateY
p2287
aVrotateZ
p2288
aVclusterControlVis
p2289
aaF0
aF0
aF0
aF0
aF-0
aF0
aI00
aa(lp2290
Vponytail_ik_base_anim
p2291
a(lp2292
VtranslateX
p2293
aVtranslateY
p2294
aVtranslateZ
p2295
aVrotateX
p2296
aVrotateY
p2297
aVrotateZ
p2298
aVglobal_scale
p2299
aVglobal_scale
p2300
aaF0
aF0
aF0
aF0
aF-0
aF0
aF1
aF1
aa(lp2301
Vfk_ponytail_01_anim
p2302
a(lp2303
VtranslateX
p2304
aVtranslateY
p2305
aVtranslateZ
p2306
aVrotateX
p2307
aVrotateY
p2308
aVrotateZ
p2309
aVglobal_scale
p2310
aVlagMode
p2311
aVglobal_scale
p2312
aaF0
aF0
aF0
aF0
aF-0
aF0
aF1
aF0
aF1
aa(lp2313
Vponytail_cv_0_anim
p2314
a(lp2315
VtranslateX
p2316
aVtranslateY
p2317
aVtranslateZ
p2318
aaF0
aF0
aF0
aa(lp2319
Vfk_ponytail_02_anim
p2320
a(lp2321
VtranslateX
p2322
aVtranslateY
p2323
aVtranslateZ
p2324
aVrotateX
p2325
aVrotateY
p2326
aVrotateZ
p2327
aaF0
aF0
aF0
aF0
aF-0
aF0
aa(lp2328
Vponytail_cv_1_anim
p2329
a(lp2330
VtranslateX
p2331
aVtranslateY
p2332
aVtranslateZ
p2333
aaF0
aF0
aF0
aa(lp2334
Vfk_ponytail_03_anim
p2335
a(lp2336
VtranslateX
p2337
aVtranslateY
p2338
aVtranslateZ
p2339
aVrotateX
p2340
aVrotateY
p2341
aVrotateZ
p2342
aaF0
aF0
aF0
aF0
aF-0
aF0
aa(lp2343
Vponytail_cv_2_anim
p2344
a(lp2345
VtranslateX
p2346
aVtranslateY
p2347
aVtranslateZ
p2348
aaF0
aF0
aF0
aa(lp2349
Vshoulder_blade_in_r_anim
p2350
a(lp2351
VtranslateX
p2352
aVtranslateY
p2353
aVtranslateZ
p2354
aVrotateX
p2355
aVrotateY
p2356
aVrotateZ
p2357
aVscaleX
p2358
aVscaleY
p2359
aVscaleZ
p2360
aaF0
aF0
aF0
aF0
aF-0
aF0
aF0.99999999999999967
aF0.99999999999999967
aF0.99999999999999978
aa(lp2361
Vshoulder_blade_mid_r_anim
p2362
a(lp2363
VtranslateX
p2364
aVtranslateY
p2365
aVtranslateZ
p2366
aVrotateX
p2367
aVrotateY
p2368
aVrotateZ
p2369
aVscaleX
p2370
aVscaleY
p2371
aVscaleZ
p2372
aaF0
aF0
aF0
aF0
aF-0
aF0
aF0.99999999999999967
aF0.99999999999999967
aF0.99999999999999978
aa(lp2373
Vshoulder_blade_out_r_anim
p2374
a(lp2375
VtranslateX
p2376
aVtranslateY
p2377
aVtranslateZ
p2378
aVrotateX
p2379
aVrotateY
p2380
aVrotateZ
p2381
aVscaleX
p2382
aVscaleY
p2383
aVscaleZ
p2384
aaF0
aF0
aF0
aF0
aF0
aF0
aF0.99999999999999967
aF0.99999999999999967
aF0.99999999999999978
aa(lp2385
Vshoulder_cloth_01_l_anim
p2386
a(lp2387
VtranslateX
p2388
aVtranslateY
p2389
aVtranslateZ
p2390
aVrotateX
p2391
aVrotateY
p2392
aVrotateZ
p2393
aVscaleX
p2394
aVscaleY
p2395
aVscaleZ
p2396
aaF0
aF0
aF0
aF0
aF-0
aF0
aF1
aF1
aF0.99999999999999989
aa(lp2397
Vshoulder_cloth_02_l_anim
p2398
a(lp2399
VtranslateX
p2400
aVtranslateY
p2401
aVtranslateZ
p2402
aVrotateX
p2403
aVrotateY
p2404
aVrotateZ
p2405
aVscaleX
p2406
aVscaleY
p2407
aVscaleZ
p2408
aaF0
aF0
aF0
aF0
aF-0
aF0
aF1
aF1
aF1
aa(lp2409
Vshoulder_pad_r_anim
p2410
a(lp2411
VtranslateX
p2412
aVtranslateY
p2413
aVtranslateZ
p2414
aVrotateX
p2415
aVrotateY
p2416
aVrotateZ
p2417
aVscaleX
p2418
aVscaleY
p2419
aVscaleZ
p2420
aaF5.8995465488383916
aF-5.4585656006132002
aF6.9216520199013463
aF-25.068593586566511
aF20.627128499158385
aF109.0318229880591
aF1
aF1
aF1
aa(lp2421
Vweapon_anim
p2422
a(lp2423
VtranslateX
p2424
aVtranslateY
p2425
aVtranslateZ
p2426
aVrotateX
p2427
aVrotateY
p2428
aVrotateZ
p2429
aVscaleX
p2430
aVscaleY
p2431
aVscaleZ
p2432
aVblendParent1
p2433
aaF-65.344253976887941
aF-179.58112615332172
aF-110.42891747798737
aF0.59075499359821615
aF1.2700167175882189
aF-0.075670919635897921
aF1
aF1
aF1
aF0
aa(lp2434
Vweapon_bladeA_01_anim
p2435
a(lp2436
VtranslateX
p2437
aVtranslateY
p2438
aVtranslateZ
p2439
aVrotateX
p2440
aVrotateY
p2441
aVrotateZ
p2442
aVscaleX
p2443
aVscaleY
p2444
aVscaleZ
p2445
aaF0
aF0
aF0
aF0
aF-0
aF0
aF1
aF1
aF1
aa(lp2446
Vweapon_bladeA_02_anim
p2447
a(lp2448
VtranslateZ
p2449
aVscaleX
p2450
aVscaleY
p2451
aVscaleZ
p2452
aaF0
aF1
aF1
aF1
aa(lp2453
Vweapon_bladeA_03_anim
p2454
a(lp2455
VtranslateX
p2456
aVtranslateY
p2457
aVtranslateZ
p2458
aVrotateX
p2459
aVrotateY
p2460
aVrotateZ
p2461
aVscaleX
p2462
aVscaleY
p2463
aVscaleZ
p2464
aaF0
aF0
aF0
aF0
aF-0
aF0
aF1
aF1
aF1
aa(lp2465
Vweapon_bladeA_04_anim
p2466
a(lp2467
VtranslateX
p2468
aVtranslateY
p2469
aVtranslateZ
p2470
aVrotateX
p2471
aVrotateY
p2472
aVrotateZ
p2473
aVscaleX
p2474
aVscaleY
p2475
aVscaleZ
p2476
aaF0
aF0
aF0
aF0
aF-0
aF0
aF1
aF1
aF1
aa(lp2477
Vweapon_bladeA_05_anim
p2478
a(lp2479
VtranslateX
p2480
aVtranslateY
p2481
aVtranslateZ
p2482
aVrotateX
p2483
aVrotateY
p2484
aVrotateZ
p2485
aVscaleX
p2486
aVscaleY
p2487
aVscaleZ
p2488
aaF0
aF0
aF0
aF0
aF-0
aF0
aF1
aF1
aF1
aa(lp2489
Vweapon_bladeB_01_anim
p2490
a(lp2491
VtranslateX
p2492
aVtranslateY
p2493
aVtranslateZ
p2494
aVrotateX
p2495
aVrotateY
p2496
aVrotateZ
p2497
aVscaleX
p2498
aVscaleY
p2499
aVscaleZ
p2500
aaF0
aF0
aF0
aF0
aF-0
aF0
aF1
aF1
aF1
aa(lp2501
Vweapon_bladeB_02_anim
p2502
a(lp2503
VtranslateZ
p2504
aVscaleX
p2505
aVscaleY
p2506
aVscaleZ
p2507
aaF0
aF1
aF1
aF1
aa(lp2508
Vweapon_bladeB_03_anim
p2509
a(lp2510
VtranslateX
p2511
aVtranslateY
p2512
aVtranslateZ
p2513
aVrotateX
p2514
aVrotateY
p2515
aVrotateZ
p2516
aVscaleX
p2517
aVscaleY
p2518
aVscaleZ
p2519
aaF0
aF0
aF0
aF0
aF-0
aF0
aF1
aF1
aF1
aa(lp2520
Vweapon_bladeB_04_anim
p2521
a(lp2522
VtranslateX
p2523
aVtranslateY
p2524
aVtranslateZ
p2525
aVrotateX
p2526
aVrotateY
p2527
aVrotateZ
p2528
aVscaleX
p2529
aVscaleY
p2530
aVscaleZ
p2531
aaF0
aF0
aF0
aF0
aF-0
aF0
aF1
aF1
aF1
aa(lp2532
Vweapon_bladeB_05_anim
p2533
a(lp2534
VtranslateX
p2535
aVtranslateY
p2536
aVtranslateZ
p2537
aVrotateX
p2538
aVrotateY
p2539
aVrotateZ
p2540
aVscaleX
p2541
aVscaleY
p2542
aVscaleZ
p2543
aaF0
aF0
aF0
aF0
aF-0
aF0
aF1
aF1
aF1
aa(lp2544
Vweapon_bladeC_01_anim
p2545
a(lp2546
VtranslateX
p2547
aVtranslateY
p2548
aVtranslateZ
p2549
aVrotateX
p2550
aVrotateY
p2551
aVrotateZ
p2552
aVscaleX
p2553
aVscaleY
p2554
aVscaleZ
p2555
aaF0
aF0
aF0
aF0
aF-0
aF0
aF1
aF1
aF1
aa(lp2556
Vweapon_bladeC_02_anim
p2557
a(lp2558
VtranslateY
p2559
aVscaleX
p2560
aVscaleY
p2561
aVscaleZ
p2562
aaF0
aF1
aF1
aF1
aa(lp2563
Vweapon_bladeC_03_anim
p2564
a(lp2565
VtranslateX
p2566
aVtranslateY
p2567
aVtranslateZ
p2568
aVrotateX
p2569
aVrotateY
p2570
aVrotateZ
p2571
aVscaleX
p2572
aVscaleY
p2573
aVscaleZ
p2574
aaF0
aF0
aF0
aF0
aF-0
aF0
aF1
aF1
aF1
aa(lp2575
Vweapon_bladeD_01_anim
p2576
a(lp2577
VtranslateX
p2578
aVtranslateY
p2579
aVtranslateZ
p2580
aVrotateX
p2581
aVrotateY
p2582
aVrotateZ
p2583
aVscaleX
p2584
aVscaleY
p2585
aVscaleZ
p2586
aaF0
aF0
aF0
aF0
aF-0
aF0
aF1
aF1
aF1
aa(lp2587
Vweapon_bladeE_01_anim
p2588
a(lp2589
VtranslateX
p2590
aVtranslateY
p2591
aVtranslateZ
p2592
aVrotateX
p2593
aVrotateY
p2594
aVrotateZ
p2595
aVscaleX
p2596
aVscaleY
p2597
aVscaleZ
p2598
aaF0
aF0
aF0
aF0
aF0
aF0
aF1
aF1
aF1
aa(lp2599
Vweapon_butt_dyn_anim
p2600
a(lp2601
VtranslateX
p2602
aVtranslateY
p2603
aVtranslateZ
p2604
aVrotateX
p2605
aVrotateY
p2606
aVrotateZ
p2607
aVchainAttach
p2608
aVchainStartEnvelope
p2609
aVchainStartFrame
p2610
aVchainStiffness
p2611
aVchainDamping
p2612
aVchainGravity
p2613
aVchainIteration
p2614
aVchainCollide
p2615
aVchainWidthBase
p2616
aVchainWidthExtremity
p2617
aVchainCollideGround
p2618
aVchainCollideGroundHeight
p2619
aaF0
aF0
aF0
aF0
aF-0
aF0
aI1
aF0
aF1
aF0.10000000000000001
aF0.20000000000000001
aF1
aI1
aI00
aF1
aF1
aI00
aF0
aa(lp2620
Vweapon_butt_ik_2_anim
p2621
a(lp2622
VtranslateX
p2623
aVtranslateY
p2624
aVtranslateZ
p2625
aVrotateX
p2626
aVrotateY
p2627
aVrotateZ
p2628
aaF0
aF0
aF0
aF0
aF-0
aF0
aa(lp2629
Vweapon_butt_ik_3_anim
p2630
a(lp2631
VtranslateX
p2632
aVtranslateY
p2633
aVtranslateZ
p2634
aVrotateX
p2635
aVrotateY
p2636
aVrotateZ
p2637
aaF0
aF0
aF0
aF0
aF-0
aF0
aa(lp2638
Vweapon_butt_ik_4_anim
p2639
a(lp2640
VtranslateX
p2641
aVtranslateY
p2642
aVtranslateZ
p2643
aVrotateX
p2644
aVrotateY
p2645
aVrotateZ
p2646
aVclusterControlVis
p2647
aaF0
aF0
aF0
aF0
aF-0
aF0
aI00
aa(lp2648
Vweapon_butt_ik_base_anim
p2649
a(lp2650
VtranslateX
p2651
aVtranslateY
p2652
aVtranslateZ
p2653
aVrotateX
p2654
aVrotateY
p2655
aVrotateZ
p2656
aVglobal_scale
p2657
aVglobal_scale
p2658
aaF0
aF0
aF0
aF0
aF-0
aF0
aF1
aF1
aa(lp2659
Vfk_weapon_butt_01_anim
p2660
a(lp2661
VtranslateX
p2662
aVtranslateY
p2663
aVtranslateZ
p2664
aVrotateX
p2665
aVrotateY
p2666
aVrotateZ
p2667
aVglobal_scale
p2668
aVlagMode
p2669
aVglobal_scale
p2670
aaF0
aF0
aF0
aF0
aF-0
aF0
aF1
aF0
aF1
aa(lp2671
Vweapon_butt_cv_0_anim
p2672
a(lp2673
VtranslateX
p2674
aVtranslateY
p2675
aVtranslateZ
p2676
aaF0
aF0
aF0
aa(lp2677
Vfk_weapon_butt_02_anim
p2678
a(lp2679
VtranslateX
p2680
aVtranslateY
p2681
aVtranslateZ
p2682
aVrotateX
p2683
aVrotateY
p2684
aVrotateZ
p2685
aaF0
aF0
aF0
aF0
aF-0
aF0
aa(lp2686
Vweapon_butt_cv_1_anim
p2687
a(lp2688
VtranslateX
p2689
aVtranslateY
p2690
aVtranslateZ
p2691
aaF0
aF0
aF0
aa(lp2692
Vfk_weapon_butt_03_anim
p2693
a(lp2694
VtranslateX
p2695
aVtranslateY
p2696
aVtranslateZ
p2697
aVrotateX
p2698
aVrotateY
p2699
aVrotateZ
p2700
aaF0
aF0
aF0
aF0
aF-0
aF0
aa(lp2701
Vweapon_butt_cv_2_anim
p2702
a(lp2703
VtranslateX
p2704
aVtranslateY
p2705
aVtranslateZ
p2706
aaF0
aF0
aF0
aa(lp2707
Vfk_weapon_butt_04_anim
p2708
a(lp2709
VtranslateX
p2710
aVtranslateY
p2711
aVtranslateZ
p2712
aVrotateX
p2713
aVrotateY
p2714
aVrotateZ
p2715
aaF0
aF0
aF0
aF0
aF-0
aF0
aa(lp2716
Vweapon_butt_cv_3_anim
p2717
a(lp2718
VtranslateX
p2719
aVtranslateY
p2720
aVtranslateZ
p2721
aaF0
aF0
aF0
aa(lp2722
Vfk_weapon_butt_05_anim
p2723
a(lp2724
VtranslateX
p2725
aVtranslateY
p2726
aVtranslateZ
p2727
aVrotateX
p2728
aVrotateY
p2729
aVrotateZ
p2730
aaF0
aF0
aF0
aF0
aF-0
aF0
aa(lp2731
Vweapon_butt_cv_4_anim
p2732
a(lp2733
VtranslateX
p2734
aVtranslateY
p2735
aVtranslateZ
p2736
aaF0
aF0
aF0
aa(lp2737
Vfk_weapon_butt_06_anim
p2738
a(lp2739
VtranslateX
p2740
aVtranslateY
p2741
aVtranslateZ
p2742
aVrotateX
p2743
aVrotateY
p2744
aVrotateZ
p2745
aaF0
aF0
aF0
aF0
aF-0
aF0
aa(lp2746
Vweapon_butt_cv_5_anim
p2747
a(lp2748
VtranslateX
p2749
aVtranslateY
p2750
aVtranslateZ
p2751
aaF0
aF0
aF0
aa(lp2752
Vfk_weapon_butt_07_anim
p2753
a(lp2754
VtranslateX
p2755
aVtranslateY
p2756
aVtranslateZ
p2757
aVrotateX
p2758
aVrotateY
p2759
aVrotateZ
p2760
aaF0
aF0
aF0
aF0
aF-0
aF0
aa(lp2761
Vweapon_butt_cv_6_anim
p2762
a(lp2763
VtranslateX
p2764
aVtranslateY
p2765
aVtranslateZ
p2766
aaF0
aF0
aF0
aa(lp2767
Vfk_weapon_butt_08_anim
p2768
a(lp2769
VtranslateX
p2770
aVtranslateY
p2771
aVtranslateZ
p2772
aVrotateX
p2773
aVrotateY
p2774
aVrotateZ
p2775
aaF0
aF0
aF0
aF0
aF-0
aF0
aa(lp2776
Vweapon_butt_cv_7_anim
p2777
a(lp2778
VtranslateX
p2779
aVtranslateY
p2780
aVtranslateZ
p2781
aaF0
aF0
aF0
aa(lp2782
Vfk_weapon_butt_09_anim
p2783
a(lp2784
VtranslateX
p2785
aVtranslateY
p2786
aVtranslateZ
p2787
aVrotateX
p2788
aVrotateY
p2789
aVrotateZ
p2790
aaF0
aF0
aF0
aF0
aF-0
aF0
aa(lp2791
Vweapon_butt_cv_8_anim
p2792
a(lp2793
VtranslateX
p2794
aVtranslateY
p2795
aVtranslateZ
p2796
aaF0
aF0
aF0
aa(lp2797
Vwrist_plate_r_anim
p2798
a(lp2799
VtranslateX
p2800
aVtranslateY
p2801
aVtranslateZ
p2802
aVrotateX
p2803
aVrotateY
p2804
aVrotateZ
p2805
aVscaleX
p2806
aVscaleY
p2807
aVscaleZ
p2808
aaF0
aF0
aF0
aF0
aF-0
aF0
aF1
aF1
aF0.99999999999999989
aa(lp2809
Vweapon_bladeD_02_anim
p2810
a(lp2811
VtranslateX
p2812
aVtranslateY
p2813
aVtranslateZ
p2814
aVrotateX
p2815
aVrotateY
p2816
aVrotateZ
p2817
aVscaleX
p2818
aVscaleY
p2819
aVscaleZ
p2820
aaF0
aF0
aF0
aF0
aF0
aF0
aF1
aF1
aF1
aa(lp2821
Vbody_anim_space_switcher
p2822
a(lp2823
Vvisibility
p2824
aVtranslateX
p2825
aVtranslateY
p2826
aVtranslateZ
p2827
aVrotateX
p2828
aVrotateY
p2829
aVrotateZ
p2830
aVscaleX
p2831
aVscaleY
p2832
aVscaleZ
p2833
aVspace_world
p2834
aaI01
aF0
aF0
aF5.856452433224257e-15
aF0
aF0
aF0
aF1
aF1
aF1
aF0
aa(lp2835
Vbracelet_A_l_anim_space_switcher
p2836
a(lp2837
Vvisibility
p2838
aVtranslateX
p2839
aVtranslateY
p2840
aVtranslateZ
p2841
aVrotateX
p2842
aVrotateY
p2843
aVrotateZ
p2844
aVscaleX
p2845
aVscaleY
p2846
aVscaleZ
p2847
aVspace_world
p2848
aaI01
aF1.4210854715202004e-14
aF0
aF0
aF3.1805546814635168e-15
aF1.5902773407317584e-15
aF-7.9513867036587919e-16
aF1
aF1
aF0.99999999999999989
aF0
aa(lp2849
Vbracelet_B_l_anim_space_switcher
p2850
a(lp2851
Vvisibility
p2852
aVtranslateX
p2853
aVtranslateY
p2854
aVtranslateZ
p2855
aVrotateX
p2856
aVrotateY
p2857
aVrotateZ
p2858
aVscaleX
p2859
aVscaleY
p2860
aVscaleZ
p2861
aVspace_world
p2862
aaI01
aF0
aF-1.4210854715202004e-14
aF0
aF-3.1805546814635168e-15
aF-0
aF-1.5902773407317584e-15
aF1
aF1
aF1
aF0
aa(lp2863
Vbracelet_C_l_anim_space_switcher
p2864
a(lp2865
Vvisibility
p2866
aVtranslateX
p2867
aVtranslateY
p2868
aVtranslateZ
p2869
aVrotateX
p2870
aVrotateY
p2871
aVrotateZ
p2872
aVscaleX
p2873
aVscaleY
p2874
aVscaleZ
p2875
aVspace_world
p2876
aaI01
aF1.4210854715202004e-14
aF1.4210854715202004e-14
aF2.8421709430404007e-14
aF3.180554681463516e-15
aF-3.180554681463516e-15
aF0
aF1.0000000000000002
aF1.0000000000000002
aF1.0000000000000002
aF0
aa(lp2877
Vchest_ik_anim_space_switcher
p2878
a(lp2879
Vvisibility
p2880
aVtranslateX
p2881
aVtranslateY
p2882
aVtranslateZ
p2883
aVrotateX
p2884
aVrotateY
p2885
aVrotateZ
p2886
aVscaleX
p2887
aVscaleY
p2888
aVscaleZ
p2889
aVspace_world
p2890
aVspace_chest_ik_world_aligned
p2891
aaI01
aF0
aF-8.8817841970012523e-15
aF-1.3555225542027927e-07
aF3.5311250384401269e-31
aF2.8249000307521015e-30
aF0
aF1
aF1
aF1
aF0
aF0
aa(lp2892
Veyeball_l_anim_space_switcher
p2893
a(lp2894
Vvisibility
p2895
aVtranslateX
p2896
aVtranslateY
p2897
aVtranslateZ
p2898
aVrotateX
p2899
aVrotateY
p2900
aVrotateZ
p2901
aVscaleX
p2902
aVscaleY
p2903
aVscaleZ
p2904
aVspace_world
p2905
aaI01
aF0
aF0
aF0
aF0
aF0
aF0
aF1
aF1
aF1
aF0
aa(lp2906
Veyeball_r_anim_space_switcher
p2907
a(lp2908
Vvisibility
p2909
aVtranslateX
p2910
aVtranslateY
p2911
aVtranslateZ
p2912
aVrotateX
p2913
aVrotateY
p2914
aVrotateZ
p2915
aVscaleX
p2916
aVscaleY
p2917
aVscaleZ
p2918
aVspace_world
p2919
aaI01
aF4.4408920985006262e-16
aF0
aF0
aF0
aF0
aF0
aF1
aF1
aF1
aF0
aa(lp2920
Veyebrow_in_l_anim_space_switcher
p2921
a(lp2922
Vvisibility
p2923
aVtranslateX
p2924
aVtranslateY
p2925
aVtranslateZ
p2926
aVrotateX
p2927
aVrotateY
p2928
aVrotateZ
p2929
aVscaleX
p2930
aVscaleY
p2931
aVscaleZ
p2932
aVspace_world
p2933
aaI01
aF0
aF-3.5527136788005009e-15
aF-2.8421709430404007e-14
aF0
aF9.9392333795734899e-17
aF-3.975693351829396e-16
aF1
aF1
aF1.0000000000000002
aF0
aa(lp2934
Veyebrow_in_r_anim_space_switcher
p2935
a(lp2936
Vvisibility
p2937
aVtranslateX
p2938
aVtranslateY
p2939
aVtranslateZ
p2940
aVrotateX
p2941
aVrotateY
p2942
aVrotateZ
p2943
aVscaleX
p2944
aVscaleY
p2945
aVscaleZ
p2946
aVspace_world
p2947
aaI01
aF-4.4408920985006262e-16
aF0
aF0
aF7.9513867036587919e-16
aF-9.9392333795734874e-17
aF4.5968954380527377e-16
aF1.0000000000000002
aF1
aF1.0000000000000002
aF0
aa(lp2948
Veyebrow_out_l_anim_space_switcher
p2949
a(lp2950
Vvisibility
p2951
aVtranslateX
p2952
aVtranslateY
p2953
aVtranslateZ
p2954
aVrotateX
p2955
aVrotateY
p2956
aVrotateZ
p2957
aVscaleX
p2958
aVscaleY
p2959
aVscaleZ
p2960
aVspace_world
p2961
aaI01
aF-1.4210854715202004e-14
aF0
aF0
aF0
aF1.5902773407317584e-15
aF-2.3854160110976376e-15
aF1
aF0.99999999999999989
aF1
aF0
aa(lp2962
Veyebrow_out_r_anim_space_switcher
p2963
a(lp2964
Vvisibility
p2965
aVtranslateX
p2966
aVtranslateY
p2967
aVtranslateZ
p2968
aVrotateX
p2969
aVrotateY
p2970
aVrotateZ
p2971
aVscaleX
p2972
aVscaleY
p2973
aVscaleZ
p2974
aVspace_world
p2975
aaI01
aF-7.1054273576010019e-15
aF0
aF-2.8421709430404007e-14
aF0
aF1.590277340731758e-15
aF7.9513867036587899e-16
aF1.0000000000000002
aF1
aF1
aF0
aa(lp2976
Veyelid_bott_l_anim_space_switcher
p2977
a(lp2978
Vvisibility
p2979
aVtranslateX
p2980
aVtranslateY
p2981
aVtranslateZ
p2982
aVrotateX
p2983
aVrotateY
p2984
aVrotateZ
p2985
aVscaleX
p2986
aVscaleY
p2987
aVscaleZ
p2988
aVspace_world
p2989
aaI01
aF0
aF0
aF0
aF0
aF0
aF0
aF1
aF1
aF1
aF0
aa(lp2990
Veyelid_bott_r_anim_space_switcher
p2991
a(lp2992
Vvisibility
p2993
aVtranslateX
p2994
aVtranslateY
p2995
aVtranslateZ
p2996
aVrotateX
p2997
aVrotateY
p2998
aVrotateZ
p2999
aVscaleX
p3000
aVscaleY
p3001
aVscaleZ
p3002
aVspace_world
p3003
aaI01
aF4.4408920985006262e-16
aF0
aF0
aF0
aF0
aF0
aF1
aF1
aF1
aF0
aa(lp3004
Veyelid_top_l_anim_space_switcher
p3005
a(lp3006
Vvisibility
p3007
aVtranslateX
p3008
aVtranslateY
p3009
aVtranslateZ
p3010
aVrotateX
p3011
aVrotateY
p3012
aVrotateZ
p3013
aVscaleX
p3014
aVscaleY
p3015
aVscaleZ
p3016
aVspace_world
p3017
aaI01
aF0
aF0
aF0
aF0
aF0
aF0
aF1
aF1
aF1
aF0
aa(lp3018
Veyelid_top_r_anim_space_switcher
p3019
a(lp3020
Vvisibility
p3021
aVtranslateX
p3022
aVtranslateY
p3023
aVtranslateZ
p3024
aVrotateX
p3025
aVrotateY
p3026
aVrotateZ
p3027
aVscaleX
p3028
aVscaleY
p3029
aVscaleZ
p3030
aVspace_world
p3031
aaI01
aF4.4408920985006262e-16
aF0
aF0
aF0
aF0
aF0
aF1
aF1
aF1
aF0
aa(lp3032
Vhip_back_flaps_anim_space_switcher
p3033
a(lp3034
Vvisibility
p3035
aVtranslateX
p3036
aVtranslateY
p3037
aVtranslateZ
p3038
aVrotateX
p3039
aVrotateY
p3040
aVrotateZ
p3041
aVscaleX
p3042
aVscaleY
p3043
aVscaleZ
p3044
aVspace_world
p3045
aaI01
aF0
aF0
aF0
aF0
aF0
aF0
aF1
aF1
aF1
aF0
aa(lp3046
Vik_elbow_l_anim_space_switcher
p3047
a(lp3048
Vvisibility
p3049
aVtranslateX
p3050
aVtranslateY
p3051
aVtranslateZ
p3052
aVrotateX
p3053
aVrotateY
p3054
aVrotateZ
p3055
aVscaleX
p3056
aVscaleY
p3057
aVscaleZ
p3058
aVspace_world
p3059
aVspace_body_anim
p3060
aVspace_chest_ik_anim
p3061
aaI01
aF-5.5530346187993018e-06
aF-8.2796614577773653e-06
aF0.00010569494523338108
aF0
aF0
aF0
aF1
aF1
aF1
aF0
aF0
aF0
aa(lp3062
Vik_elbow_r_anim_space_switcher
p3063
a(lp3064
Vvisibility
p3065
aVtranslateX
p3066
aVtranslateY
p3067
aVtranslateZ
p3068
aVrotateX
p3069
aVrotateY
p3070
aVrotateZ
p3071
aVscaleX
p3072
aVscaleY
p3073
aVscaleZ
p3074
aVspace_world
p3075
aVspace_body_anim
p3076
aVspace_chest_ik_anim
p3077
aaI01
aF-5.5530346187993018e-06
aF8.2796614577773653e-06
aF-0.00010569494523338108
aF0
aF0
aF0
aF1
aF1
aF1
aF0
aF0
aF0
aa(lp3078
Vik_foot_anim_l_space_switcher
p3079
a(lp3080
Vvisibility
p3081
aVtranslateX
p3082
aVtranslateY
p3083
aVtranslateZ
p3084
aVrotateX
p3085
aVrotateY
p3086
aVrotateZ
p3087
aVscaleX
p3088
aVscaleY
p3089
aVscaleZ
p3090
aVspace_world
p3091
aVspace_body_anim
p3092
aaI01
aF1.7795704437162385e-05
aF1.7388318187983032e-05
aF-0.00018205549879724003
aF0
aF-0
aF-0
aF1
aF1
aF1
aF0
aF0
aa(lp3093
Vik_foot_anim_r_space_switcher
p3094
a(lp3095
Vvisibility
p3096
aVtranslateX
p3097
aVtranslateY
p3098
aVtranslateZ
p3099
aVrotateX
p3100
aVrotateY
p3101
aVrotateZ
p3102
aVscaleX
p3103
aVscaleY
p3104
aVscaleZ
p3105
aVspace_world
p3106
aVspace_body_anim
p3107
aaI01
aF1.7795704437162385e-05
aF-1.7388318187983032e-05
aF0.00018205549879724003
aF0
aF-0
aF-0
aF1
aF1
aF1
aF0
aF0
aa(lp3108
Vik_wrist_l_anim_space_switcher
p3109
a(lp3110
Vvisibility
p3111
aVtranslateX
p3112
aVtranslateY
p3113
aVtranslateZ
p3114
aVrotateX
p3115
aVrotateY
p3116
aVrotateZ
p3117
aVscaleX
p3118
aVscaleY
p3119
aVscaleZ
p3120
aVspace_world
p3121
aVspace_body_anim
p3122
aVspace_head_fk_anim
p3123
aVspace_chest_ik_anim
p3124
aaI01
aF0
aF0
aF0
aF0
aF-0
aF-0
aF1
aF1
aF1
aF0
aF0
aF0
aF0
aa(lp3125
Vik_wrist_r_anim_space_switcher
p3126
a(lp3127
Vvisibility
p3128
aVtranslateX
p3129
aVtranslateY
p3130
aVtranslateZ
p3131
aVrotateX
p3132
aVrotateY
p3133
aVrotateZ
p3134
aVscaleX
p3135
aVscaleY
p3136
aVscaleZ
p3137
aVspace_world
p3138
aVspace_body_anim
p3139
aVspace_head_fk_anim
p3140
aVspace_chest_ik_anim
p3141
aaI01
aF0
aF0
aF0
aF0
aF-0
aF-0
aF1
aF1
aF1
aF0
aF0
aF0
aF0
aa(lp3142
Vjaw_anim_space_switcher
p3143
a(lp3144
Vvisibility
p3145
aVtranslateX
p3146
aVtranslateY
p3147
aVtranslateZ
p3148
aVrotateX
p3149
aVrotateY
p3150
aVrotateZ
p3151
aVscaleX
p3152
aVscaleY
p3153
aVscaleZ
p3154
aVspace_world
p3155
aaI01
aF0
aF0
aF0
aF0
aF0
aF0
aF1
aF1
aF1
aF0
aa(lp3156
Vl_global_ik_anim_space_switcher
p3157
a(lp3158
Vvisibility
p3159
aVtranslateX
p3160
aVtranslateY
p3161
aVtranslateZ
p3162
aVrotateX
p3163
aVrotateY
p3164
aVrotateZ
p3165
aVscaleX
p3166
aVscaleY
p3167
aVscaleZ
p3168
aVspace_world
p3169
aaI01
aF0
aF0
aF0
aF0
aF0
aF0
aF1
aF1
aF1
aF0
aa(lp3170
Vmaster_anim_space_switcher
p3171
a(lp3172
Vvisibility
p3173
aVtranslateX
p3174
aVtranslateY
p3175
aVtranslateZ
p3176
aVrotateX
p3177
aVrotateY
p3178
aVrotateZ
p3179
aVscaleX
p3180
aVscaleY
p3181
aVscaleZ
p3182
aVspace_world
p3183
aaI01
aF0
aF0
aF0
aF0
aF0
aF0
aF1
aF1
aF1
aF0
aa(lp3184
Vpipe_anim_space_switcher
p3185
a(lp3186
Vvisibility
p3187
aVtranslateX
p3188
aVtranslateY
p3189
aVtranslateZ
p3190
aVrotateX
p3191
aVrotateY
p3192
aVrotateZ
p3193
aVscaleX
p3194
aVscaleY
p3195
aVscaleZ
p3196
aVspace_world
p3197
aaI01
aF0
aF0
aF0
aF0
aF0
aF0
aF1
aF1
aF1
aF0
aa(lp3198
Vr_global_ik_anim_space_switcher
p3199
a(lp3200
Vvisibility
p3201
aVtranslateX
p3202
aVtranslateY
p3203
aVtranslateZ
p3204
aVrotateX
p3205
aVrotateY
p3206
aVrotateZ
p3207
aVscaleX
p3208
aVscaleY
p3209
aVscaleZ
p3210
aVspace_world
p3211
aaI01
aF0
aF0
aF0
aF0
aF0
aF0
aF1
aF1
aF1
aF0
aa(lp3212
Vshoulder_blade_in_r_anim_space_switcher
p3213
a(lp3214
Vvisibility
p3215
aVtranslateX
p3216
aVtranslateY
p3217
aVtranslateZ
p3218
aVrotateX
p3219
aVrotateY
p3220
aVrotateZ
p3221
aVscaleX
p3222
aVscaleY
p3223
aVscaleZ
p3224
aVspace_world
p3225
aaI01
aF-3.5527136788005009e-15
aF3.5527136788005009e-15
aF0
aF0
aF-0
aF7.4544250346801174e-17
aF1
aF1
aF1.0000000000000002
aF0
aa(lp3226
Vshoulder_blade_mid_r_anim_space_switcher
p3227
a(lp3228
Vvisibility
p3229
aVtranslateX
p3230
aVtranslateY
p3231
aVtranslateZ
p3232
aVrotateX
p3233
aVrotateY
p3234
aVrotateZ
p3235
aVscaleX
p3236
aVscaleY
p3237
aVscaleZ
p3238
aVspace_world
p3239
aaI01
aF3.5527136788005009e-15
aF0
aF0
aF0
aF-0
aF7.4544250346801174e-17
aF1
aF1
aF1.0000000000000002
aF0
aa(lp3240
Vshoulder_blade_out_r_anim_space_switcher
p3241
a(lp3242
Vvisibility
p3243
aVtranslateX
p3244
aVtranslateY
p3245
aVtranslateZ
p3246
aVrotateX
p3247
aVrotateY
p3248
aVrotateZ
p3249
aVscaleX
p3250
aVscaleY
p3251
aVscaleZ
p3252
aVspace_world
p3253
aaI01
aF-3.5527136788005009e-15
aF0
aF0
aF0
aF-0
aF7.4544250346801174e-17
aF1
aF1
aF1.0000000000000002
aF0
aa(lp3254
Vshoulder_cloth_01_l_anim_space_switcher
p3255
a(lp3256
Vvisibility
p3257
aVtranslateX
p3258
aVtranslateY
p3259
aVtranslateZ
p3260
aVrotateX
p3261
aVrotateY
p3262
aVrotateZ
p3263
aVscaleX
p3264
aVscaleY
p3265
aVscaleZ
p3266
aVspace_world
p3267
aaI01
aF0
aF1.4210854715202004e-14
aF-2.8421709430404007e-14
aF0
aF-3.180554681463516e-15
aF0
aF1.0000000000000002
aF1.0000000000000002
aF1.0000000000000002
aF0
aa(lp3268
Vshoulder_cloth_02_l_anim_space_switcher
p3269
a(lp3270
Vvisibility
p3271
aVtranslateX
p3272
aVtranslateY
p3273
aVtranslateZ
p3274
aVrotateX
p3275
aVrotateY
p3276
aVrotateZ
p3277
aVscaleX
p3278
aVscaleY
p3279
aVscaleZ
p3280
aVspace_world
p3281
aaI01
aF-1.4210854715202004e-14
aF0
aF2.8421709430404007e-14
aF0
aF-6.3611093629270335e-15
aF1.5902773407317584e-15
aF1
aF1
aF1
aF0
aa(lp3282
Vshoulder_pad_r_anim_space_switcher
p3283
a(lp3284
Vvisibility
p3285
aVtranslateX
p3286
aVtranslateY
p3287
aVtranslateZ
p3288
aVrotateX
p3289
aVrotateY
p3290
aVrotateZ
p3291
aVscaleX
p3292
aVscaleY
p3293
aVscaleZ
p3294
aVspace_world
p3295
aaI01
aF0
aF-3.5527136788005009e-15
aF0
aF9.9392333795734899e-17
aF-1.987846675914698e-16
aF-7.765026077791789e-18
aF1
aF1
aF1
aF0
aa(lp3296
Vspine_01_space_switcher
p3297
a(lp3298
Vvisibility
p3299
aVtranslateX
p3300
aVtranslateY
p3301
aVtranslateZ
p3302
aVrotateX
p3303
aVrotateY
p3304
aVrotateZ
p3305
aVscaleX
p3306
aVscaleY
p3307
aVscaleZ
p3308
aVspace_world
p3309
aaI01
aF0
aF3.5527136788005009e-15
aF1.0097419586828951e-28
aF0
aF0
aF0
aF0.99999999999999989
aF0.99999999999999989
aF1
aF0
aa(lp3310
Vweapon_anim_space_switcher
p3311
a(lp3312
Vvisibility
p3313
aVtranslateX
p3314
aVtranslateY
p3315
aVtranslateZ
p3316
aVrotateX
p3317
aVrotateY
p3318
aVrotateZ
p3319
aVscaleX
p3320
aVscaleY
p3321
aVscaleZ
p3322
aVspace_world
p3323
aaI01
aF-2.8421709430404007e-14
aF0
aF-2.8421709430404007e-14
aF2.3854160110976376e-15
aF3.1805546814635168e-15
aF-1.1927080055488188e-15
aF1
aF1
aF1
aF0
aa(lp3324
Vweapon_bladeA_01_anim_space_switcher
p3325
a(lp3326
Vvisibility
p3327
aVtranslateX
p3328
aVtranslateY
p3329
aVtranslateZ
p3330
aVrotateX
p3331
aVrotateY
p3332
aVrotateZ
p3333
aVscaleX
p3334
aVscaleY
p3335
aVscaleZ
p3336
aVspace_world
p3337
aVspace_weapon_blades_master_anim
p3338
aaI01
aF2.8421709430404007e-14
aF0
aF-2.8421709430404007e-14
aF7.9513867036587919e-16
aF-0
aF-1.5902773407317584e-15
aF1
aF1
aF0.99999999999999978
aF0
aF0
aa(lp3339
Vweapon_bladeA_02_anim_space_switcher
p3340
a(lp3341
Vvisibility
p3342
aVtranslateX
p3343
aVtranslateY
p3344
aVtranslateZ
p3345
aVrotateX
p3346
aVrotateY
p3347
aVrotateZ
p3348
aVscaleX
p3349
aVscaleY
p3350
aVscaleZ
p3351
aVspace_world
p3352
aaI01
aF0
aF-2.8421709430404007e-14
aF-4.2632564145606011e-14
aF7.9513867036587919e-16
aF-0
aF-1.5902773407317584e-15
aF1
aF1
aF0.99999999999999978
aF0
aa(lp3353
Vweapon_bladeA_03_anim_space_switcher
p3354
a(lp3355
Vvisibility
p3356
aVtranslateX
p3357
aVtranslateY
p3358
aVtranslateZ
p3359
aVrotateX
p3360
aVrotateY
p3361
aVrotateZ
p3362
aVscaleX
p3363
aVscaleY
p3364
aVscaleZ
p3365
aVspace_world
p3366
aaI01
aF-2.8421709430404007e-14
aF0
aF-4.2632564145606011e-14
aF7.9513867036587919e-16
aF-0
aF-1.5902773407317584e-15
aF1
aF1
aF0.99999999999999978
aF0
aa(lp3367
Vweapon_bladeA_04_anim_space_switcher
p3368
a(lp3369
Vvisibility
p3370
aVtranslateX
p3371
aVtranslateY
p3372
aVtranslateZ
p3373
aVrotateX
p3374
aVrotateY
p3375
aVrotateZ
p3376
aVscaleX
p3377
aVscaleY
p3378
aVscaleZ
p3379
aVspace_world
p3380
aaI01
aF0
aF0
aF-2.8421709430404007e-14
aF7.9513867036587919e-16
aF-0
aF-1.5902773407317584e-15
aF1
aF1
aF0.99999999999999978
aF0
aa(lp3381
Vweapon_bladeA_05_anim_space_switcher
p3382
a(lp3383
Vvisibility
p3384
aVtranslateX
p3385
aVtranslateY
p3386
aVtranslateZ
p3387
aVrotateX
p3388
aVrotateY
p3389
aVrotateZ
p3390
aVscaleX
p3391
aVscaleY
p3392
aVscaleZ
p3393
aVspace_world
p3394
aaI01
aF0
aF0
aF-4.2632564145606011e-14
aF7.9513867036587919e-16
aF-0
aF-1.5902773407317584e-15
aF1
aF1
aF0.99999999999999978
aF0
aa(lp3395
Vweapon_bladeB_01_anim_space_switcher
p3396
a(lp3397
Vvisibility
p3398
aVtranslateX
p3399
aVtranslateY
p3400
aVtranslateZ
p3401
aVrotateX
p3402
aVrotateY
p3403
aVrotateZ
p3404
aVscaleX
p3405
aVscaleY
p3406
aVscaleZ
p3407
aVspace_world
p3408
aVspace_weapon_blades_master_anim
p3409
aaI01
aF2.8421709430404007e-14
aF0
aF-2.8421709430404007e-14
aF7.9513867036587919e-16
aF-0
aF-1.5902773407317584e-15
aF1
aF1
aF0.99999999999999978
aF0
aF0
aa(lp3410
Vweapon_bladeB_02_anim_space_switcher
p3411
a(lp3412
Vvisibility
p3413
aVtranslateX
p3414
aVtranslateY
p3415
aVtranslateZ
p3416
aVrotateX
p3417
aVrotateY
p3418
aVrotateZ
p3419
aVscaleX
p3420
aVscaleY
p3421
aVscaleZ
p3422
aVspace_world
p3423
aaI01
aF2.8421709430404007e-14
aF-2.1316282072803006e-14
aF0
aF3.1805546814635168e-15
aF3.1805546814635168e-15
aF-3.1805546814635168e-15
aF1
aF1
aF1
aF0
aa(lp3424
Vweapon_bladeB_03_anim_space_switcher
p3425
a(lp3426
Vvisibility
p3427
aVtranslateX
p3428
aVtranslateY
p3429
aVtranslateZ
p3430
aVrotateX
p3431
aVrotateY
p3432
aVrotateZ
p3433
aVscaleX
p3434
aVscaleY
p3435
aVscaleZ
p3436
aVspace_world
p3437
aaI01
aF2.8421709430404007e-14
aF0
aF0
aF-1.987846675914698e-15
aF-0
aF1.987846675914698e-15
aF1
aF1
aF1
aF0
aa(lp3438
Vweapon_bladeB_04_anim_space_switcher
p3439
a(lp3440
Vvisibility
p3441
aVtranslateX
p3442
aVtranslateY
p3443
aVtranslateZ
p3444
aVrotateX
p3445
aVrotateY
p3446
aVrotateZ
p3447
aVscaleX
p3448
aVscaleY
p3449
aVscaleZ
p3450
aVspace_world
p3451
aaI01
aF2.8421709430404007e-14
aF-2.8421709430404007e-14
aF1.4210854715202004e-14
aF-7.9513867036587919e-16
aF-0
aF0
aF1
aF1
aF1
aF0
aa(lp3452
Vweapon_bladeB_05_anim_space_switcher
p3453
a(lp3454
Vvisibility
p3455
aVtranslateX
p3456
aVtranslateY
p3457
aVtranslateZ
p3458
aVrotateX
p3459
aVrotateY
p3460
aVrotateZ
p3461
aVscaleX
p3462
aVscaleY
p3463
aVscaleZ
p3464
aVspace_world
p3465
aaI01
aF0
aF2.8421709430404007e-14
aF1.4210854715202004e-14
aF-7.9513867036587919e-16
aF-0
aF0
aF1
aF1
aF1
aF0
aa(lp3466
Vweapon_bladeC_01_anim_space_switcher
p3467
a(lp3468
Vvisibility
p3469
aVtranslateX
p3470
aVtranslateY
p3471
aVtranslateZ
p3472
aVrotateX
p3473
aVrotateY
p3474
aVrotateZ
p3475
aVscaleX
p3476
aVscaleY
p3477
aVscaleZ
p3478
aVspace_world
p3479
aVspace_weapon_blades_master_anim
p3480
aaI01
aF2.8421709430404007e-14
aF0
aF-2.8421709430404007e-14
aF7.9513867036587919e-16
aF-0
aF-1.5902773407317584e-15
aF1
aF1
aF0.99999999999999978
aF0
aF0
aa(lp3481
Vweapon_bladeC_02_anim_space_switcher
p3482
a(lp3483
Vvisibility
p3484
aVtranslateX
p3485
aVtranslateY
p3486
aVtranslateZ
p3487
aVrotateX
p3488
aVrotateY
p3489
aVrotateZ
p3490
aVscaleX
p3491
aVscaleY
p3492
aVscaleZ
p3493
aVspace_world
p3494
aaI01
aF2.8421709430404007e-14
aF-2.8421709430404007e-14
aF0
aF7.9513867036587919e-16
aF-0
aF-1.5902773407317584e-15
aF1
aF1
aF0.99999999999999978
aF0
aa(lp3495
Vweapon_bladeC_03_anim_space_switcher
p3496
a(lp3497
Vvisibility
p3498
aVtranslateX
p3499
aVtranslateY
p3500
aVtranslateZ
p3501
aVrotateX
p3502
aVrotateY
p3503
aVrotateZ
p3504
aVscaleX
p3505
aVscaleY
p3506
aVscaleZ
p3507
aVspace_world
p3508
aaI01
aF0
aF0
aF-1.4210854715202004e-14
aF7.9513867036587919e-16
aF-0
aF-1.5902773407317584e-15
aF1
aF1
aF0.99999999999999978
aF0
aa(lp3509
Vweapon_bladeD_01_anim_space_switcher
p3510
a(lp3511
Vvisibility
p3512
aVtranslateX
p3513
aVtranslateY
p3514
aVtranslateZ
p3515
aVrotateX
p3516
aVrotateY
p3517
aVrotateZ
p3518
aVscaleX
p3519
aVscaleY
p3520
aVscaleZ
p3521
aVspace_world
p3522
aVspace_weapon_blades_master_anim
p3523
aaI01
aF0
aF-2.8421709430404007e-14
aF-4.2632564145606011e-14
aF7.9513867036587919e-16
aF-0
aF-1.5902773407317584e-15
aF1
aF1
aF0.99999999999999978
aF0
aF0
aa(lp3524
Vweapon_bladeD_02_anim_space_switcher
p3525
a(lp3526
Vvisibility
p3527
aVtranslateX
p3528
aVtranslateY
p3529
aVtranslateZ
p3530
aVrotateX
p3531
aVrotateY
p3532
aVrotateZ
p3533
aVscaleX
p3534
aVscaleY
p3535
aVscaleZ
p3536
aVspace_world
p3537
aaI01
aF0
aF0
aF0
aF0
aF0
aF0
aF1
aF1
aF1
aF0
aa(lp3538
Vweapon_bladeE_01_anim_space_switcher
p3539
a(lp3540
Vvisibility
p3541
aVtranslateX
p3542
aVtranslateY
p3543
aVtranslateZ
p3544
aVrotateX
p3545
aVrotateY
p3546
aVrotateZ
p3547
aVscaleX
p3548
aVscaleY
p3549
aVscaleZ
p3550
aVspace_world
p3551
aaI01
aF0
aF0
aF0
aF0
aF0
aF0
aF1
aF1
aF1
aF0
aa(lp3552
Vwrist_plate_r_anim_space_switcher
p3553
a(lp3554
Vvisibility
p3555
aVtranslateX
p3556
aVtranslateY
p3557
aVtranslateZ
p3558
aVrotateX
p3559
aVrotateY
p3560
aVrotateZ
p3561
aVscaleX
p3562
aVscaleY
p3563
aVscaleZ
p3564
aVspace_world
p3565
aaI01
aF0
aF0
aF-5.6843418860808015e-14
aF0
aF-0
aF9.9392333795734899e-17
aF1
aF1
aF1
aF0
aa.