(lp1
(lp2
S'head_fk_anim'
p3
a(lp4
VtranslateX
p5
aVtranslateY
p6
aVtranslateZ
p7
aVrotateX
p8
aVrotateY
p9
aVrotateZ
p10
aVscaleX
p11
aVscaleY
p12
aVscaleZ
p13
aVfkOrientation
p14
aaF0
aF0
aF0
aF-3.2144866818902598
aF10.543663673795031
aF19.137554488565499
aF1
aF1
aF1
aI0
aa(lp15
S'neck_01_fk_anim'
p16
a(lp17
VtranslateX
p18
aVtranslateY
p19
aVtranslateZ
p20
aVrotateX
p21
aVrotateY
p22
aVrotateZ
p23
aVscaleX
p24
aVscaleY
p25
aVscaleZ
p26
aVfkOrientation
p27
aaF1.4210854715202004e-14
aF1.4210854715202004e-14
aF0
aF3.9102864006160658
aF0.017650866194901152
aF19.181209931984792
aF1
aF1
aF0.99999999999999989
aI0
aa(lp28
S'spine_01_anim'
p29
a(lp30
Vlength
p31
aVtranslateY
p32
aVtranslateZ
p33
aVrotateX
p34
aVrotateY
p35
aVrotateZ
p36
aaF0
aF0
aF0
aF0.31786434374812311
aF3.5399359484793766
aF-20.14884166802825
aa(lp37
S'spine_02_anim'
p38
a(lp39
Vlength
p40
aVtranslateY
p41
aVtranslateZ
p42
aVrotateX
p43
aVrotateY
p44
aVrotateZ
p45
aaF0
aF0
aF0
aF-0.56034985017335237
aF0.83502197264098588
aF-20.909819341276158
aa(lp46
S'spine_03_anim'
p47
a(lp48
Vlength
p49
aVtranslateY
p50
aVtranslateZ
p51
aVrotateX
p52
aVrotateY
p53
aVrotateZ
p54
aaF0
aF0
aF0
aF-0.69240002551618485
aF0.72927327754931137
aF-13.468772406358315
aa(lp55
S'mid_ik_anim'
p56
a(lp57
VtranslateX
p58
aVtranslateY
p59
aVtranslateZ
p60
aVrotateX
p61
aVrotateY
p62
aVrotateZ
p63
aaF0
aF0
aF0
aF0
aF0
aF0
aa(lp64
S'chest_ik_anim'
p65
a(lp66
VtranslateX
p67
aVtranslateY
p68
aVtranslateZ
p69
aVrotateX
p70
aVrotateY
p71
aVrotateZ
p72
aVstretch
p73
aVsquash
p74
aVtwist_amount
p75
aVspine_01_twistAmount
p76
aVspine_02_twistAmount
p77
aVautoSpine
p78
aVrotationInfluence
p79
aaF0
aF0
aF0
aF0
aF0
aF0
aF0
aF0
aF1
aF0.33333333333333331
aF0.66666666666666663
aF0
aF0.25
aa(lp80
S'body_anim'
p81
a(lp82
VtranslateX
p83
aVtranslateY
p84
aVtranslateZ
p85
aVrotateX
p86
aVrotateY
p87
aVrotateZ
p88
aaF-14.23366371055543
aF28.056622631806395
aF-1.9101835802350657
aF-5.7112507307553901
aF-4.8281992756545886
aF-13.858602156221576
aa(lp89
S'hip_anim'
p90
a(lp91
VtranslateX
p92
aVtranslateY
p93
aVtranslateZ
p94
aVrotateX
p95
aVrotateY
p96
aVrotateZ
p97
aVlTwistCtrlVis
p98
aVlCalfTwistCtrlVis
p99
aVrTwistCtrlVis
p100
aVrCalfTwistCtrlVis
p101
aVautoHips
p102
aaF-2.1316282072803006e-14
aF1.4210854715202004e-14
aF0
aF0
aF0
aF0
aI00
aI00
aI00
aI00
aF0
aa(lp103
S'clavicle_l_anim'
p104
a(lp105
VtranslateX
p106
aVtranslateY
p107
aVtranslateZ
p108
aVautoShoulders
p109
aVtwistCtrlVis
p110
aVtwistCtrlVisLower
p111
aaF0
aF-6.7007656003035523
aF-0.85402127176091369
aF0
aI00
aI00
aa(lp112
S'clavicle_r_anim'
p113
a(lp114
VtranslateX
p115
aVtranslateY
p116
aVtranslateZ
p117
aVautoShoulders
p118
aVtwistCtrlVis
p119
aVtwistCtrlVisLower
p120
aaF0
aF-8.0853281886522232
aF0.11017485417919817
aF0
aI00
aI00
aa(lp121
S'fk_arm_l_anim'
p122
a(lp123
VtranslateX
p124
aVtranslateY
p125
aVtranslateZ
p126
aVrotateX
p127
aVrotateY
p128
aVrotateZ
p129
aaF0
aF0
aF0
aF-55.125736642682867
aF48.723816648148286
aF-65.901015277513196
aa(lp130
S'fk_arm_r_anim'
p131
a(lp132
VtranslateX
p133
aVtranslateY
p134
aVtranslateZ
p135
aVrotateX
p136
aVrotateY
p137
aVrotateZ
p138
aaF0
aF0
aF0
aF-64.982239300075662
aF-3.9318262209809873
aF-68.196265252659629
aa(lp139
S'fk_elbow_l_anim'
p140
a(lp141
VtranslateX
p142
aVtranslateY
p143
aVtranslateZ
p144
aVrotateX
p145
aVrotateY
p146
aVrotateZ
p147
aaF0
aF0
aF0
aF0.93396166684097237
aF0.32835994487662601
aF-108.1597870533997
aa(lp148
S'fk_elbow_r_anim'
p149
a(lp150
VtranslateX
p151
aVtranslateY
p152
aVtranslateZ
p153
aVrotateX
p154
aVrotateY
p155
aVrotateZ
p156
aaF0
aF0
aF0
aF0.6820684931227311
aF0.23976853839129611
aF-103.26114715542622
aa(lp157
S'fk_wrist_l_anim'
p158
a(lp159
VtranslateX
p160
aVtranslateY
p161
aVtranslateZ
p162
aVrotateX
p163
aVrotateY
p164
aVrotateZ
p165
aaF0
aF0
aF0
aF54.432747028418511
aF39.229737541973272
aF-30.957918978728149
aa(lp166
S'fk_wrist_r_anim'
p167
a(lp168
VtranslateX
p169
aVtranslateY
p170
aVtranslateZ
p171
aVrotateX
p172
aVrotateY
p173
aVrotateZ
p174
aaF0
aF0
aF0
aF42.836316991483592
aF-17.867285911491066
aF-5.5509910896648069
aa(lp175
S'ik_elbow_l_anim'
p176
a(lp177
VtranslateX
p178
aVtranslateY
p179
aVtranslateZ
p180
aaF-16.071457966263349
aF-3.4994498365092959
aF-46.227106570605613
aa(lp181
S'ik_elbow_r_anim'
p182
a(lp183
VtranslateX
p184
aVtranslateY
p185
aVtranslateZ
p186
aaF9.4668684009510855
aF-27.641208346299194
aF-49.866170912847537
aa(lp187
S'ik_wrist_l_anim'
p188
a(lp189
VtranslateX
p190
aVtranslateY
p191
aVtranslateZ
p192
aVrotateX
p193
aVrotateY
p194
aVrotateZ
p195
aVstretch
p196
aVsquash
p197
aVside
p198
aVmid_bend
p199
aVmid_swivel
p200
aVtip_pivot
p201
aVtip_swivel
p202
aaF-49.256529498711352
aF-15.335580207167997
aF-55.396333381134113
aF-21.929495395783391
aF-29.301385551072798
aF-93.022102188339119
aF0
aF0
aF0
aF0
aF0
aF0
aF0
aa(lp203
S'ik_wrist_r_anim'
p204
a(lp205
VtranslateX
p206
aVtranslateY
p207
aVtranslateZ
p208
aVrotateX
p209
aVrotateY
p210
aVrotateZ
p211
aVstretch
p212
aVsquash
p213
aVside
p214
aVmid_bend
p215
aVmid_swivel
p216
aVtip_pivot
p217
aVtip_swivel
p218
aaF42.21808326845666
aF-32.301620709957881
aF-38.965535754244712
aF-18.269597923162969
aF12.981619682029562
aF103.94261520957139
aF0
aF0
aF0
aF0
aF0
aF0
aF0
aa(lp219
S'fk_thigh_l_anim'
p220
a(lp221
VrotateX
p222
aVrotateY
p223
aVrotateZ
p224
aaF-180
aF179.99999999999994
aF179.99999999999997
aa(lp225
S'fk_thigh_r_anim'
p226
a(lp227
VrotateX
p228
aVrotateY
p229
aVrotateZ
p230
aaF0
aF0
aF-360.00000000000006
aa(lp231
S'fk_calf_l_anim'
p232
a(lp233
VrotateX
p234
aVrotateY
p235
aVrotateZ
p236
aaF0
aF0
aF0
aa(lp237
S'fk_calf_r_anim'
p238
a(lp239
VrotateX
p240
aVrotateY
p241
aVrotateZ
p242
aaF0
aF0
aF0
aa(lp243
S'fk_foot_l_anim'
p244
a(lp245
VrotateX
p246
aVrotateY
p247
aVrotateZ
p248
aaF0
aF0
aF0
aa(lp249
S'fk_foot_r_anim'
p250
a(lp251
VrotateX
p252
aVrotateY
p253
aVrotateZ
p254
aaF0
aF0
aF0
aa(lp255
S'fk_ball_l_anim'
p256
a(lp257
VrotateX
p258
aVrotateY
p259
aVrotateZ
p260
aaF0
aF0
aF0
aa(lp261
S'fk_ball_r_anim'
p262
a(lp263
VrotateX
p264
aVrotateY
p265
aVrotateZ
p266
aaF0
aF0
aF0
aa(lp267
S'ik_foot_anim_l'
p268
a(lp269
VtranslateX
p270
aVtranslateY
p271
aVtranslateZ
p272
aVrotateX
p273
aVrotateY
p274
aVrotateZ
p275
aVknee_twist
p276
aVstretch
p277
aVsquash
p278
aVtoeCtrlVis
p279
aaF1.72215005884647
aF1.5747724853672747
aF-3.595442006343319e-07
aF0
aF0
aF20
aF9.6000000000000014
aF0
aF0
aI00
aa(lp280
S'ik_foot_anim_r'
p281
a(lp282
VtranslateX
p283
aVtranslateY
p284
aVtranslateZ
p285
aVrotateX
p286
aVrotateY
p287
aVrotateZ
p288
aVknee_twist
p289
aVstretch
p290
aVsquash
p291
aVtoeCtrlVis
p292
aaF-3.3907923038514873
aF49.019202811429899
aF0.00020309193664402869
aF0
aF0
aF-43.357852645994086
aF25.409445513991976
aF0
aF0
aI00
aa(lp293
S'heel_ctrl_l'
p294
a(lp295
VrotateX
p296
aVrotateY
p297
aVrotateZ
p298
aVheelPivot
p299
aVballPivot
p300
aaF0
aF0
aF-0
aF0
aF0
aa(lp301
S'heel_ctrl_r'
p302
a(lp303
VrotateX
p304
aVrotateY
p305
aVrotateZ
p306
aVheelPivot
p307
aVballPivot
p308
aaF-3.4380000000000002
aF0
aF-17.259772169177758
aF0
aF0
aa(lp309
S'toe_wiggle_ctrl_l'
p310
a(lp311
VrotateX
p312
aVrotateY
p313
aVrotateZ
p314
aaF0
aF0
aF-0
aa(lp315
S'toe_wiggle_ctrl_r'
p316
a(lp317
VrotateX
p318
aVrotateY
p319
aVrotateZ
p320
aaF0
aF0
aF-4.0071232876079499
aa(lp321
S'toe_tip_ctrl_l'
p322
a(lp323
VrotateX
p324
aVrotateY
p325
aVrotateZ
p326
aaF0
aF0
aF0
aa(lp327
S'toe_tip_ctrl_r'
p328
a(lp329
VrotateX
p330
aVrotateY
p331
aVrotateZ
p332
aaF0
aF0
aF0
aa(lp333
S'master_anim'
p334
a(lp335
VtranslateX
p336
aVtranslateY
p337
aVtranslateZ
p338
aVrotateX
p339
aVrotateY
p340
aVrotateZ
p341
aaF0
aF0
aF0
aF0
aF0
aF0
aa(lp342
S'offset_anim'
p343
a(lp344
VtranslateX
p345
aVtranslateY
p346
aVtranslateZ
p347
aVrotateX
p348
aVrotateY
p349
aVrotateZ
p350
aaF0
aF0
aF0
aF0
aF0
aF0
aa(lp351
S'root_anim'
p352
a(lp353
VtranslateX
p354
aVtranslateY
p355
aVtranslateZ
p356
aVrotateX
p357
aVrotateY
p358
aVrotateZ
p359
aaF0
aF0
aF0
aF0
aF0
aF0
aa(lp360
S'upperarm_l_twist_anim'
p361
a(lp362
VtranslateX
p363
aVtranslateY
p364
aVtranslateZ
p365
aVrotateX
p366
aVrotateY
p367
aVrotateZ
p368
aaF0
aF0
aF0
aF0
aF0
aF0
aa(lp369
S'upperarm_r_twist_anim'
p370
a(lp371
VtranslateX
p372
aVtranslateY
p373
aVtranslateZ
p374
aVrotateX
p375
aVrotateY
p376
aVrotateZ
p377
aaF0
aF0
aF0
aF46.691218181082888
aF0
aF0
aa(lp378
S'thigh_l_twist_anim'
p379
a(lp380
VtranslateX
p381
aVtranslateY
p382
aVtranslateZ
p383
aVrotateX
p384
aVrotateY
p385
aVrotateZ
p386
aaF0
aF0
aF0
aF0
aF0
aF0
aa(lp387
S'thigh_r_twist_anim'
p388
a(lp389
VtranslateX
p390
aVtranslateY
p391
aVtranslateZ
p392
aVrotateX
p393
aVrotateY
p394
aVrotateZ
p395
aaF0
aF0
aF0
aF0
aF0
aF0
aa(lp396
S'pinky_finger_fk_ctrl_1_l'
p397
a(lp398
VtranslateX
p399
aVtranslateY
p400
aVtranslateZ
p401
aVrotateX
p402
aVrotateY
p403
aVrotateZ
p404
aVsticky
p405
aaF0
aF0
aF0
aF3.6181988065001134
aF0.080393241934457974
aF14.778814499195095
aF0
aa(lp406
S'pinky_finger_fk_ctrl_1_r'
p407
a(lp408
VtranslateX
p409
aVtranslateY
p410
aVtranslateZ
p411
aVrotateX
p412
aVrotateY
p413
aVrotateZ
p414
aVsticky
p415
aaF0
aF0
aF0
aF2.101524856292726
aF-4.2780698836783824
aF-29.084025243292107
aF0
aa(lp416
S'pinky_finger_fk_ctrl_2_l'
p417
a(lp418
VtranslateX
p419
aVtranslateY
p420
aVtranslateZ
p421
aVrotateX
p422
aVrotateY
p423
aVrotateZ
p424
aaF0
aF0
aF0
aF1.6327369627444785
aF4.8269980899888925
aF-18.905434652934812
aa(lp425
S'pinky_finger_fk_ctrl_2_r'
p426
a(lp427
VtranslateX
p428
aVtranslateY
p429
aVtranslateZ
p430
aVrotateX
p431
aVrotateY
p432
aVrotateZ
p433
aaF0
aF0
aF0
aF0.40605290938421057
aF2.2308501223077344
aF13.499558197655503
aa(lp434
S'pinky_finger_fk_ctrl_3_l'
p435
a(lp436
VtranslateX
p437
aVtranslateY
p438
aVtranslateZ
p439
aVrotateX
p440
aVrotateY
p441
aVrotateZ
p442
aaF0
aF0
aF0
aF5.5633622443319428
aF2.9069504608321144
aF38.61315513596238
aa(lp443
S'pinky_finger_fk_ctrl_3_r'
p444
a(lp445
VtranslateX
p446
aVtranslateY
p447
aVtranslateZ
p448
aVrotateX
p449
aVrotateY
p450
aVrotateZ
p451
aaF0
aF0
aF0
aF7.9570922345300827
aF3.0217797402983138
aF51.029636541952563
aa(lp452
S'ring_finger_fk_ctrl_1_l'
p453
a(lp454
VtranslateX
p455
aVtranslateY
p456
aVtranslateZ
p457
aVrotateX
p458
aVrotateY
p459
aVrotateZ
p460
aVsticky
p461
aaF0
aF0
aF0
aF19.466141713063138
aF-2.2559749428815752
aF15.93603839239025
aF0
aa(lp462
S'ring_finger_fk_ctrl_1_r'
p463
a(lp464
VtranslateX
p465
aVtranslateY
p466
aVtranslateZ
p467
aVrotateX
p468
aVrotateY
p469
aVrotateZ
p470
aVsticky
p471
aaF0
aF0
aF0
aF-1.1269902251664909
aF0.0097156060301408966
aF-29.207936212807709
aF0
aa(lp472
S'ring_finger_fk_ctrl_2_l'
p473
a(lp474
VtranslateX
p475
aVtranslateY
p476
aVtranslateZ
p477
aVrotateX
p478
aVrotateY
p479
aVrotateZ
p480
aaF0
aF0
aF0
aF2.9867636858249886
aF1.1950814277843125
aF-23.640050211788711
aa(lp481
S'ring_finger_fk_ctrl_2_r'
p482
a(lp483
VtranslateX
p484
aVtranslateY
p485
aVtranslateZ
p486
aVrotateX
p487
aVrotateY
p488
aVrotateZ
p489
aaF0
aF0
aF0
aF0.88481925884584378
aF-0.41581470471110171
aF13.641975745618561
aa(lp490
S'ring_finger_fk_ctrl_3_l'
p491
a(lp492
VtranslateX
p493
aVtranslateY
p494
aVtranslateZ
p495
aVrotateX
p496
aVrotateY
p497
aVrotateZ
p498
aaF0
aF0
aF0
aF1.2183557042980724
aF14.088561442096768
aF34.283833383157351
aa(lp499
S'ring_finger_fk_ctrl_3_r'
p500
a(lp501
VtranslateX
p502
aVtranslateY
p503
aVtranslateZ
p504
aVrotateX
p505
aVrotateY
p506
aVrotateZ
p507
aaF0
aF0
aF0
aF2.4434436187059085
aF-2.5974182693385881
aF51.309378271411354
aa(lp508
S'middle_finger_fk_ctrl_1_l'
p509
a(lp510
VtranslateX
p511
aVtranslateY
p512
aVtranslateZ
p513
aVrotateX
p514
aVrotateY
p515
aVrotateZ
p516
aVsticky
p517
aaF0
aF0
aF0
aF-0.051275110943439756
aF3.0360173961979808
aF15.455665490358447
aF0
aa(lp518
S'middle_finger_fk_ctrl_1_r'
p519
a(lp520
VtranslateX
p521
aVtranslateY
p522
aVtranslateZ
p523
aVrotateX
p524
aVrotateY
p525
aVrotateZ
p526
aVsticky
p527
aaF0
aF0
aF0
aF-0.63651426014307311
aF7.2617985369606215
aF-27.94655387882753
aF0
aa(lp528
S'middle_finger_fk_ctrl_2_l'
p529
a(lp530
VtranslateX
p531
aVtranslateY
p532
aVtranslateZ
p533
aVrotateX
p534
aVrotateY
p535
aVrotateZ
p536
aaF0
aF0
aF0
aF-1.3704666605400857
aF-7.0843884315543324
aF-29.52200088460269
aa(lp537
S'middle_finger_fk_ctrl_2_r'
p538
a(lp539
VtranslateX
p540
aVtranslateY
p541
aVtranslateZ
p542
aVrotateX
p543
aVrotateY
p544
aVrotateZ
p545
aaF0
aF0
aF0
aF-0.29147953246954844
aF-3.7733141884713417
aF13.15808295235677
aa(lp546
S'middle_finger_fk_ctrl_3_l'
p547
a(lp548
VtranslateX
p549
aVtranslateY
p550
aVtranslateZ
p551
aVrotateX
p552
aVrotateY
p553
aVrotateZ
p554
aaF0
aF0
aF0
aF-1.4698658222636816
aF-4.8535418592829362
aF52.485940089331244
aa(lp555
S'middle_finger_fk_ctrl_3_r'
p556
a(lp557
VtranslateX
p558
aVtranslateY
p559
aVtranslateZ
p560
aVrotateX
p561
aVrotateY
p562
aVrotateZ
p563
aaF0
aF0
aF0
aF-4.0581148587854958
aF-8.6540044264057769
aF36.409155835011006
aa(lp564
S'index_finger_fk_ctrl_1_l'
p565
a(lp566
VtranslateX
p567
aVtranslateY
p568
aVtranslateZ
p569
aVrotateX
p570
aVrotateY
p571
aVrotateZ
p572
aVsticky
p573
aaF0
aF0
aF0
aF6.8829664122960379
aF3.0627991878443344
aF12.62993684851781
aF0
aa(lp574
S'index_finger_fk_ctrl_1_r'
p575
a(lp576
VtranslateX
p577
aVtranslateY
p578
aVtranslateZ
p579
aVrotateX
p580
aVrotateY
p581
aVrotateZ
p582
aVsticky
p583
aaF0
aF0
aF0
aF-0.045246162787240335
aF4.6261327412310722
aF-28.13217234425289
aF0
aa(lp584
S'index_finger_fk_ctrl_2_l'
p585
a(lp586
VtranslateX
p587
aVtranslateY
p588
aVtranslateZ
p589
aVrotateX
p590
aVrotateY
p591
aVrotateZ
p592
aaF0
aF0
aF0
aF1.1050145637957096
aF-4.0942771075063806
aF-11.038131984717198
aa(lp593
S'index_finger_fk_ctrl_2_r'
p594
a(lp595
VtranslateX
p596
aVtranslateY
p597
aVtranslateZ
p598
aVrotateX
p599
aVrotateY
p600
aVrotateZ
p601
aaF0
aF0
aF0
aF-0.52586112049734546
aF-2.0983155692359681
aF13.518321950708527
aa(lp602
S'index_finger_fk_ctrl_3_l'
p603
a(lp604
VtranslateX
p605
aVtranslateY
p606
aVtranslateZ
p607
aVrotateX
p608
aVrotateY
p609
aVrotateZ
p610
aaF0
aF0
aF0
aF-1.2324856604353152
aF7.3451893183428894
aF33.227548128807037
aa(lp611
S'index_finger_fk_ctrl_3_r'
p612
a(lp613
VtranslateX
p614
aVtranslateY
p615
aVtranslateZ
p616
aVrotateX
p617
aVrotateY
p618
aVrotateZ
p619
aaF0
aF0
aF0
aF-4.9222969664278127
aF-6.0328722296821988
aF51.187882994258906
aa(lp620
S'thumb_finger_fk_ctrl_1_l'
p621
a(lp622
VtranslateX
p623
aVtranslateY
p624
aVtranslateZ
p625
aVrotateX
p626
aVrotateY
p627
aVrotateZ
p628
aVsticky
p629
aaF0
aF0
aF0
aF0.75262015107439606
aF0.7588251084069616
aF0.46486911973667622
aF0
aa(lp630
S'thumb_finger_fk_ctrl_1_r'
p631
a(lp632
VtranslateX
p633
aVtranslateY
p634
aVtranslateZ
p635
aVrotateX
p636
aVrotateY
p637
aVrotateZ
p638
aVsticky
p639
aaF0
aF0
aF0
aF360.7532608644371
aF0.75863425838324827
aF0.46414897272680272
aF0
aa(lp640
S'thumb_finger_fk_ctrl_2_l'
p641
a(lp642
VtranslateX
p643
aVtranslateY
p644
aVtranslateZ
p645
aVrotateX
p646
aVrotateY
p647
aVrotateZ
p648
aaF0
aF0
aF0
aF0
aF0
aF0
aa(lp649
S'thumb_finger_fk_ctrl_2_r'
p650
a(lp651
VtranslateX
p652
aVtranslateY
p653
aVtranslateZ
p654
aVrotateX
p655
aVrotateY
p656
aVrotateZ
p657
aaF0
aF0
aF0
aF360.00000000000006
aF0
aF0
aa(lp658
S'thumb_finger_fk_ctrl_3_l'
p659
a(lp660
VtranslateX
p661
aVtranslateY
p662
aVtranslateZ
p663
aVrotateX
p664
aVrotateY
p665
aVrotateZ
p666
aaF0
aF0
aF0
aF0
aF0
aF0
aa(lp667
S'thumb_finger_fk_ctrl_3_r'
p668
a(lp669
VtranslateX
p670
aVtranslateY
p671
aVtranslateZ
p672
aVrotateX
p673
aVrotateY
p674
aVrotateZ
p675
aaF0
aF0
aF0
aF0
aF0
aF0
aa(lp676
S'index_l_ik_anim'
p677
a(lp678
VtranslateX
p679
aVtranslateY
p680
aVtranslateZ
p681
aVrotateX
p682
aVrotateY
p683
aVrotateZ
p684
aVpoleVectorVis
p685
aaF0
aF0
aF0
aF0
aF0
aF0
aF0
aa(lp686
S'index_r_ik_anim'
p687
a(lp688
VtranslateX
p689
aVtranslateY
p690
aVtranslateZ
p691
aVrotateX
p692
aVrotateY
p693
aVrotateZ
p694
aVpoleVectorVis
p695
aaF0
aF0
aF0
aF0
aF0
aF0
aF0
aa(lp696
S'middle_l_ik_anim'
p697
a(lp698
VtranslateX
p699
aVtranslateY
p700
aVtranslateZ
p701
aVrotateX
p702
aVrotateY
p703
aVrotateZ
p704
aVpoleVectorVis
p705
aaF0
aF0
aF0
aF0
aF0
aF0
aF0
aa(lp706
S'middle_r_ik_anim'
p707
a(lp708
VtranslateX
p709
aVtranslateY
p710
aVtranslateZ
p711
aVrotateX
p712
aVrotateY
p713
aVrotateZ
p714
aVpoleVectorVis
p715
aaF0
aF0
aF0
aF0
aF0
aF0
aF0
aa(lp716
S'ring_l_ik_anim'
p717
a(lp718
VtranslateX
p719
aVtranslateY
p720
aVtranslateZ
p721
aVrotateX
p722
aVrotateY
p723
aVrotateZ
p724
aVpoleVectorVis
p725
aaF0
aF0
aF0
aF0
aF0
aF0
aF0
aa(lp726
S'ring_r_ik_anim'
p727
a(lp728
VtranslateX
p729
aVtranslateY
p730
aVtranslateZ
p731
aVrotateX
p732
aVrotateY
p733
aVrotateZ
p734
aVpoleVectorVis
p735
aaF0
aF0
aF0
aF0
aF0
aF0
aF0
aa(lp736
S'pinky_l_ik_anim'
p737
a(lp738
VtranslateX
p739
aVtranslateY
p740
aVtranslateZ
p741
aVrotateX
p742
aVrotateY
p743
aVrotateZ
p744
aVpoleVectorVis
p745
aaF0
aF0
aF0
aF0
aF0
aF0
aF0
aa(lp746
S'pinky_r_ik_anim'
p747
a(lp748
VtranslateX
p749
aVtranslateY
p750
aVtranslateZ
p751
aVrotateX
p752
aVrotateY
p753
aVrotateZ
p754
aVpoleVectorVis
p755
aaF0
aF0
aF0
aF0
aF0
aF0
aF0
aa(lp756
S'thumb_l_ik_anim'
p757
a(lp758
VtranslateX
p759
aVtranslateY
p760
aVtranslateZ
p761
aVrotateX
p762
aVrotateY
p763
aVrotateZ
p764
aVpoleVectorVis
p765
aaF0
aF0
aF0
aF0
aF0
aF0
aF0
aa(lp766
S'thumb_r_ik_anim'
p767
a(lp768
VtranslateX
p769
aVtranslateY
p770
aVtranslateZ
p771
aVrotateX
p772
aVrotateY
p773
aVrotateZ
p774
aVpoleVectorVis
p775
aaF0
aF0
aF0
aF0
aF0
aF0
aF0
aa(lp776
S'index_l_poleVector'
p777
a(lp778
VtranslateX
p779
aVtranslateY
p780
aVtranslateZ
p781
aVrotateX
p782
aVrotateY
p783
aVrotateZ
p784
aaF0
aF0
aF0
aF0
aF0
aF0
aa(lp785
S'index_r_poleVector'
p786
a(lp787
VtranslateX
p788
aVtranslateY
p789
aVtranslateZ
p790
aVrotateX
p791
aVrotateY
p792
aVrotateZ
p793
aaF0
aF0
aF0
aF0
aF0
aF0
aa(lp794
S'middle_l_poleVector'
p795
a(lp796
VtranslateX
p797
aVtranslateY
p798
aVtranslateZ
p799
aVrotateX
p800
aVrotateY
p801
aVrotateZ
p802
aaF0
aF0
aF0
aF0
aF0
aF0
aa(lp803
S'middle_r_poleVector'
p804
a(lp805
VtranslateX
p806
aVtranslateY
p807
aVtranslateZ
p808
aVrotateX
p809
aVrotateY
p810
aVrotateZ
p811
aaF0
aF0
aF0
aF0
aF0
aF0
aa(lp812
S'ring_l_poleVector'
p813
a(lp814
VtranslateX
p815
aVtranslateY
p816
aVtranslateZ
p817
aVrotateX
p818
aVrotateY
p819
aVrotateZ
p820
aaF0
aF0
aF0
aF0
aF0
aF0
aa(lp821
S'ring_r_poleVector'
p822
a(lp823
VtranslateX
p824
aVtranslateY
p825
aVtranslateZ
p826
aVrotateX
p827
aVrotateY
p828
aVrotateZ
p829
aaF0
aF0
aF0
aF0
aF0
aF0
aa(lp830
S'pinky_l_poleVector'
p831
a(lp832
VtranslateX
p833
aVtranslateY
p834
aVtranslateZ
p835
aVrotateX
p836
aVrotateY
p837
aVrotateZ
p838
aaF0
aF0
aF0
aF0
aF0
aF0
aa(lp839
S'pinky_r_poleVector'
p840
a(lp841
VtranslateX
p842
aVtranslateY
p843
aVtranslateZ
p844
aVrotateX
p845
aVrotateY
p846
aVrotateZ
p847
aaF0
aF0
aF0
aF0
aF0
aF0
aa(lp848
S'thumb_l_poleVector'
p849
a(lp850
VtranslateX
p851
aVtranslateY
p852
aVtranslateZ
p853
aVrotateX
p854
aVrotateY
p855
aVrotateZ
p856
aaF0
aF0
aF0
aF0
aF0
aF0
aa(lp857
S'thumb_r_poleVector'
p858
a(lp859
VtranslateX
p860
aVtranslateY
p861
aVtranslateZ
p862
aVrotateX
p863
aVrotateY
p864
aVrotateZ
p865
aaF0
aF0
aF0
aF0
aF0
aF0
aa(lp866
S'l_global_ik_anim'
p867
a(lp868
VtranslateX
p869
aVtranslateY
p870
aVtranslateZ
p871
aVrotateX
p872
aVrotateY
p873
aVrotateZ
p874
aaF0
aF0
aF0
aF0
aF0
aF0
aa(lp875
S'r_global_ik_anim'
p876
a(lp877
VtranslateX
p878
aVtranslateY
p879
aVtranslateZ
p880
aVrotateX
p881
aVrotateY
p882
aVrotateZ
p883
aaF0
aF0
aF0
aF0
aF0
aF0
aa(lp884
S'Rig_Settings'
p885
a(lp886
Vspine_ik
p887
aVspine_fk
p888
aVlLegMode
p889
aVlThighTwistAmount
p890
aVlCalfTwistAmount
p891
aVrLegMode
p892
aVrThighTwistAmount
p893
aVrCalfTwistAmount
p894
aVlFkArmOrient
p895
aVrFkArmOrient
p896
aVlArmMode
p897
aVlUpperarmTwistAmount
p898
aVlForearmTwistAmount
p899
aVrArmMode
p900
aVrUpperarmTwistAmount
p901
aVrForearmTwistAmount
p902
aVhood_fk
p903
aVhood_ik
p904
aVhood_dynamic
p905
aaF0
aF1
aI1
aF0.90000000000000002
aF0.5
aI1
aF0.90000000000000002
aF0.5
aI0
aI0
aI1
aF0.90000000000000002
aF0.5
aI1
aF0.90000000000000002
aF0.5
aF1
aF0
aF0
aa(lp906
Vjaw_anim
p907
a(lp908
VtranslateX
p909
aVtranslateY
p910
aVtranslateZ
p911
aVrotateX
p912
aVrotateY
p913
aVrotateZ
p914
aVscaleX
p915
aVscaleY
p916
aVscaleZ
p917
aaF-0.96238093850074335
aF1.2572561050335906
aF-0.065820245440569636
aF6.4414154843638647
aF-1.559889539036122
aF-20.298272021816615
aF1.0000000000000002
aF1.0000000000000002
aF1.0000000000000002
aa(lp918
Vhood_dyn_anim
p919
a(lp920
VtranslateX
p921
aVtranslateY
p922
aVtranslateZ
p923
aVrotateX
p924
aVrotateY
p925
aVrotateZ
p926
aVchainAttach
p927
aVchainStartEnvelope
p928
aVchainStartFrame
p929
aVchainStiffness
p930
aVchainDamping
p931
aVchainGravity
p932
aVchainIteration
p933
aVchainCollide
p934
aVchainWidthBase
p935
aVchainWidthExtremity
p936
aVchainCollideGround
p937
aVchainCollideGroundHeight
p938
aaF0
aF0
aF0
aF0
aF0
aF0
aI1
aF1
aF1
aF0.050000000000000003
aF0.25
aF5
aI5
aI00
aF1
aF1
aI00
aF0
aa(lp939
Vhood_ik_2_anim
p940
a(lp941
VtranslateX
p942
aVtranslateY
p943
aVtranslateZ
p944
aVrotateX
p945
aVrotateY
p946
aVrotateZ
p947
aaF-4.2351647362715017e-22
aF0
aF0
aF7.9513867036587899e-16
aF4.7393957994334638e-23
aF-3.791516639546771e-22
aa(lp948
Vhood_ik_3_anim
p949
a(lp950
VtranslateX
p951
aVtranslateY
p952
aVtranslateZ
p953
aVrotateX
p954
aVrotateY
p955
aVrotateZ
p956
aVclusterControlVis
p957
aaF8.4703294725430034e-22
aF-2.8421709430404007e-14
aF0
aF7.9513867036587899e-16
aF4.7393957994334638e-23
aF-3.791516639546771e-22
aI00
aa(lp958
Vhood_ik_base_anim
p959
a(lp960
VtranslateX
p961
aVtranslateY
p962
aVtranslateZ
p963
aVrotateX
p964
aVrotateY
p965
aVrotateZ
p966
aVglobal_scale
p967
aaF0
aF-7.1054273576010019e-15
aF-2.8421709430404007e-14
aF0
aF-0
aF-2.843637479660079e-22
aF1
aa(lp968
Vfk_hood_01_anim
p969
a(lp970
VtranslateX
p971
aVtranslateY
p972
aVtranslateZ
p973
aVrotateX
p974
aVrotateY
p975
aVrotateZ
p976
aVglobal_scale
p977
aVlagMode
p978
aVblendOrient1
p979
aaF-0.38732203167154988
aF-0.54444156520839393
aF-9.6368243285708388
aF-25.131394996389059
aF0.41378590174106011
aF0.55104886776574902
aF1
aF0
aF0
aa(lp980
Vhood_cv_0_anim
p981
a(lp982
VtranslateX
p983
aVtranslateY
p984
aVtranslateZ
p985
aaF0
aF0
aF0
aa(lp986
Vfk_hood_02_anim
p987
a(lp988
VtranslateX
p989
aVtranslateY
p990
aVtranslateZ
p991
aVrotateX
p992
aVrotateY
p993
aVrotateZ
p994
aVblendOrient1
p995
aaF0
aF0
aF0
aF6.0576355799871653
aF0
aF0
aF1
aa(lp996
Vhood_cv_1_anim
p997
a(lp998
VtranslateX
p999
aVtranslateY
p1000
aVtranslateZ
p1001
aaF0
aF0
aF0
aa(lp1002
Vfk_hood_03_anim
p1003
a(lp1004
VtranslateX
p1005
aVtranslateY
p1006
aVtranslateZ
p1007
aVrotateX
p1008
aVrotateY
p1009
aVrotateZ
p1010
aVblendOrient1
p1011
aaF0
aF0
aF0
aF5.1158882538734627
aF0
aF0
aF1
aa(lp1012
Vhood_cv_2_anim
p1013
a(lp1014
VtranslateX
p1015
aVtranslateY
p1016
aVtranslateZ
p1017
aaF0
aF0
aF0
aa(lp1018
Vbody_anim_space_switcher
p1019
a(lp1020
Vvisibility
p1021
aVtranslateX
p1022
aVtranslateY
p1023
aVtranslateZ
p1024
aVrotateX
p1025
aVrotateY
p1026
aVrotateZ
p1027
aVscaleX
p1028
aVscaleY
p1029
aVscaleZ
p1030
aVspace_world
p1031
aaI01
aF0
aF0
aF0
aF0
aF0
aF0
aF1
aF1
aF1
aF0
aa(lp1032
Vchest_ik_anim_space_switcher
p1033
a(lp1034
Vvisibility
p1035
aVtranslateX
p1036
aVtranslateY
p1037
aVtranslateZ
p1038
aVrotateX
p1039
aVrotateY
p1040
aVrotateZ
p1041
aVscaleX
p1042
aVscaleY
p1043
aVscaleZ
p1044
aVspace_world
p1045
aVspace_chest_ik_world_aligned
p1046
aaI01
aF-1.4210854715202004e-14
aF-1.4210854715202004e-14
aF4.4408920985006262e-15
aF-4.2937488199757481e-14
aF9.342879376799085e-15
aF5.168401357378212e-15
aF0.99999999999999989
aF1
aF1
aF0
aF0
aa(lp1047
Vik_elbow_l_anim_space_switcher
p1048
a(lp1049
Vvisibility
p1050
aVtranslateX
p1051
aVtranslateY
p1052
aVtranslateZ
p1053
aVrotateX
p1054
aVrotateY
p1055
aVrotateZ
p1056
aVscaleX
p1057
aVscaleY
p1058
aVscaleZ
p1059
aVspace_world
p1060
aVspace_body_anim
p1061
aVspace_chest_ik_anim
p1062
aaI01
aF0
aF0
aF0
aF0
aF0
aF0
aF1
aF1
aF1
aF0
aF0
aF0
aa(lp1063
Vik_elbow_r_anim_space_switcher
p1064
a(lp1065
Vvisibility
p1066
aVtranslateX
p1067
aVtranslateY
p1068
aVtranslateZ
p1069
aVrotateX
p1070
aVrotateY
p1071
aVrotateZ
p1072
aVscaleX
p1073
aVscaleY
p1074
aVscaleZ
p1075
aVspace_world
p1076
aVspace_body_anim
p1077
aVspace_chest_ik_anim
p1078
aaI01
aF0
aF0
aF0
aF0
aF0
aF0
aF1
aF1
aF1
aF0
aF0
aF0
aa(lp1079
Vik_foot_anim_l_space_switcher
p1080
a(lp1081
Vvisibility
p1082
aVtranslateX
p1083
aVtranslateY
p1084
aVtranslateZ
p1085
aVrotateX
p1086
aVrotateY
p1087
aVrotateZ
p1088
aVscaleX
p1089
aVscaleY
p1090
aVscaleZ
p1091
aVspace_world
p1092
aVspace_body_anim
p1093
aaI01
aF0
aF0
aF0
aF0
aF0
aF0
aF1
aF1
aF1
aF0
aF0
aa(lp1094
Vik_foot_anim_r_space_switcher
p1095
a(lp1096
Vvisibility
p1097
aVtranslateX
p1098
aVtranslateY
p1099
aVtranslateZ
p1100
aVrotateX
p1101
aVrotateY
p1102
aVrotateZ
p1103
aVscaleX
p1104
aVscaleY
p1105
aVscaleZ
p1106
aVspace_world
p1107
aVspace_body_anim
p1108
aaI01
aF0
aF0
aF0
aF0
aF0
aF0
aF1
aF1
aF1
aF0
aF0
aa(lp1109
Vik_wrist_l_anim_space_switcher
p1110
a(lp1111
Vvisibility
p1112
aVtranslateX
p1113
aVtranslateY
p1114
aVtranslateZ
p1115
aVrotateX
p1116
aVrotateY
p1117
aVrotateZ
p1118
aVscaleX
p1119
aVscaleY
p1120
aVscaleZ
p1121
aVspace_world
p1122
aVspace_body_anim
p1123
aVspace_head_fk_anim
p1124
aVspace_chest_ik_anim
p1125
aaI01
aF0
aF0
aF0
aF0
aF0
aF0
aF1
aF1
aF1
aF0
aF0
aF0
aF0
aa(lp1126
Vik_wrist_r_anim_space_switcher
p1127
a(lp1128
Vvisibility
p1129
aVtranslateX
p1130
aVtranslateY
p1131
aVtranslateZ
p1132
aVrotateX
p1133
aVrotateY
p1134
aVrotateZ
p1135
aVscaleX
p1136
aVscaleY
p1137
aVscaleZ
p1138
aVspace_world
p1139
aVspace_body_anim
p1140
aVspace_head_fk_anim
p1141
aVspace_chest_ik_anim
p1142
aaI01
aF0
aF0
aF0
aF0
aF0
aF0
aF1
aF1
aF1
aF0
aF0
aF0
aF0
aa(lp1143
Vjaw_space_switcher
p1144
a(lp1145
Vvisibility
p1146
aVtranslateX
p1147
aVtranslateY
p1148
aVtranslateZ
p1149
aVrotateX
p1150
aVrotateY
p1151
aVrotateZ
p1152
aVscaleX
p1153
aVscaleY
p1154
aVscaleZ
p1155
aVspace_world
p1156
aaI01
aF-8.5265128291212022e-14
aF-2.8421709430404007e-14
aF-7.1054273576010019e-15
aF9.5416640443905535e-15
aF9.5416640443905471e-15
aF2.8624992133171654e-14
aF1
aF1.0000000000000002
aF1.0000000000000002
aF0
aa(lp1157
Vl_global_ik_anim_space_switcher
p1158
a(lp1159
Vvisibility
p1160
aVtranslateX
p1161
aVtranslateY
p1162
aVtranslateZ
p1163
aVrotateX
p1164
aVrotateY
p1165
aVrotateZ
p1166
aVscaleX
p1167
aVscaleY
p1168
aVscaleZ
p1169
aVspace_world
p1170
aaI01
aF4.2632564145606011e-14
aF-5.6843418860808015e-14
aF8.8817841970012523e-15
aF6.3611093629270351e-15
aF6.3611093629270335e-15
aF1.9083328088781101e-14
aF1
aF1
aF1
aF0
aa(lp1171
Vmaster_anim_space_switcher
p1172
a(lp1173
Vvisibility
p1174
aVtranslateX
p1175
aVtranslateY
p1176
aVtranslateZ
p1177
aVrotateX
p1178
aVrotateY
p1179
aVrotateZ
p1180
aVscaleX
p1181
aVscaleY
p1182
aVscaleZ
p1183
aVspace_world
p1184
aaI01
aF0
aF0
aF0
aF0
aF0
aF0
aF1
aF1
aF1
aF0
aa(lp1185
Vr_global_ik_anim_space_switcher
p1186
a(lp1187
Vvisibility
p1188
aVtranslateX
p1189
aVtranslateY
p1190
aVtranslateZ
p1191
aVrotateX
p1192
aVrotateY
p1193
aVrotateZ
p1194
aVscaleX
p1195
aVscaleY
p1196
aVscaleZ
p1197
aVspace_world
p1198
aaI01
aF-3.5527136788005009e-14
aF-1.4210854715202004e-14
aF7.9936057773011271e-15
aF6.3611093629270335e-15
aF-6.3611093629270335e-15
aF6.3611093629270335e-15
aF1
aF1
aF1
aF0
aa(lp1199
Vspine_01_space_switcher
p1200
a(lp1201
Vvisibility
p1202
aVtranslateX
p1203
aVtranslateY
p1204
aVtranslateZ
p1205
aVrotateX
p1206
aVrotateY
p1207
aVrotateZ
p1208
aVscaleX
p1209
aVscaleY
p1210
aVscaleZ
p1211
aVspace_world
p1212
aaI01
aF0
aF-7.1054273576010019e-15
aF-4.4408920985006262e-15
aF6.3611093629270351e-15
aF5.1684013573782128e-15
aF4.2142349529391595e-14
aF1
aF1
aF1
aF0
aa.