(lp1
(lp2
S'head_fk_anim'
p3
a(lp4
VtranslateX
p5
aVtranslateY
p6
aVtranslateZ
p7
aVrotateX
p8
aVrotateY
p9
aVrotateZ
p10
aVscaleX
p11
aVscaleY
p12
aVscaleZ
p13
aVfkOrientation
p14
aaF0
aF0
aF0
aF-9.6180111172124558
aF20.951119552350267
aF-4.8774949239363874
aF1
aF1
aF1
aI0
aa(lp15
S'neck_01_fk_anim'
p16
a(lp17
VtranslateX
p18
aVtranslateY
p19
aVtranslateZ
p20
aVrotateX
p21
aVrotateY
p22
aVrotateZ
p23
aVscaleX
p24
aVscaleY
p25
aVscaleZ
p26
aVfkOrientation
p27
aaF0
aF0
aF0
aF3.1795092523092667
aF12.037113838144458
aF31.340609836916034
aF1
aF1
aF0.99999999999999989
aI0
aa(lp28
S'spine_01_anim'
p29
a(lp30
Vlength
p31
aVtranslateY
p32
aVtranslateZ
p33
aVrotateX
p34
aVrotateY
p35
aVrotateZ
p36
aaF0
aF0
aF0
aF-2.2100096881483302
aF-5.3603821322045331
aF-7.038248255903337
aa(lp37
S'spine_02_anim'
p38
a(lp39
Vlength
p40
aVtranslateY
p41
aVtranslateZ
p42
aVrotateX
p43
aVrotateY
p44
aVrotateZ
p45
aaF0
aF0
aF0
aF4.2721362459621064
aF-2.7625931988745753
aF-38.949321534813443
aa(lp46
S'spine_03_anim'
p47
a(lp48
Vlength
p49
aVtranslateY
p50
aVtranslateZ
p51
aVrotateX
p52
aVrotateY
p53
aVrotateZ
p54
aaF0
aF0
aF0
aF6.2270383795883912
aF0.5271676181350361
aF-22.403711119382294
aa(lp55
S'mid_ik_anim'
p56
a(lp57
VtranslateX
p58
aVtranslateY
p59
aVtranslateZ
p60
aVrotateX
p61
aVrotateY
p62
aVrotateZ
p63
aaF0.2096210819172768
aF-2.2357427864624895
aF1.2311334602729778
aF1.9700216614842485
aF-8.2793335651968629
aF-40.941913490405568
aa(lp64
S'chest_ik_anim'
p65
a(lp66
VtranslateX
p67
aVtranslateY
p68
aVtranslateZ
p69
aVrotateX
p70
aVrotateY
p71
aVrotateZ
p72
aVstretch
p73
aVsquash
p74
aVtwist_amount
p75
aVspine_01_twistAmount
p76
aVspine_02_twistAmount
p77
aVautoSpine
p78
aVrotationInfluence
p79
aaF-1.1265223953897419
aF-9.4749970628452047
aF5.243467203990698
aF-7.4413560427199235
aF-6.360619834102649
aF-51.413249840692565
aF0
aF0
aF1
aF0.33333333333333331
aF0.66666666666666663
aF0
aF0.25
aa(lp80
S'body_anim'
p81
a(lp82
VtranslateX
p83
aVtranslateY
p84
aVtranslateZ
p85
aVrotateX
p86
aVrotateY
p87
aVrotateZ
p88
aaF-9.2336637105554296
aF0.57000017739091857
aF-1.9101835802350657
aF-16.459614353996724
aF4.1032404675912346
aF9.753065973135552
aa(lp89
S'hip_anim'
p90
a(lp91
VtranslateX
p92
aVtranslateY
p93
aVtranslateZ
p94
aVrotateX
p95
aVrotateY
p96
aVrotateZ
p97
aVlTwistCtrlVis
p98
aVlCalfTwistCtrlVis
p99
aVrTwistCtrlVis
p100
aVrCalfTwistCtrlVis
p101
aVautoHips
p102
aaF0
aF0
aF0
aF0
aF0
aF0
aI00
aI00
aI00
aI00
aF0
aa(lp103
S'clavicle_l_anim'
p104
a(lp105
VtranslateX
p106
aVtranslateY
p107
aVtranslateZ
p108
aVautoShoulders
p109
aaF0
aF-5
aF-2.6828358133347336
aF0
aa(lp110
S'clavicle_r_anim'
p111
a(lp112
VtranslateX
p113
aVtranslateY
p114
aVtranslateZ
p115
aVautoShoulders
p116
aaF0
aF-5
aF0.11017485417919817
aF0
aa(lp117
S'fk_arm_l_anim'
p118
a(lp119
VtranslateX
p120
aVtranslateY
p121
aVtranslateZ
p122
aVrotateX
p123
aVrotateY
p124
aVrotateZ
p125
aaF0
aF0
aF0
aF-37.138522007117203
aF65.485022952929981
aF-46.703171747493357
aa(lp126
S'fk_arm_r_anim'
p127
a(lp128
VtranslateX
p129
aVtranslateY
p130
aVtranslateZ
p131
aVrotateX
p132
aVrotateY
p133
aVrotateZ
p134
aaF0
aF0
aF0
aF-60.022856997037742
aF8.5562468634780178
aF-48.855570903855671
aa(lp135
S'fk_elbow_l_anim'
p136
a(lp137
VtranslateX
p138
aVtranslateY
p139
aVtranslateZ
p140
aVrotateX
p141
aVrotateY
p142
aVrotateZ
p143
aaF0
aF0
aF0
aF0.86118353086757182
aF-4.9696166897867449e-17
aF-118.97292843107623
aa(lp144
S'fk_elbow_r_anim'
p145
a(lp146
VtranslateX
p147
aVtranslateY
p148
aVtranslateZ
p149
aVrotateX
p150
aVrotateY
p151
aVrotateZ
p152
aaF0
aF0
aF0
aF1.0071636201610172
aF-2.9335055638939019e-05
aF-123.87957557497661
aa(lp153
S'fk_wrist_l_anim'
p154
a(lp155
VtranslateX
p156
aVtranslateY
p157
aVtranslateZ
p158
aVrotateX
p159
aVrotateY
p160
aVrotateZ
p161
aaF0
aF0
aF0
aF39.539866538078201
aF37.211025737060098
aF-28.690764578237349
aa(lp162
S'fk_wrist_r_anim'
p163
a(lp164
VtranslateX
p165
aVtranslateY
p166
aVtranslateZ
p167
aVrotateX
p168
aVrotateY
p169
aVrotateZ
p170
aaF0
aF0
aF0
aF15.526408521176274
aF-23.85362687476524
aF6.816058024750876
aa(lp171
S'ik_elbow_l_anim'
p172
a(lp173
VtranslateX
p174
aVtranslateY
p175
aVtranslateZ
p176
aaF-15.616067383195087
aF-14.387287081026315
aF-34.803296247465184
aa(lp177
S'ik_elbow_r_anim'
p178
a(lp179
VtranslateX
p180
aVtranslateY
p181
aVtranslateZ
p182
aaF9.8053797382299237
aF-35.187842484125909
aF-38.400504966349502
aa(lp183
S'ik_wrist_l_anim'
p184
a(lp185
VtranslateX
p186
aVtranslateY
p187
aVtranslateZ
p188
aVrotateX
p189
aVrotateY
p190
aVrotateZ
p191
aVstretch
p192
aVsquash
p193
aVside
p194
aVmid_bend
p195
aVmid_swivel
p196
aVtip_pivot
p197
aVtip_swivel
p198
aaF-47.631548311578356
aF-23.583251709020537
aF-40.910855805430245
aF-28.836624818016364
aF-28.440617640957544
aF-96.787507307772657
aF0
aF0
aF0
aF0
aF0
aF0
aF0
aa(lp199
S'ik_wrist_r_anim'
p200
a(lp201
VtranslateX
p202
aVtranslateY
p203
aVtranslateZ
p204
aVrotateX
p205
aVrotateY
p206
aVrotateZ
p207
aVstretch
p208
aVsquash
p209
aVside
p210
aVmid_bend
p211
aVmid_swivel
p212
aVtip_pivot
p213
aVtip_swivel
p214
aaF43.139939464640975
aF-40.088453778320059
aF-25.788915085125069
aF-27.502330579737645
aF11.817748747540501
aF108.25595900773557
aF0
aF0
aF0
aF0
aF0
aF0
aF0
aa(lp215
S'fk_thigh_l_anim'
p216
a(lp217
VrotateX
p218
aVrotateY
p219
aVrotateZ
p220
aaF-180
aF179.99999999999994
aF179.99999999999997
aa(lp221
S'fk_thigh_r_anim'
p222
a(lp223
VrotateX
p224
aVrotateY
p225
aVrotateZ
p226
aaF0
aF0
aF-360.00000000000006
aa(lp227
S'fk_calf_l_anim'
p228
a(lp229
VrotateX
p230
aVrotateY
p231
aVrotateZ
p232
aaF0
aF0
aF0
aa(lp233
S'fk_calf_r_anim'
p234
a(lp235
VrotateX
p236
aVrotateY
p237
aVrotateZ
p238
aaF0
aF0
aF0
aa(lp239
S'fk_foot_l_anim'
p240
a(lp241
VrotateX
p242
aVrotateY
p243
aVrotateZ
p244
aaF0
aF0
aF0
aa(lp245
S'fk_foot_r_anim'
p246
a(lp247
VrotateX
p248
aVrotateY
p249
aVrotateZ
p250
aaF0
aF0
aF0
aa(lp251
S'fk_ball_l_anim'
p252
a(lp253
VrotateX
p254
aVrotateY
p255
aVrotateZ
p256
aaF0
aF0
aF0
aa(lp257
S'fk_ball_r_anim'
p258
a(lp259
VrotateX
p260
aVrotateY
p261
aVrotateZ
p262
aaF0
aF0
aF0
aa(lp263
S'ik_foot_anim_l'
p264
a(lp265
VtranslateX
p266
aVtranslateY
p267
aVtranslateZ
p268
aVrotateX
p269
aVrotateY
p270
aVrotateZ
p271
aVknee_twist
p272
aVstretch
p273
aVsquash
p274
aVtoeCtrlVis
p275
aaF1.72215005884647
aF-25.911849969048195
aF-3.595442006343319e-07
aF0
aF0
aF20
aF9.6000000000000014
aF0
aF0
aI00
aa(lp276
S'ik_foot_anim_r'
p277
a(lp278
VtranslateX
p279
aVtranslateY
p280
aVtranslateZ
p281
aVrotateX
p282
aVrotateY
p283
aVrotateZ
p284
aVknee_twist
p285
aVstretch
p286
aVsquash
p287
aVtoeCtrlVis
p288
aaF-3.3907923038514873
aF21.532580357014428
aF0.00020309193664402869
aF0
aF0
aF-43.357852645994086
aF25.409445513991976
aF0
aF0
aI00
aa(lp289
S'heel_ctrl_l'
p290
a(lp291
VrotateX
p292
aVrotateY
p293
aVrotateZ
p294
aVheelPivot
p295
aVballPivot
p296
aaF0
aF0
aF0
aF0
aF0
aa(lp297
S'heel_ctrl_r'
p298
a(lp299
VrotateX
p300
aVrotateY
p301
aVrotateZ
p302
aVheelPivot
p303
aVballPivot
p304
aaF-3.5792794589325774
aF16.141739245074358
aF-18.256059797079729
aF0
aF0
aa(lp305
S'toe_wiggle_ctrl_l'
p306
a(lp307
VrotateX
p308
aVrotateY
p309
aVrotateZ
p310
aaF0
aF0
aF0
aa(lp311
S'toe_wiggle_ctrl_r'
p312
a(lp313
VrotateX
p314
aVrotateY
p315
aVrotateZ
p316
aaF0
aF0
aF-4.0071232876079499
aa(lp317
S'toe_tip_ctrl_l'
p318
a(lp319
VrotateX
p320
aVrotateY
p321
aVrotateZ
p322
aaF0
aF0
aF0
aa(lp323
S'toe_tip_ctrl_r'
p324
a(lp325
VrotateX
p326
aVrotateY
p327
aVrotateZ
p328
aaF0
aF0
aF0
aa(lp329
S'master_anim'
p330
a(lp331
VtranslateX
p332
aVtranslateY
p333
aVtranslateZ
p334
aVrotateX
p335
aVrotateY
p336
aVrotateZ
p337
aaF0
aF0
aF0
aF0
aF0
aF0
aa(lp338
S'offset_anim'
p339
a(lp340
VtranslateX
p341
aVtranslateY
p342
aVtranslateZ
p343
aVrotateX
p344
aVrotateY
p345
aVrotateZ
p346
aaF0
aF0
aF0
aF0
aF0
aF0
aa(lp347
S'root_anim'
p348
a(lp349
VtranslateX
p350
aVtranslateY
p351
aVtranslateZ
p352
aVrotateX
p353
aVrotateY
p354
aVrotateZ
p355
aaF0
aF0
aF0
aF0
aF0
aF0
aa(lp356
S'upperarm_l_twist_anim'
p357
a(lp358
VtranslateX
p359
aVtranslateY
p360
aVtranslateZ
p361
aVrotateX
p362
aVrotateY
p363
aVrotateZ
p364
aVscaleX
p365
aVscaleY
p366
aVscaleZ
p367
aaF0
aF0
aF0
aF0
aF0
aF0
aF1
aF1
aF1
aa(lp368
S'upperarm_r_twist_anim'
p369
a(lp370
VtranslateX
p371
aVtranslateY
p372
aVtranslateZ
p373
aVrotateX
p374
aVrotateY
p375
aVrotateZ
p376
aVscaleX
p377
aVscaleY
p378
aVscaleZ
p379
aaF0
aF0
aF0
aF0.00021818108288662377
aF0
aF0
aF1
aF1
aF1
aa(lp380
S'thigh_l_twist_anim'
p381
a(lp382
VtranslateX
p383
aVtranslateY
p384
aVtranslateZ
p385
aVrotateX
p386
aVrotateY
p387
aVrotateZ
p388
aaF0
aF0
aF0
aF0
aF0
aF0
aa(lp389
S'thigh_r_twist_anim'
p390
a(lp391
VtranslateX
p392
aVtranslateY
p393
aVtranslateZ
p394
aVrotateX
p395
aVrotateY
p396
aVrotateZ
p397
aaF0
aF0
aF0
aF0
aF0
aF0
aa(lp398
S'pinky_finger_fk_ctrl_1_l'
p399
a(lp400
VtranslateX
p401
aVtranslateY
p402
aVtranslateZ
p403
aVrotateX
p404
aVrotateY
p405
aVrotateZ
p406
aVsticky
p407
aaF0
aF0
aF0
aF3.6181988065001134
aF0.080393241934457974
aF14.778814499195095
aF0
aa(lp408
S'pinky_finger_fk_ctrl_1_r'
p409
a(lp410
VtranslateX
p411
aVtranslateY
p412
aVtranslateZ
p413
aVrotateX
p414
aVrotateY
p415
aVrotateZ
p416
aVsticky
p417
aaF0
aF0
aF0
aF2.101524856292726
aF-4.2780698836783824
aF-29.084025243292107
aF0
aa(lp418
S'pinky_finger_fk_ctrl_2_l'
p419
a(lp420
VtranslateX
p421
aVtranslateY
p422
aVtranslateZ
p423
aVrotateX
p424
aVrotateY
p425
aVrotateZ
p426
aaF0
aF0
aF0
aF1.6327369627444785
aF4.8269980899888925
aF-18.905434652934812
aa(lp427
S'pinky_finger_fk_ctrl_2_r'
p428
a(lp429
VtranslateX
p430
aVtranslateY
p431
aVtranslateZ
p432
aVrotateX
p433
aVrotateY
p434
aVrotateZ
p435
aaF0
aF0
aF0
aF0.40605290938421057
aF2.2308501223077344
aF13.499558197655503
aa(lp436
S'pinky_finger_fk_ctrl_3_l'
p437
a(lp438
VtranslateX
p439
aVtranslateY
p440
aVtranslateZ
p441
aVrotateX
p442
aVrotateY
p443
aVrotateZ
p444
aaF0
aF0
aF0
aF5.5633622443319428
aF2.9069504608321144
aF38.61315513596238
aa(lp445
S'pinky_finger_fk_ctrl_3_r'
p446
a(lp447
VtranslateX
p448
aVtranslateY
p449
aVtranslateZ
p450
aVrotateX
p451
aVrotateY
p452
aVrotateZ
p453
aaF0
aF0
aF0
aF7.9570922345300827
aF3.0217797402983138
aF51.029636541952563
aa(lp454
S'ring_finger_fk_ctrl_1_l'
p455
a(lp456
VtranslateX
p457
aVtranslateY
p458
aVtranslateZ
p459
aVrotateX
p460
aVrotateY
p461
aVrotateZ
p462
aVsticky
p463
aaF0
aF0
aF0
aF19.466141713063138
aF-2.2559749428815752
aF15.93603839239025
aF0
aa(lp464
S'ring_finger_fk_ctrl_1_r'
p465
a(lp466
VtranslateX
p467
aVtranslateY
p468
aVtranslateZ
p469
aVrotateX
p470
aVrotateY
p471
aVrotateZ
p472
aVsticky
p473
aaF0
aF0
aF0
aF-1.1269902251664909
aF0.0097156060301408966
aF-29.207936212807709
aF0
aa(lp474
S'ring_finger_fk_ctrl_2_l'
p475
a(lp476
VtranslateX
p477
aVtranslateY
p478
aVtranslateZ
p479
aVrotateX
p480
aVrotateY
p481
aVrotateZ
p482
aaF0
aF0
aF0
aF2.9867636858249886
aF1.1950814277843125
aF-23.640050211788711
aa(lp483
S'ring_finger_fk_ctrl_2_r'
p484
a(lp485
VtranslateX
p486
aVtranslateY
p487
aVtranslateZ
p488
aVrotateX
p489
aVrotateY
p490
aVrotateZ
p491
aaF0
aF0
aF0
aF0.88481925884584378
aF-0.41581470471110171
aF13.641975745618561
aa(lp492
S'ring_finger_fk_ctrl_3_l'
p493
a(lp494
VtranslateX
p495
aVtranslateY
p496
aVtranslateZ
p497
aVrotateX
p498
aVrotateY
p499
aVrotateZ
p500
aaF0
aF0
aF0
aF1.2183557042980724
aF14.088561442096768
aF34.283833383157351
aa(lp501
S'ring_finger_fk_ctrl_3_r'
p502
a(lp503
VtranslateX
p504
aVtranslateY
p505
aVtranslateZ
p506
aVrotateX
p507
aVrotateY
p508
aVrotateZ
p509
aaF0
aF0
aF0
aF2.4434436187059085
aF-2.5974182693385881
aF51.309378271411354
aa(lp510
S'middle_finger_fk_ctrl_1_l'
p511
a(lp512
VtranslateX
p513
aVtranslateY
p514
aVtranslateZ
p515
aVrotateX
p516
aVrotateY
p517
aVrotateZ
p518
aVsticky
p519
aaF0
aF0
aF0
aF-0.051275110943439756
aF3.0360173961979808
aF15.455665490358447
aF0
aa(lp520
S'middle_finger_fk_ctrl_1_r'
p521
a(lp522
VtranslateX
p523
aVtranslateY
p524
aVtranslateZ
p525
aVrotateX
p526
aVrotateY
p527
aVrotateZ
p528
aVsticky
p529
aaF0
aF0
aF0
aF-0.63651426014307311
aF7.2617985369606215
aF-27.94655387882753
aF0
aa(lp530
S'middle_finger_fk_ctrl_2_l'
p531
a(lp532
VtranslateX
p533
aVtranslateY
p534
aVtranslateZ
p535
aVrotateX
p536
aVrotateY
p537
aVrotateZ
p538
aaF0
aF0
aF0
aF-1.3704666605400857
aF-7.0843884315543324
aF-29.52200088460269
aa(lp539
S'middle_finger_fk_ctrl_2_r'
p540
a(lp541
VtranslateX
p542
aVtranslateY
p543
aVtranslateZ
p544
aVrotateX
p545
aVrotateY
p546
aVrotateZ
p547
aaF0
aF0
aF0
aF-0.29147953246954844
aF-3.7733141884713417
aF13.15808295235677
aa(lp548
S'middle_finger_fk_ctrl_3_l'
p549
a(lp550
VtranslateX
p551
aVtranslateY
p552
aVtranslateZ
p553
aVrotateX
p554
aVrotateY
p555
aVrotateZ
p556
aaF0
aF0
aF0
aF-1.4698658222636816
aF-4.8535418592829362
aF52.485940089331244
aa(lp557
S'middle_finger_fk_ctrl_3_r'
p558
a(lp559
VtranslateX
p560
aVtranslateY
p561
aVtranslateZ
p562
aVrotateX
p563
aVrotateY
p564
aVrotateZ
p565
aaF0
aF0
aF0
aF-4.0581148587854958
aF-8.6540044264057769
aF36.409155835011006
aa(lp566
S'index_finger_fk_ctrl_1_l'
p567
a(lp568
VtranslateX
p569
aVtranslateY
p570
aVtranslateZ
p571
aVrotateX
p572
aVrotateY
p573
aVrotateZ
p574
aVsticky
p575
aaF0
aF0
aF0
aF6.8829664122960379
aF3.0627991878443344
aF12.62993684851781
aF0
aa(lp576
S'index_finger_fk_ctrl_1_r'
p577
a(lp578
VtranslateX
p579
aVtranslateY
p580
aVtranslateZ
p581
aVrotateX
p582
aVrotateY
p583
aVrotateZ
p584
aVsticky
p585
aaF0
aF0
aF0
aF-0.045246162787240335
aF4.6261327412310722
aF-28.13217234425289
aF0
aa(lp586
S'index_finger_fk_ctrl_2_l'
p587
a(lp588
VtranslateX
p589
aVtranslateY
p590
aVtranslateZ
p591
aVrotateX
p592
aVrotateY
p593
aVrotateZ
p594
aaF0
aF0
aF0
aF1.1050145637957096
aF-4.0942771075063806
aF-11.038131984717198
aa(lp595
S'index_finger_fk_ctrl_2_r'
p596
a(lp597
VtranslateX
p598
aVtranslateY
p599
aVtranslateZ
p600
aVrotateX
p601
aVrotateY
p602
aVrotateZ
p603
aaF0
aF0
aF0
aF-0.52586112049734546
aF-2.0983155692359681
aF13.518321950708527
aa(lp604
S'index_finger_fk_ctrl_3_l'
p605
a(lp606
VtranslateX
p607
aVtranslateY
p608
aVtranslateZ
p609
aVrotateX
p610
aVrotateY
p611
aVrotateZ
p612
aaF0
aF0
aF0
aF-1.2324856604353152
aF7.3451893183428894
aF33.227548128807037
aa(lp613
S'index_finger_fk_ctrl_3_r'
p614
a(lp615
VtranslateX
p616
aVtranslateY
p617
aVtranslateZ
p618
aVrotateX
p619
aVrotateY
p620
aVrotateZ
p621
aaF0
aF0
aF0
aF-4.9222969664278127
aF-6.0328722296821988
aF51.187882994258906
aa(lp622
S'thumb_finger_fk_ctrl_1_l'
p623
a(lp624
VtranslateX
p625
aVtranslateY
p626
aVtranslateZ
p627
aVrotateX
p628
aVrotateY
p629
aVrotateZ
p630
aVsticky
p631
aaF0
aF0
aF0
aF0.75262015107439606
aF0.7588251084069616
aF0.46486911973667622
aF0
aa(lp632
S'thumb_finger_fk_ctrl_1_r'
p633
a(lp634
VtranslateX
p635
aVtranslateY
p636
aVtranslateZ
p637
aVrotateX
p638
aVrotateY
p639
aVrotateZ
p640
aVsticky
p641
aaF0
aF0
aF0
aF360.7532608644371
aF0.75863425838324827
aF0.46414897272680272
aF0
aa(lp642
S'thumb_finger_fk_ctrl_2_l'
p643
a(lp644
VtranslateX
p645
aVtranslateY
p646
aVtranslateZ
p647
aVrotateX
p648
aVrotateY
p649
aVrotateZ
p650
aaF0
aF0
aF0
aF0
aF0
aF0
aa(lp651
S'thumb_finger_fk_ctrl_2_r'
p652
a(lp653
VtranslateX
p654
aVtranslateY
p655
aVtranslateZ
p656
aVrotateX
p657
aVrotateY
p658
aVrotateZ
p659
aaF0
aF0
aF0
aF360.00000000000006
aF0
aF0
aa(lp660
S'thumb_finger_fk_ctrl_3_l'
p661
a(lp662
VtranslateX
p663
aVtranslateY
p664
aVtranslateZ
p665
aVrotateX
p666
aVrotateY
p667
aVrotateZ
p668
aaF0
aF0
aF0
aF0
aF0
aF0
aa(lp669
S'thumb_finger_fk_ctrl_3_r'
p670
a(lp671
VtranslateX
p672
aVtranslateY
p673
aVtranslateZ
p674
aVrotateX
p675
aVrotateY
p676
aVrotateZ
p677
aaF0
aF0
aF0
aF0
aF0
aF0
aa(lp678
S'index_l_ik_anim'
p679
a(lp680
VtranslateX
p681
aVtranslateY
p682
aVtranslateZ
p683
aVrotateX
p684
aVrotateY
p685
aVrotateZ
p686
aVpoleVectorVis
p687
aaF0
aF0
aF0
aF0
aF0
aF0
aF0
aa(lp688
S'index_r_ik_anim'
p689
a(lp690
VtranslateX
p691
aVtranslateY
p692
aVtranslateZ
p693
aVrotateX
p694
aVrotateY
p695
aVrotateZ
p696
aVpoleVectorVis
p697
aaF0
aF0
aF0
aF0
aF0
aF0
aF0
aa(lp698
S'middle_l_ik_anim'
p699
a(lp700
VtranslateX
p701
aVtranslateY
p702
aVtranslateZ
p703
aVrotateX
p704
aVrotateY
p705
aVrotateZ
p706
aVpoleVectorVis
p707
aaF0
aF0
aF0
aF0
aF0
aF0
aF0
aa(lp708
S'middle_r_ik_anim'
p709
a(lp710
VtranslateX
p711
aVtranslateY
p712
aVtranslateZ
p713
aVrotateX
p714
aVrotateY
p715
aVrotateZ
p716
aVpoleVectorVis
p717
aaF0
aF0
aF0
aF0
aF0
aF0
aF0
aa(lp718
S'ring_l_ik_anim'
p719
a(lp720
VtranslateX
p721
aVtranslateY
p722
aVtranslateZ
p723
aVrotateX
p724
aVrotateY
p725
aVrotateZ
p726
aVpoleVectorVis
p727
aaF0
aF0
aF0
aF0
aF0
aF0
aF0
aa(lp728
S'ring_r_ik_anim'
p729
a(lp730
VtranslateX
p731
aVtranslateY
p732
aVtranslateZ
p733
aVrotateX
p734
aVrotateY
p735
aVrotateZ
p736
aVpoleVectorVis
p737
aaF0
aF0
aF0
aF0
aF0
aF0
aF0
aa(lp738
S'pinky_l_ik_anim'
p739
a(lp740
VtranslateX
p741
aVtranslateY
p742
aVtranslateZ
p743
aVrotateX
p744
aVrotateY
p745
aVrotateZ
p746
aVpoleVectorVis
p747
aaF0
aF0
aF0
aF0
aF0
aF0
aF0
aa(lp748
S'pinky_r_ik_anim'
p749
a(lp750
VtranslateX
p751
aVtranslateY
p752
aVtranslateZ
p753
aVrotateX
p754
aVrotateY
p755
aVrotateZ
p756
aVpoleVectorVis
p757
aaF0
aF0
aF0
aF0
aF0
aF0
aF0
aa(lp758
S'thumb_l_ik_anim'
p759
a(lp760
VtranslateX
p761
aVtranslateY
p762
aVtranslateZ
p763
aVrotateX
p764
aVrotateY
p765
aVrotateZ
p766
aVpoleVectorVis
p767
aaF0
aF0
aF0
aF0
aF0
aF0
aF0
aa(lp768
S'thumb_r_ik_anim'
p769
a(lp770
VtranslateX
p771
aVtranslateY
p772
aVtranslateZ
p773
aVrotateX
p774
aVrotateY
p775
aVrotateZ
p776
aVpoleVectorVis
p777
aaF0
aF0
aF0
aF0
aF0
aF0
aF0
aa(lp778
S'index_l_poleVector'
p779
a(lp780
VtranslateX
p781
aVtranslateY
p782
aVtranslateZ
p783
aVrotateX
p784
aVrotateY
p785
aVrotateZ
p786
aaF0
aF0
aF0
aF0
aF0
aF0
aa(lp787
S'index_r_poleVector'
p788
a(lp789
VtranslateX
p790
aVtranslateY
p791
aVtranslateZ
p792
aVrotateX
p793
aVrotateY
p794
aVrotateZ
p795
aaF0
aF0
aF0
aF0
aF0
aF0
aa(lp796
S'middle_l_poleVector'
p797
a(lp798
VtranslateX
p799
aVtranslateY
p800
aVtranslateZ
p801
aVrotateX
p802
aVrotateY
p803
aVrotateZ
p804
aaF0
aF0
aF0
aF0
aF0
aF0
aa(lp805
S'middle_r_poleVector'
p806
a(lp807
VtranslateX
p808
aVtranslateY
p809
aVtranslateZ
p810
aVrotateX
p811
aVrotateY
p812
aVrotateZ
p813
aaF0
aF0
aF0
aF0
aF0
aF0
aa(lp814
S'ring_l_poleVector'
p815
a(lp816
VtranslateX
p817
aVtranslateY
p818
aVtranslateZ
p819
aVrotateX
p820
aVrotateY
p821
aVrotateZ
p822
aaF0
aF0
aF0
aF0
aF0
aF0
aa(lp823
S'ring_r_poleVector'
p824
a(lp825
VtranslateX
p826
aVtranslateY
p827
aVtranslateZ
p828
aVrotateX
p829
aVrotateY
p830
aVrotateZ
p831
aaF0
aF0
aF0
aF0
aF0
aF0
aa(lp832
S'pinky_l_poleVector'
p833
a(lp834
VtranslateX
p835
aVtranslateY
p836
aVtranslateZ
p837
aVrotateX
p838
aVrotateY
p839
aVrotateZ
p840
aaF0
aF0
aF0
aF0
aF0
aF0
aa(lp841
S'pinky_r_poleVector'
p842
a(lp843
VtranslateX
p844
aVtranslateY
p845
aVtranslateZ
p846
aVrotateX
p847
aVrotateY
p848
aVrotateZ
p849
aaF0
aF0
aF0
aF0
aF0
aF0
aa(lp850
S'thumb_l_poleVector'
p851
a(lp852
VtranslateX
p853
aVtranslateY
p854
aVtranslateZ
p855
aVrotateX
p856
aVrotateY
p857
aVrotateZ
p858
aaF0
aF0
aF0
aF0
aF0
aF0
aa(lp859
S'thumb_r_poleVector'
p860
a(lp861
VtranslateX
p862
aVtranslateY
p863
aVtranslateZ
p864
aVrotateX
p865
aVrotateY
p866
aVrotateZ
p867
aaF0
aF0
aF0
aF0
aF0
aF0
aa(lp868
S'l_global_ik_anim'
p869
a(lp870
VtranslateX
p871
aVtranslateY
p872
aVtranslateZ
p873
aVrotateX
p874
aVrotateY
p875
aVrotateZ
p876
aaF0
aF0
aF0
aF0
aF0
aF0
aa(lp877
S'r_global_ik_anim'
p878
a(lp879
VtranslateX
p880
aVtranslateY
p881
aVtranslateZ
p882
aVrotateX
p883
aVrotateY
p884
aVrotateZ
p885
aaF0
aF0
aF0
aF0
aF0
aF0
aa(lp886
S'Rig_Settings'
p887
a(lp888
Vspine_ik
p889
aVspine_fk
p890
aVlLegMode
p891
aVlThighTwistAmount
p892
aVlCalfTwistAmount
p893
aVrLegMode
p894
aVrThighTwistAmount
p895
aVrCalfTwistAmount
p896
aVlFkArmOrient
p897
aVlArmMode
p898
aVlClavMode
p899
aVltwistCtrlVis
p900
aVlUpperarmTwistAmount
p901
aVlUpperarmTwist2Amount
p902
aVltwistCtrlVisLower
p903
aVlForearmTwistAmount
p904
aVlForearmTwist2Amount
p905
aVrFkArmOrient
p906
aVrArmMode
p907
aVrClavMode
p908
aVrtwistCtrlVis
p909
aVrUpperarmTwistAmount
p910
aVrUpperarmTwist2Amount
p911
aVrtwistCtrlVisLower
p912
aVrForearmTwistAmount
p913
aVrForearmTwist2Amount
p914
aVhood_fk
p915
aVhood_ik
p916
aVhood_dynamic
p917
aaF0
aF1
aI1
aF0.90000000000000002
aF0.5
aI1
aF0.90000000000000002
aF0.5
aI0
aI0
aI1
aI00
aF0.90000000000000002
aF0.5
aI00
aF0.5
aF0.5
aI0
aI0
aI1
aI00
aF0.90000000000000002
aF0.5
aI00
aF0.5
aF0.5
aF1
aF0
aF0
aa(lp918
Vjaw_anim
p919
a(lp920
VtranslateX
p921
aVtranslateY
p922
aVtranslateZ
p923
aVrotateX
p924
aVrotateY
p925
aVrotateZ
p926
aVscaleX
p927
aVscaleY
p928
aVscaleZ
p929
aaF-0.96238093850074335
aF1.2572561050335906
aF-0.065820245440569636
aF6.4414154843638647
aF-1.559889539036122
aF-20.298272021816615
aF1.0000000000000002
aF1.0000000000000002
aF1.0000000000000002
aa(lp930
Vhood_dyn_anim
p931
a(lp932
VtranslateX
p933
aVtranslateY
p934
aVtranslateZ
p935
aVrotateX
p936
aVrotateY
p937
aVrotateZ
p938
aVchainAttach
p939
aVchainStartEnvelope
p940
aVchainStartFrame
p941
aVchainStiffness
p942
aVchainDamping
p943
aVchainGravity
p944
aVchainIteration
p945
aVchainCollide
p946
aVchainWidthBase
p947
aVchainWidthExtremity
p948
aVchainCollideGround
p949
aVchainCollideGroundHeight
p950
aaF0
aF0
aF0
aF0
aF0
aF0
aI1
aF1
aF1
aF0.050000000000000003
aF0.25
aF5
aI5
aI00
aF1
aF1
aI00
aF0
aa(lp951
Vhood_ik_2_anim
p952
a(lp953
VtranslateX
p954
aVtranslateY
p955
aVtranslateZ
p956
aVrotateX
p957
aVrotateY
p958
aVrotateZ
p959
aaF-4.2351647362715017e-22
aF0
aF0
aF7.9513867036587899e-16
aF4.7393957994334638e-23
aF-3.791516639546771e-22
aa(lp960
Vhood_ik_3_anim
p961
a(lp962
VtranslateX
p963
aVtranslateY
p964
aVtranslateZ
p965
aVrotateX
p966
aVrotateY
p967
aVrotateZ
p968
aVclusterControlVis
p969
aaF8.4703294725430034e-22
aF-2.8421709430404007e-14
aF0
aF7.9513867036587899e-16
aF4.7393957994334638e-23
aF-3.791516639546771e-22
aI00
aa(lp970
Vhood_ik_base_anim
p971
a(lp972
VtranslateX
p973
aVtranslateY
p974
aVtranslateZ
p975
aVrotateX
p976
aVrotateY
p977
aVrotateZ
p978
aVglobal_scale
p979
aaF0
aF-7.1054273576010019e-15
aF-2.8421709430404007e-14
aF0
aF-0
aF-2.843637479660079e-22
aF1
aa(lp980
Vfk_hood_01_anim
p981
a(lp982
VtranslateX
p983
aVtranslateY
p984
aVtranslateZ
p985
aVrotateX
p986
aVrotateY
p987
aVrotateZ
p988
aVglobal_scale
p989
aVlagMode
p990
aaF-0.38732203167154988
aF-0.54444156520839393
aF-9.6368243285708388
aF-25.131394996389059
aF0.41378590174106011
aF0.55104886776574902
aF1
aF0
aa(lp991
Vhood_cv_0_anim
p992
a(lp993
VtranslateX
p994
aVtranslateY
p995
aVtranslateZ
p996
aaF0
aF0
aF0
aa(lp997
Vfk_hood_02_anim
p998
a(lp999
VtranslateX
p1000
aVtranslateY
p1001
aVtranslateZ
p1002
aVrotateX
p1003
aVrotateY
p1004
aVrotateZ
p1005
aaF0
aF0
aF0
aF6.0576355799871653
aF0
aF0
aa(lp1006
Vhood_cv_1_anim
p1007
a(lp1008
VtranslateX
p1009
aVtranslateY
p1010
aVtranslateZ
p1011
aaF0
aF0
aF0
aa(lp1012
Vfk_hood_03_anim
p1013
a(lp1014
VtranslateX
p1015
aVtranslateY
p1016
aVtranslateZ
p1017
aVrotateX
p1018
aVrotateY
p1019
aVrotateZ
p1020
aaF0
aF0
aF0
aF5.1158882538734627
aF0
aF0
aa(lp1021
Vhood_cv_2_anim
p1022
a(lp1023
VtranslateX
p1024
aVtranslateY
p1025
aVtranslateZ
p1026
aaF0
aF0
aF0
aa(lp1027
Vbody_anim_space_switcher
p1028
a(lp1029
Vvisibility
p1030
aVtranslateX
p1031
aVtranslateY
p1032
aVtranslateZ
p1033
aVrotateX
p1034
aVrotateY
p1035
aVrotateZ
p1036
aVscaleX
p1037
aVscaleY
p1038
aVscaleZ
p1039
aVspace_world
p1040
aaI01
aF0
aF0
aF0
aF0
aF0
aF0
aF1
aF1
aF1
aF0
aa(lp1041
Vchest_ik_anim_space_switcher
p1042
a(lp1043
Vvisibility
p1044
aVtranslateX
p1045
aVtranslateY
p1046
aVtranslateZ
p1047
aVrotateX
p1048
aVrotateY
p1049
aVrotateZ
p1050
aVscaleX
p1051
aVscaleY
p1052
aVscaleZ
p1053
aVspace_world
p1054
aVspace_chest_ik_world_aligned
p1055
aaI01
aF-1.4210854715202004e-14
aF-1.4210854715202004e-14
aF4.4408920985006262e-15
aF-4.2937488199757481e-14
aF9.342879376799085e-15
aF5.168401357378212e-15
aF0.99999999999999989
aF1
aF1
aF0
aF1
aa(lp1056
Vik_elbow_l_anim_space_switcher
p1057
a(lp1058
Vvisibility
p1059
aVtranslateX
p1060
aVtranslateY
p1061
aVtranslateZ
p1062
aVrotateX
p1063
aVrotateY
p1064
aVrotateZ
p1065
aVscaleX
p1066
aVscaleY
p1067
aVscaleZ
p1068
aVspace_world
p1069
aVspace_body_anim
p1070
aVspace_chest_ik_anim
p1071
aaI00
aF0
aF0
aF0
aF0
aF0
aF0
aF1
aF1
aF1
aF0
aF0
aF0
aa(lp1072
Vik_elbow_r_anim_space_switcher
p1073
a(lp1074
Vvisibility
p1075
aVtranslateX
p1076
aVtranslateY
p1077
aVtranslateZ
p1078
aVrotateX
p1079
aVrotateY
p1080
aVrotateZ
p1081
aVscaleX
p1082
aVscaleY
p1083
aVscaleZ
p1084
aVspace_world
p1085
aVspace_body_anim
p1086
aVspace_chest_ik_anim
p1087
aaI00
aF0
aF0
aF0
aF0
aF0
aF0
aF1
aF1
aF1
aF0
aF0
aF0
aa(lp1088
Vik_foot_anim_l_space_switcher
p1089
a(lp1090
Vvisibility
p1091
aVtranslateX
p1092
aVtranslateY
p1093
aVtranslateZ
p1094
aVrotateX
p1095
aVrotateY
p1096
aVrotateZ
p1097
aVscaleX
p1098
aVscaleY
p1099
aVscaleZ
p1100
aVspace_world
p1101
aVspace_body_anim
p1102
aaI01
aF0
aF0
aF0
aF0
aF0
aF0
aF1
aF1
aF1
aF0
aF0
aa(lp1103
Vik_foot_anim_r_space_switcher
p1104
a(lp1105
Vvisibility
p1106
aVtranslateX
p1107
aVtranslateY
p1108
aVtranslateZ
p1109
aVrotateX
p1110
aVrotateY
p1111
aVrotateZ
p1112
aVscaleX
p1113
aVscaleY
p1114
aVscaleZ
p1115
aVspace_world
p1116
aVspace_body_anim
p1117
aaI01
aF0
aF0
aF0
aF0
aF0
aF0
aF1
aF1
aF1
aF0
aF0
aa(lp1118
Vik_wrist_l_anim_space_switcher
p1119
a(lp1120
Vvisibility
p1121
aVtranslateX
p1122
aVtranslateY
p1123
aVtranslateZ
p1124
aVrotateX
p1125
aVrotateY
p1126
aVrotateZ
p1127
aVscaleX
p1128
aVscaleY
p1129
aVscaleZ
p1130
aVspace_world
p1131
aVspace_body_anim
p1132
aVspace_head_fk_anim
p1133
aVspace_chest_ik_anim
p1134
aaI00
aF0
aF0
aF0
aF0
aF0
aF0
aF1
aF1
aF1
aF0
aF0
aF0
aF0
aa(lp1135
Vik_wrist_r_anim_space_switcher
p1136
a(lp1137
Vvisibility
p1138
aVtranslateX
p1139
aVtranslateY
p1140
aVtranslateZ
p1141
aVrotateX
p1142
aVrotateY
p1143
aVrotateZ
p1144
aVscaleX
p1145
aVscaleY
p1146
aVscaleZ
p1147
aVspace_world
p1148
aVspace_body_anim
p1149
aVspace_head_fk_anim
p1150
aVspace_chest_ik_anim
p1151
aaI00
aF0
aF0
aF0
aF0
aF0
aF0
aF1
aF1
aF1
aF0
aF0
aF0
aF0
aa(lp1152
Vjaw_anim_space_switcher
p1153
a(lp1154
Vvisibility
p1155
aVtranslateX
p1156
aVtranslateY
p1157
aVtranslateZ
p1158
aVrotateX
p1159
aVrotateY
p1160
aVrotateZ
p1161
aVscaleX
p1162
aVscaleY
p1163
aVscaleZ
p1164
aVspace_world
p1165
aaI01
aF0
aF0
aF0
aF0
aF0
aF0
aF1
aF1
aF1.0000000000000002
aF0
aa(lp1166
Vl_global_ik_anim_space_switcher
p1167
a(lp1168
Vvisibility
p1169
aVtranslateX
p1170
aVtranslateY
p1171
aVtranslateZ
p1172
aVrotateX
p1173
aVrotateY
p1174
aVrotateZ
p1175
aVscaleX
p1176
aVscaleY
p1177
aVscaleZ
p1178
aVspace_world
p1179
aaI01
aF4.2632564145606011e-14
aF-5.6843418860808015e-14
aF8.8817841970012523e-15
aF6.3611093629270351e-15
aF6.3611093629270335e-15
aF1.9083328088781101e-14
aF1
aF1
aF1
aF0
aa(lp1180
Vmaster_anim_space_switcher
p1181
a(lp1182
Vvisibility
p1183
aVtranslateX
p1184
aVtranslateY
p1185
aVtranslateZ
p1186
aVrotateX
p1187
aVrotateY
p1188
aVrotateZ
p1189
aVscaleX
p1190
aVscaleY
p1191
aVscaleZ
p1192
aVspace_world
p1193
aaI01
aF0
aF0
aF0
aF0
aF0
aF0
aF1
aF1
aF1
aF0
aa(lp1194
Vr_global_ik_anim_space_switcher
p1195
a(lp1196
Vvisibility
p1197
aVtranslateX
p1198
aVtranslateY
p1199
aVtranslateZ
p1200
aVrotateX
p1201
aVrotateY
p1202
aVrotateZ
p1203
aVscaleX
p1204
aVscaleY
p1205
aVscaleZ
p1206
aVspace_world
p1207
aaI01
aF-3.5527136788005009e-14
aF-1.4210854715202004e-14
aF7.9936057773011271e-15
aF6.3611093629270335e-15
aF-6.3611093629270335e-15
aF6.3611093629270335e-15
aF1
aF1
aF1
aF0
aa(lp1208
Vspine_01_space_switcher
p1209
a(lp1210
Vvisibility
p1211
aVtranslateX
p1212
aVtranslateY
p1213
aVtranslateZ
p1214
aVrotateX
p1215
aVrotateY
p1216
aVrotateZ
p1217
aVscaleX
p1218
aVscaleY
p1219
aVscaleZ
p1220
aVspace_world
p1221
aaI01
aF0
aF-7.1054273576010019e-15
aF-4.4408920985006262e-15
aF6.3611093629270351e-15
aF5.1684013573782128e-15
aF4.2142349529391595e-14
aF1
aF1
aF1
aF0
aa.