(lp1
(lp2
Vhead_fk_anim
p3
a(lp4
VtranslateX
p5
aVtranslateY
p6
aVtranslateZ
p7
aVrotateX
p8
aVrotateY
p9
aVrotateZ
p10
aVscaleX
p11
aVscaleY
p12
aVscaleZ
p13
aVfkOrientation
p14
aaF0
aF0
aF0
aF20.590160474656692
aF48.066752469400178
aF-35.960903566364337
aF1
aF1
aF1
aI3
aa(lp15
Vneck_01_fk_anim
p16
a(lp17
VtranslateX
p18
aVtranslateY
p19
aVtranslateZ
p20
aVrotateX
p21
aVrotateY
p22
aVrotateZ
p23
aVscaleX
p24
aVscaleY
p25
aVscaleZ
p26
aVfkOrientation
p27
aaF0
aF0
aF0
aF0
aF0
aF12.57569716860586
aF0.99999999999999978
aF1
aF0.99999999999999989
aI0
aa(lp28
Vspine_01_anim
p29
a(lp30
Vlength
p31
aVtranslateY
p32
aVtranslateZ
p33
aVrotateX
p34
aVrotateY
p35
aVrotateZ
p36
aaF0
aF0
aF0
aF0
aF0
aF0
aa(lp37
Vspine_02_anim
p38
a(lp39
Vlength
p40
aVtranslateY
p41
aVtranslateZ
p42
aVrotateX
p43
aVrotateY
p44
aVrotateZ
p45
aaF0
aF0
aF0
aF0
aF0
aF0
aa(lp46
Vspine_03_anim
p47
a(lp48
Vlength
p49
aVtranslateY
p50
aVtranslateZ
p51
aVrotateX
p52
aVrotateY
p53
aVrotateZ
p54
aaF0
aF0
aF0
aF0
aF0
aF0
aa(lp55
Vmid_ik_anim
p56
a(lp57
VtranslateX
p58
aVtranslateY
p59
aVtranslateZ
p60
aVrotateX
p61
aVrotateY
p62
aVrotateZ
p63
aaF0
aF0
aF0
aF0
aF0
aF0
aa(lp64
Vchest_ik_anim
p65
a(lp66
VtranslateX
p67
aVtranslateY
p68
aVtranslateZ
p69
aVrotateX
p70
aVrotateY
p71
aVrotateZ
p72
aVstretch
p73
aVsquash
p74
aVtwist_amount
p75
aVautoSpine
p76
aVrotationInfluence
p77
aaF0.48904667375069488
aF-2.7552245979185392
aF-9.2161998178474622
aF14.707607686847069
aF35.284431803421619
aF-34.07434519346895
aF1
aF0.43132297536713554
aF1
aF0
aF0.1078307442980927
aa(lp78
Vbody_anim
p79
a(lp80
VtranslateX
p81
aVtranslateY
p82
aVtranslateZ
p83
aVrotateX
p84
aVrotateY
p85
aVrotateZ
p86
aaF-2.2723030543456111
aF-27.537637641408804
aF-4.5908770134212871
aF-4.4709737822275413
aF5.2009042457763996
aF4.7621979106993431
aa(lp87
Vhip_anim
p88
a(lp89
VtranslateX
p90
aVtranslateY
p91
aVtranslateZ
p92
aVrotateX
p93
aVrotateY
p94
aVrotateZ
p95
aVlTwistCtrlVis
p96
aVlCalfTwistCtrlVis
p97
aVrTwistCtrlVis
p98
aVrCalfTwistCtrlVis
p99
aVautoHips
p100
aaF0
aF0
aF1.8467994397036023
aF-1.8634780671109157
aF1.0217063182446056
aF11.781343775621327
aI00
aI00
aI00
aI00
aF0
aa(lp101
Vclavicle_l_anim
p102
a(lp103
VtranslateX
p104
aVtranslateY
p105
aVtranslateZ
p106
aVautoShoulders
p107
aaF-1.0638425808642977
aF-5.0801625515614299
aF8.7697232024546619
aF0
aa(lp108
Vclavicle_r_anim
p109
a(lp110
VtranslateX
p111
aVtranslateY
p112
aVtranslateZ
p113
aVautoShoulders
p114
aaF0.26693905955656072
aF-3.5476220266453962
aF2.0665826247587322
aF0
aa(lp115
Vfk_arm_l_anim
p116
a(lp117
VtranslateX
p118
aVtranslateY
p119
aVtranslateZ
p120
aVrotateX
p121
aVrotateY
p122
aVrotateZ
p123
aaF0
aF0
aF0
aF-0.21636093016424843
aF84.855840000623417
aF13.37728056278776
aa(lp124
Vfk_arm_r_anim
p125
a(lp126
VtranslateX
p127
aVtranslateY
p128
aVtranslateZ
p129
aVrotateX
p130
aVrotateY
p131
aVrotateZ
p132
aaF0
aF0
aF0
aF30.190021199721937
aF20.242830858878612
aF-22.608084101639388
aa(lp133
Vfk_elbow_l_anim
p134
a(lp135
VtranslateX
p136
aVtranslateY
p137
aVtranslateZ
p138
aVrotateX
p139
aVrotateY
p140
aVrotateZ
p141
aaF0
aF0
aF0
aF0
aF2.1598905970621202e-05
aF-61.961136599383963
aa(lp142
Vfk_elbow_r_anim
p143
a(lp144
VtranslateX
p145
aVtranslateY
p146
aVtranslateZ
p147
aVrotateX
p148
aVrotateY
p149
aVrotateZ
p150
aaF0
aF0
aF0
aF-0.00021677908528410932
aF0.00020718291590010216
aF-27.412961520515562
aa(lp151
Vfk_wrist_l_anim
p152
a(lp153
VtranslateX
p154
aVtranslateY
p155
aVtranslateZ
p156
aVrotateX
p157
aVrotateY
p158
aVrotateZ
p159
aaF0
aF0
aF0
aF6.3075904930134614
aF-19.337118616791688
aF18.785507464833682
aa(lp160
Vfk_wrist_r_anim
p161
a(lp162
VtranslateX
p163
aVtranslateY
p164
aVtranslateZ
p165
aVrotateX
p166
aVrotateY
p167
aVrotateZ
p168
aaF0
aF0
aF0
aF17.87205615262447
aF17.830925071740268
aF53.520809891006706
aa(lp169
Vik_elbow_l_anim
p170
a(lp171
VtranslateX
p172
aVtranslateY
p173
aVtranslateZ
p174
aVspace_chest_ik_anim
p175
aVspace_body_anim
p176
aVspace_world
p177
aaF-6.8784059322253208
aF-19.106822306001909
aF-37.199287730479519
aF0
aF0
aF0
aa(lp178
Vik_elbow_r_anim
p179
a(lp180
VtranslateX
p181
aVtranslateY
p182
aVtranslateZ
p183
aVspace_chest_ik_anim
p184
aVspace_body_anim
p185
aVspace_world
p186
aaF13.134289448882644
aF-19.724365411243753
aF22.588580153738874
aF0
aF0
aF0
aa(lp187
Vik_wrist_l_anim
p188
a(lp189
VtranslateX
p190
aVtranslateY
p191
aVtranslateZ
p192
aVrotateX
p193
aVrotateY
p194
aVrotateZ
p195
aVstretch
p196
aVsquash
p197
aVside
p198
aVmid_bend
p199
aVmid_swivel
p200
aVtip_pivot
p201
aVtip_swivel
p202
aVspace_chest_ik_anim
p203
aVspace_head_fk_anim
p204
aVspace_body_anim
p205
aVspace_world
p206
aVblendOrient1
p207
aaF-19.515116712891125
aF-49.738029469427964
aF-49.529223524190279
aF117.44016564637002
aF110.86975869326727
aF55.303325551415575
aF0
aF0
aF0
aF0
aF0
aF0
aF0
aF0
aF0
aF0
aF1
aF0.14505388881866427
aa(lp208
Vik_wrist_r_anim
p209
a(lp210
VtranslateX
p211
aVtranslateY
p212
aVtranslateZ
p213
aVrotateX
p214
aVrotateY
p215
aVrotateZ
p216
aVstretch
p217
aVsquash
p218
aVside
p219
aVmid_bend
p220
aVmid_swivel
p221
aVtip_pivot
p222
aVtip_swivel
p223
aVspace_chest_ik_anim
p224
aVspace_head_fk_anim
p225
aVspace_body_anim
p226
aVspace_world
p227
aaF39.968865765750245
aF-45.365314327860361
aF0.64309974341339915
aF166.72589162186478
aF-97.136893179550313
aF-132.67750884786426
aF0
aF0
aF0
aF0
aF0
aF0
aF0
aF0
aF0
aF0
aF1
aa(lp228
Vfk_thigh_l_anim
p229
a(lp230
VrotateX
p231
aVrotateY
p232
aVrotateZ
p233
aaF0
aF0
aF0
aa(lp234
Vfk_thigh_r_anim
p235
a(lp236
VrotateX
p237
aVrotateY
p238
aVrotateZ
p239
aaF0
aF0
aF0
aa(lp240
Vfk_calf_l_anim
p241
a(lp242
VrotateX
p243
aVrotateY
p244
aVrotateZ
p245
aaF0
aF0
aF0
aa(lp246
Vfk_calf_r_anim
p247
a(lp248
VrotateX
p249
aVrotateY
p250
aVrotateZ
p251
aaF0
aF0
aF0
aa(lp252
Vfk_foot_l_anim
p253
a(lp254
VrotateX
p255
aVrotateY
p256
aVrotateZ
p257
aaF0
aF0
aF0
aa(lp258
Vfk_foot_r_anim
p259
a(lp260
VrotateX
p261
aVrotateY
p262
aVrotateZ
p263
aaF0
aF0
aF0
aa(lp264
Vfk_ball_l_anim
p265
a(lp266
VrotateX
p267
aVrotateY
p268
aVrotateZ
p269
aaF0
aF0
aF0
aa(lp270
Vfk_ball_r_anim
p271
a(lp272
VrotateX
p273
aVrotateY
p274
aVrotateZ
p275
aaF0
aF0
aF0
aa(lp276
Vik_foot_anim_l
p277
a(lp278
VtranslateX
p279
aVtranslateY
p280
aVtranslateZ
p281
aVrotateX
p282
aVrotateY
p283
aVrotateZ
p284
aVknee_twist
p285
aVstretch
p286
aVsquash
p287
aVtoeCtrlVis
p288
aaF-4.3507531850314338
aF-31.30361871026183
aF0
aF0
aF0
aF15.88542005016086
aF8.7037158085921789
aF0
aF0
aI00
aa(lp289
Vik_foot_anim_r
p290
a(lp291
VtranslateX
p292
aVtranslateY
p293
aVtranslateZ
p294
aVrotateX
p295
aVrotateY
p296
aVrotateZ
p297
aVknee_twist
p298
aVstretch
p299
aVsquash
p300
aVtoeCtrlVis
p301
aaF3.5160301779631378
aF-2.7725953173978617
aF7.6104877685446848
aF0
aF0
aF-13.890527438680731
aF-11.998640766201506
aF0
aF0
aI00
aa(lp302
Vheel_ctrl_l
p303
a(lp304
VrotateX
p305
aVrotateY
p306
aVrotateZ
p307
aVheelPivot
p308
aVballPivot
p309
aaF0
aF0
aF0
aF0
aF-1.2093905085171741
aa(lp310
Vheel_ctrl_r
p311
a(lp312
VrotateX
p313
aVrotateY
p314
aVrotateZ
p315
aVheelPivot
p316
aVballPivot
p317
aaF0
aF0
aF-40.853047707603203
aF10.369811491253985
aF-39.783943799835441
aa(lp318
Vtoe_wiggle_ctrl_l
p319
a(lp320
VrotateX
p321
aVrotateY
p322
aVrotateZ
p323
aaF0
aF0
aF0
aa(lp324
Vtoe_wiggle_ctrl_r
p325
a(lp326
VrotateX
p327
aVrotateY
p328
aVrotateZ
p329
aaF0
aF0
aF-25.256779704488057
aa(lp330
Vtoe_tip_ctrl_l
p331
a(lp332
VrotateX
p333
aVrotateY
p334
aVrotateZ
p335
aaF0
aF0
aF0
aa(lp336
Vtoe_tip_ctrl_r
p337
a(lp338
VrotateX
p339
aVrotateY
p340
aVrotateZ
p341
aaF1.2112508298831379
aF3.4402520291485086
aF-13.96792957986367
aa(lp342
Vmaster_anim
p343
a(lp344
VtranslateX
p345
aVtranslateY
p346
aVtranslateZ
p347
aVrotateX
p348
aVrotateY
p349
aVrotateZ
p350
aaF0
aF31.913110351202672
aF0
aF0
aF0
aF0
aa(lp351
Voffset_anim
p352
a(lp353
VtranslateX
p354
aVtranslateY
p355
aVtranslateZ
p356
aVrotateX
p357
aVrotateY
p358
aVrotateZ
p359
aaF0
aF0
aF0
aF0
aF0
aF0
aa(lp360
Vroot_anim
p361
a(lp362
VtranslateX
p363
aVtranslateY
p364
aVtranslateZ
p365
aVrotateX
p366
aVrotateY
p367
aVrotateZ
p368
aVblendPoint1
p369
aaF0
aF-31.913110351202672
aF0
aF0
aF0
aF0
aF1
aa(lp370
Vupperarm_l_twist_anim
p371
a(lp372
VtranslateX
p373
aVtranslateY
p374
aVtranslateZ
p375
aVrotateX
p376
aVrotateY
p377
aVrotateZ
p378
aVscaleX
p379
aVscaleY
p380
aVscaleZ
p381
aVblendParent1
p382
aaF0
aF0
aF0
aF0
aF0
aF0
aF1
aF1
aF1
aF0
aa(lp383
Vupperarm_r_twist_anim
p384
a(lp385
VtranslateX
p386
aVtranslateY
p387
aVtranslateZ
p388
aVrotateX
p389
aVrotateY
p390
aVrotateZ
p391
aVscaleX
p392
aVscaleY
p393
aVscaleZ
p394
aVblendParent1
p395
aaF0
aF0
aF0
aF0
aF0
aF0
aF1
aF1
aF1
aF0
aa(lp396
Vthigh_l_twist_anim
p397
a(lp398
VtranslateX
p399
aVtranslateY
p400
aVtranslateZ
p401
aVrotateX
p402
aVrotateY
p403
aVrotateZ
p404
aaF0
aF0
aF0
aF0
aF0
aF0
aa(lp405
Vthigh_r_twist_anim
p406
a(lp407
VtranslateX
p408
aVtranslateY
p409
aVtranslateZ
p410
aVrotateX
p411
aVrotateY
p412
aVrotateZ
p413
aaF0
aF0
aF0
aF0
aF0
aF0
aa(lp414
Vpinky_finger_fk_ctrl_1_l
p415
a(lp416
VtranslateX
p417
aVtranslateY
p418
aVtranslateZ
p419
aVrotateX
p420
aVrotateY
p421
aVrotateZ
p422
aVsticky
p423
aaF0
aF0
aF0
aF-4.6012002561489327
aF4.4416183706957044
aF22.060472330628311
aF0
aa(lp424
Vpinky_finger_fk_ctrl_1_r
p425
a(lp426
VtranslateX
p427
aVtranslateY
p428
aVtranslateZ
p429
aVrotateX
p430
aVrotateY
p431
aVrotateZ
p432
aVsticky
p433
aaF0
aF0
aF0
aF-8.6478026645642032
aF8.3478738283918048
aF40.512646362663808
aF0
aa(lp434
Vpinky_finger_fk_ctrl_2_l
p435
a(lp436
VtranslateX
p437
aVtranslateY
p438
aVtranslateZ
p439
aVrotateX
p440
aVrotateY
p441
aVrotateZ
p442
aaF0
aF0
aF0
aF0
aF0
aF62.269787429722697
aa(lp443
Vpinky_finger_fk_ctrl_2_r
p444
a(lp445
VtranslateX
p446
aVtranslateY
p447
aVtranslateZ
p448
aVrotateX
p449
aVrotateY
p450
aVrotateZ
p451
aaF0
aF0
aF0
aF0
aF0
aF73.195014834669891
aa(lp452
Vpinky_finger_fk_ctrl_3_l
p453
a(lp454
VtranslateX
p455
aVtranslateY
p456
aVtranslateZ
p457
aVrotateX
p458
aVrotateY
p459
aVrotateZ
p460
aaF0
aF0
aF0
aF0
aF0
aF32.53822230505795
aa(lp461
Vpinky_finger_fk_ctrl_3_r
p462
a(lp463
VtranslateX
p464
aVtranslateY
p465
aVtranslateZ
p466
aVrotateX
p467
aVrotateY
p468
aVrotateZ
p469
aaF0
aF0
aF0
aF0
aF0
aF40.512646362663808
aa(lp470
Vring_finger_fk_ctrl_1_l
p471
a(lp472
VtranslateX
p473
aVtranslateY
p474
aVtranslateZ
p475
aVrotateX
p476
aVrotateY
p477
aVrotateZ
p478
aVsticky
p479
aaF0
aF0
aF0
aF2.3635729770623475
aF3.7526729635936564
aF22.060472330628311
aF0
aa(lp480
Vring_finger_fk_ctrl_1_r
p481
a(lp482
VtranslateX
p483
aVtranslateY
p484
aVtranslateZ
p485
aVrotateX
p486
aVrotateY
p487
aVrotateZ
p488
aVsticky
p489
aaF0
aF0
aF0
aF4.4422567037402523
aF7.0530238332955708
aF40.512646362663808
aF0
aa(lp490
Vring_finger_fk_ctrl_2_l
p491
a(lp492
VtranslateX
p493
aVtranslateY
p494
aVtranslateZ
p495
aVrotateX
p496
aVrotateY
p497
aVrotateZ
p498
aaF0
aF0
aF0
aF0
aF0
aF62.269787429722697
aa(lp499
Vring_finger_fk_ctrl_2_r
p500
a(lp501
VtranslateX
p502
aVtranslateY
p503
aVtranslateZ
p504
aVrotateX
p505
aVrotateY
p506
aVrotateZ
p507
aaF0
aF0
aF0
aF0
aF0
aF73.195014834669891
aa(lp508
Vring_finger_fk_ctrl_3_l
p509
a(lp510
VtranslateX
p511
aVtranslateY
p512
aVtranslateZ
p513
aVrotateX
p514
aVrotateY
p515
aVrotateZ
p516
aaF0
aF0
aF0
aF0
aF0
aF32.53822230505795
aa(lp517
Vring_finger_fk_ctrl_3_r
p518
a(lp519
VtranslateX
p520
aVtranslateY
p521
aVtranslateZ
p522
aVrotateX
p523
aVrotateY
p524
aVrotateZ
p525
aaF0
aF0
aF0
aF0
aF0
aF40.512646362663808
aa(lp526
Vmiddle_finger_fk_ctrl_1_l
p527
a(lp528
VtranslateX
p529
aVtranslateY
p530
aVtranslateZ
p531
aVrotateX
p532
aVrotateY
p533
aVrotateZ
p534
aVsticky
p535
aaF0
aF0
aF0
aF0
aF0
aF22.060472330628311
aF0
aa(lp536
Vmiddle_finger_fk_ctrl_1_r
p537
a(lp538
VtranslateX
p539
aVtranslateY
p540
aVtranslateZ
p541
aVrotateX
p542
aVrotateY
p543
aVrotateZ
p544
aVsticky
p545
aaF0
aF0
aF0
aF0
aF0
aF40.512646362663808
aF0
aa(lp546
Vmiddle_finger_fk_ctrl_2_l
p547
a(lp548
VtranslateX
p549
aVtranslateY
p550
aVtranslateZ
p551
aVrotateX
p552
aVrotateY
p553
aVrotateZ
p554
aaF0
aF0
aF0
aF-4.816974412970529
aF1.346566669763904
aF54.04212999707773
aa(lp555
Vmiddle_finger_fk_ctrl_2_r
p556
a(lp557
VtranslateX
p558
aVtranslateY
p559
aVtranslateZ
p560
aVrotateX
p561
aVrotateY
p562
aVrotateZ
p563
aaF0
aF0
aF0
aF0
aF0
aF73.195014834669891
aa(lp564
Vmiddle_finger_fk_ctrl_3_l
p565
a(lp566
VtranslateX
p567
aVtranslateY
p568
aVtranslateZ
p569
aVrotateX
p570
aVrotateY
p571
aVrotateZ
p572
aaF0
aF0
aF0
aF0
aF0
aF32.53822230505795
aa(lp573
Vmiddle_finger_fk_ctrl_3_r
p574
a(lp575
VtranslateX
p576
aVtranslateY
p577
aVtranslateZ
p578
aVrotateX
p579
aVrotateY
p580
aVrotateZ
p581
aaF0
aF0
aF0
aF0
aF0
aF40.512646362663808
aa(lp582
Vindex_finger_fk_ctrl_1_l
p583
a(lp584
VtranslateX
p585
aVtranslateY
p586
aVtranslateZ
p587
aVrotateX
p588
aVrotateY
p589
aVrotateZ
p590
aVsticky
p591
aaF0
aF0
aF0
aF0
aF-4.4727944712756349
aF22.060472330628311
aF0
aa(lp592
Vindex_finger_fk_ctrl_1_r
p593
a(lp594
VtranslateX
p595
aVtranslateY
p596
aVtranslateZ
p597
aVrotateX
p598
aVrotateY
p599
aVrotateZ
p600
aVsticky
p601
aaF0
aF0
aF0
aF0
aF-8.4064682147532519
aF40.512646362663808
aF0
aa(lp602
Vindex_finger_fk_ctrl_2_l
p603
a(lp604
VtranslateX
p605
aVtranslateY
p606
aVtranslateZ
p607
aVrotateX
p608
aVrotateY
p609
aVrotateZ
p610
aaF0
aF0
aF0
aF0
aF0
aF47.237036524555876
aa(lp611
Vindex_finger_fk_ctrl_2_r
p612
a(lp613
VtranslateX
p614
aVtranslateY
p615
aVtranslateZ
p616
aVrotateX
p617
aVrotateY
p618
aVrotateZ
p619
aaF0
aF0
aF0
aF0
aF0
aF73.195014834669891
aa(lp620
Vindex_finger_fk_ctrl_3_l
p621
a(lp622
VtranslateX
p623
aVtranslateY
p624
aVtranslateZ
p625
aVrotateX
p626
aVrotateY
p627
aVrotateZ
p628
aaF0
aF0
aF0
aF0
aF0
aF32.53822230505795
aa(lp629
Vindex_finger_fk_ctrl_3_r
p630
a(lp631
VtranslateX
p632
aVtranslateY
p633
aVtranslateZ
p634
aVrotateX
p635
aVrotateY
p636
aVrotateZ
p637
aaF0
aF0
aF0
aF0
aF0
aF40.512646362663808
aa(lp638
Vthumb_finger_fk_ctrl_1_l
p639
a(lp640
VtranslateX
p641
aVtranslateY
p642
aVtranslateZ
p643
aVrotateX
p644
aVrotateY
p645
aVrotateZ
p646
aVsticky
p647
aaF0
aF0
aF0
aF-3.6027840720867514
aF13.622386332835475
aF0.90079951948095316
aF0
aa(lp648
Vthumb_finger_fk_ctrl_1_r
p649
a(lp650
VtranslateX
p651
aVtranslateY
p652
aVtranslateZ
p653
aVrotateX
p654
aVrotateY
p655
aVrotateZ
p656
aVsticky
p657
aaF0
aF0
aF0
aF0
aF11.841725082532831
aF16.347144386772872
aF0
aa(lp658
Vthumb_finger_fk_ctrl_2_l
p659
a(lp660
VtranslateX
p661
aVtranslateY
p662
aVtranslateZ
p663
aVrotateX
p664
aVrotateY
p665
aVrotateZ
p666
aaF0
aF0
aF0
aF-1.2975721432042424
aF3.1021563210791783
aF24.272165331856996
aa(lp667
Vthumb_finger_fk_ctrl_2_r
p668
a(lp669
VtranslateX
p670
aVtranslateY
p671
aVtranslateZ
p672
aVrotateX
p673
aVrotateY
p674
aVrotateZ
p675
aaF0
aF0
aF0
aF0
aF2.5200000409777088
aF16.347144386772872
aa(lp676
Vthumb_finger_fk_ctrl_3_l
p677
a(lp678
VtranslateX
p679
aVtranslateY
p680
aVtranslateZ
p681
aVrotateX
p682
aVrotateY
p683
aVrotateZ
p684
aaF0
aF0
aF0
aF0
aF1.3408059119338489
aF15.275678539789498
aa(lp685
Vthumb_finger_fk_ctrl_3_r
p686
a(lp687
VtranslateX
p688
aVtranslateY
p689
aVtranslateZ
p690
aVrotateX
p691
aVrotateY
p692
aVrotateZ
p693
aaF0
aF0
aF0
aF0
aF2.5200000409777088
aF16.347144386772872
aa(lp694
Vindex_l_ik_anim
p695
a(lp696
VtranslateX
p697
aVtranslateY
p698
aVtranslateZ
p699
aVrotateX
p700
aVrotateY
p701
aVrotateZ
p702
aVpoleVectorVis
p703
aaF0
aF0
aF0
aF0
aF0
aF0
aF0
aa(lp704
Vindex_r_ik_anim
p705
a(lp706
VtranslateX
p707
aVtranslateY
p708
aVtranslateZ
p709
aVrotateX
p710
aVrotateY
p711
aVrotateZ
p712
aVpoleVectorVis
p713
aaF0
aF0
aF0
aF0
aF0
aF0
aF0
aa(lp714
Vmiddle_l_ik_anim
p715
a(lp716
VtranslateX
p717
aVtranslateY
p718
aVtranslateZ
p719
aVrotateX
p720
aVrotateY
p721
aVrotateZ
p722
aVpoleVectorVis
p723
aaF0
aF0
aF0
aF0
aF0
aF0
aF0
aa(lp724
Vmiddle_r_ik_anim
p725
a(lp726
VtranslateX
p727
aVtranslateY
p728
aVtranslateZ
p729
aVrotateX
p730
aVrotateY
p731
aVrotateZ
p732
aVpoleVectorVis
p733
aaF0
aF0
aF0
aF0
aF0
aF0
aF0
aa(lp734
Vring_l_ik_anim
p735
a(lp736
VtranslateX
p737
aVtranslateY
p738
aVtranslateZ
p739
aVrotateX
p740
aVrotateY
p741
aVrotateZ
p742
aVpoleVectorVis
p743
aaF0
aF0
aF0
aF0
aF0
aF0
aF0
aa(lp744
Vring_r_ik_anim
p745
a(lp746
VtranslateX
p747
aVtranslateY
p748
aVtranslateZ
p749
aVrotateX
p750
aVrotateY
p751
aVrotateZ
p752
aVpoleVectorVis
p753
aaF0
aF0
aF0
aF0
aF0
aF0
aF0
aa(lp754
Vpinky_l_ik_anim
p755
a(lp756
VtranslateX
p757
aVtranslateY
p758
aVtranslateZ
p759
aVrotateX
p760
aVrotateY
p761
aVrotateZ
p762
aVpoleVectorVis
p763
aaF0
aF0
aF0
aF0
aF0
aF0
aF0
aa(lp764
Vpinky_r_ik_anim
p765
a(lp766
VtranslateX
p767
aVtranslateY
p768
aVtranslateZ
p769
aVrotateX
p770
aVrotateY
p771
aVrotateZ
p772
aVpoleVectorVis
p773
aaF0
aF0
aF0
aF0
aF0
aF0
aF0
aa(lp774
Vthumb_l_ik_anim
p775
a(lp776
VtranslateX
p777
aVtranslateY
p778
aVtranslateZ
p779
aVrotateX
p780
aVrotateY
p781
aVrotateZ
p782
aVpoleVectorVis
p783
aaF0
aF0
aF0
aF0
aF0
aF0
aF0
aa(lp784
Vthumb_r_ik_anim
p785
a(lp786
VtranslateX
p787
aVtranslateY
p788
aVtranslateZ
p789
aVrotateX
p790
aVrotateY
p791
aVrotateZ
p792
aVpoleVectorVis
p793
aaF0
aF0
aF0
aF0
aF0
aF0
aF0
aa(lp794
Vindex_l_poleVector
p795
a(lp796
VtranslateX
p797
aVtranslateY
p798
aVtranslateZ
p799
aVrotateX
p800
aVrotateY
p801
aVrotateZ
p802
aaF0
aF0
aF0
aF0
aF0
aF0
aa(lp803
Vindex_r_poleVector
p804
a(lp805
VtranslateX
p806
aVtranslateY
p807
aVtranslateZ
p808
aVrotateX
p809
aVrotateY
p810
aVrotateZ
p811
aaF0
aF0
aF0
aF0
aF0
aF0
aa(lp812
Vmiddle_l_poleVector
p813
a(lp814
VtranslateX
p815
aVtranslateY
p816
aVtranslateZ
p817
aVrotateX
p818
aVrotateY
p819
aVrotateZ
p820
aaF0
aF0
aF0
aF0
aF0
aF0
aa(lp821
Vmiddle_r_poleVector
p822
a(lp823
VtranslateX
p824
aVtranslateY
p825
aVtranslateZ
p826
aVrotateX
p827
aVrotateY
p828
aVrotateZ
p829
aaF0
aF0
aF0
aF0
aF0
aF0
aa(lp830
Vring_l_poleVector
p831
a(lp832
VtranslateX
p833
aVtranslateY
p834
aVtranslateZ
p835
aVrotateX
p836
aVrotateY
p837
aVrotateZ
p838
aaF0
aF0
aF0
aF0
aF0
aF0
aa(lp839
Vring_r_poleVector
p840
a(lp841
VtranslateX
p842
aVtranslateY
p843
aVtranslateZ
p844
aVrotateX
p845
aVrotateY
p846
aVrotateZ
p847
aaF0
aF0
aF0
aF0
aF0
aF0
aa(lp848
Vpinky_l_poleVector
p849
a(lp850
VtranslateX
p851
aVtranslateY
p852
aVtranslateZ
p853
aVrotateX
p854
aVrotateY
p855
aVrotateZ
p856
aaF0
aF0
aF0
aF0
aF0
aF0
aa(lp857
Vpinky_r_poleVector
p858
a(lp859
VtranslateX
p860
aVtranslateY
p861
aVtranslateZ
p862
aVrotateX
p863
aVrotateY
p864
aVrotateZ
p865
aaF0
aF0
aF0
aF0
aF0
aF0
aa(lp866
Vthumb_l_poleVector
p867
a(lp868
VtranslateX
p869
aVtranslateY
p870
aVtranslateZ
p871
aVrotateX
p872
aVrotateY
p873
aVrotateZ
p874
aaF0
aF0
aF0
aF0
aF0
aF0
aa(lp875
Vthumb_r_poleVector
p876
a(lp877
VtranslateX
p878
aVtranslateY
p879
aVtranslateZ
p880
aVrotateX
p881
aVrotateY
p882
aVrotateZ
p883
aaF0
aF0
aF0
aF0
aF0
aF0
aa(lp884
Vl_global_ik_anim
p885
a(lp886
VtranslateX
p887
aVtranslateY
p888
aVtranslateZ
p889
aVrotateX
p890
aVrotateY
p891
aVrotateZ
p892
aaF0
aF0
aF0
aF0
aF0
aF0
aa(lp893
Vr_global_ik_anim
p894
a(lp895
VtranslateX
p896
aVtranslateY
p897
aVtranslateZ
p898
aVrotateX
p899
aVrotateY
p900
aVrotateZ
p901
aaF0
aF0
aF0
aF0
aF0
aF0
aa(lp902
Vlowerarm_l_twist_anim
p903
a(lp904
VtranslateX
p905
aVtranslateY
p906
aVtranslateZ
p907
aVrotateX
p908
aVrotateY
p909
aVrotateZ
p910
aaF0
aF0
aF0
aF0
aF0
aF0
aa(lp911
Vlowerarm_r_twist_anim
p912
a(lp913
VtranslateX
p914
aVtranslateY
p915
aVtranslateZ
p916
aVrotateX
p917
aVrotateY
p918
aVrotateZ
p919
aaF0
aF0
aF0
aF0
aF0
aF0
aa(lp920
Vcalf_r_twist_anim
p921
a(lp922
VtranslateX
p923
aVtranslateY
p924
aVtranslateZ
p925
aVrotateX
p926
aVrotateY
p927
aVrotateZ
p928
aaF0
aF0
aF0
aF0
aF0
aF0
aa(lp929
Vcalf_l_twist_anim
p930
a(lp931
VtranslateX
p932
aVtranslateY
p933
aVtranslateZ
p934
aVrotateX
p935
aVrotateY
p936
aVrotateZ
p937
aaF0
aF0
aF0
aF0
aF0
aF0
aa(lp938
Vfk_clavicle_l_anim
p939
a(lp940
VtranslateX
p941
aVtranslateY
p942
aVtranslateZ
p943
aVrotateX
p944
aVrotateY
p945
aVrotateZ
p946
aaF0
aF0
aF0
aF0
aF0
aF0
aa(lp947
Vfk_clavicle_r_anim
p948
a(lp949
VtranslateX
p950
aVtranslateY
p951
aVtranslateZ
p952
aVrotateX
p953
aVrotateY
p954
aVrotateZ
p955
aaF0
aF0
aF0
aF0
aF0
aF0
aa(lp956
Vjaw_anim
p957
a(lp958
VtranslateX
p959
aVtranslateY
p960
aVtranslateZ
p961
aVrotateX
p962
aVrotateY
p963
aVrotateZ
p964
aVscaleX
p965
aVscaleY
p966
aVscaleZ
p967
aaF3.8494071725215013
aF-0.013283974727231973
aF2.9003982200239093
aF-13.982105404328992
aF12.647499103895576
aF-13.678732862961727
aF1
aF0.99999999999999989
aF1
aa(lp968
Vbelly_anim
p969
a(lp970
VtranslateX
p971
aVtranslateY
p972
aVtranslateZ
p973
aVrotateX
p974
aVrotateY
p975
aVrotateZ
p976
aVchainAttach
p977
aVchainStartEnvelope
p978
aVchainStartFrame
p979
aVchainStiffness
p980
aVchainDamping
p981
aVchainGravity
p982
aVchainIteration
p983
aVchainCollide
p984
aVchainWidthBase
p985
aVchainWidthExtremity
p986
aVchainCollideGround
p987
aVchainCollideGroundHeight
p988
aaF3.1003549605655341
aF0
aF-1.3873817184074344
aF0
aF0
aF0
aI1
aF0
aF0
aF0.10000000000000001
aF0.20000000000000001
aF1
aI1
aI00
aF1
aF1
aI00
aF0
aa(lp989
Vpectoral_l_anim
p990
a(lp991
VtranslateX
p992
aVtranslateY
p993
aVtranslateZ
p994
aVrotateX
p995
aVrotateY
p996
aVrotateZ
p997
aVchainAttach
p998
aVchainStartEnvelope
p999
aVchainStartFrame
p1000
aVchainStiffness
p1001
aVchainDamping
p1002
aVchainGravity
p1003
aVchainIteration
p1004
aVchainCollide
p1005
aVchainWidthBase
p1006
aVchainWidthExtremity
p1007
aVchainCollideGround
p1008
aVchainCollideGroundHeight
p1009
aaF0
aF0
aF0
aF0
aF0
aF0
aI1
aF0
aF0
aF0.10000000000000001
aF0.20000000000000001
aF1
aI1
aI00
aF1
aF1
aI00
aF0
aa(lp1010
Vpectoral_r_anim
p1011
a(lp1012
VtranslateX
p1013
aVtranslateY
p1014
aVtranslateZ
p1015
aVrotateX
p1016
aVrotateY
p1017
aVrotateZ
p1018
aVchainAttach
p1019
aVchainStartEnvelope
p1020
aVchainStartFrame
p1021
aVchainStiffness
p1022
aVchainDamping
p1023
aVchainGravity
p1024
aVchainIteration
p1025
aVchainCollide
p1026
aVchainWidthBase
p1027
aVchainWidthExtremity
p1028
aVchainCollideGround
p1029
aVchainCollideGroundHeight
p1030
aaF0
aF0
aF0
aF0
aF0
aF0
aI1
aF0
aF0
aF0.10000000000000001
aF0.20000000000000001
aF1
aI1
aI00
aF1
aF1
aI00
aF0
aa(lp1031
Vhood_dyn_anim
p1032
a(lp1033
VtranslateX
p1034
aVtranslateY
p1035
aVtranslateZ
p1036
aVrotateX
p1037
aVrotateY
p1038
aVrotateZ
p1039
aVchainAttach
p1040
aVchainStartEnvelope
p1041
aVchainStartFrame
p1042
aVchainStiffness
p1043
aVchainDamping
p1044
aVchainGravity
p1045
aVchainIteration
p1046
aVchainCollide
p1047
aVchainWidthBase
p1048
aVchainWidthExtremity
p1049
aVchainCollideGround
p1050
aVchainCollideGroundHeight
p1051
aaF0
aF0
aF0
aF0
aF0
aF0
aI1
aF1
aF1
aF0.10000000000000001
aF0.20000000000000001
aF1
aI1
aI00
aF1
aF1
aI00
aF0
aa(lp1052
Vhood_ik_2_anim
p1053
a(lp1054
VtranslateX
p1055
aVtranslateY
p1056
aVtranslateZ
p1057
aVrotateX
p1058
aVrotateY
p1059
aVrotateZ
p1060
aaF0
aF0
aF0
aF0
aF0
aF0
aa(lp1061
Vhood_ik_3_anim
p1062
a(lp1063
VtranslateX
p1064
aVtranslateY
p1065
aVtranslateZ
p1066
aVrotateX
p1067
aVrotateY
p1068
aVrotateZ
p1069
aVclusterControlVis
p1070
aaF0
aF0
aF0
aF0
aF0
aF0
aI00
aa(lp1071
Vhood_ik_base_anim
p1072
a(lp1073
VtranslateX
p1074
aVtranslateY
p1075
aVtranslateZ
p1076
aVrotateX
p1077
aVrotateY
p1078
aVrotateZ
p1079
aVglobal_scale
p1080
aaF0
aF0
aF0
aF0
aF0
aF0
aF1.0000000000000002
aa(lp1081
Vfk_hood_01_anim
p1082
a(lp1083
VtranslateX
p1084
aVtranslateY
p1085
aVtranslateZ
p1086
aVrotateX
p1087
aVrotateY
p1088
aVrotateZ
p1089
aVglobal_scale
p1090
aVlagMode
p1091
aaF0
aF0
aF0
aF0
aF0
aF0
aF1.0000000000000002
aF0
aa(lp1092
Vhood_cv_0_anim
p1093
a(lp1094
VtranslateX
p1095
aVtranslateY
p1096
aVtranslateZ
p1097
aaF0
aF0
aF0
aa(lp1098
Vfk_hood_02_anim
p1099
a(lp1100
VtranslateX
p1101
aVtranslateY
p1102
aVtranslateZ
p1103
aVrotateX
p1104
aVrotateY
p1105
aVrotateZ
p1106
aaF0
aF0
aF0
aF0
aF0
aF0
aa(lp1107
Vhood_cv_1_anim
p1108
a(lp1109
VtranslateX
p1110
aVtranslateY
p1111
aVtranslateZ
p1112
aaF0
aF0
aF0
aa(lp1113
Vfk_hood_03_anim
p1114
a(lp1115
VtranslateX
p1116
aVtranslateY
p1117
aVtranslateZ
p1118
aVrotateX
p1119
aVrotateY
p1120
aVrotateZ
p1121
aaF0
aF0
aF0
aF0
aF0
aF0
aa(lp1122
Vhood_cv_2_anim
p1123
a(lp1124
VtranslateX
p1125
aVtranslateY
p1126
aVtranslateZ
p1127
aaF0
aF0
aF0
aa(lp1128
Vweapon_r_anim
p1129
a(lp1130
VtranslateX
p1131
aVtranslateY
p1132
aVtranslateZ
p1133
aVrotateX
p1134
aVrotateY
p1135
aVrotateZ
p1136
aVscaleX
p1137
aVscaleY
p1138
aVscaleZ
p1139
aaF0
aF0
aF0
aF0
aF0
aF0
aF1
aF1
aF1
aa(lp1140
Vsleeve_r_anim
p1141
a(lp1142
VtranslateX
p1143
aVtranslateY
p1144
aVtranslateZ
p1145
aVrotateX
p1146
aVrotateY
p1147
aVrotateZ
p1148
aVscaleX
p1149
aVscaleY
p1150
aVscaleZ
p1151
aaF0
aF0
aF0
aF0
aF0
aF0
aF1
aF1
aF1
aa(lp1152
Vsleeve_l_anim
p1153
a(lp1154
VtranslateX
p1155
aVtranslateY
p1156
aVtranslateZ
p1157
aVrotateX
p1158
aVrotateY
p1159
aVrotateZ
p1160
aVscaleX
p1161
aVscaleY
p1162
aVscaleZ
p1163
aaF0
aF0
aF0
aF0
aF0
aF0
aF1
aF1
aF1
aa(lp1164
Vshirt_front_anim
p1165
a(lp1166
VtranslateX
p1167
aVtranslateY
p1168
aVtranslateZ
p1169
aVrotateX
p1170
aVrotateY
p1171
aVrotateZ
p1172
aVscaleX
p1173
aVscaleY
p1174
aVscaleZ
p1175
aaF0
aF0
aF0
aF0
aF0
aF0
aF1
aF1
aF1
aa(lp1176
Vshirt_back_anim
p1177
a(lp1178
VtranslateX
p1179
aVtranslateY
p1180
aVtranslateZ
p1181
aVrotateX
p1182
aVrotateY
p1183
aVrotateZ
p1184
aVscaleX
p1185
aVscaleY
p1186
aVscaleZ
p1187
aaF0
aF0
aF0
aF0
aF0
aF0
aF1
aF1
aF1
aa(lp1188
Vshirt_l_anim
p1189
a(lp1190
VtranslateX
p1191
aVtranslateY
p1192
aVtranslateZ
p1193
aVrotateX
p1194
aVrotateY
p1195
aVrotateZ
p1196
aVscaleX
p1197
aVscaleY
p1198
aVscaleZ
p1199
aaF0
aF0
aF0
aF0
aF0
aF0
aF1
aF1
aF1
aa(lp1200
Vshirt_r_anim
p1201
a(lp1202
VtranslateX
p1203
aVtranslateY
p1204
aVtranslateZ
p1205
aVrotateX
p1206
aVrotateY
p1207
aVrotateZ
p1208
aVscaleX
p1209
aVscaleY
p1210
aVscaleZ
p1211
aaF0
aF0
aF0
aF0
aF0
aF0
aF1
aF1
aF1
aa(lp1212
Vspine_adj_01_anim
p1213
a(lp1214
VtranslateX
p1215
aVtranslateY
p1216
aVtranslateZ
p1217
aVrotateX
p1218
aVrotateY
p1219
aVrotateZ
p1220
aVscaleX
p1221
aVscaleY
p1222
aVscaleZ
p1223
aaF0
aF0
aF0
aF0
aF0
aF0
aF1
aF1
aF1
aa(lp1224
Vspine_adj_02_anim
p1225
a(lp1226
VtranslateX
p1227
aVtranslateY
p1228
aVtranslateZ
p1229
aVrotateX
p1230
aVrotateY
p1231
aVrotateZ
p1232
aVscaleX
p1233
aVscaleY
p1234
aVscaleZ
p1235
aaF0
aF0
aF0
aF0
aF0
aF0
aF1
aF1
aF1
aa(lp1236
Vspine_adj_03_anim
p1237
a(lp1238
VtranslateX
p1239
aVtranslateY
p1240
aVtranslateZ
p1241
aVrotateX
p1242
aVrotateY
p1243
aVrotateZ
p1244
aVscaleX
p1245
aVscaleY
p1246
aVscaleZ
p1247
aaF0
aF0
aF0
aF0
aF0
aF0
aF1
aF1
aF1
aa(lp1248
Vshirt_mstr_anim
p1249
a(lp1250
VtranslateX
p1251
aVtranslateY
p1252
aVtranslateZ
p1253
aVrotateX
p1254
aVrotateY
p1255
aVrotateZ
p1256
aVscaleX
p1257
aVscaleY
p1258
aVscaleZ
p1259
aaF0
aF0
aF0
aF0
aF-5.2663214061035601
aF0
aF1
aF1
aF1
aa(lp1260
VRig_Settings
p1261
a(lp1262
Vspine_ik
p1263
aVspine_fk
p1264
aVlLegMode
p1265
aVlThighTwistAmount
p1266
aVlCalfTwistAmount
p1267
aVrLegMode
p1268
aVrThighTwistAmount
p1269
aVrCalfTwistAmount
p1270
aVlFkArmOrient
p1271
aVlArmMode
p1272
aVlClavMode
p1273
aVltwistCtrlVis
p1274
aVlUpperarmTwistAmount
p1275
aVltwistCtrlVisLower
p1276
aVlForearmTwistAmount
p1277
aVrFkArmOrient
p1278
aVrArmMode
p1279
aVrClavMode
p1280
aVrtwistCtrlVis
p1281
aVrUpperarmTwistAmount
p1282
aVrtwistCtrlVisLower
p1283
aVrForearmTwistAmount
p1284
aVhood_fk
p1285
aVhood_ik
p1286
aVhood_dynamic
p1287
aaF1
aF0
aI1
aF0.90000000000000002
aF0.5
aI1
aF0.90000000000000002
aF0.5
aI2
aI1
aI1
aI00
aF0.90000000000000002
aI00
aF0.29999999999999999
aI2
aI1
aI1
aI00
aF0.90000000000000002
aI00
aF0.5
aF1
aF0
aF0
aa.