(lp1
(lp2
S'head_fk_anim'
p3
a(lp4
VtranslateX
p5
aVtranslateY
p6
aVtranslateZ
p7
aVrotateX
p8
aVrotateY
p9
aVrotateZ
p10
aVscaleX
p11
aVscaleY
p12
aVscaleZ
p13
aVfkOrientation
p14
aaF0
aF0
aF0
aF-54.585699265306197
aF-6.5036064310203283
aF-36.672154984402127
aF1
aF1
aF1
aI3
aa(lp15
S'neck_01_fk_anim'
p16
a(lp17
VtranslateX
p18
aVtranslateY
p19
aVtranslateZ
p20
aVrotateX
p21
aVrotateY
p22
aVrotateZ
p23
aVscaleX
p24
aVscaleY
p25
aVscaleZ
p26
aVfkOrientation
p27
aaF0
aF0
aF0
aF0.85387159225399223
aF3.2326214518373972
aF21.799105761216705
aF1
aF1
aF0.99999999999999989
aI0
aa(lp28
S'spine_01_anim'
p29
a(lp30
Vlength
p31
aVtranslateY
p32
aVtranslateZ
p33
aVrotateX
p34
aVrotateY
p35
aVrotateZ
p36
aaF0
aF0
aF0
aF-3.8829101162542408
aF-1.9292069973901824
aF-0.29785297404723204
aa(lp37
S'spine_02_anim'
p38
a(lp39
Vlength
p40
aVtranslateY
p41
aVtranslateZ
p42
aVrotateX
p43
aVrotateY
p44
aVrotateZ
p45
aaF0
aF0
aF0
aF-8.4748432885520995
aF-0.04951265866753557
aF-12.524609994382288
aa(lp46
S'spine_03_anim'
p47
a(lp48
Vlength
p49
aVtranslateY
p50
aVtranslateZ
p51
aVrotateX
p52
aVrotateY
p53
aVrotateZ
p54
aaF0
aF0
aF0
aF-4.4617646543986922
aF-2.0493905279614149
aF-18.678502315001754
aa(lp55
S'mid_ik_anim'
p56
a(lp57
VtranslateX
p58
aVtranslateY
p59
aVtranslateZ
p60
aVrotateX
p61
aVrotateY
p62
aVrotateZ
p63
aaF0.38394439657454282
aF-0.77541083209374029
aF0.43146338155410419
aF-12.708298482225537
aF-2.8445634164539331
aF-8.4885131704657475
aa(lp64
S'chest_ik_anim'
p65
a(lp66
VtranslateX
p67
aVtranslateY
p68
aVtranslateZ
p69
aVrotateX
p70
aVrotateY
p71
aVrotateZ
p72
aVstretch
p73
aVsquash
p74
aVtwist_amount
p75
aVautoSpine
p76
aVrotationInfluence
p77
aVspace_chest_ik_world_aligned
p78
aVspace_world
p79
aaF-0.64518300529861561
aF-4.9262114783593853
aF2.6109690522182194
aF-46.667813328561571
aF-5.1016907747446512
aF-35.794613046634801
aF1
aF0
aF1
aF0
aF0
aF1
aF0
aa(lp80
S'body_anim'
p81
a(lp82
VtranslateX
p83
aVtranslateY
p84
aVtranslateZ
p85
aVrotateX
p86
aVrotateY
p87
aVrotateZ
p88
aaF-16.227946855208451
aF46.630769528370251
aF-5.2894591731762928
aF-48.808682883632876
aF-3.4374518098589606
aF-11.240540663338095
aa(lp89
S'hip_anim'
p90
a(lp91
VtranslateX
p92
aVtranslateY
p93
aVtranslateZ
p94
aVrotateX
p95
aVrotateY
p96
aVrotateZ
p97
aVlTwistCtrlVis
p98
aVlCalfTwistCtrlVis
p99
aVrTwistCtrlVis
p100
aVrCalfTwistCtrlVis
p101
aVautoHips
p102
aaF0
aF0
aF0
aF0
aF0
aF1.4501944611405098
aI00
aI00
aI00
aI00
aF0
aa(lp103
S'clavicle_l_anim'
p104
a(lp105
VtranslateX
p106
aVtranslateY
p107
aVtranslateZ
p108
aVautoShoulders
p109
aaF-2.1434101618395465
aF-4.5812757120134613
aF-1.7045995023246858
aF0
aa(lp110
S'clavicle_r_anim'
p111
a(lp112
VtranslateX
p113
aVtranslateY
p114
aVtranslateZ
p115
aVautoShoulders
p116
aaF-3.3891848925594275
aF-0.72699379150076504
aF-0.9299501147328737
aF0
aa(lp117
S'fk_arm_l_anim'
p118
a(lp119
VtranslateX
p120
aVtranslateY
p121
aVtranslateZ
p122
aVrotateX
p123
aVrotateY
p124
aVrotateZ
p125
aVblendOrient1
p126
aaF0
aF0
aF0
aF-80.356777721857028
aF14.360956236865501
aF-70.203825007689744
aF1
aa(lp127
S'fk_arm_r_anim'
p128
a(lp129
VtranslateX
p130
aVtranslateY
p131
aVtranslateZ
p132
aVrotateX
p133
aVrotateY
p134
aVrotateZ
p135
aaF0
aF0
aF0
aF-62.226138666201535
aF40.141274826635353
aF-60.097304148465369
aa(lp136
S'fk_elbow_l_anim'
p137
a(lp138
VtranslateX
p139
aVtranslateY
p140
aVtranslateZ
p141
aVrotateX
p142
aVrotateY
p143
aVrotateZ
p144
aVblendOrient1
p145
aaF0
aF0
aF0
aF1.2325933104188755
aF0
aF-131.46832409975849
aF1
aa(lp146
S'fk_elbow_r_anim'
p147
a(lp148
VtranslateX
p149
aVtranslateY
p150
aVtranslateZ
p151
aVrotateX
p152
aVrotateY
p153
aVrotateZ
p154
aaF0
aF0
aF0
aF-0.50483917214150609
aF0.35540888409900551
aF-71.170113963816505
aa(lp155
S'fk_wrist_l_anim'
p156
a(lp157
VtranslateX
p158
aVtranslateY
p159
aVtranslateZ
p160
aVrotateX
p161
aVrotateY
p162
aVrotateZ
p163
aaF0
aF0
aF0
aF39.539866538078201
aF37.211025737060098
aF-28.690764578237349
aa(lp164
S'fk_wrist_r_anim'
p165
a(lp166
VtranslateX
p167
aVtranslateY
p168
aVtranslateZ
p169
aVrotateX
p170
aVrotateY
p171
aVrotateZ
p172
aaF0
aF0
aF0
aF33.365593342570989
aF11.104578504285715
aF1.0880418663105196
aa(lp173
S'ik_elbow_l_anim'
p174
a(lp175
VtranslateX
p176
aVtranslateY
p177
aVtranslateZ
p178
aaF-22.128723147728124
aF6.9067424033607878
aF-35.949798880912347
aa(lp179
S'ik_elbow_r_anim'
p180
a(lp181
VtranslateX
p182
aVtranslateY
p183
aVtranslateZ
p184
aaF40.16239736242148
aF54.606173694806486
aF-49.102192624410847
aa(lp185
S'ik_wrist_l_anim'
p186
a(lp187
VtranslateX
p188
aVtranslateY
p189
aVtranslateZ
p190
aVrotateX
p191
aVrotateY
p192
aVrotateZ
p193
aVstretch
p194
aVsquash
p195
aVside
p196
aVmid_bend
p197
aVmid_swivel
p198
aVtip_pivot
p199
aVtip_swivel
p200
aaF-72.215283494818593
aF-0.79394862964463009
aF-27.489235663313146
aF156.35557347702996
aF212.78988125652995
aF-1.7792020504383974
aF0
aF0
aF0
aF0
aF0
aF0
aF0
aa(lp201
S'ik_wrist_r_anim'
p202
a(lp203
VtranslateX
p204
aVtranslateY
p205
aVtranslateZ
p206
aVrotateX
p207
aVrotateY
p208
aVrotateZ
p209
aVstretch
p210
aVsquash
p211
aVside
p212
aVmid_bend
p213
aVmid_swivel
p214
aVtip_pivot
p215
aVtip_swivel
p216
aaF44.596798103106536
aF35.80433025748718
aF-61.548484131986278
aF-55.659377243844133
aF-27.748539631200064
aF61.02966674480205
aF0
aF0
aF0
aF0
aF0
aF0
aF0
aa(lp217
S'fk_thigh_l_anim'
p218
a(lp219
VrotateX
p220
aVrotateY
p221
aVrotateZ
p222
aaF-180
aF179.99999999999994
aF179.99999999999997
aa(lp223
S'fk_thigh_r_anim'
p224
a(lp225
VrotateX
p226
aVrotateY
p227
aVrotateZ
p228
aaF0
aF0
aF-360.00000000000006
aa(lp229
S'fk_calf_l_anim'
p230
a(lp231
VrotateX
p232
aVrotateY
p233
aVrotateZ
p234
aaF0
aF0
aF0
aa(lp235
S'fk_calf_r_anim'
p236
a(lp237
VrotateX
p238
aVrotateY
p239
aVrotateZ
p240
aaF0
aF0
aF0
aa(lp241
S'fk_foot_l_anim'
p242
a(lp243
VrotateX
p244
aVrotateY
p245
aVrotateZ
p246
aaF0
aF0
aF0
aa(lp247
S'fk_foot_r_anim'
p248
a(lp249
VrotateX
p250
aVrotateY
p251
aVrotateZ
p252
aaF0
aF0
aF0
aa(lp253
S'fk_ball_l_anim'
p254
a(lp255
VrotateX
p256
aVrotateY
p257
aVrotateZ
p258
aaF0
aF0
aF0
aa(lp259
S'fk_ball_r_anim'
p260
a(lp261
VrotateX
p262
aVrotateY
p263
aVrotateZ
p264
aaF0
aF0
aF0
aa(lp265
S'ik_foot_anim_l'
p266
a(lp267
VtranslateX
p268
aVtranslateY
p269
aVtranslateZ
p270
aVrotateX
p271
aVrotateY
p272
aVrotateZ
p273
aVknee_twist
p274
aVstretch
p275
aVsquash
p276
aVtoeCtrlVis
p277
aaF9.2040000000000006
aF12.979894056091936
aF-3.595442006343319e-07
aF0
aF0
aF-5.9199997016278818
aF-27.399999999999999
aF0
aF0
aI00
aa(lp278
S'ik_foot_anim_r'
p279
a(lp280
VtranslateX
p281
aVtranslateY
p282
aVtranslateZ
p283
aVrotateX
p284
aVrotateY
p285
aVrotateZ
p286
aVknee_twist
p287
aVstretch
p288
aVsquash
p289
aVtoeCtrlVis
p290
aaF-1.9348617500760383
aF68.209314519554951
aF0.00020309193664402869
aF0
aF0
aF-43.357852645994086
aF39.429354840950509
aF0
aF0
aI00
aa(lp291
S'heel_ctrl_l'
p292
a(lp293
VrotateX
p294
aVrotateY
p295
aVrotateZ
p296
aVheelPivot
p297
aVballPivot
p298
aaF0
aF0
aF0
aF0
aF0
aa(lp299
S'heel_ctrl_r'
p300
a(lp301
VrotateX
p302
aVrotateY
p303
aVrotateZ
p304
aVheelPivot
p305
aVballPivot
p306
aaF0
aF-2.3766525023231089
aF0
aF0
aF0
aa(lp307
S'toe_wiggle_ctrl_l'
p308
a(lp309
VrotateX
p310
aVrotateY
p311
aVrotateZ
p312
aaF0
aF0
aF0
aa(lp313
S'toe_wiggle_ctrl_r'
p314
a(lp315
VrotateX
p316
aVrotateY
p317
aVrotateZ
p318
aaF0
aF0
aF-4.0071232876079499
aa(lp319
S'toe_tip_ctrl_l'
p320
a(lp321
VrotateX
p322
aVrotateY
p323
aVrotateZ
p324
aaF0
aF0
aF0
aa(lp325
S'toe_tip_ctrl_r'
p326
a(lp327
VrotateX
p328
aVrotateY
p329
aVrotateZ
p330
aaF0
aF0
aF0
aa(lp331
S'master_anim'
p332
a(lp333
VtranslateX
p334
aVtranslateY
p335
aVtranslateZ
p336
aVrotateX
p337
aVrotateY
p338
aVrotateZ
p339
aaF0
aF-40
aF0
aF0
aF0
aF0
aa(lp340
S'offset_anim'
p341
a(lp342
VtranslateX
p343
aVtranslateY
p344
aVtranslateZ
p345
aVrotateX
p346
aVrotateY
p347
aVrotateZ
p348
aaF0
aF0
aF0
aF0
aF0
aF0
aa(lp349
S'root_anim'
p350
a(lp351
VtranslateX
p352
aVtranslateY
p353
aVtranslateZ
p354
aVrotateX
p355
aVrotateY
p356
aVrotateZ
p357
aaF0
aF40
aF0
aF0
aF0
aF0
aa(lp358
S'upperarm_l_twist_anim'
p359
a(lp360
VtranslateX
p361
aVtranslateY
p362
aVtranslateZ
p363
aVrotateX
p364
aVrotateY
p365
aVrotateZ
p366
aVscaleX
p367
aVscaleY
p368
aVscaleZ
p369
aaF0
aF0
aF0
aF0
aF0
aF0
aF1
aF1
aF1
aa(lp370
S'upperarm_r_twist_anim'
p371
a(lp372
VtranslateX
p373
aVtranslateY
p374
aVtranslateZ
p375
aVrotateX
p376
aVrotateY
p377
aVrotateZ
p378
aVscaleX
p379
aVscaleY
p380
aVscaleZ
p381
aaF0
aF0
aF0
aF0
aF0
aF0
aF1
aF1
aF1
aa(lp382
S'thigh_l_twist_anim'
p383
a(lp384
VtranslateX
p385
aVtranslateY
p386
aVtranslateZ
p387
aVrotateX
p388
aVrotateY
p389
aVrotateZ
p390
aaF0
aF0
aF0
aF0
aF0
aF0
aa(lp391
S'thigh_r_twist_anim'
p392
a(lp393
VtranslateX
p394
aVtranslateY
p395
aVtranslateZ
p396
aVrotateX
p397
aVrotateY
p398
aVrotateZ
p399
aaF0
aF0
aF0
aF0
aF0
aF0
aa(lp400
S'pinky_finger_fk_ctrl_1_l'
p401
a(lp402
VtranslateX
p403
aVtranslateY
p404
aVtranslateZ
p405
aVrotateX
p406
aVrotateY
p407
aVrotateZ
p408
aVsticky
p409
aaF0
aF0
aF0
aF-3.6066879659833293
aF3.5886863985414741
aF-2.1103142507586368
aF0
aa(lp410
S'pinky_finger_fk_ctrl_1_r'
p411
a(lp412
VtranslateX
p413
aVtranslateY
p414
aVtranslateZ
p415
aVrotateX
p416
aVrotateY
p417
aVrotateZ
p418
aVsticky
p419
aaF0
aF0
aF0
aF-8.7360977449424588
aF11.069504841720876
aF19.156871338663755
aF0
aa(lp420
S'pinky_finger_fk_ctrl_2_l'
p421
a(lp422
VtranslateX
p423
aVtranslateY
p424
aVtranslateZ
p425
aVrotateX
p426
aVrotateY
p427
aVrotateZ
p428
aaF0
aF0
aF0
aF0
aF0
aF50.383016589286179
aa(lp429
S'pinky_finger_fk_ctrl_2_r'
p430
a(lp431
VtranslateX
p432
aVtranslateY
p433
aVtranslateZ
p434
aVrotateX
p435
aVrotateY
p436
aVrotateZ
p437
aaF0
aF0
aF0
aF0
aF0
aF66.623741917806271
aa(lp438
S'pinky_finger_fk_ctrl_3_l'
p439
a(lp440
VtranslateX
p441
aVtranslateY
p442
aVtranslateZ
p443
aVrotateX
p444
aVrotateY
p445
aVrotateZ
p446
aaF0
aF0
aF0
aF0
aF0
aF46.837878669286155
aa(lp447
S'pinky_finger_fk_ctrl_3_r'
p448
a(lp449
VtranslateX
p450
aVtranslateY
p451
aVtranslateZ
p452
aVrotateX
p453
aVrotateY
p454
aVrotateZ
p455
aaF0
aF0
aF0
aF0
aF0
aF82.837878270000004
aa(lp456
S'ring_finger_fk_ctrl_1_l'
p457
a(lp458
VtranslateX
p459
aVtranslateY
p460
aVtranslateZ
p461
aVrotateX
p462
aVrotateY
p463
aVrotateZ
p464
aVsticky
p465
aaF0
aF0
aF0
aF10.561902317940586
aF17.268029870708517
aF19.379549181105734
aF0
aa(lp466
S'ring_finger_fk_ctrl_1_r'
p467
a(lp468
VtranslateX
p469
aVtranslateY
p470
aVtranslateZ
p471
aVrotateX
p472
aVrotateY
p473
aVrotateZ
p474
aVsticky
p475
aaF0
aF0
aF0
aF3.2746392561081135
aF9.9117820060285773
aF34.604629836839727
aF0
aa(lp476
S'ring_finger_fk_ctrl_2_l'
p477
a(lp478
VtranslateX
p479
aVtranslateY
p480
aVtranslateZ
p481
aVrotateX
p482
aVrotateY
p483
aVrotateZ
p484
aaF0
aF0
aF0
aF0
aF0
aF39.475565979286131
aa(lp485
S'ring_finger_fk_ctrl_2_r'
p486
a(lp487
VtranslateX
p488
aVtranslateY
p489
aVtranslateZ
p490
aVrotateX
p491
aVrotateY
p492
aVrotateZ
p493
aaF0
aF0
aF0
aF0
aF0
aF43.599941452242227
aa(lp494
S'ring_finger_fk_ctrl_3_l'
p495
a(lp496
VtranslateX
p497
aVtranslateY
p498
aVtranslateZ
p499
aVrotateX
p500
aVrotateY
p501
aVrotateZ
p502
aaF0
aF0
aF0
aF0
aF0
aF57.02170457928613
aa(lp503
S'ring_finger_fk_ctrl_3_r'
p504
a(lp505
VtranslateX
p506
aVtranslateY
p507
aVtranslateZ
p508
aVrotateX
p509
aVrotateY
p510
aVrotateZ
p511
aaF0
aF0
aF0
aF-7.7216702048376327
aF-8.6430609283422157
aF84.19003942622048
aa(lp512
S'middle_finger_fk_ctrl_1_l'
p513
a(lp514
VtranslateX
p515
aVtranslateY
p516
aVtranslateZ
p517
aVrotateX
p518
aVrotateY
p519
aVrotateZ
p520
aVsticky
p521
aaF0
aF0
aF0
aF-0.03143546544615039
aF3.3683475459156713
aF4.7745473769148177
aF0
aa(lp522
S'middle_finger_fk_ctrl_1_r'
p523
a(lp524
VtranslateX
p525
aVtranslateY
p526
aVtranslateZ
p527
aVrotateX
p528
aVrotateY
p529
aVrotateZ
p530
aVsticky
p531
aaF0
aF0
aF0
aF-1.1760316152951233
aF2.9413927821071151
aF10.505648710610513
aF0
aa(lp532
S'middle_finger_fk_ctrl_2_l'
p533
a(lp534
VtranslateX
p535
aVtranslateY
p536
aVtranslateZ
p537
aVrotateX
p538
aVrotateY
p539
aVrotateZ
p540
aaF0
aF0
aF0
aF0
aF0
aF46.266493589286156
aa(lp541
S'middle_finger_fk_ctrl_2_r'
p542
a(lp543
VtranslateX
p544
aVtranslateY
p545
aVtranslateZ
p546
aVrotateX
p547
aVrotateY
p548
aVrotateZ
p549
aaF0
aF0
aF0
aF0
aF0
aF27.352798163131737
aa(lp550
S'middle_finger_fk_ctrl_3_l'
p551
a(lp552
VtranslateX
p553
aVtranslateY
p554
aVtranslateZ
p555
aVrotateX
p556
aVrotateY
p557
aVrotateZ
p558
aaF0
aF0
aF0
aF0
aF0
aF47.890416229286132
aa(lp559
S'middle_finger_fk_ctrl_3_r'
p560
a(lp561
VtranslateX
p562
aVtranslateY
p563
aVtranslateZ
p564
aVrotateX
p565
aVrotateY
p566
aVrotateZ
p567
aaF0
aF0
aF0
aF0
aF0
aF48.735995075325597
aa(lp568
S'index_finger_fk_ctrl_1_l'
p569
a(lp570
VtranslateX
p571
aVtranslateY
p572
aVtranslateZ
p573
aVrotateX
p574
aVrotateY
p575
aVrotateZ
p576
aVsticky
p577
aaF0
aF0
aF0
aF-7.5661950113479284
aF-3.7856909262119394
aF3.1935016414373729
aF0
aa(lp578
S'index_finger_fk_ctrl_1_r'
p579
a(lp580
VtranslateX
p581
aVtranslateY
p582
aVtranslateZ
p583
aVrotateX
p584
aVrotateY
p585
aVrotateZ
p586
aVsticky
p587
aaF0
aF0
aF0
aF-2.4268040740684684
aF-2.0045898495693506
aF-4.6824600031134977
aF0
aa(lp588
S'index_finger_fk_ctrl_2_l'
p589
a(lp590
VtranslateX
p591
aVtranslateY
p592
aVtranslateZ
p593
aVrotateX
p594
aVrotateY
p595
aVrotateZ
p596
aaF0
aF0
aF0
aF0
aF0
aF61.964136409286127
aa(lp597
S'index_finger_fk_ctrl_2_r'
p598
a(lp599
VtranslateX
p600
aVtranslateY
p601
aVtranslateZ
p602
aVrotateX
p603
aVrotateY
p604
aVrotateZ
p605
aaF0
aF0
aF0
aF0
aF0
aF32.714512036618558
aa(lp606
S'index_finger_fk_ctrl_3_l'
p607
a(lp608
VtranslateX
p609
aVtranslateY
p610
aVtranslateZ
p611
aVrotateX
p612
aVrotateY
p613
aVrotateZ
p614
aaF0
aF0
aF0
aF0
aF0
aF25.491983163931387
aa(lp615
S'index_finger_fk_ctrl_3_r'
p616
a(lp617
VtranslateX
p618
aVtranslateY
p619
aVtranslateZ
p620
aVrotateX
p621
aVrotateY
p622
aVrotateZ
p623
aaF0
aF0
aF0
aF0
aF0
aF16.001633063457469
aa(lp624
S'thumb_finger_fk_ctrl_1_l'
p625
a(lp626
VtranslateX
p627
aVtranslateY
p628
aVtranslateZ
p629
aVrotateX
p630
aVrotateY
p631
aVrotateZ
p632
aVsticky
p633
aaF0
aF0
aF0
aF-9.4600272470545299
aF14.678977989492113
aF-9.2609823619738449
aF0
aa(lp634
S'thumb_finger_fk_ctrl_1_r'
p635
a(lp636
VtranslateX
p637
aVtranslateY
p638
aVtranslateZ
p639
aVrotateX
p640
aVrotateY
p641
aVrotateZ
p642
aVsticky
p643
aaF0
aF0
aF0
aF315.89423580170507
aF-2.9908121291457124
aF-11.597662419676325
aF0
aa(lp644
S'thumb_finger_fk_ctrl_2_l'
p645
a(lp646
VtranslateX
p647
aVtranslateY
p648
aVtranslateZ
p649
aVrotateX
p650
aVrotateY
p651
aVrotateZ
p652
aaF0
aF0
aF0
aF7.3811302900000006
aF0.88000102260000002
aF17.176075029286146
aa(lp653
S'thumb_finger_fk_ctrl_2_r'
p654
a(lp655
VtranslateX
p656
aVtranslateY
p657
aVtranslateZ
p658
aVrotateX
p659
aVrotateY
p660
aVrotateZ
p661
aaF0
aF0
aF0
aF367.38113028999999
aF0.88000102260000002
aF31.90696337439838
aa(lp662
S'thumb_finger_fk_ctrl_3_l'
p663
a(lp664
VtranslateX
p665
aVtranslateY
p666
aVtranslateZ
p667
aVrotateX
p668
aVrotateY
p669
aVrotateZ
p670
aaF0
aF0
aF0
aF0
aF0
aF29.36438818886241
aa(lp671
S'thumb_finger_fk_ctrl_3_r'
p672
a(lp673
VtranslateX
p674
aVtranslateY
p675
aVtranslateZ
p676
aVrotateX
p677
aVrotateY
p678
aVrotateZ
p679
aaF0
aF0
aF0
aF0
aF0
aF38.207408244239737
aa(lp680
S'index_l_ik_anim'
p681
a(lp682
VtranslateX
p683
aVtranslateY
p684
aVtranslateZ
p685
aVrotateX
p686
aVrotateY
p687
aVrotateZ
p688
aVpoleVectorVis
p689
aaF0
aF0
aF0
aF0
aF0
aF0
aF0
aa(lp690
S'index_r_ik_anim'
p691
a(lp692
VtranslateX
p693
aVtranslateY
p694
aVtranslateZ
p695
aVrotateX
p696
aVrotateY
p697
aVrotateZ
p698
aVpoleVectorVis
p699
aaF0
aF0
aF0
aF0
aF0
aF0
aF0
aa(lp700
S'middle_l_ik_anim'
p701
a(lp702
VtranslateX
p703
aVtranslateY
p704
aVtranslateZ
p705
aVrotateX
p706
aVrotateY
p707
aVrotateZ
p708
aVpoleVectorVis
p709
aaF0
aF0
aF0
aF0
aF0
aF0
aF0
aa(lp710
S'middle_r_ik_anim'
p711
a(lp712
VtranslateX
p713
aVtranslateY
p714
aVtranslateZ
p715
aVrotateX
p716
aVrotateY
p717
aVrotateZ
p718
aVpoleVectorVis
p719
aaF0
aF0
aF0
aF0
aF0
aF0
aF0
aa(lp720
S'ring_l_ik_anim'
p721
a(lp722
VtranslateX
p723
aVtranslateY
p724
aVtranslateZ
p725
aVrotateX
p726
aVrotateY
p727
aVrotateZ
p728
aVpoleVectorVis
p729
aaF0
aF0
aF0
aF0
aF0
aF0
aF0
aa(lp730
S'ring_r_ik_anim'
p731
a(lp732
VtranslateX
p733
aVtranslateY
p734
aVtranslateZ
p735
aVrotateX
p736
aVrotateY
p737
aVrotateZ
p738
aVpoleVectorVis
p739
aaF0
aF0
aF0
aF0
aF0
aF0
aF0
aa(lp740
S'pinky_l_ik_anim'
p741
a(lp742
VtranslateX
p743
aVtranslateY
p744
aVtranslateZ
p745
aVrotateX
p746
aVrotateY
p747
aVrotateZ
p748
aVpoleVectorVis
p749
aaF0
aF0
aF0
aF0
aF0
aF0
aF0
aa(lp750
S'pinky_r_ik_anim'
p751
a(lp752
VtranslateX
p753
aVtranslateY
p754
aVtranslateZ
p755
aVrotateX
p756
aVrotateY
p757
aVrotateZ
p758
aVpoleVectorVis
p759
aaF0
aF0
aF0
aF0
aF0
aF0
aF0
aa(lp760
S'thumb_l_ik_anim'
p761
a(lp762
VtranslateX
p763
aVtranslateY
p764
aVtranslateZ
p765
aVrotateX
p766
aVrotateY
p767
aVrotateZ
p768
aVpoleVectorVis
p769
aaF0
aF0
aF0
aF0
aF0
aF0
aF0
aa(lp770
S'thumb_r_ik_anim'
p771
a(lp772
VtranslateX
p773
aVtranslateY
p774
aVtranslateZ
p775
aVrotateX
p776
aVrotateY
p777
aVrotateZ
p778
aVpoleVectorVis
p779
aaF0
aF0
aF0
aF0
aF0
aF0
aF0
aa(lp780
S'index_l_poleVector'
p781
a(lp782
VtranslateX
p783
aVtranslateY
p784
aVtranslateZ
p785
aVrotateX
p786
aVrotateY
p787
aVrotateZ
p788
aaF0
aF0
aF0
aF0
aF0
aF0
aa(lp789
S'index_r_poleVector'
p790
a(lp791
VtranslateX
p792
aVtranslateY
p793
aVtranslateZ
p794
aVrotateX
p795
aVrotateY
p796
aVrotateZ
p797
aaF0
aF0
aF0
aF0
aF0
aF0
aa(lp798
S'middle_l_poleVector'
p799
a(lp800
VtranslateX
p801
aVtranslateY
p802
aVtranslateZ
p803
aVrotateX
p804
aVrotateY
p805
aVrotateZ
p806
aaF0
aF0
aF0
aF0
aF0
aF0
aa(lp807
S'middle_r_poleVector'
p808
a(lp809
VtranslateX
p810
aVtranslateY
p811
aVtranslateZ
p812
aVrotateX
p813
aVrotateY
p814
aVrotateZ
p815
aaF0
aF0
aF0
aF0
aF0
aF0
aa(lp816
S'ring_l_poleVector'
p817
a(lp818
VtranslateX
p819
aVtranslateY
p820
aVtranslateZ
p821
aVrotateX
p822
aVrotateY
p823
aVrotateZ
p824
aaF0
aF0
aF0
aF0
aF0
aF0
aa(lp825
S'ring_r_poleVector'
p826
a(lp827
VtranslateX
p828
aVtranslateY
p829
aVtranslateZ
p830
aVrotateX
p831
aVrotateY
p832
aVrotateZ
p833
aaF0
aF0
aF0
aF0
aF0
aF0
aa(lp834
S'pinky_l_poleVector'
p835
a(lp836
VtranslateX
p837
aVtranslateY
p838
aVtranslateZ
p839
aVrotateX
p840
aVrotateY
p841
aVrotateZ
p842
aaF0
aF0
aF0
aF0
aF0
aF0
aa(lp843
S'pinky_r_poleVector'
p844
a(lp845
VtranslateX
p846
aVtranslateY
p847
aVtranslateZ
p848
aVrotateX
p849
aVrotateY
p850
aVrotateZ
p851
aaF0
aF0
aF0
aF0
aF0
aF0
aa(lp852
S'thumb_l_poleVector'
p853
a(lp854
VtranslateX
p855
aVtranslateY
p856
aVtranslateZ
p857
aVrotateX
p858
aVrotateY
p859
aVrotateZ
p860
aaF0
aF0
aF0
aF0
aF0
aF0
aa(lp861
S'thumb_r_poleVector'
p862
a(lp863
VtranslateX
p864
aVtranslateY
p865
aVtranslateZ
p866
aVrotateX
p867
aVrotateY
p868
aVrotateZ
p869
aaF0
aF0
aF0
aF0
aF0
aF0
aa(lp870
S'l_global_ik_anim'
p871
a(lp872
VtranslateX
p873
aVtranslateY
p874
aVtranslateZ
p875
aVrotateX
p876
aVrotateY
p877
aVrotateZ
p878
aaF0
aF0
aF0
aF0
aF0
aF0
aa(lp879
S'r_global_ik_anim'
p880
a(lp881
VtranslateX
p882
aVtranslateY
p883
aVtranslateZ
p884
aVrotateX
p885
aVrotateY
p886
aVrotateZ
p887
aaF0
aF0
aF0
aF0
aF0
aF0
aa(lp888
S'Rig_Settings'
p889
a(lp890
Vspine_ik
p891
aVspine_fk
p892
aVlLegMode
p893
aVlThighTwistAmount
p894
aVlCalfTwistAmount
p895
aVrLegMode
p896
aVrThighTwistAmount
p897
aVrCalfTwistAmount
p898
aVlFkArmOrient
p899
aVlArmMode
p900
aVlClavMode
p901
aVltwistCtrlVis
p902
aVlUpperarmTwistAmount
p903
aVlUpperarmTwist2Amount
p904
aVltwistCtrlVisLower
p905
aVlForearmTwistAmount
p906
aVlForearmTwist2Amount
p907
aVrFkArmOrient
p908
aVrArmMode
p909
aVrClavMode
p910
aVrtwistCtrlVis
p911
aVrUpperarmTwistAmount
p912
aVrUpperarmTwist2Amount
p913
aVrtwistCtrlVisLower
p914
aVrForearmTwistAmount
p915
aVrForearmTwist2Amount
p916
aVhood_fk
p917
aVhood_ik
p918
aVhood_dynamic
p919
aaF1
aF0
aI1
aF0.90000000000000002
aF0.5
aI1
aF0.90000000000000002
aF0.5
aI1
aI1
aI1
aI00
aF0
aF0
aI00
aF0.5
aF0.5
aI1
aI1
aI1
aI00
aF0
aF0
aI00
aF0.5
aF0.5
aF1
aF0
aF0
aa(lp920
Vjaw_anim
p921
a(lp922
VtranslateX
p923
aVtranslateY
p924
aVtranslateZ
p925
aVrotateX
p926
aVrotateY
p927
aVrotateZ
p928
aVscaleX
p929
aVscaleY
p930
aVscaleZ
p931
aaF1.5364344022120719
aF-1.4574135267263577
aF-1.118082112702822
aF-3.2108105414764316
aF-7.2731662433691229
aF-12.118116550370427
aF1.0000000000000002
aF1.0000000000000002
aF1.0000000000000002
aa(lp932
Vhood_dyn_anim
p933
a(lp934
VtranslateX
p935
aVtranslateY
p936
aVtranslateZ
p937
aVrotateX
p938
aVrotateY
p939
aVrotateZ
p940
aVchainAttach
p941
aVchainStartEnvelope
p942
aVchainStartFrame
p943
aVchainStiffness
p944
aVchainDamping
p945
aVchainGravity
p946
aVchainIteration
p947
aVchainCollide
p948
aVchainWidthBase
p949
aVchainWidthExtremity
p950
aVchainCollideGround
p951
aVchainCollideGroundHeight
p952
aaF0
aF0
aF0
aF0
aF0
aF0
aI1
aF1
aF1
aF0.050000000000000003
aF0.25
aF5
aI5
aI00
aF1
aF1
aI00
aF0
aa(lp953
Vhood_ik_2_anim
p954
a(lp955
VtranslateX
p956
aVtranslateY
p957
aVtranslateZ
p958
aVrotateX
p959
aVrotateY
p960
aVrotateZ
p961
aaF0
aF0
aF0
aF0
aF0
aF0
aa(lp962
Vhood_ik_3_anim
p963
a(lp964
VtranslateX
p965
aVtranslateY
p966
aVtranslateZ
p967
aVrotateX
p968
aVrotateY
p969
aVrotateZ
p970
aVclusterControlVis
p971
aaF0
aF0
aF0
aF0
aF0
aF0
aI00
aa(lp972
Vhood_ik_base_anim
p973
a(lp974
VtranslateX
p975
aVtranslateY
p976
aVtranslateZ
p977
aVrotateX
p978
aVrotateY
p979
aVrotateZ
p980
aVglobal_scale
p981
aaF0
aF0
aF0
aF0
aF0
aF0
aF1
aa(lp982
Vfk_hood_01_anim
p983
a(lp984
VtranslateX
p985
aVtranslateY
p986
aVtranslateZ
p987
aVrotateX
p988
aVrotateY
p989
aVrotateZ
p990
aVglobal_scale
p991
aVlagMode
p992
aaF-0.38732203167154988
aF-0.54444156520839393
aF-9.6368243285708388
aF-25.131394996389059
aF0.41378590174106011
aF0.55104886776574902
aF1
aF0
aa(lp993
Vhood_cv_0_anim
p994
a(lp995
VtranslateX
p996
aVtranslateY
p997
aVtranslateZ
p998
aaF0
aF0
aF0
aa(lp999
Vfk_hood_02_anim
p1000
a(lp1001
VtranslateX
p1002
aVtranslateY
p1003
aVtranslateZ
p1004
aVrotateX
p1005
aVrotateY
p1006
aVrotateZ
p1007
aaF0
aF0
aF0
aF6.0576355799871653
aF0
aF0
aa(lp1008
Vhood_cv_1_anim
p1009
a(lp1010
VtranslateX
p1011
aVtranslateY
p1012
aVtranslateZ
p1013
aaF0
aF0
aF0
aa(lp1014
Vfk_hood_03_anim
p1015
a(lp1016
VtranslateX
p1017
aVtranslateY
p1018
aVtranslateZ
p1019
aVrotateX
p1020
aVrotateY
p1021
aVrotateZ
p1022
aaF0
aF0
aF0
aF5.1158882538734627
aF0
aF0
aa(lp1023
Vhood_cv_2_anim
p1024
a(lp1025
VtranslateX
p1026
aVtranslateY
p1027
aVtranslateZ
p1028
aaF0
aF0
aF0
aa(lp1029
Vbody_anim_space_switcher
p1030
a(lp1031
Vvisibility
p1032
aVtranslateX
p1033
aVtranslateY
p1034
aVtranslateZ
p1035
aVrotateX
p1036
aVrotateY
p1037
aVrotateZ
p1038
aVscaleX
p1039
aVscaleY
p1040
aVscaleZ
p1041
aVspace_world
p1042
aaI01
aF0
aF0
aF0
aF0
aF0
aF0
aF1
aF1
aF1
aF0
aa(lp1043
Vchest_ik_anim_space_switcher
p1044
a(lp1045
Vvisibility
p1046
aVtranslateX
p1047
aVtranslateY
p1048
aVtranslateZ
p1049
aVrotateX
p1050
aVrotateY
p1051
aVrotateZ
p1052
aVscaleX
p1053
aVscaleY
p1054
aVscaleZ
p1055
aaI01
aF-1.4210854715202004e-14
aF-1.4210854715202004e-14
aF4.4408920985006262e-15
aF-4.2937488199757481e-14
aF9.342879376799085e-15
aF5.168401357378212e-15
aF0.99999999999999989
aF1
aF1
aa(lp1056
Vik_elbow_l_anim_space_switcher
p1057
a(lp1058
Vvisibility
p1059
aVtranslateX
p1060
aVtranslateY
p1061
aVtranslateZ
p1062
aVrotateX
p1063
aVrotateY
p1064
aVrotateZ
p1065
aVscaleX
p1066
aVscaleY
p1067
aVscaleZ
p1068
aVspace_world
p1069
aVspace_body_anim
p1070
aVspace_chest_ik_anim
p1071
aaI01
aF0
aF0
aF0
aF0
aF0
aF0
aF1
aF1
aF1
aF0
aF0
aF0
aa(lp1072
Vik_elbow_r_anim_space_switcher
p1073
a(lp1074
Vvisibility
p1075
aVtranslateX
p1076
aVtranslateY
p1077
aVtranslateZ
p1078
aVrotateX
p1079
aVrotateY
p1080
aVrotateZ
p1081
aVscaleX
p1082
aVscaleY
p1083
aVscaleZ
p1084
aVspace_world
p1085
aVspace_body_anim
p1086
aVspace_chest_ik_anim
p1087
aaI01
aF0
aF0
aF0
aF0
aF0
aF0
aF1
aF1
aF1
aF0
aF0
aF0
aa(lp1088
Vik_foot_anim_l_space_switcher
p1089
a(lp1090
Vvisibility
p1091
aVtranslateX
p1092
aVtranslateY
p1093
aVtranslateZ
p1094
aVrotateX
p1095
aVrotateY
p1096
aVrotateZ
p1097
aVscaleX
p1098
aVscaleY
p1099
aVscaleZ
p1100
aVspace_world
p1101
aVspace_body_anim
p1102
aaI01
aF0
aF0
aF0
aF0
aF0
aF0
aF1
aF1
aF1
aF0
aF0
aa(lp1103
Vik_foot_anim_r_space_switcher
p1104
a(lp1105
Vvisibility
p1106
aVtranslateX
p1107
aVtranslateY
p1108
aVtranslateZ
p1109
aVrotateX
p1110
aVrotateY
p1111
aVrotateZ
p1112
aVscaleX
p1113
aVscaleY
p1114
aVscaleZ
p1115
aVspace_world
p1116
aVspace_body_anim
p1117
aaI01
aF0
aF0
aF0
aF0
aF0
aF0
aF1
aF1
aF1
aF0
aF0
aa(lp1118
Vik_wrist_l_anim_space_switcher
p1119
a(lp1120
Vvisibility
p1121
aVtranslateX
p1122
aVtranslateY
p1123
aVtranslateZ
p1124
aVrotateX
p1125
aVrotateY
p1126
aVrotateZ
p1127
aVscaleX
p1128
aVscaleY
p1129
aVscaleZ
p1130
aVspace_world
p1131
aVspace_body_anim
p1132
aVspace_head_fk_anim
p1133
aVspace_chest_ik_anim
p1134
aaI01
aF0
aF0
aF0
aF0
aF0
aF0
aF1
aF1
aF1
aF0
aF0
aF0
aF0
aa(lp1135
Vik_wrist_r_anim_space_switcher
p1136
a(lp1137
Vvisibility
p1138
aVtranslateX
p1139
aVtranslateY
p1140
aVtranslateZ
p1141
aVrotateX
p1142
aVrotateY
p1143
aVrotateZ
p1144
aVscaleX
p1145
aVscaleY
p1146
aVscaleZ
p1147
aVspace_world
p1148
aVspace_body_anim
p1149
aVspace_head_fk_anim
p1150
aVspace_chest_ik_anim
p1151
aaI01
aF0
aF0
aF0
aF0
aF0
aF0
aF1
aF1
aF1
aF0
aF0
aF0
aF0
aa(lp1152
Vjaw_anim_space_switcher
p1153
a(lp1154
Vvisibility
p1155
aVtranslateX
p1156
aVtranslateY
p1157
aVtranslateZ
p1158
aVrotateX
p1159
aVrotateY
p1160
aVrotateZ
p1161
aVscaleX
p1162
aVscaleY
p1163
aVscaleZ
p1164
aVspace_world
p1165
aaI01
aF0
aF0
aF0
aF0
aF0
aF0
aF1
aF1
aF1.0000000000000002
aF0
aa(lp1166
Vl_global_ik_anim_space_switcher
p1167
a(lp1168
Vvisibility
p1169
aVtranslateX
p1170
aVtranslateY
p1171
aVtranslateZ
p1172
aVrotateX
p1173
aVrotateY
p1174
aVrotateZ
p1175
aVscaleX
p1176
aVscaleY
p1177
aVscaleZ
p1178
aVspace_world
p1179
aaI01
aF4.2632564145606011e-14
aF-5.6843418860808015e-14
aF8.8817841970012523e-15
aF6.3611093629270351e-15
aF6.3611093629270335e-15
aF1.9083328088781101e-14
aF1
aF1
aF1
aF0
aa(lp1180
Vmaster_anim_space_switcher
p1181
a(lp1182
Vvisibility
p1183
aVtranslateX
p1184
aVtranslateY
p1185
aVtranslateZ
p1186
aVrotateX
p1187
aVrotateY
p1188
aVrotateZ
p1189
aVscaleX
p1190
aVscaleY
p1191
aVscaleZ
p1192
aVspace_world
p1193
aaI01
aF0
aF0
aF0
aF0
aF0
aF0
aF1
aF1
aF1
aF0
aa(lp1194
Vr_global_ik_anim_space_switcher
p1195
a(lp1196
Vvisibility
p1197
aVtranslateX
p1198
aVtranslateY
p1199
aVtranslateZ
p1200
aVrotateX
p1201
aVrotateY
p1202
aVrotateZ
p1203
aVscaleX
p1204
aVscaleY
p1205
aVscaleZ
p1206
aVspace_world
p1207
aaI01
aF-3.5527136788005009e-14
aF-1.4210854715202004e-14
aF7.9936057773011271e-15
aF6.3611093629270335e-15
aF-6.3611093629270335e-15
aF6.3611093629270335e-15
aF1
aF1
aF1
aF0
aa(lp1208
Vspine_01_space_switcher
p1209
a(lp1210
Vvisibility
p1211
aVtranslateX
p1212
aVtranslateY
p1213
aVtranslateZ
p1214
aVrotateX
p1215
aVrotateY
p1216
aVrotateZ
p1217
aVscaleX
p1218
aVscaleY
p1219
aVscaleZ
p1220
aVspace_world
p1221
aaI01
aF0
aF-7.1054273576010019e-15
aF-4.4408920985006262e-15
aF6.3611093629270351e-15
aF5.1684013573782128e-15
aF4.2142349529391595e-14
aF1
aF1
aF1
aF0
aa.