(lp1
(lp2
S'fk_clavicle_r_anim'
p3
a(lp4
VtranslateX
p5
aVtranslateY
p6
aVtranslateZ
p7
aVrotateX
p8
aVrotateY
p9
aVrotateZ
p10
aaF0
aF0
aF0
aF0
aF1.9432571129201655
aF0
aa(lp11
S'fk_clavicle_l_anim'
p12
a(lp13
VtranslateX
p14
aVtranslateY
p15
aVtranslateZ
p16
aVrotateX
p17
aVrotateY
p18
aVrotateZ
p19
aaF0
aF0
aF0
aF0
aF2.1166738195810746
aF0
aa(lp20
S'head_fk_anim'
p21
a(lp22
VtranslateX
p23
aVtranslateY
p24
aVtranslateZ
p25
aVrotateX
p26
aVrotateY
p27
aVrotateZ
p28
aVscaleX
p29
aVscaleY
p30
aVscaleZ
p31
aVfkOrientation
p32
aaF0
aF0
aF0
aF-7.1044818831448531
aF-1.9166131501312775
aF-5.1673374272442985
aF1
aF1
aF1
aI3
aa(lp33
S'neck_01_fk_anim'
p34
a(lp35
VtranslateX
p36
aVtranslateY
p37
aVtranslateZ
p38
aVrotateX
p39
aVrotateY
p40
aVrotateZ
p41
aVscaleX
p42
aVscaleY
p43
aVscaleZ
p44
aVfkOrientation
p45
aaF0
aF0
aF0
aF-24.286370939576241
aF-5.4204288021737836
aF-4.7048225698255699
aF1
aF1
aF1
aI2
aa(lp46
S'neck_02_fk_anim'
p47
a(lp48
VtranslateX
p49
aVtranslateY
p50
aVtranslateZ
p51
aVrotateX
p52
aVrotateY
p53
aVrotateZ
p54
aVscaleX
p55
aVscaleY
p56
aVscaleZ
p57
aaF0
aF0
aF0
aF0
aF0
aF0
aF1
aF1
aF1
aa(lp58
S'spine_01_anim'
p59
a(lp60
Vlength
p61
aVtranslateY
p62
aVtranslateZ
p63
aVrotateX
p64
aVrotateY
p65
aVrotateZ
p66
aaF0
aF0
aF0
aF-6.2301735999999996
aF5.2517510999999999
aF-11.625978
aa(lp67
S'spine_02_anim'
p68
a(lp69
Vlength
p70
aVtranslateY
p71
aVtranslateZ
p72
aVrotateX
p73
aVrotateY
p74
aVrotateZ
p75
aVspine_3_Influence
p76
aVspine_1_Influence
p77
aVdriven
p78
aaF0
aF0
aF0
aF0
aF0
aF0
aF0
aF0
aF0
aa(lp79
S'spine_03_anim'
p80
a(lp81
Vlength
p82
aVtranslateY
p83
aVtranslateZ
p84
aVrotateX
p85
aVrotateY
p86
aVrotateZ
p87
aaF0
aF0
aF0
aF-3.3202970999999999
aF-1.3888346
aF-4.3274968999999999
aa(lp88
S'spine_04_anim'
p89
a(lp90
Vlength
p91
aVtranslateY
p92
aVtranslateZ
p93
aVrotateX
p94
aVrotateY
p95
aVrotateZ
p96
aVspine_5_Influence
p97
aVspine_3_Influence
p98
aVdriven
p99
aaF0
aF0
aF0
aF0
aF0
aF0
aF0
aF0
aF0
aa(lp100
S'spine_05_anim'
p101
a(lp102
Vlength
p103
aVtranslateY
p104
aVtranslateZ
p105
aVrotateX
p106
aVrotateY
p107
aVrotateZ
p108
aaF0
aF0
aF0
aF-0.20005475
aF1.5266196999999999
aF-8.2032989999999995
aa(lp109
S'mid_ik_anim'
p110
a(lp111
VtranslateX
p112
aVtranslateY
p113
aVtranslateZ
p114
aVrotateX
p115
aVrotateY
p116
aVrotateZ
p117
aaF0
aF0
aF0
aF0
aF0
aF0
aa(lp118
S'chest_ik_anim'
p119
a(lp120
VtranslateX
p121
aVtranslateY
p122
aVtranslateZ
p123
aVrotateX
p124
aVrotateY
p125
aVrotateZ
p126
aVstretch
p127
aVsquash
p128
aVtwist_amount
p129
aVautoSpine
p130
aVrotationInfluence
p131
aaF0
aF0
aF0
aF-44.682000000000002
aF2.788601754519386
aF-8.5604707089718737
aF1
aF0
aF1
aF1
aF0.5
aa(lp132
S'body_anim'
p133
a(lp134
VtranslateX
p135
aVtranslateY
p136
aVtranslateZ
p137
aVrotateX
p138
aVrotateY
p139
aVrotateZ
p140
aaF-4.0389512969947541
aF1.7998173566110243
aF-2.1300822013092642
aF-15.530372072897556
aF0
aF-5.9793654416676896
aa(lp141
S'hip_anim'
p142
a(lp143
VtranslateX
p144
aVtranslateY
p145
aVtranslateZ
p146
aVrotateX
p147
aVrotateY
p148
aVrotateZ
p149
aVlCalfTwistCtrlVis
p150
aVrCalfTwistCtrlVis
p151
aVautoHips
p152
aaF0
aF0
aF0
aF0
aF0
aF8.512886905193227
aI00
aI00
aF0
aa(lp153
S'clavicle_l_anim'
p154
a(lp155
VtranslateX
p156
aVtranslateY
p157
aVtranslateZ
p158
aVautoShoulders
p159
aaF-0.095483512000000006
aF-3.8706206000000001
aF7.6972798999999998
aF0
aa(lp160
S'clavicle_r_anim'
p161
a(lp162
VtranslateX
p163
aVtranslateY
p164
aVtranslateZ
p165
aVautoShoulders
p166
aaF-0.40437392293661556
aF-1.9324740907310769
aF4.0550890141172022
aF0
aa(lp167
S'fk_arm_l_anim'
p168
a(lp169
VtranslateX
p170
aVtranslateY
p171
aVtranslateZ
p172
aVrotateX
p173
aVrotateY
p174
aVrotateZ
p175
aaF0
aF0
aF0
aF-73.634758000000005
aF-4.4772613000000003
aF-63.361296000000003
aa(lp176
S'fk_arm_r_anim'
p177
a(lp178
VtranslateX
p179
aVtranslateY
p180
aVtranslateZ
p181
aVrotateX
p182
aVrotateY
p183
aVrotateZ
p184
aaF0
aF0
aF0
aF-70.812039999999996
aF17.334921999999999
aF-102.15729
aa(lp185
S'fk_elbow_l_anim'
p186
a(lp187
VtranslateX
p188
aVtranslateY
p189
aVtranslateZ
p190
aVrotateX
p191
aVrotateY
p192
aVrotateZ
p193
aaF0
aF0
aF0
aF2.5485926000000001
aF0.85524082000000001
aF-55.961503
aa(lp194
S'fk_elbow_r_anim'
p195
a(lp196
VtranslateX
p197
aVtranslateY
p198
aVtranslateZ
p199
aVrotateX
p200
aVrotateY
p201
aVrotateZ
p202
aaF0
aF0
aF0
aF-15.472583999999999
aF11.306393999999999
aF255.51965000000001
aa(lp203
S'fk_wrist_l_anim'
p204
a(lp205
VtranslateX
p206
aVtranslateY
p207
aVtranslateZ
p208
aVrotateX
p209
aVrotateY
p210
aVrotateZ
p211
aaF0
aF0
aF0
aF-123.35973000000001
aF-18.918234999999999
aF22.729030999999999
aa(lp212
S'fk_wrist_r_anim'
p213
a(lp214
VtranslateX
p215
aVtranslateY
p216
aVtranslateZ
p217
aVrotateX
p218
aVrotateY
p219
aVrotateZ
p220
aaF0
aF0
aF0
aF-23.083424999999998
aF-50.811577999999997
aF6.9051517000000002
aa(lp221
S'ik_elbow_l_anim'
p222
a(lp223
VtranslateX
p224
aVtranslateY
p225
aVtranslateZ
p226
aaF-24.672686976118243
aF-31.413610719289554
aF-29.866229818385008
aa(lp227
S'ik_elbow_r_anim'
p228
a(lp229
VtranslateX
p230
aVtranslateY
p231
aVtranslateZ
p232
aaF18.766272583143035
aF18.029713035773902
aF-29.896089425304183
aa(lp233
S'ik_wrist_l_anim'
p234
a(lp235
VtranslateX
p236
aVtranslateY
p237
aVtranslateZ
p238
aVrotateX
p239
aVrotateY
p240
aVrotateZ
p241
aVstretch
p242
aVsquash
p243
aVstretchBias
p244
aVside
p245
aVmid_bend
p246
aVmid_swivel
p247
aVtip_pivot
p248
aVtip_swivel
p249
aaF-73.370140612067573
aF-40.837148487386123
aF-30.580233382319165
aF91.42567719369471
aF-180.65035127949895
aF-314.75199211147873
aF0
aF0
aF0
aF0
aF0
aF0
aF0
aF0
aa(lp250
S'ik_wrist_r_anim'
p251
a(lp252
VtranslateX
p253
aVtranslateY
p254
aVtranslateZ
p255
aVrotateX
p256
aVrotateY
p257
aVrotateZ
p258
aVstretch
p259
aVsquash
p260
aVstretchBias
p261
aVside
p262
aVmid_bend
p263
aVmid_swivel
p264
aVtip_pivot
p265
aVtip_swivel
p266
aaF50.46551146790334
aF-3.7849607944939088
aF-28.386818463871066
aF-81.316339003182932
aF-4.2028575622111797
aF-267.83339061887631
aF0
aF0
aF0
aF0
aF0
aF0
aF0
aF0
aa(lp267
S'fk_thigh_l_anim'
p268
a(lp269
VrotateX
p270
aVrotateY
p271
aVrotateZ
p272
aaF0.075329803000000001
aF-19.026608
aF44.617207000000001
aa(lp273
S'fk_thigh_r_anim'
p274
a(lp275
VrotateX
p276
aVrotateY
p277
aVrotateZ
p278
aaF-1.9420740999999999
aF-11.519425999999999
aF20.635788000000005
aa(lp279
S'fk_calf_l_anim'
p280
a(lp281
VrotateX
p282
aVrotateY
p283
aVrotateZ
p284
aaF0.40155962000000001
aF-1.4255301
aF-26.105278000000002
aa(lp285
S'fk_calf_r_anim'
p286
a(lp287
VrotateX
p288
aVrotateY
p289
aVrotateZ
p290
aaF0.89050549000000001
aF-1.9518694999999999
aF-39.764927
aa(lp291
S'fk_foot_l_anim'
p292
a(lp293
VrotateX
p294
aVrotateY
p295
aVrotateZ
p296
aaF2.7807702999999999
aF13.956371000000001
aF-10.934742999999999
aa(lp297
S'fk_foot_r_anim'
p298
a(lp299
VrotateX
p300
aVrotateY
p301
aVrotateZ
p302
aaF19.773244999999999
aF16.872174999999999
aF27.68092
aa(lp303
S'fk_ball_l_anim'
p304
a(lp305
VrotateX
p306
aVrotateY
p307
aVrotateZ
p308
aaF2.6347818000000001e-05
aF2.2079776999999999e-05
aF2.4747790999999999e-05
aa(lp309
S'fk_ball_r_anim'
p310
a(lp311
VrotateX
p312
aVrotateY
p313
aVrotateZ
p314
aaF-0.00011698927999999999
aF-0.00010855614000000001
aF7.4199304999999991e-06
aa(lp315
S'ik_foot_anim_l'
p316
a(lp317
VtranslateX
p318
aVtranslateY
p319
aVtranslateZ
p320
aVrotateX
p321
aVrotateY
p322
aVrotateZ
p323
aVknee_twist
p324
aVstretch
p325
aVsquash
p326
aVtoeCtrlVis
p327
aVstretchBias
p328
aaF6.4160535967332564
aF-21.920675537782344
aF-8.9102549996447286e-05
aF0
aF0
aF-5.3927631744796471
aF-8.9000000000000004
aF0
aF0
aI00
aF0
aa(lp329
S'ik_foot_anim_r'
p330
a(lp331
VtranslateX
p332
aVtranslateY
p333
aVtranslateZ
p334
aVrotateX
p335
aVrotateY
p336
aVrotateZ
p337
aVknee_twist
p338
aVstretch
p339
aVsquash
p340
aVtoeCtrlVis
p341
aVstretchBias
p342
aaF0.79190871665634788
aF19.839151532402678
aF2.6387896003552715e-05
aF0
aF0
aF-41.454130222290644
aF38.799999999999997
aF0
aF0
aI00
aF0
aa(lp343
S'heel_ctrl_l'
p344
a(lp345
VrotateX
p346
aVrotateY
p347
aVrotateZ
p348
aVheelPivot
p349
aVballPivot
p350
aaF0
aF0
aF0
aF0
aF0
aa(lp351
S'heel_ctrl_r'
p352
a(lp353
VrotateX
p354
aVrotateY
p355
aVrotateZ
p356
aVheelPivot
p357
aVballPivot
p358
aaF0
aF0
aF0
aF0
aF0
aa(lp359
S'toe_wiggle_ctrl_l'
p360
a(lp361
VrotateX
p362
aVrotateY
p363
aVrotateZ
p364
aaF0
aF0
aF0
aa(lp365
S'toe_wiggle_ctrl_r'
p366
a(lp367
VrotateX
p368
aVrotateY
p369
aVrotateZ
p370
aaF0
aF0
aF0
aa(lp371
S'toe_tip_ctrl_l'
p372
a(lp373
VrotateX
p374
aVrotateY
p375
aVrotateZ
p376
aaF0
aF0
aF0
aa(lp377
S'toe_tip_ctrl_r'
p378
a(lp379
VrotateX
p380
aVrotateY
p381
aVrotateZ
p382
aaF0
aF0
aF0
aa(lp383
S'master_anim'
p384
a(lp385
VtranslateX
p386
aVtranslateY
p387
aVtranslateZ
p388
aVrotateX
p389
aVrotateY
p390
aVrotateZ
p391
aaF0
aF0
aF0
aF0
aF0
aF0
aa(lp392
S'offset_anim'
p393
a(lp394
VtranslateX
p395
aVtranslateY
p396
aVtranslateZ
p397
aVrotateX
p398
aVrotateY
p399
aVrotateZ
p400
aaF0
aF0
aF0
aF0
aF0
aF0
aa(lp401
S'root_anim'
p402
a(lp403
VtranslateX
p404
aVtranslateY
p405
aVtranslateZ
p406
aVrotateX
p407
aVrotateY
p408
aVrotateZ
p409
aaF0
aF0
aF0
aF0
aF0
aF0
aa(lp410
S'upperarm_l_twist_anim'
p411
a(lp412
VtranslateX
p413
aVtranslateY
p414
aVtranslateZ
p415
aVrotateX
p416
aVrotateY
p417
aVrotateZ
p418
aVscaleX
p419
aVscaleY
p420
aVscaleZ
p421
aaF0
aF0
aF0
aF-10
aF0
aF0
aF1
aF1
aF1
aa(lp422
S'upperarm_l_twist_2_anim'
p423
a(lp424
VtranslateX
p425
aVtranslateY
p426
aVtranslateZ
p427
aVrotateX
p428
aVrotateY
p429
aVrotateZ
p430
aVscaleX
p431
aVscaleY
p432
aVscaleZ
p433
aaF0
aF0
aF0
aF-13
aF0
aF0
aF1
aF1
aF1
aa(lp434
S'upperarm_r_twist_anim'
p435
a(lp436
VtranslateX
p437
aVtranslateY
p438
aVtranslateZ
p439
aVrotateX
p440
aVrotateY
p441
aVrotateZ
p442
aVscaleX
p443
aVscaleY
p444
aVscaleZ
p445
aaF0
aF0
aF0
aF0
aF0
aF0
aF1
aF1
aF1
aa(lp446
S'upperarm_r_twist_2_anim'
p447
a(lp448
VtranslateX
p449
aVtranslateY
p450
aVtranslateZ
p451
aVrotateX
p452
aVrotateY
p453
aVrotateZ
p454
aVscaleX
p455
aVscaleY
p456
aVscaleZ
p457
aaF0
aF0
aF0
aF0
aF0
aF0
aF1
aF1
aF1
aa(lp458
S'lowerarm_l_twist_anim'
p459
a(lp460
VtranslateX
p461
aVtranslateY
p462
aVtranslateZ
p463
aVrotateX
p464
aVrotateY
p465
aVrotateZ
p466
aaF0
aF0
aF0
aF0
aF0
aF0
aa(lp467
S'lowerarm_r_twist_anim'
p468
a(lp469
VtranslateX
p470
aVtranslateY
p471
aVtranslateZ
p472
aVrotateX
p473
aVrotateY
p474
aVrotateZ
p475
aaF0
aF0
aF0
aF0
aF0
aF0
aa(lp476
S'l_thigh_twist_01_anim'
p477
a(lp478
VtranslateX
p479
aVtranslateY
p480
aVtranslateZ
p481
aVrotateX
p482
aVrotateY
p483
aVrotateZ
p484
aVscaleX
p485
aVscaleY
p486
aVscaleZ
p487
aaF0
aF0
aF0
aF0
aF0
aF0
aF1
aF1
aF1
aa(lp488
S'r_thigh_twist_01_anim'
p489
a(lp490
VtranslateX
p491
aVtranslateY
p492
aVtranslateZ
p493
aVrotateX
p494
aVrotateY
p495
aVrotateZ
p496
aVscaleX
p497
aVscaleY
p498
aVscaleZ
p499
aaF0
aF0
aF0
aF0
aF0
aF0
aF1
aF1.0000000000000002
aF1
aa(lp500
S'pinky_metacarpal_ctrl_l'
p501
a(lp502
VrotateX
p503
aVrotateY
p504
aVrotateZ
p505
aaF0
aF3.1933713081281607
aF0
aa(lp506
S'pinky_metacarpal_ctrl_r'
p507
a(lp508
VrotateX
p509
aVrotateY
p510
aVrotateZ
p511
aaF0
aF2.7762002514729747
aF2.9008530718055967
aa(lp512
S'pinky_finger_fk_ctrl_1_l'
p513
a(lp514
VtranslateX
p515
aVtranslateY
p516
aVtranslateZ
p517
aVrotateX
p518
aVrotateY
p519
aVrotateZ
p520
aVsticky
p521
aaF0
aF0
aF0
aF1.1150959247319399
aF-1.167356714450519
aF41.32124905013675
aF0
aa(lp522
S'pinky_finger_fk_ctrl_1_r'
p523
a(lp524
VtranslateX
p525
aVtranslateY
p526
aVtranslateZ
p527
aVrotateX
p528
aVrotateY
p529
aVrotateZ
p530
aVsticky
p531
aaF0
aF0
aF0
aF-6.3508588490842364
aF-1.9100943567233519
aF62.073289586486531
aF0
aa(lp532
S'pinky_finger_fk_ctrl_2_l'
p533
a(lp534
VtranslateX
p535
aVtranslateY
p536
aVtranslateZ
p537
aVrotateX
p538
aVrotateY
p539
aVrotateZ
p540
aaF0
aF0
aF0
aF0
aF0
aF17.731156209896135
aa(lp541
S'pinky_finger_fk_ctrl_2_r'
p542
a(lp543
VtranslateX
p544
aVtranslateY
p545
aVtranslateZ
p546
aVrotateX
p547
aVrotateY
p548
aVrotateZ
p549
aaF0
aF0
aF0
aF0
aF0
aF23.453260224061243
aa(lp550
S'pinky_finger_fk_ctrl_3_l'
p551
a(lp552
VtranslateX
p553
aVtranslateY
p554
aVtranslateZ
p555
aVrotateX
p556
aVrotateY
p557
aVrotateZ
p558
aaF0
aF0
aF0
aF0
aF0
aF31.727477033537223
aa(lp559
S'pinky_finger_fk_ctrl_3_r'
p560
a(lp561
VtranslateX
p562
aVtranslateY
p563
aVtranslateZ
p564
aVrotateX
p565
aVrotateY
p566
aVrotateZ
p567
aaF0
aF0
aF0
aF0
aF0
aF31.849474208636426
aa(lp568
S'ring_metacarpal_ctrl_l'
p569
a(lp570
VrotateX
p571
aVrotateY
p572
aVrotateZ
p573
aaF0
aF1.1632314780402107
aF0
aa(lp574
S'ring_metacarpal_ctrl_r'
p575
a(lp576
VrotateX
p577
aVrotateY
p578
aVrotateZ
p579
aaF0
aF0.61614414424117092
aF1.4089528216041891
aa(lp580
S'ring_finger_fk_ctrl_1_l'
p581
a(lp582
VtranslateX
p583
aVtranslateY
p584
aVtranslateZ
p585
aVrotateX
p586
aVrotateY
p587
aVrotateZ
p588
aVsticky
p589
aaF0
aF0
aF0
aF0.32428973693007163
aF-1.1118702480386662
aF51.08698412186299
aF0
aa(lp590
S'ring_finger_fk_ctrl_1_r'
p591
a(lp592
VtranslateX
p593
aVtranslateY
p594
aVtranslateZ
p595
aVrotateX
p596
aVrotateY
p597
aVrotateZ
p598
aVsticky
p599
aaF0
aF0
aF0
aF-5.7648455645633332
aF-0.36326564990513432
aF68.297002301807751
aF0
aa(lp600
S'ring_finger_fk_ctrl_2_l'
p601
a(lp602
VtranslateX
p603
aVtranslateY
p604
aVtranslateZ
p605
aVrotateX
p606
aVrotateY
p607
aVrotateZ
p608
aaF0
aF0
aF0
aF0
aF0
aF29.549309610293097
aa(lp609
S'ring_finger_fk_ctrl_2_r'
p610
a(lp611
VtranslateX
p612
aVtranslateY
p613
aVtranslateZ
p614
aVrotateX
p615
aVrotateY
p616
aVrotateZ
p617
aaF0
aF0
aF0
aF0
aF0
aF39.296396875120493
aa(lp618
S'ring_finger_fk_ctrl_3_l'
p619
a(lp620
VtranslateX
p621
aVtranslateY
p622
aVtranslateZ
p623
aVrotateX
p624
aVrotateY
p625
aVrotateZ
p626
aaF0
aF0
aF0
aF0
aF0
aF25.556632281236354
aa(lp627
S'ring_finger_fk_ctrl_3_r'
p628
a(lp629
VtranslateX
p630
aVtranslateY
p631
aVtranslateZ
p632
aVrotateX
p633
aVrotateY
p634
aVrotateZ
p635
aaF0
aF0
aF0
aF0
aF0
aF10.74684551092512
aa(lp636
S'middle_metacarpal_ctrl_l'
p637
a(lp638
VrotateX
p639
aVrotateY
p640
aVrotateZ
p641
aaF0
aF0
aF0
aa(lp642
S'middle_metacarpal_ctrl_r'
p643
a(lp644
VrotateX
p645
aVrotateY
p646
aVrotateZ
p647
aaF0
aF-0.92927598448046211
aF0
aa(lp648
S'middle_finger_fk_ctrl_1_l'
p649
a(lp650
VtranslateX
p651
aVtranslateY
p652
aVtranslateZ
p653
aVrotateX
p654
aVrotateY
p655
aVrotateZ
p656
aVsticky
p657
aaF0
aF0
aF0
aF-0.18954174030007062
aF-0.31507110031200142
aF58.615702856822168
aF0
aa(lp658
S'middle_finger_fk_ctrl_1_r'
p659
a(lp660
VtranslateX
p661
aVtranslateY
p662
aVtranslateZ
p663
aVrotateX
p664
aVrotateY
p665
aVrotateZ
p666
aVsticky
p667
aaF0
aF0
aF0
aF-3.211839583886908
aF-0.0026076298518231608
aF64.930261812860351
aF0
aa(lp668
S'middle_finger_fk_ctrl_2_l'
p669
a(lp670
VtranslateX
p671
aVtranslateY
p672
aVtranslateZ
p673
aVrotateX
p674
aVrotateY
p675
aVrotateZ
p676
aaF0
aF0
aF0
aF0
aF0
aF26.89179159667032
aa(lp677
S'middle_finger_fk_ctrl_2_r'
p678
a(lp679
VtranslateX
p680
aVtranslateY
p681
aVtranslateZ
p682
aVrotateX
p683
aVrotateY
p684
aVrotateZ
p685
aaF0
aF0
aF0
aF0
aF0
aF43.966971509678636
aa(lp686
S'middle_finger_fk_ctrl_3_l'
p687
a(lp688
VtranslateX
p689
aVtranslateY
p690
aVtranslateZ
p691
aVrotateX
p692
aVrotateY
p693
aVrotateZ
p694
aaF0
aF0
aF0
aF0
aF0
aF24.486056784181006
aa(lp695
S'middle_finger_fk_ctrl_3_r'
p696
a(lp697
VtranslateX
p698
aVtranslateY
p699
aVtranslateZ
p700
aVrotateX
p701
aVrotateY
p702
aVrotateZ
p703
aaF0
aF0
aF0
aF0
aF0
aF5.2271604508307599
aa(lp704
S'index_metacarpal_ctrl_l'
p705
a(lp706
VrotateX
p707
aVrotateY
p708
aVrotateZ
p709
aaF0
aF-1.2645950685045688
aF0
aa(lp710
S'index_metacarpal_ctrl_r'
p711
a(lp712
VrotateX
p713
aVrotateY
p714
aVrotateZ
p715
aaF0
aF0
aF4.6799999921065236
aa(lp716
S'index_finger_fk_ctrl_1_l'
p717
a(lp718
VtranslateX
p719
aVtranslateY
p720
aVtranslateZ
p721
aVrotateX
p722
aVrotateY
p723
aVrotateZ
p724
aVsticky
p725
aaF0
aF0
aF0
aF2.9626269052338405
aF-5.6828683664645778
aF47.73193566020921
aF0
aa(lp726
S'index_finger_fk_ctrl_1_r'
p727
a(lp728
VtranslateX
p729
aVtranslateY
p730
aVtranslateZ
p731
aVrotateX
p732
aVrotateY
p733
aVrotateZ
p734
aVsticky
p735
aaF0
aF0
aF0
aF-8.1209527226577602
aF6.2177766916059252
aF-19.217552086879319
aF0
aa(lp736
S'index_finger_fk_ctrl_2_l'
p737
a(lp738
VtranslateX
p739
aVtranslateY
p740
aVtranslateZ
p741
aVrotateX
p742
aVrotateY
p743
aVrotateZ
p744
aaF0
aF0
aF0
aF0
aF0
aF29.247914279421927
aa(lp745
S'index_finger_fk_ctrl_2_r'
p746
a(lp747
VtranslateX
p748
aVtranslateY
p749
aVtranslateZ
p750
aVrotateX
p751
aVrotateY
p752
aVrotateZ
p753
aaF0
aF0
aF0
aF0
aF0
aF43.611777157607357
aa(lp754
S'index_finger_fk_ctrl_3_l'
p755
a(lp756
VtranslateX
p757
aVtranslateY
p758
aVtranslateZ
p759
aVrotateX
p760
aVrotateY
p761
aVrotateZ
p762
aaF0
aF0
aF0
aF0
aF0
aF14.728354906640027
aa(lp763
S'index_finger_fk_ctrl_3_r'
p764
a(lp765
VtranslateX
p766
aVtranslateY
p767
aVtranslateZ
p768
aVrotateX
p769
aVrotateY
p770
aVrotateZ
p771
aaF0
aF0
aF0
aF0
aF0
aF50.719439805405315
aa(lp772
S'thumb_finger_fk_ctrl_1_l'
p773
a(lp774
VtranslateX
p775
aVtranslateY
p776
aVtranslateZ
p777
aVrotateX
p778
aVrotateY
p779
aVrotateZ
p780
aVsticky
p781
aaF0
aF0
aF0
aF35.276225867727248
aF1.8261440146261914
aF4.7118850827559484
aF0
aa(lp782
S'thumb_finger_fk_ctrl_1_r'
p783
a(lp784
VtranslateX
p785
aVtranslateY
p786
aVtranslateZ
p787
aVrotateX
p788
aVrotateY
p789
aVrotateZ
p790
aVsticky
p791
aaF0
aF0
aF0
aF15.397831084316635
aF-1.9430888856474049
aF2.479278628558149
aF0
aa(lp792
S'thumb_finger_fk_ctrl_2_l'
p793
a(lp794
VtranslateX
p795
aVtranslateY
p796
aVtranslateZ
p797
aVrotateX
p798
aVrotateY
p799
aVrotateZ
p800
aaF0
aF0
aF0
aF0
aF0
aF0
aa(lp801
S'thumb_finger_fk_ctrl_2_r'
p802
a(lp803
VtranslateX
p804
aVtranslateY
p805
aVtranslateZ
p806
aVrotateX
p807
aVrotateY
p808
aVrotateZ
p809
aaF0
aF0
aF0
aF0
aF0
aF11.168956692116234
aa(lp810
S'thumb_finger_fk_ctrl_3_l'
p811
a(lp812
VtranslateX
p813
aVtranslateY
p814
aVtranslateZ
p815
aVrotateX
p816
aVrotateY
p817
aVrotateZ
p818
aaF0
aF0
aF0
aF0
aF0
aF18.031652480182906
aa(lp819
S'thumb_finger_fk_ctrl_3_r'
p820
a(lp821
VtranslateX
p822
aVtranslateY
p823
aVtranslateZ
p824
aVrotateX
p825
aVrotateY
p826
aVrotateZ
p827
aaF0
aF0
aF0
aF0
aF0
aF26.214933394860104
aa(lp828
S'index_l_ik_anim'
p829
a(lp830
VtranslateX
p831
aVtranslateY
p832
aVtranslateZ
p833
aVrotateX
p834
aVrotateY
p835
aVrotateZ
p836
aVpoleVectorVis
p837
aaF0
aF0
aF0
aF0
aF0
aF0
aF0
aa(lp838
S'index_r_ik_anim'
p839
a(lp840
VtranslateX
p841
aVtranslateY
p842
aVtranslateZ
p843
aVrotateX
p844
aVrotateY
p845
aVrotateZ
p846
aVpoleVectorVis
p847
aaF0
aF0
aF0
aF0
aF0
aF0
aF0
aa(lp848
S'middle_l_ik_anim'
p849
a(lp850
VtranslateX
p851
aVtranslateY
p852
aVtranslateZ
p853
aVrotateX
p854
aVrotateY
p855
aVrotateZ
p856
aVpoleVectorVis
p857
aaF0
aF0
aF0
aF0
aF0
aF0
aF0
aa(lp858
S'middle_r_ik_anim'
p859
a(lp860
VtranslateX
p861
aVtranslateY
p862
aVtranslateZ
p863
aVrotateX
p864
aVrotateY
p865
aVrotateZ
p866
aVpoleVectorVis
p867
aaF0
aF0
aF0
aF0
aF0
aF0
aF0
aa(lp868
S'ring_l_ik_anim'
p869
a(lp870
VtranslateX
p871
aVtranslateY
p872
aVtranslateZ
p873
aVrotateX
p874
aVrotateY
p875
aVrotateZ
p876
aVpoleVectorVis
p877
aaF0
aF0
aF0
aF0
aF0
aF0
aF0
aa(lp878
S'ring_r_ik_anim'
p879
a(lp880
VtranslateX
p881
aVtranslateY
p882
aVtranslateZ
p883
aVrotateX
p884
aVrotateY
p885
aVrotateZ
p886
aVpoleVectorVis
p887
aaF0
aF0
aF0
aF0
aF0
aF0
aF0
aa(lp888
S'pinky_l_ik_anim'
p889
a(lp890
VtranslateX
p891
aVtranslateY
p892
aVtranslateZ
p893
aVrotateX
p894
aVrotateY
p895
aVrotateZ
p896
aVpoleVectorVis
p897
aaF0
aF0
aF0
aF0
aF0
aF0
aF0
aa(lp898
S'pinky_r_ik_anim'
p899
a(lp900
VtranslateX
p901
aVtranslateY
p902
aVtranslateZ
p903
aVrotateX
p904
aVrotateY
p905
aVrotateZ
p906
aVpoleVectorVis
p907
aaF0
aF0
aF0
aF0
aF0
aF0
aF0
aa(lp908
S'thumb_l_ik_anim'
p909
a(lp910
VtranslateX
p911
aVtranslateY
p912
aVtranslateZ
p913
aVrotateX
p914
aVrotateY
p915
aVrotateZ
p916
aVpoleVectorVis
p917
aaF0
aF0
aF0
aF0
aF0
aF0
aF0
aa(lp918
S'thumb_r_ik_anim'
p919
a(lp920
VtranslateX
p921
aVtranslateY
p922
aVtranslateZ
p923
aVrotateX
p924
aVrotateY
p925
aVrotateZ
p926
aVpoleVectorVis
p927
aaF0
aF0
aF0
aF0
aF0
aF0
aF0
aa(lp928
S'index_l_poleVector'
p929
a(lp930
VtranslateX
p931
aVtranslateY
p932
aVtranslateZ
p933
aVrotateX
p934
aVrotateY
p935
aVrotateZ
p936
aaF0
aF0
aF0
aF0
aF0
aF0
aa(lp937
S'index_r_poleVector'
p938
a(lp939
VtranslateX
p940
aVtranslateY
p941
aVtranslateZ
p942
aVrotateX
p943
aVrotateY
p944
aVrotateZ
p945
aaF0
aF0
aF0
aF0
aF0
aF0
aa(lp946
S'middle_l_poleVector'
p947
a(lp948
VtranslateX
p949
aVtranslateY
p950
aVtranslateZ
p951
aVrotateX
p952
aVrotateY
p953
aVrotateZ
p954
aaF0
aF0
aF0
aF0
aF0
aF0
aa(lp955
S'middle_r_poleVector'
p956
a(lp957
VtranslateX
p958
aVtranslateY
p959
aVtranslateZ
p960
aVrotateX
p961
aVrotateY
p962
aVrotateZ
p963
aaF0
aF0
aF0
aF0
aF0
aF0
aa(lp964
S'ring_l_poleVector'
p965
a(lp966
VtranslateX
p967
aVtranslateY
p968
aVtranslateZ
p969
aVrotateX
p970
aVrotateY
p971
aVrotateZ
p972
aaF0
aF0
aF0
aF0
aF0
aF0
aa(lp973
S'ring_r_poleVector'
p974
a(lp975
VtranslateX
p976
aVtranslateY
p977
aVtranslateZ
p978
aVrotateX
p979
aVrotateY
p980
aVrotateZ
p981
aaF0
aF0
aF0
aF0
aF0
aF0
aa(lp982
S'pinky_l_poleVector'
p983
a(lp984
VtranslateX
p985
aVtranslateY
p986
aVtranslateZ
p987
aVrotateX
p988
aVrotateY
p989
aVrotateZ
p990
aaF0
aF0
aF0
aF0
aF0
aF0
aa(lp991
S'pinky_r_poleVector'
p992
a(lp993
VtranslateX
p994
aVtranslateY
p995
aVtranslateZ
p996
aVrotateX
p997
aVrotateY
p998
aVrotateZ
p999
aaF0
aF0
aF0
aF0
aF0
aF0
aa(lp1000
S'thumb_l_poleVector'
p1001
a(lp1002
VtranslateX
p1003
aVtranslateY
p1004
aVtranslateZ
p1005
aVrotateX
p1006
aVrotateY
p1007
aVrotateZ
p1008
aaF0
aF0
aF0
aF0
aF0
aF0
aa(lp1009
S'thumb_r_poleVector'
p1010
a(lp1011
VtranslateX
p1012
aVtranslateY
p1013
aVtranslateZ
p1014
aVrotateX
p1015
aVrotateY
p1016
aVrotateZ
p1017
aaF0
aF0
aF0
aF0
aF0
aF0
aa(lp1018
S'l_global_ik_anim'
p1019
a(lp1020
VtranslateX
p1021
aVtranslateY
p1022
aVtranslateZ
p1023
aVrotateX
p1024
aVrotateY
p1025
aVrotateZ
p1026
aaF0
aF0
aF0
aF0
aF0
aF0
aa(lp1027
S'r_global_ik_anim'
p1028
a(lp1029
VtranslateX
p1030
aVtranslateY
p1031
aVtranslateZ
p1032
aVrotateX
p1033
aVrotateY
p1034
aVrotateZ
p1035
aaF0
aF0
aF0
aF0
aF0
aF0
aa(lp1036
S'Rig_Settings'
p1037
a(lp1038
Vspine_ik
p1039
aVspine_fk
p1040
aVlLegMode
p1041
aVlThighTwistAmount
p1042
aVllegTwistCtrlVis
p1043
aVlCalfTwistAmount
p1044
aVlCalfTwist2Amount
p1045
aVrLegMode
p1046
aVrThighTwistAmount
p1047
aVrlegTwistCtrlVis
p1048
aVrCalfTwistAmount
p1049
aVrCalfTwist2Amount
p1050
aVlFkArmOrient
p1051
aVlArmMode
p1052
aVlClavMode
p1053
aVlUpperarmTwistAmount
p1054
aVlUpperarmTwist2Amount
p1055
aVltwistCtrlVis
p1056
aVltwistCtrlVisLower
p1057
aVlForearmTwistAmount
p1058
aVlForearmTwist2Amount
p1059
aVrFkArmOrient
p1060
aVrArmMode
p1061
aVrClavMode
p1062
aVrUpperarmTwistAmount
p1063
aVrUpperarmTwist2Amount
p1064
aVrtwistCtrlVis
p1065
aVrtwistCtrlVisLower
p1066
aVrForearmTwistAmount
p1067
aVrForearmTwist2Amount
p1068
aaF1
aF0
aI1
aF0.29999999999999999
aI00
aF0.75
aF0.5
aI1
aF0.29999999999999999
aI00
aF0.75
aF0.5
aI0
aI1
aI0
aF0.90000000000000002
aF0.59999999999999998
aI00
aI00
aF0.75
aF0.40000000000000002
aI0
aI1
aI0
aF0.90000000000000002
aF0.59999999999999998
aI00
aI00
aF0.75
aF0.5
aa(lp1069
S'calf_l_twist_anim'
p1070
a(lp1071
VtranslateX
p1072
aVtranslateY
p1073
aVtranslateZ
p1074
aVrotateX
p1075
aVrotateY
p1076
aVrotateZ
p1077
aaF0
aF0
aF0
aF0
aF0
aF0
aa(lp1078
S'calf_r_twist_anim'
p1079
a(lp1080
VtranslateX
p1081
aVtranslateY
p1082
aVtranslateZ
p1083
aVrotateX
p1084
aVrotateY
p1085
aVrotateZ
p1086
aaF0
aF0
aF0
aF0
aF0
aF0
aa(lp1087
S'calf_l_twist2_anim'
p1088
a(lp1089
VtranslateX
p1090
aVtranslateY
p1091
aVtranslateZ
p1092
aVrotateX
p1093
aVrotateY
p1094
aVrotateZ
p1095
aaF0
aF0
aF0
aF0
aF0
aF0
aa(lp1096
S'calf_r_twist2_anim'
p1097
a(lp1098
VtranslateX
p1099
aVtranslateY
p1100
aVtranslateZ
p1101
aVrotateX
p1102
aVrotateY
p1103
aVrotateZ
p1104
aaF0
aF0
aF0
aF0
aF0
aF0
aa(lp1105
S'lowerarm_l_twist2_anim'
p1106
a(lp1107
VtranslateX
p1108
aVtranslateY
p1109
aVtranslateZ
p1110
aVrotateX
p1111
aVrotateY
p1112
aVrotateZ
p1113
aaF0
aF0
aF0
aF0
aF0
aF0
aa(lp1114
S'lowerarm_r_twist2_anim'
p1115
a(lp1116
VtranslateX
p1117
aVtranslateY
p1118
aVtranslateZ
p1119
aVrotateX
p1120
aVrotateY
p1121
aVrotateZ
p1122
aaF0
aF0
aF0
aF0
aF0
aF0
aa(lp1123
Vweapon_l_anim
p1124
a(lp1125
VtranslateX
p1126
aVtranslateY
p1127
aVtranslateZ
p1128
aVrotateX
p1129
aVrotateY
p1130
aVrotateZ
p1131
aVscaleX
p1132
aVscaleY
p1133
aVscaleZ
p1134
aaF0
aF0
aF0
aF0
aF0
aF0
aF1
aF1
aF1
aa(lp1135
Vattach_anim
p1136
a(lp1137
VtranslateX
p1138
aVtranslateY
p1139
aVtranslateZ
p1140
aVrotateX
p1141
aVrotateY
p1142
aVrotateZ
p1143
aVscaleX
p1144
aVscaleY
p1145
aVscaleZ
p1146
aaF0
aF0
aF0
aF0
aF0
aF0
aF1
aF1
aF1
aa(lp1147
Vweapon_r_anim
p1148
a(lp1149
VtranslateX
p1150
aVtranslateY
p1151
aVtranslateZ
p1152
aVrotateX
p1153
aVrotateY
p1154
aVrotateZ
p1155
aVscaleX
p1156
aVscaleY
p1157
aVscaleZ
p1158
aaF3.9790595354309994
aF2.0711081033286973
aF1.057455094911063
aF8.7316282540513228
aF-3.8272618061272028
aF-182.77416329129787
aF1
aF1
aF1
aa(lp1159
Vattach_anim_space_switcher
p1160
a(lp1161
Vvisibility
p1162
aVtranslateX
p1163
aVtranslateY
p1164
aVtranslateZ
p1165
aVrotateX
p1166
aVrotateY
p1167
aVrotateZ
p1168
aVscaleX
p1169
aVscaleY
p1170
aVscaleZ
p1171
aVspace_world
p1172
aaI01
aF0
aF0
aF0
aF0
aF0
aF0
aF1
aF1
aF1
aF0
aa(lp1173
Vbody_anim_space_switcher
p1174
a(lp1175
Vvisibility
p1176
aVtranslateX
p1177
aVtranslateY
p1178
aVtranslateZ
p1179
aVrotateX
p1180
aVrotateY
p1181
aVrotateZ
p1182
aVscaleX
p1183
aVscaleY
p1184
aVscaleZ
p1185
aVspace_world
p1186
aaI01
aF0
aF0
aF0
aF0
aF0
aF0
aF1
aF1
aF1
aF0
aa(lp1187
Vchest_ik_anim_space_switcher
p1188
a(lp1189
Vvisibility
p1190
aVtranslateX
p1191
aVtranslateY
p1192
aVtranslateZ
p1193
aVrotateX
p1194
aVrotateY
p1195
aVrotateZ
p1196
aVscaleX
p1197
aVscaleY
p1198
aVscaleZ
p1199
aVspace_world
p1200
aVspace_chest_ik_world_aligned
p1201
aaI01
aF0
aF0
aF0
aF0
aF0
aF0
aF1
aF1
aF1
aF0
aF1
aa(lp1202
Vik_elbow_l_anim_space_switcher
p1203
a(lp1204
Vvisibility
p1205
aVtranslateX
p1206
aVtranslateY
p1207
aVtranslateZ
p1208
aVrotateX
p1209
aVrotateY
p1210
aVrotateZ
p1211
aVscaleX
p1212
aVscaleY
p1213
aVscaleZ
p1214
aVspace_world
p1215
aVspace_body_anim
p1216
aVspace_chest_ik_anim
p1217
aaI01
aF0
aF0
aF0
aF0
aF0
aF0
aF1
aF1
aF1
aF0
aF0
aF0
aa(lp1218
Vik_elbow_r_anim_space_switcher
p1219
a(lp1220
Vvisibility
p1221
aVtranslateX
p1222
aVtranslateY
p1223
aVtranslateZ
p1224
aVrotateX
p1225
aVrotateY
p1226
aVrotateZ
p1227
aVscaleX
p1228
aVscaleY
p1229
aVscaleZ
p1230
aVspace_world
p1231
aVspace_body_anim
p1232
aVspace_chest_ik_anim
p1233
aaI01
aF0
aF0
aF0
aF0
aF0
aF0
aF1
aF1
aF1
aF0
aF0
aF0
aa(lp1234
Vik_foot_anim_l_space_switcher
p1235
a(lp1236
Vvisibility
p1237
aVtranslateX
p1238
aVtranslateY
p1239
aVtranslateZ
p1240
aVrotateX
p1241
aVrotateY
p1242
aVrotateZ
p1243
aVscaleX
p1244
aVscaleY
p1245
aVscaleZ
p1246
aVspace_world
p1247
aVspace_body_anim
p1248
aaI01
aF0
aF0
aF0
aF0
aF0
aF0
aF1
aF1
aF1
aF0
aF0
aa(lp1249
Vik_foot_anim_r_space_switcher
p1250
a(lp1251
Vvisibility
p1252
aVtranslateX
p1253
aVtranslateY
p1254
aVtranslateZ
p1255
aVrotateX
p1256
aVrotateY
p1257
aVrotateZ
p1258
aVscaleX
p1259
aVscaleY
p1260
aVscaleZ
p1261
aVspace_world
p1262
aVspace_body_anim
p1263
aaI01
aF0
aF0
aF0
aF0
aF0
aF0
aF1
aF1
aF1
aF0
aF0
aa(lp1264
Vik_wrist_l_anim_space_switcher
p1265
a(lp1266
Vvisibility
p1267
aVtranslateX
p1268
aVtranslateY
p1269
aVtranslateZ
p1270
aVrotateX
p1271
aVrotateY
p1272
aVrotateZ
p1273
aVscaleX
p1274
aVscaleY
p1275
aVscaleZ
p1276
aVspace_world
p1277
aVspace_body_anim
p1278
aVspace_head_fk_anim
p1279
aVspace_chest_ik_anim
p1280
aaI01
aF0
aF0
aF0
aF0
aF0
aF0
aF1
aF1
aF1
aF0
aF0
aF0
aF0
aa(lp1281
Vik_wrist_r_anim_space_switcher
p1282
a(lp1283
Vvisibility
p1284
aVtranslateX
p1285
aVtranslateY
p1286
aVtranslateZ
p1287
aVrotateX
p1288
aVrotateY
p1289
aVrotateZ
p1290
aVscaleX
p1291
aVscaleY
p1292
aVscaleZ
p1293
aVspace_world
p1294
aVspace_body_anim
p1295
aVspace_head_fk_anim
p1296
aVspace_chest_ik_anim
p1297
aaI01
aF0
aF0
aF0
aF0
aF0
aF0
aF1
aF1
aF1
aF0
aF0
aF0
aF0
aa(lp1298
Vl_global_ik_anim_space_switcher
p1299
a(lp1300
Vvisibility
p1301
aVtranslateX
p1302
aVtranslateY
p1303
aVtranslateZ
p1304
aVrotateX
p1305
aVrotateY
p1306
aVrotateZ
p1307
aVscaleX
p1308
aVscaleY
p1309
aVscaleZ
p1310
aVspace_world
p1311
aaI01
aF0
aF0
aF0
aF0
aF0
aF0
aF1
aF1
aF1
aF0
aa(lp1312
Vmaster_anim_space_switcher
p1313
a(lp1314
Vvisibility
p1315
aVtranslateX
p1316
aVtranslateY
p1317
aVtranslateZ
p1318
aVrotateX
p1319
aVrotateY
p1320
aVrotateZ
p1321
aVscaleX
p1322
aVscaleY
p1323
aVscaleZ
p1324
aVspace_world
p1325
aaI01
aF0
aF0
aF0
aF0
aF0
aF0
aF1
aF1
aF1
aF0
aa(lp1326
Vr_global_ik_anim_space_switcher
p1327
a(lp1328
Vvisibility
p1329
aVtranslateX
p1330
aVtranslateY
p1331
aVtranslateZ
p1332
aVrotateX
p1333
aVrotateY
p1334
aVrotateZ
p1335
aVscaleX
p1336
aVscaleY
p1337
aVscaleZ
p1338
aVspace_world
p1339
aaI01
aF0
aF0
aF0
aF0
aF0
aF0
aF1
aF1
aF1
aF0
aa(lp1340
Vspine_01_space_switcher
p1341
a(lp1342
Vvisibility
p1343
aVtranslateX
p1344
aVtranslateY
p1345
aVtranslateZ
p1346
aVrotateX
p1347
aVrotateY
p1348
aVrotateZ
p1349
aVscaleX
p1350
aVscaleY
p1351
aVscaleZ
p1352
aVspace_world
p1353
aaI01
aF0
aF0
aF0
aF0
aF0
aF0
aF1
aF1
aF1
aF0
aa(lp1354
Vweapon_l_anim_space_switcher
p1355
a(lp1356
Vvisibility
p1357
aVtranslateX
p1358
aVtranslateY
p1359
aVtranslateZ
p1360
aVrotateX
p1361
aVrotateY
p1362
aVrotateZ
p1363
aVscaleX
p1364
aVscaleY
p1365
aVscaleZ
p1366
aVspace_world
p1367
aaI01
aF0
aF0
aF0
aF0
aF0
aF0
aF1
aF1
aF1
aF0
aa(lp1368
Vweapon_r_anim_space_switcher
p1369
a(lp1370
Vvisibility
p1371
aVtranslateX
p1372
aVtranslateY
p1373
aVtranslateZ
p1374
aVrotateX
p1375
aVrotateY
p1376
aVrotateZ
p1377
aVscaleX
p1378
aVscaleY
p1379
aVscaleZ
p1380
aVspace_world
p1381
aaI01
aF0
aF0
aF0
aF0
aF0
aF0
aF1
aF1
aF1
aF0
aa.