(lp1
(lp2
S'fk_clavicle_r_anim'
p3
a(lp4
VtranslateX
p5
aVtranslateY
p6
aVtranslateZ
p7
aVrotateX
p8
aVrotateY
p9
aVrotateZ
p10
aaF0
aF0
aF0
aF0
aF0
aF0
aa(lp11
S'fk_clavicle_l_anim'
p12
a(lp13
VtranslateX
p14
aVtranslateY
p15
aVtranslateZ
p16
aVrotateX
p17
aVrotateY
p18
aVrotateZ
p19
aaF0
aF0
aF0
aF0
aF0
aF0
aa(lp20
S'head_fk_anim'
p21
a(lp22
VtranslateX
p23
aVtranslateY
p24
aVtranslateZ
p25
aVrotateX
p26
aVrotateY
p27
aVrotateZ
p28
aVscaleX
p29
aVscaleY
p30
aVscaleZ
p31
aVfkOrientation
p32
aaF0
aF0
aF0
aF23.752346440091465
aF10.875568644835859
aF17.401514792936688
aF1
aF1
aF1
aI0
aa(lp33
S'neck_01_fk_anim'
p34
a(lp35
VtranslateX
p36
aVtranslateY
p37
aVtranslateZ
p38
aVrotateX
p39
aVrotateY
p40
aVrotateZ
p41
aVscaleX
p42
aVscaleY
p43
aVscaleZ
p44
aVfkOrientation
p45
aaF0
aF0
aF-1.5777218104420236e-30
aF55.441101370964084
aF3.9026182722204021
aF-0.24430514823495256
aF1
aF0.99999999999999989
aF0.99999999999999978
aI0
aa(lp46
S'spine_01_anim'
p47
a(lp48
Vlength
p49
aVtranslateY
p50
aVtranslateZ
p51
aVrotateX
p52
aVrotateY
p53
aVrotateZ
p54
aaF0
aF0
aF0
aF4.7141942042851337
aF-0.52587388655150979
aF-1.8437209196329052
aa(lp55
S'spine_02_anim'
p56
a(lp57
Vlength
p58
aVtranslateY
p59
aVtranslateZ
p60
aVrotateX
p61
aVrotateY
p62
aVrotateZ
p63
aaF0
aF0
aF0
aF11.481160179291964
aF-8.7888452831551085
aF-0.93762012531478467
aa(lp64
S'spine_03_anim'
p65
a(lp66
Vlength
p67
aVtranslateY
p68
aVtranslateZ
p69
aVrotateX
p70
aVrotateY
p71
aVrotateZ
p72
aaF0
aF0
aF0
aF12.099783741143717
aF-7.9500096967320344
aF-1.1551119441204691
aa(lp73
S'mid_ik_anim'
p74
a(lp75
VtranslateX
p76
aVtranslateY
p77
aVtranslateZ
p78
aVrotateX
p79
aVrotateY
p80
aVrotateZ
p81
aaF-0.1013094183622627
aF-1.7038226258092113
aF0.052041320223368714
aF17.666193542598084
aF-7.0180258790065988
aF10.905931648168302
aa(lp82
S'chest_ik_anim'
p83
a(lp84
VtranslateX
p85
aVtranslateY
p86
aVtranslateZ
p87
aVrotateX
p88
aVrotateY
p89
aVrotateZ
p90
aVstretch
p91
aVsquash
p92
aVtwist_amount
p93
aVautoSpine
p94
aVrotationInfluence
p95
aaF-0.14319799243990872
aF-1.8879659905146822
aF2.0887646992680473
aF23.564562872039804
aF-12.615463118704369
aF5.7477047576899247
aF0
aF0
aF1
aF0
aF0.25
aa(lp96
S'body_anim'
p97
a(lp98
VtranslateX
p99
aVtranslateY
p100
aVtranslateZ
p101
aVrotateX
p102
aVrotateY
p103
aVrotateZ
p104
aaF-11.690982719435315
aF3.3467276452254273
aF-11.172408382751389
aF-26.80552122313626
aF-3.3715950791690217
aF-11.861116709011204
aa(lp105
S'hip_anim'
p106
a(lp107
VtranslateX
p108
aVtranslateY
p109
aVtranslateZ
p110
aVrotateX
p111
aVrotateY
p112
aVrotateZ
p113
aVlCalfTwistCtrlVis
p114
aVrCalfTwistCtrlVis
p115
aVautoHips
p116
aaF0
aF0
aF1.2621774483536189e-29
aF31.855862837820681
aF-4.1068121603843659
aF0
aI00
aI00
aF0
aa(lp117
S'clavicle_l_anim'
p118
a(lp119
VtranslateX
p120
aVtranslateY
p121
aVtranslateZ
p122
aVautoShoulders
p123
aaF-5.0375570222174142
aF5.6030544000099098
aF4.094105644167481
aF0.29999999999999999
aa(lp124
S'clavicle_r_anim'
p125
a(lp126
VtranslateX
p127
aVtranslateY
p128
aVtranslateZ
p129
aVautoShoulders
p130
aaF-5.4696753993365981
aF-8.6373029711210432
aF2.0092993474127834
aF0.20000000000000001
aa(lp131
S'fk_arm_l_anim'
p132
a(lp133
VtranslateX
p134
aVtranslateY
p135
aVtranslateZ
p136
aVrotateX
p137
aVrotateY
p138
aVrotateZ
p139
aaF0
aF0
aF0
aF-46.857705846580231
aF7.4640248029877787
aF-28.44567198497467
aa(lp140
S'fk_arm_r_anim'
p141
a(lp142
VtranslateX
p143
aVtranslateY
p144
aVtranslateZ
p145
aVrotateX
p146
aVrotateY
p147
aVrotateZ
p148
aaF0
aF0
aF0
aF-88.51526668955141
aF31.205542746864158
aF-150.62576133389962
aa(lp149
S'fk_elbow_l_anim'
p150
a(lp151
VtranslateX
p152
aVtranslateY
p153
aVtranslateZ
p154
aVrotateX
p155
aVrotateY
p156
aVrotateZ
p157
aaF0
aF0
aF0
aF33.477724075317376
aF-5.8509536981582633
aF-120.59189605712892
aa(lp158
S'fk_elbow_r_anim'
p159
a(lp160
VtranslateX
p161
aVtranslateY
p162
aVtranslateZ
p163
aVrotateX
p164
aVrotateY
p165
aVrotateZ
p166
aaF0
aF0
aF0
aF5.8245849609374938
aF-2.3518464565277064
aF-89.86356353759767
aa(lp167
S'fk_wrist_l_anim'
p168
a(lp169
VtranslateX
p170
aVtranslateY
p171
aVtranslateZ
p172
aVrotateX
p173
aVrotateY
p174
aVrotateZ
p175
aaF0
aF0
aF0
aF-101.04893112182612
aF-29.96814155578614
aF-2.2707264423370437
aa(lp176
S'fk_wrist_r_anim'
p177
a(lp178
VtranslateX
p179
aVtranslateY
p180
aVtranslateZ
p181
aVrotateX
p182
aVrotateY
p183
aVrotateZ
p184
aaF0
aF0
aF0
aF-31.704166412353491
aF-3.3985300660133264
aF-2.0005590915679972
aa(lp185
S'ik_elbow_l_anim'
p186
a(lp187
VtranslateX
p188
aVtranslateY
p189
aVtranslateZ
p190
aaF-1.0530898879535542
aF-10.371444530788651
aF-35.797510783574239
aa(lp191
S'ik_elbow_r_anim'
p192
a(lp193
VtranslateX
p194
aVtranslateY
p195
aVtranslateZ
p196
aaF-13.639016920275466
aF-36.494108115471022
aF-43.839620080969226
aa(lp197
S'ik_wrist_l_anim'
p198
a(lp199
VtranslateX
p200
aVtranslateY
p201
aVtranslateZ
p202
aVrotateX
p203
aVrotateY
p204
aVrotateZ
p205
aVstretch
p206
aVsquash
p207
aVstretchBias
p208
aVside
p209
aVmid_bend
p210
aVmid_swivel
p211
aVtip_pivot
p212
aVtip_swivel
p213
aaF-50.622693170267524
aF-31.077785357948216
aF9.1788146035320892
aF-109.4555188670672
aF344.44310757560714
aF-59.90253611978018
aF0
aF0
aF0
aF0
aF33.799999999999997
aF19.900000000000002
aF0
aF0
aa(lp214
S'ik_wrist_r_anim'
p215
a(lp216
VtranslateX
p217
aVtranslateY
p218
aVtranslateZ
p219
aVrotateX
p220
aVrotateY
p221
aVrotateZ
p222
aVstretch
p223
aVsquash
p224
aVstretchBias
p225
aVside
p226
aVmid_bend
p227
aVmid_swivel
p228
aVtip_pivot
p229
aVtip_swivel
p230
aaF74.912340785028036
aF-50.48504254452282
aF-40.632626585727095
aF-86.607698565464673
aF34.469105570992895
aF-179.53083181674216
aF0
aF0
aF0
aF0
aF0
aF0
aF0
aF0
aa(lp231
S'fk_thigh_l_anim'
p232
a(lp233
VrotateX
p234
aVrotateY
p235
aVrotateZ
p236
aaF-9.0436972965452842
aF13.462041865345414
aF46.482256678357672
aa(lp237
S'fk_thigh_r_anim'
p238
a(lp239
VrotateX
p240
aVrotateY
p241
aVrotateZ
p242
aaF33.103723816582601
aF-9.9730385953780676
aF8.7285107539319622
aa(lp243
S'fk_calf_l_anim'
p244
a(lp245
VrotateX
p246
aVrotateY
p247
aVrotateZ
p248
aaF0.41737042843037209
aF0.99504381694089128
aF-18.069518060613991
aa(lp249
S'fk_calf_r_anim'
p250
a(lp251
VrotateX
p252
aVrotateY
p253
aVrotateZ
p254
aaF0.80377075061925085
aF-1.233931025157375
aF-25.793826678329538
aa(lp255
S'fk_foot_l_anim'
p256
a(lp257
VrotateX
p258
aVrotateY
p259
aVrotateZ
p260
aaF-6.0026002251405162
aF0.5137420380024974
aF-14.746627999825586
aa(lp261
S'fk_foot_r_anim'
p262
a(lp263
VrotateX
p264
aVrotateY
p265
aVrotateZ
p266
aaF34.852733619551302
aF-12.328391696470419
aF13.59784831509211
aa(lp267
S'fk_ball_l_anim'
p268
a(lp269
VrotateX
p270
aVrotateY
p271
aVrotateZ
p272
aaF0.016095440834760874
aF-0.0002520174311545192
aF0.30748155713081532
aa(lp273
S'fk_ball_r_anim'
p274
a(lp275
VrotateX
p276
aVrotateY
p277
aVrotateZ
p278
aaF0.0059163044206762576
aF0.53823220729823051
aF4.6641597747802503
aa(lp279
S'ik_foot_anim_l'
p280
a(lp281
VtranslateX
p282
aVtranslateY
p283
aVtranslateZ
p284
aVrotateX
p285
aVrotateY
p286
aVrotateZ
p287
aVknee_twist
p288
aVstretch
p289
aVsquash
p290
aVtoeCtrlVis
p291
aVstretchBias
p292
aaF16.472319978161195
aF-33.060571024044904
aF0.39763176681850787
aF-1.2345922324919933
aF0.48112941972001816
aF-18.437140613143704
aF-23.770619521009181
aF0
aF0
aI00
aF0
aa(lp293
S'ik_foot_anim_r'
p294
a(lp295
VtranslateX
p296
aVtranslateY
p297
aVtranslateZ
p298
aVrotateX
p299
aVrotateY
p300
aVrotateZ
p301
aVknee_twist
p302
aVstretch
p303
aVsquash
p304
aVtoeCtrlVis
p305
aVstretchBias
p306
aaF2.8513429588930066
aF35.920261618561099
aF0.48640095479264467
aF0.53741243691975593
aF-6.4826097250436625
aF-59.101080538764037
aF23.974383976027653
aF0
aF0
aI00
aF0
aa(lp307
S'heel_ctrl_l'
p308
a(lp309
VrotateX
p310
aVrotateY
p311
aVrotateZ
p312
aVheelPivot
p313
aVballPivot
p314
aaF-3.7520606007889922e-15
aF1.2324649390671127e-14
aF0
aF0
aF0
aa(lp315
S'heel_ctrl_r'
p316
a(lp317
VrotateX
p318
aVrotateY
p319
aVrotateZ
p320
aVheelPivot
p321
aVballPivot
p322
aaF-1.5033090486604903e-15
aF-1.9480897423964047e-14
aF0
aF0
aF0
aa(lp323
S'toe_wiggle_ctrl_l'
p324
a(lp325
VrotateX
p326
aVrotateY
p327
aVrotateZ
p328
aaF6.3611092702081637e-15
aF1.2723771731069625e-14
aF-6.3611093629270304e-15
aa(lp329
S'toe_wiggle_ctrl_r'
p330
a(lp331
VrotateX
p332
aVrotateY
p333
aVrotateZ
p334
aaF-3.1794685459000318e-15
aF6.361109362927032e-15
aF-3.1805546814635187e-15
aa(lp335
S'toe_tip_ctrl_l'
p336
a(lp337
VrotateX
p338
aVrotateY
p339
aVrotateZ
p340
aaF0
aF-6.3657683785737075e-15
aF-3.1805546814635183e-15
aa(lp341
S'toe_tip_ctrl_r'
p342
a(lp343
VrotateX
p344
aVrotateY
p345
aVrotateZ
p346
aaF0
aF-6.361109362927032e-15
aF3.1805546814635195e-15
aa(lp347
S'master_anim'
p348
a(lp349
VtranslateX
p350
aVtranslateY
p351
aVtranslateZ
p352
aVrotateX
p353
aVrotateY
p354
aVrotateZ
p355
aaF0
aF0
aF0
aF0
aF0
aF0
aa(lp356
S'offset_anim'
p357
a(lp358
VtranslateX
p359
aVtranslateY
p360
aVtranslateZ
p361
aVrotateX
p362
aVrotateY
p363
aVrotateZ
p364
aaF0
aF0
aF0
aF0
aF0
aF0
aa(lp365
S'root_anim'
p366
a(lp367
VtranslateX
p368
aVtranslateY
p369
aVtranslateZ
p370
aVrotateX
p371
aVrotateY
p372
aVrotateZ
p373
aaF0
aF0
aF0
aF0
aF0
aF0
aa(lp374
S'upperarm_l_twist_anim'
p375
a(lp376
VtranslateX
p377
aVtranslateY
p378
aVtranslateZ
p379
aVrotateX
p380
aVrotateY
p381
aVrotateZ
p382
aVscaleX
p383
aVscaleY
p384
aVscaleZ
p385
aaF0
aF-1.7763568394002505e-15
aF0
aF3.975693351829395e-16
aF-4.9696166897867449e-17
aF1.3977046940025222e-17
aF1
aF1
aF1
aa(lp386
S'upperarm_l_twist_2_anim'
p387
a(lp388
VtranslateX
p389
aVtranslateY
p390
aVtranslateZ
p391
aVrotateX
p392
aVrotateY
p393
aVrotateZ
p394
aVscaleX
p395
aVscaleY
p396
aVscaleZ
p397
aaF0
aF1.7763568394002505e-15
aF0
aF3.975693351829395e-16
aF-4.9696166897867449e-17
aF1.3977046940025222e-17
aF1
aF1
aF1
aa(lp398
S'upperarm_r_twist_anim'
p399
a(lp400
VtranslateX
p401
aVtranslateY
p402
aVtranslateZ
p403
aVrotateX
p404
aVrotateY
p405
aVrotateZ
p406
aVscaleX
p407
aVscaleY
p408
aVscaleZ
p409
aaF-3.5527136788005009e-15
aF3.5527136788005009e-15
aF-2.8421709430404007e-14
aF0
aF4.9696166897867437e-17
aF-1.5530052155583574e-18
aF1
aF0.99999999999999978
aF0.99999999999999978
aa(lp410
S'upperarm_r_twist_2_anim'
p411
a(lp412
VtranslateX
p413
aVtranslateY
p414
aVtranslateZ
p415
aVrotateX
p416
aVrotateY
p417
aVrotateZ
p418
aVscaleX
p419
aVscaleY
p420
aVscaleZ
p421
aaF-7.1054273576010019e-15
aF0
aF2.8421709430404007e-14
aF0
aF4.9696166897867437e-17
aF-1.5530052155583574e-18
aF1
aF0.99999999999999978
aF0.99999999999999978
aa(lp422
S'lowerarm_l_twist_anim'
p423
a(lp424
VtranslateX
p425
aVtranslateY
p426
aVtranslateZ
p427
aVrotateX
p428
aVrotateY
p429
aVrotateZ
p430
aaF0
aF0
aF0
aF0
aF0
aF0
aa(lp431
S'lowerarm_r_twist_anim'
p432
a(lp433
VtranslateX
p434
aVtranslateY
p435
aVtranslateZ
p436
aVrotateX
p437
aVrotateY
p438
aVrotateZ
p439
aaF0
aF0
aF0
aF0
aF0
aF0
aa(lp440
S'l_thigh_twist_01_anim'
p441
a(lp442
VtranslateX
p443
aVtranslateY
p444
aVtranslateZ
p445
aVrotateX
p446
aVrotateY
p447
aVrotateZ
p448
aVscaleX
p449
aVscaleY
p450
aVscaleZ
p451
aaF-2.8421709430404007e-14
aF-8.8817841970012523e-16
aF0
aF-1.6151254241806922e-16
aF0
aF0
aF0.99999999999999978
aF1
aF0.99999999999999978
aa(lp452
S'r_thigh_twist_01_anim'
p453
a(lp454
VtranslateX
p455
aVtranslateY
p456
aVtranslateZ
p457
aVrotateX
p458
aVrotateY
p459
aVrotateZ
p460
aVscaleX
p461
aVscaleY
p462
aVscaleZ
p463
aaF2.8421709430404007e-14
aF0
aF0
aF1.5505204072134644e-14
aF-1.1927080055488186e-14
aF-2.0872390097104326e-15
aF0.99999999999999978
aF1
aF0.99999999999999978
aa(lp464
S'pinky_finger_fk_ctrl_1_l'
p465
a(lp466
VtranslateX
p467
aVtranslateY
p468
aVtranslateZ
p469
aVrotateX
p470
aVrotateY
p471
aVrotateZ
p472
aVsticky
p473
aaF0.019498285388217761
aF0.57465450232680537
aF-0.012465293119438735
aF7.763060149149557
aF3.3220697192787578
aF52.565047759812714
aF0
aa(lp474
S'pinky_finger_fk_ctrl_1_r'
p475
a(lp476
VtranslateX
p477
aVtranslateY
p478
aVtranslateZ
p479
aVrotateX
p480
aVrotateY
p481
aVrotateZ
p482
aVsticky
p483
aaF0
aF0
aF0
aF-12.038452345816243
aF-15.344694404476385
aF61.070108702091616
aF0
aa(lp484
S'pinky_finger_fk_ctrl_2_l'
p485
a(lp486
VtranslateX
p487
aVtranslateY
p488
aVtranslateZ
p489
aVrotateX
p490
aVrotateY
p491
aVrotateZ
p492
aaF0
aF0
aF0
aF-5.4671138171847096
aF4.8045464228080235
aF-8.7200932138506921
aa(lp493
S'pinky_finger_fk_ctrl_2_r'
p494
a(lp495
VtranslateX
p496
aVtranslateY
p497
aVtranslateZ
p498
aVrotateX
p499
aVrotateY
p500
aVrotateZ
p501
aaF0
aF0
aF0
aF4.0926210658374949
aF-10.906330031735425
aF36.685285101483998
aa(lp502
S'pinky_finger_fk_ctrl_3_l'
p503
a(lp504
VtranslateX
p505
aVtranslateY
p506
aVtranslateZ
p507
aVrotateX
p508
aVrotateY
p509
aVrotateZ
p510
aaF0
aF0
aF0
aF-19.737430964451619
aF4.8226342979631553
aF17.992099408555653
aa(lp511
S'pinky_finger_fk_ctrl_3_r'
p512
a(lp513
VtranslateX
p514
aVtranslateY
p515
aVtranslateZ
p516
aVrotateX
p517
aVrotateY
p518
aVrotateZ
p519
aaF0
aF0
aF0
aF4.091818240833951
aF-10.422440690130347
aF70.588310241997064
aa(lp520
S'ring_finger_fk_ctrl_1_l'
p521
a(lp522
VtranslateX
p523
aVtranslateY
p524
aVtranslateZ
p525
aVrotateX
p526
aVrotateY
p527
aVrotateZ
p528
aVsticky
p529
aaF-0.0083448964791337978
aF0.55350502390110901
aF-0.15596767270523595
aF-2.5563741379929907
aF8.9681256940702898
aF49.652838437126761
aF0
aa(lp530
S'ring_finger_fk_ctrl_1_r'
p531
a(lp532
VtranslateX
p533
aVtranslateY
p534
aVtranslateZ
p535
aVrotateX
p536
aVrotateY
p537
aVrotateZ
p538
aVsticky
p539
aaF0
aF0
aF0
aF-1.8762239921357806
aF-7.6129333292000201
aF58.80636232834059
aF0
aa(lp540
S'ring_finger_fk_ctrl_2_l'
p541
a(lp542
VtranslateX
p543
aVtranslateY
p544
aVtranslateZ
p545
aVrotateX
p546
aVrotateY
p547
aVrotateZ
p548
aaF0
aF0
aF0
aF-6.0546627848662791
aF-2.4641178787657547
aF9.9056040604607247
aa(lp549
S'ring_finger_fk_ctrl_2_r'
p550
a(lp551
VtranslateX
p552
aVtranslateY
p553
aVtranslateZ
p554
aVrotateX
p555
aVrotateY
p556
aVrotateZ
p557
aaF0
aF0
aF0
aF1.2678331474032811
aF0.84626236834743873
aF58.15179294196863
aa(lp558
S'ring_finger_fk_ctrl_3_l'
p559
a(lp560
VtranslateX
p561
aVtranslateY
p562
aVtranslateZ
p563
aVrotateX
p564
aVrotateY
p565
aVrotateZ
p566
aaF0
aF0
aF0
aF-8.5925951407540315e-07
aF-7.0754390180870175e-07
aF21.019213393847192
aa(lp567
S'ring_finger_fk_ctrl_3_r'
p568
a(lp569
VtranslateX
p570
aVtranslateY
p571
aVtranslateZ
p572
aVrotateX
p573
aVrotateY
p574
aVrotateZ
p575
aaF0
aF0
aF0
aF4.9681847874579956
aF1.9827603811766839
aF51.810856189638557
aa(lp576
S'middle_finger_fk_ctrl_1_l'
p577
a(lp578
VtranslateX
p579
aVtranslateY
p580
aVtranslateZ
p581
aVrotateX
p582
aVrotateY
p583
aVrotateZ
p584
aVsticky
p585
aaF-0.047150666871850135
aF0.53850382638743388
aF-0.19635123450015501
aF-10.031800019578903
aF3.0887998901406291
aF53.348046376250601
aF0
aa(lp586
S'middle_finger_fk_ctrl_1_r'
p587
a(lp588
VtranslateX
p589
aVtranslateY
p590
aVtranslateZ
p591
aVrotateX
p592
aVrotateY
p593
aVrotateZ
p594
aVsticky
p595
aaF0
aF0
aF0
aF-1.5579190270481706
aF-7.4887073153813519
aF71.028530195018931
aF0
aa(lp596
S'middle_finger_fk_ctrl_2_l'
p597
a(lp598
VtranslateX
p599
aVtranslateY
p600
aVtranslateZ
p601
aVrotateX
p602
aVrotateY
p603
aVrotateZ
p604
aaF0
aF0
aF0
aF18.431372121224541
aF6.9129892990079105
aF19.314190324047079
aa(lp605
S'middle_finger_fk_ctrl_2_r'
p606
a(lp607
VtranslateX
p608
aVtranslateY
p609
aVtranslateZ
p610
aVrotateX
p611
aVrotateY
p612
aVrotateZ
p613
aaF0
aF0
aF0
aF3.1205578674787899
aF-6.3745989768269871
aF87.62376132605101
aa(lp614
S'middle_finger_fk_ctrl_3_l'
p615
a(lp616
VtranslateX
p617
aVtranslateY
p618
aVtranslateZ
p619
aVrotateX
p620
aVrotateY
p621
aVrotateZ
p622
aaF0
aF0
aF0
aF-33.415325449829169
aF3.6018516324793519
aF18.630230171183101
aa(lp623
S'middle_finger_fk_ctrl_3_r'
p624
a(lp625
VtranslateX
p626
aVtranslateY
p627
aVtranslateZ
p628
aVrotateX
p629
aVrotateY
p630
aVrotateZ
p631
aaF0
aF0
aF0
aF3.4957659244537989
aF-2.3556907176972537
aF56.61675643920875
aa(lp632
S'index_finger_fk_ctrl_1_l'
p633
a(lp634
VtranslateX
p635
aVtranslateY
p636
aVtranslateZ
p637
aVrotateX
p638
aVrotateY
p639
aVrotateZ
p640
aVsticky
p641
aaF0
aF0
aF0
aF-27.470596846755335
aF4.1162328432523507
aF21.259945655889503
aF0
aa(lp642
S'index_finger_fk_ctrl_1_r'
p643
a(lp644
VtranslateX
p645
aVtranslateY
p646
aVtranslateZ
p647
aVrotateX
p648
aVrotateY
p649
aVrotateZ
p650
aVsticky
p651
aaF0
aF0
aF0
aF-3.3387937277905553
aF-6.0911602689417208
aF28.806636196954795
aF0
aa(lp652
S'index_finger_fk_ctrl_2_l'
p653
a(lp654
VtranslateX
p655
aVtranslateY
p656
aVtranslateZ
p657
aVrotateX
p658
aVrotateY
p659
aVrotateZ
p660
aaF0
aF0
aF0
aF-16.393347267926867
aF-5.3813588459221631
aF28.945357725337491
aa(lp661
S'index_finger_fk_ctrl_2_r'
p662
a(lp663
VtranslateX
p664
aVtranslateY
p665
aVtranslateZ
p666
aVrotateX
p667
aVrotateY
p668
aVrotateZ
p669
aaF0
aF0
aF0
aF11.878195689229353
aF10.670392963040042
aF79.264915139155477
aa(lp670
S'index_finger_fk_ctrl_3_l'
p671
a(lp672
VtranslateX
p673
aVtranslateY
p674
aVtranslateZ
p675
aVrotateX
p676
aVrotateY
p677
aVrotateZ
p678
aaF0
aF0
aF0
aF-1.6546705575797931e-08
aF-1.9132419215196087e-07
aF22.059717254693272
aa(lp679
S'index_finger_fk_ctrl_3_r'
p680
a(lp681
VtranslateX
p682
aVtranslateY
p683
aVtranslateZ
p684
aVrotateX
p685
aVrotateY
p686
aVrotateZ
p687
aaF0
aF0
aF0
aF3.8930349770478396
aF12.80163569755759
aF55.805820473174691
aa(lp688
S'thumb_finger_fk_ctrl_1_l'
p689
a(lp690
VtranslateX
p691
aVtranslateY
p692
aVtranslateZ
p693
aVrotateX
p694
aVrotateY
p695
aVrotateZ
p696
aVsticky
p697
aaF0
aF0
aF0
aF15.247832671774422
aF0.70667598699890199
aF-13.734293720107473
aF0
aa(lp698
S'thumb_finger_fk_ctrl_1_r'
p699
a(lp700
VtranslateX
p701
aVtranslateY
p702
aVtranslateZ
p703
aVrotateX
p704
aVrotateY
p705
aVrotateZ
p706
aVsticky
p707
aaF0
aF0
aF0
aF13.842920871722939
aF26.503508475355392
aF43.07533971417805
aF0
aa(lp708
S'thumb_finger_fk_ctrl_2_l'
p709
a(lp710
VtranslateX
p711
aVtranslateY
p712
aVtranslateZ
p713
aVrotateX
p714
aVrotateY
p715
aVrotateZ
p716
aaF0
aF0
aF0
aF2.5973512414260347e-07
aF-5.4039463391029237e-08
aF-1.3219730781964801e-07
aa(lp717
S'thumb_finger_fk_ctrl_2_r'
p718
a(lp719
VtranslateX
p720
aVtranslateY
p721
aVtranslateZ
p722
aVrotateX
p723
aVrotateY
p724
aVrotateZ
p725
aaF0
aF0
aF0
aF-1.7716493101714612
aF4.5295816409483436
aF-4.4364118677265418
aa(lp726
S'thumb_finger_fk_ctrl_3_l'
p727
a(lp728
VtranslateX
p729
aVtranslateY
p730
aVtranslateZ
p731
aVrotateX
p732
aVrotateY
p733
aVrotateZ
p734
aaF0
aF0
aF0
aF-6.9979066626545361
aF-2.4044252941487789
aF2.3033591963087501
aa(lp735
S'thumb_finger_fk_ctrl_3_r'
p736
a(lp737
VtranslateX
p738
aVtranslateY
p739
aVtranslateZ
p740
aVrotateX
p741
aVrotateY
p742
aVrotateZ
p743
aaF0
aF0
aF0
aF9.6091172309653822e-06
aF-4.3910629098913569e-08
aF55.176322325550096
aa(lp744
S'index_l_ik_anim'
p745
a(lp746
VtranslateX
p747
aVtranslateY
p748
aVtranslateZ
p749
aVrotateX
p750
aVrotateY
p751
aVrotateZ
p752
aVpoleVectorVis
p753
aaF0
aF0
aF0
aF0
aF0
aF0
aF0
aa(lp754
S'index_r_ik_anim'
p755
a(lp756
VtranslateX
p757
aVtranslateY
p758
aVtranslateZ
p759
aVrotateX
p760
aVrotateY
p761
aVrotateZ
p762
aVpoleVectorVis
p763
aaF0
aF0
aF0
aF0
aF0
aF0
aF0
aa(lp764
S'middle_l_ik_anim'
p765
a(lp766
VtranslateX
p767
aVtranslateY
p768
aVtranslateZ
p769
aVrotateX
p770
aVrotateY
p771
aVrotateZ
p772
aVpoleVectorVis
p773
aaF0
aF0
aF0
aF0
aF0
aF0
aF0
aa(lp774
S'middle_r_ik_anim'
p775
a(lp776
VtranslateX
p777
aVtranslateY
p778
aVtranslateZ
p779
aVrotateX
p780
aVrotateY
p781
aVrotateZ
p782
aVpoleVectorVis
p783
aaF0
aF0
aF0
aF0
aF0
aF0
aF0
aa(lp784
S'ring_l_ik_anim'
p785
a(lp786
VtranslateX
p787
aVtranslateY
p788
aVtranslateZ
p789
aVrotateX
p790
aVrotateY
p791
aVrotateZ
p792
aVpoleVectorVis
p793
aaF0
aF0
aF0
aF0
aF0
aF0
aF0
aa(lp794
S'ring_r_ik_anim'
p795
a(lp796
VtranslateX
p797
aVtranslateY
p798
aVtranslateZ
p799
aVrotateX
p800
aVrotateY
p801
aVrotateZ
p802
aVpoleVectorVis
p803
aaF0
aF0
aF0
aF0
aF0
aF0
aF0
aa(lp804
S'pinky_l_ik_anim'
p805
a(lp806
VtranslateX
p807
aVtranslateY
p808
aVtranslateZ
p809
aVrotateX
p810
aVrotateY
p811
aVrotateZ
p812
aVpoleVectorVis
p813
aaF0
aF0
aF0
aF0
aF0
aF0
aF0
aa(lp814
S'pinky_r_ik_anim'
p815
a(lp816
VtranslateX
p817
aVtranslateY
p818
aVtranslateZ
p819
aVrotateX
p820
aVrotateY
p821
aVrotateZ
p822
aVpoleVectorVis
p823
aaF0
aF0
aF0
aF0
aF0
aF0
aF0
aa(lp824
S'thumb_l_ik_anim'
p825
a(lp826
VtranslateX
p827
aVtranslateY
p828
aVtranslateZ
p829
aVrotateX
p830
aVrotateY
p831
aVrotateZ
p832
aVpoleVectorVis
p833
aaF0
aF0
aF0
aF0
aF0
aF0
aF0
aa(lp834
S'thumb_r_ik_anim'
p835
a(lp836
VtranslateX
p837
aVtranslateY
p838
aVtranslateZ
p839
aVrotateX
p840
aVrotateY
p841
aVrotateZ
p842
aVpoleVectorVis
p843
aaF0
aF0
aF0
aF0
aF0
aF0
aF0
aa(lp844
S'index_l_poleVector'
p845
a(lp846
VtranslateX
p847
aVtranslateY
p848
aVtranslateZ
p849
aVrotateX
p850
aVrotateY
p851
aVrotateZ
p852
aaF0
aF0
aF0
aF0
aF0
aF0
aa(lp853
S'index_r_poleVector'
p854
a(lp855
VtranslateX
p856
aVtranslateY
p857
aVtranslateZ
p858
aVrotateX
p859
aVrotateY
p860
aVrotateZ
p861
aaF0
aF0
aF0
aF0
aF0
aF0
aa(lp862
S'middle_l_poleVector'
p863
a(lp864
VtranslateX
p865
aVtranslateY
p866
aVtranslateZ
p867
aVrotateX
p868
aVrotateY
p869
aVrotateZ
p870
aaF0
aF0
aF0
aF0
aF0
aF0
aa(lp871
S'middle_r_poleVector'
p872
a(lp873
VtranslateX
p874
aVtranslateY
p875
aVtranslateZ
p876
aVrotateX
p877
aVrotateY
p878
aVrotateZ
p879
aaF0
aF0
aF0
aF0
aF0
aF0
aa(lp880
S'ring_l_poleVector'
p881
a(lp882
VtranslateX
p883
aVtranslateY
p884
aVtranslateZ
p885
aVrotateX
p886
aVrotateY
p887
aVrotateZ
p888
aaF0
aF0
aF0
aF0
aF0
aF0
aa(lp889
S'ring_r_poleVector'
p890
a(lp891
VtranslateX
p892
aVtranslateY
p893
aVtranslateZ
p894
aVrotateX
p895
aVrotateY
p896
aVrotateZ
p897
aaF0
aF0
aF0
aF0
aF0
aF0
aa(lp898
S'pinky_l_poleVector'
p899
a(lp900
VtranslateX
p901
aVtranslateY
p902
aVtranslateZ
p903
aVrotateX
p904
aVrotateY
p905
aVrotateZ
p906
aaF0
aF0
aF0
aF0
aF0
aF0
aa(lp907
S'pinky_r_poleVector'
p908
a(lp909
VtranslateX
p910
aVtranslateY
p911
aVtranslateZ
p912
aVrotateX
p913
aVrotateY
p914
aVrotateZ
p915
aaF0
aF0
aF0
aF0
aF0
aF0
aa(lp916
S'thumb_l_poleVector'
p917
a(lp918
VtranslateX
p919
aVtranslateY
p920
aVtranslateZ
p921
aVrotateX
p922
aVrotateY
p923
aVrotateZ
p924
aaF0
aF0
aF0
aF0
aF0
aF0
aa(lp925
S'thumb_r_poleVector'
p926
a(lp927
VtranslateX
p928
aVtranslateY
p929
aVtranslateZ
p930
aVrotateX
p931
aVrotateY
p932
aVrotateZ
p933
aaF0
aF0
aF0
aF0
aF0
aF0
aa(lp934
S'l_global_ik_anim'
p935
a(lp936
VtranslateX
p937
aVtranslateY
p938
aVtranslateZ
p939
aVrotateX
p940
aVrotateY
p941
aVrotateZ
p942
aaF0
aF0
aF0
aF0
aF0
aF0
aa(lp943
S'r_global_ik_anim'
p944
a(lp945
VtranslateX
p946
aVtranslateY
p947
aVtranslateZ
p948
aVrotateX
p949
aVrotateY
p950
aVrotateZ
p951
aaF0
aF0
aF0
aF0
aF0
aF0
aa(lp952
S'Rig_Settings'
p953
a(lp954
Vspine_ik
p955
aVspine_fk
p956
aVlLegMode
p957
aVlThighTwistAmount
p958
aVlThighTwist2Amount
p959
aVllegTwistCtrlVis
p960
aVlCalfTwistAmount
p961
aVrLegMode
p962
aVrThighTwistAmount
p963
aVrThighTwist2Amount
p964
aVrlegTwistCtrlVis
p965
aVrCalfTwistAmount
p966
aVlFkArmOrient
p967
aVlArmMode
p968
aVlClavMode
p969
aVlUpperarmTwistAmount
p970
aVlUpperarmTwist2Amount
p971
aVltwistCtrlVis
p972
aVltwistCtrlVisLower
p973
aVlForearmTwistAmount
p974
aVrFkArmOrient
p975
aVrArmMode
p976
aVrClavMode
p977
aVrUpperarmTwistAmount
p978
aVrUpperarmTwist2Amount
p979
aVrtwistCtrlVis
p980
aVrtwistCtrlVisLower
p981
aVrForearmTwistAmount
p982
aaF1
aF0
aI1
aF1
aF0.59999999999999998
aI00
aF0.5
aI1
aF1
aF0.59999999999999998
aI00
aF0.5
aI0
aI1
aI1
aF0.90000000000000002
aF0.59999999999999998
aI00
aI00
aF0.5
aI0
aI1
aI1
aF0.90000000000000002
aF0.59999999999999998
aI00
aI00
aF0.5
aa(lp983
S'calf_l_twist_anim'
p984
a(lp985
VtranslateX
p986
aVtranslateY
p987
aVtranslateZ
p988
aVrotateX
p989
aVrotateY
p990
aVrotateZ
p991
aaF0
aF0
aF0
aF0
aF0
aF0
aa(lp992
S'calf_r_twist_anim'
p993
a(lp994
VtranslateX
p995
aVtranslateY
p996
aVtranslateZ
p997
aVrotateX
p998
aVrotateY
p999
aVrotateZ
p1000
aaF0
aF0
aF0
aF0
aF0
aF0
aa(lp1001
Vankle_plate_in_l_anim
p1002
a(lp1003
VtranslateX
p1004
aVtranslateY
p1005
aVtranslateZ
p1006
aVrotateX
p1007
aVrotateY
p1008
aVrotateZ
p1009
aVscaleX
p1010
aVscaleY
p1011
aVscaleZ
p1012
aaF0
aF0
aF0
aF0
aF0
aF0
aF1
aF1
aF1.0000000000000002
aa(lp1013
Vankle_plate_in_r_anim
p1014
a(lp1015
VtranslateX
p1016
aVtranslateY
p1017
aVtranslateZ
p1018
aVrotateX
p1019
aVrotateY
p1020
aVrotateZ
p1021
aVscaleX
p1022
aVscaleY
p1023
aVscaleZ
p1024
aaF0
aF0
aF0
aF0
aF0
aF0
aF1
aF0.99999999999999978
aF1
aa(lp1025
Vankle_plate_out_l_anim
p1026
a(lp1027
VtranslateX
p1028
aVtranslateY
p1029
aVtranslateZ
p1030
aVrotateX
p1031
aVrotateY
p1032
aVrotateZ
p1033
aVscaleX
p1034
aVscaleY
p1035
aVscaleZ
p1036
aaF0
aF0
aF0
aF0
aF0
aF0
aF1
aF1
aF1
aa(lp1037
Vankle_plate_out_r_anim
p1038
a(lp1039
VtranslateX
p1040
aVtranslateY
p1041
aVtranslateZ
p1042
aVrotateX
p1043
aVrotateY
p1044
aVrotateZ
p1045
aVscaleX
p1046
aVscaleY
p1047
aVscaleZ
p1048
aaF0
aF0
aF0
aF0
aF0
aF0
aF1.0000000000000004
aF1.0000000000000002
aF1.0000000000000002
aa(lp1049
Varm_hose_bott_anim
p1050
a(lp1051
VtranslateX
p1052
aVtranslateY
p1053
aVtranslateZ
p1054
aVrotateX
p1055
aVrotateY
p1056
aVrotateZ
p1057
aVscaleX
p1058
aVscaleY
p1059
aVscaleZ
p1060
aaF0
aF0
aF0
aF0
aF0
aF0
aF1
aF0.99999999999999978
aF1
aa(lp1061
Varm_hose_top_anim
p1062
a(lp1063
VtranslateX
p1064
aVtranslateY
p1065
aVtranslateZ
p1066
aVrotateX
p1067
aVrotateY
p1068
aVrotateZ
p1069
aVscaleX
p1070
aVscaleY
p1071
aVscaleZ
p1072
aaF0
aF0
aF0
aF0
aF0
aF0
aF1
aF1
aF1
aa(lp1073
Varm_pouch_l_anim
p1074
a(lp1075
VtranslateX
p1076
aVtranslateY
p1077
aVtranslateZ
p1078
aVrotateX
p1079
aVrotateY
p1080
aVrotateZ
p1081
aVscaleX
p1082
aVscaleY
p1083
aVscaleZ
p1084
aaF0
aF0
aF0
aF0
aF0
aF0
aF1
aF1
aF1
aa(lp1085
Vbot_hand_anim
p1086
a(lp1087
VtranslateX
p1088
aVtranslateY
p1089
aVtranslateZ
p1090
aVrotateX
p1091
aVrotateY
p1092
aVrotateZ
p1093
aVscaleX
p1094
aVscaleY
p1095
aVscaleZ
p1096
aaF0
aF0
aF0
aF0
aF0
aF0
aF1
aF1.0000000000000002
aF1.0000000000000002
aa(lp1097
Vbot_loarm_anim
p1098
a(lp1099
VtranslateX
p1100
aVtranslateY
p1101
aVtranslateZ
p1102
aVrotateX
p1103
aVrotateY
p1104
aVrotateZ
p1105
aVscaleX
p1106
aVscaleY
p1107
aVscaleZ
p1108
aaF0
aF0
aF0
aF0
aF0
aF0
aF1
aF1
aF1
aa(lp1109
Vbot_loarm_pistonB_bot_anim
p1110
a(lp1111
VtranslateX
p1112
aVtranslateY
p1113
aVtranslateZ
p1114
aVrotateX
p1115
aVrotateY
p1116
aVrotateZ
p1117
aVscaleX
p1118
aVscaleY
p1119
aVscaleZ
p1120
aaF0
aF0
aF0
aF0
aF0
aF0
aF1
aF1
aF1
aa(lp1121
Vbot_loarm_pistonB_top_anim
p1122
a(lp1123
VtranslateX
p1124
aVtranslateY
p1125
aVtranslateZ
p1126
aVrotateX
p1127
aVrotateY
p1128
aVrotateZ
p1129
aVscaleX
p1130
aVscaleY
p1131
aVscaleZ
p1132
aaF0
aF0
aF0
aF0
aF0
aF0
aF1
aF1
aF1
aa(lp1133
Vbot_loarm_pistonC_bot_anim
p1134
a(lp1135
VtranslateX
p1136
aVtranslateY
p1137
aVtranslateZ
p1138
aVrotateX
p1139
aVrotateY
p1140
aVrotateZ
p1141
aVscaleX
p1142
aVscaleY
p1143
aVscaleZ
p1144
aaF-4.9936602408706676e-08
aF1.4090232269836633e-07
aF1.4886757071508327e-07
aF0
aF0
aF0
aF1
aF1
aF1
aa(lp1145
Vbot_loarm_pistonC_top_anim
p1146
a(lp1147
VtranslateX
p1148
aVtranslateY
p1149
aVtranslateZ
p1150
aVrotateX
p1151
aVrotateY
p1152
aVrotateZ
p1153
aVscaleX
p1154
aVscaleY
p1155
aVscaleZ
p1156
aaF-2.0081228058188572e-07
aF9.3106280019128462e-08
aF-7.4173470920868567e-08
aF0
aF0
aF0
aF1
aF1
aF1
aa(lp1157
Vbot_loarm_pistonD_bot_anim
p1158
a(lp1159
VtranslateX
p1160
aVtranslateY
p1161
aVtranslateZ
p1162
aVrotateX
p1163
aVrotateY
p1164
aVrotateZ
p1165
aVscaleX
p1166
aVscaleY
p1167
aVscaleZ
p1168
aaF0
aF0
aF0
aF0
aF0
aF0
aF1.0000000000000002
aF1.0000000000000002
aF1.0000000000000002
aa(lp1169
Vbot_loarm_pistonD_top_anim
p1170
a(lp1171
VtranslateX
p1172
aVtranslateY
p1173
aVtranslateZ
p1174
aVrotateX
p1175
aVrotateY
p1176
aVrotateZ
p1177
aVscaleX
p1178
aVscaleY
p1179
aVscaleZ
p1180
aaF0
aF0
aF0
aF0
aF0
aF0
aF1
aF0.99999999999999978
aF1
aa(lp1181
Vbot_loarm_twist_anim
p1182
a(lp1183
VtranslateX
p1184
aVtranslateY
p1185
aVtranslateZ
p1186
aVrotateX
p1187
aVrotateY
p1188
aVrotateZ
p1189
aVscaleX
p1190
aVscaleY
p1191
aVscaleZ
p1192
aaF5.8083031717615086e-08
aF1.9609402102105378e-08
aF-9.0213063685951056e-09
aF0
aF0
aF0
aF1
aF1.0000000000000002
aF1
aa(lp1193
Vbot_uparm_anim
p1194
a(lp1195
VtranslateX
p1196
aVtranslateY
p1197
aVtranslateZ
p1198
aVrotateX
p1199
aVrotateY
p1200
aVrotateZ
p1201
aVscaleX
p1202
aVscaleY
p1203
aVscaleZ
p1204
aaF0
aF0
aF0
aF0
aF0
aF0
aF1
aF1
aF1
aa(lp1205
Vbot_uparm_pistonC_bot_anim
p1206
a(lp1207
VtranslateX
p1208
aVtranslateY
p1209
aVtranslateZ
p1210
aVrotateX
p1211
aVrotateY
p1212
aVrotateZ
p1213
aVscaleX
p1214
aVscaleY
p1215
aVscaleZ
p1216
aaF0
aF0
aF0
aF0
aF0
aF0
aF1
aF1
aF1
aa(lp1217
Vbot_uparm_pistonC_top_anim
p1218
a(lp1219
VtranslateX
p1220
aVtranslateY
p1221
aVtranslateZ
p1222
aVrotateX
p1223
aVrotateY
p1224
aVrotateZ
p1225
aVscaleX
p1226
aVscaleY
p1227
aVscaleZ
p1228
aaF0
aF0
aF0
aF0
aF0
aF0
aF1
aF1
aF1
aa(lp1229
Veyeball_l_anim
p1230
a(lp1231
VtranslateX
p1232
aVtranslateY
p1233
aVtranslateZ
p1234
aVrotateX
p1235
aVrotateY
p1236
aVrotateZ
p1237
aVscaleX
p1238
aVscaleY
p1239
aVscaleZ
p1240
aaF0
aF0
aF0
aF0
aF0
aF0
aF1
aF1
aF1
aa(lp1241
Veyeball_r_anim
p1242
a(lp1243
VtranslateX
p1244
aVtranslateY
p1245
aVtranslateZ
p1246
aVrotateX
p1247
aVrotateY
p1248
aVrotateZ
p1249
aVscaleX
p1250
aVscaleY
p1251
aVscaleZ
p1252
aaF0
aF0
aF0
aF0
aF0
aF0
aF1
aF1
aF1
aa(lp1253
Veyebrow_in_l_anim
p1254
a(lp1255
VtranslateX
p1256
aVtranslateY
p1257
aVtranslateZ
p1258
aVrotateX
p1259
aVrotateY
p1260
aVrotateZ
p1261
aVscaleX
p1262
aVscaleY
p1263
aVscaleZ
p1264
aaF0
aF0
aF0
aF0
aF0
aF0
aF1
aF1.0000000000000002
aF1.0000000000000002
aa(lp1265
Veyebrow_in_r_anim
p1266
a(lp1267
VtranslateX
p1268
aVtranslateY
p1269
aVtranslateZ
p1270
aVrotateX
p1271
aVrotateY
p1272
aVrotateZ
p1273
aVscaleX
p1274
aVscaleY
p1275
aVscaleZ
p1276
aaF0
aF0
aF0
aF0
aF0
aF0
aF0.99999999999999978
aF0.99999999999999978
aF0.99999999999999978
aa(lp1277
Veyebrow_out_l_anim
p1278
a(lp1279
VtranslateX
p1280
aVtranslateY
p1281
aVtranslateZ
p1282
aVrotateX
p1283
aVrotateY
p1284
aVrotateZ
p1285
aVscaleX
p1286
aVscaleY
p1287
aVscaleZ
p1288
aaF0
aF0
aF0
aF0
aF0
aF0
aF0.99999999999999978
aF0.99999999999999978
aF1
aa(lp1289
Veyebrow_out_r_anim
p1290
a(lp1291
VtranslateX
p1292
aVtranslateY
p1293
aVtranslateZ
p1294
aVrotateX
p1295
aVrotateY
p1296
aVrotateZ
p1297
aVscaleX
p1298
aVscaleY
p1299
aVscaleZ
p1300
aaF0
aF0
aF0
aF0
aF0
aF0
aF1.0000000000000002
aF1.0000000000000002
aF1.0000000000000004
aa(lp1301
Veyelid_bott_l_anim
p1302
a(lp1303
VtranslateX
p1304
aVtranslateY
p1305
aVtranslateZ
p1306
aVrotateX
p1307
aVrotateY
p1308
aVrotateZ
p1309
aVscaleX
p1310
aVscaleY
p1311
aVscaleZ
p1312
aaF0
aF0
aF0
aF0
aF0
aF0
aF1
aF1
aF1
aa(lp1313
Veyelid_bott_r_anim
p1314
a(lp1315
VtranslateX
p1316
aVtranslateY
p1317
aVtranslateZ
p1318
aVrotateX
p1319
aVrotateY
p1320
aVrotateZ
p1321
aVscaleX
p1322
aVscaleY
p1323
aVscaleZ
p1324
aaF0
aF0
aF0
aF0
aF0
aF0
aF1
aF1
aF1
aa(lp1325
Veyelid_top_l_anim
p1326
a(lp1327
VtranslateX
p1328
aVtranslateY
p1329
aVtranslateZ
p1330
aVrotateX
p1331
aVrotateY
p1332
aVrotateZ
p1333
aVscaleX
p1334
aVscaleY
p1335
aVscaleZ
p1336
aaF0
aF0
aF0
aF0
aF0
aF0
aF1
aF1
aF1
aa(lp1337
Veyelid_top_r_anim
p1338
a(lp1339
VtranslateX
p1340
aVtranslateY
p1341
aVtranslateZ
p1342
aVrotateX
p1343
aVrotateY
p1344
aVrotateZ
p1345
aVscaleX
p1346
aVscaleY
p1347
aVscaleZ
p1348
aaF0
aF0
aF0
aF0
aF0
aF0
aF1
aF1
aF1
aa(lp1349
Vgun_anim
p1350
a(lp1351
VtranslateX
p1352
aVtranslateY
p1353
aVtranslateZ
p1354
aVrotateX
p1355
aVrotateY
p1356
aVrotateZ
p1357
aVscaleX
p1358
aVscaleY
p1359
aVscaleZ
p1360
aaF2.294580371126735
aF0.081511541477898436
aF0.10571991721390056
aF31.434007196564291
aF-0.43412181609596717
aF0.23166590761927211
aF1
aF1
aF1
aa(lp1361
Vgun_barrel_anim
p1362
a(lp1363
VtranslateX
p1364
aVtranslateY
p1365
aVtranslateZ
p1366
aVrotateX
p1367
aVrotateY
p1368
aVrotateZ
p1369
aVscaleX
p1370
aVscaleY
p1371
aVscaleZ
p1372
aaF0
aF0
aF0
aF0
aF0
aF0
aF1
aF1
aF1
aa(lp1373
Vgun_barrel_inner_anim
p1374
a(lp1375
VtranslateX
p1376
aVtranslateY
p1377
aVtranslateZ
p1378
aVrotateX
p1379
aVrotateY
p1380
aVrotateZ
p1381
aVscaleX
p1382
aVscaleY
p1383
aVscaleZ
p1384
aaF0
aF0
aF0
aF0
aF0
aF0
aF1
aF1
aF1
aa(lp1385
Vgun_body_panel_l_anim
p1386
a(lp1387
VtranslateX
p1388
aVtranslateY
p1389
aVtranslateZ
p1390
aVrotateX
p1391
aVrotateY
p1392
aVrotateZ
p1393
aVscaleX
p1394
aVscaleY
p1395
aVscaleZ
p1396
aaF0
aF0
aF0
aF0
aF0
aF0
aF1
aF1
aF1
aa(lp1397
Vgun_body_panel_r_anim
p1398
a(lp1399
VtranslateX
p1400
aVtranslateY
p1401
aVtranslateZ
p1402
aVrotateX
p1403
aVrotateY
p1404
aVrotateZ
p1405
aVscaleX
p1406
aVscaleY
p1407
aVscaleZ
p1408
aaF0
aF0
aF0
aF0
aF0
aF0
aF1
aF1
aF1
aa(lp1409
Vgun_scope_anim
p1410
a(lp1411
VtranslateX
p1412
aVtranslateY
p1413
aVtranslateZ
p1414
aVrotateX
p1415
aVrotateY
p1416
aVrotateZ
p1417
aVscaleX
p1418
aVscaleY
p1419
aVscaleZ
p1420
aaF0
aF0
aF0
aF0
aF0
aF0
aF1
aF1
aF1
aa(lp1421
Vgun_stock_base_anim
p1422
a(lp1423
VtranslateX
p1424
aVtranslateY
p1425
aVtranslateZ
p1426
aVrotateX
p1427
aVrotateY
p1428
aVrotateZ
p1429
aVscaleX
p1430
aVscaleY
p1431
aVscaleZ
p1432
aaF0
aF0
aF0
aF0
aF0
aF0
aF1
aF1
aF1
aa(lp1433
Vgun_stock_base_in_bott_anim
p1434
a(lp1435
VtranslateX
p1436
aVtranslateY
p1437
aVtranslateZ
p1438
aVrotateX
p1439
aVrotateY
p1440
aVrotateZ
p1441
aVscaleX
p1442
aVscaleY
p1443
aVscaleZ
p1444
aaF0
aF0
aF0
aF0
aF0
aF0
aF1
aF1
aF1
aa(lp1445
Vgun_stock_base_in_top_anim
p1446
a(lp1447
VtranslateX
p1448
aVtranslateY
p1449
aVtranslateZ
p1450
aVrotateX
p1451
aVrotateY
p1452
aVrotateZ
p1453
aVscaleX
p1454
aVscaleY
p1455
aVscaleZ
p1456
aaF0
aF0
aF0
aF0
aF0
aF0
aF1
aF1
aF1
aa(lp1457
Vgun_stock_base_out_bott_anim
p1458
a(lp1459
VtranslateX
p1460
aVtranslateY
p1461
aVtranslateZ
p1462
aVrotateX
p1463
aVrotateY
p1464
aVrotateZ
p1465
aVscaleX
p1466
aVscaleY
p1467
aVscaleZ
p1468
aaF0
aF0
aF0
aF0
aF0
aF0
aF1
aF1
aF1
aa(lp1469
Vgun_stock_base_out_top_anim
p1470
a(lp1471
VtranslateX
p1472
aVtranslateY
p1473
aVtranslateZ
p1474
aVrotateX
p1475
aVrotateY
p1476
aVrotateZ
p1477
aVscaleX
p1478
aVscaleY
p1479
aVscaleZ
p1480
aaF0
aF0
aF0
aF0
aF0
aF0
aF1
aF1
aF1
aa(lp1481
Vgun_stock_bott_anim
p1482
a(lp1483
VtranslateX
p1484
aVtranslateY
p1485
aVtranslateZ
p1486
aVrotateX
p1487
aVrotateY
p1488
aVrotateZ
p1489
aVscaleX
p1490
aVscaleY
p1491
aVscaleZ
p1492
aaF0
aF0
aF0
aF0
aF0
aF0
aF1
aF1
aF1
aa(lp1493
Vgun_stock_in_bott_anim
p1494
a(lp1495
VtranslateX
p1496
aVtranslateY
p1497
aVtranslateZ
p1498
aVrotateX
p1499
aVrotateY
p1500
aVrotateZ
p1501
aVscaleX
p1502
aVscaleY
p1503
aVscaleZ
p1504
aaF0
aF0
aF0
aF0
aF0
aF0
aF1
aF1
aF1
aa(lp1505
Vgun_stock_in_top_anim
p1506
a(lp1507
VtranslateX
p1508
aVtranslateY
p1509
aVtranslateZ
p1510
aVrotateX
p1511
aVrotateY
p1512
aVrotateZ
p1513
aVscaleX
p1514
aVscaleY
p1515
aVscaleZ
p1516
aaF0
aF0
aF0
aF0
aF0
aF0
aF1
aF1
aF1
aa(lp1517
Vgun_stock_panel_l_anim
p1518
a(lp1519
VtranslateX
p1520
aVtranslateY
p1521
aVtranslateZ
p1522
aVrotateX
p1523
aVrotateY
p1524
aVrotateZ
p1525
aVscaleX
p1526
aVscaleY
p1527
aVscaleZ
p1528
aaF0
aF0
aF0
aF0
aF0
aF0
aF1
aF1
aF1
aa(lp1529
Vgun_stock_panel_r_anim
p1530
a(lp1531
VtranslateX
p1532
aVtranslateY
p1533
aVtranslateZ
p1534
aVrotateX
p1535
aVrotateY
p1536
aVrotateZ
p1537
aVscaleX
p1538
aVscaleY
p1539
aVscaleZ
p1540
aaF0
aF0
aF0
aF0
aF0
aF0
aF1
aF1
aF1
aa(lp1541
Vheel_plate_l_anim
p1542
a(lp1543
VtranslateX
p1544
aVtranslateY
p1545
aVtranslateZ
p1546
aVrotateX
p1547
aVrotateY
p1548
aVrotateZ
p1549
aVscaleX
p1550
aVscaleY
p1551
aVscaleZ
p1552
aaF0
aF0
aF0
aF0
aF0
aF0
aF1
aF1
aF1
aa(lp1553
Vheel_plate_r_anim
p1554
a(lp1555
VtranslateX
p1556
aVtranslateY
p1557
aVtranslateZ
p1558
aVrotateX
p1559
aVrotateY
p1560
aVrotateZ
p1561
aVscaleX
p1562
aVscaleY
p1563
aVscaleZ
p1564
aaF0
aF0
aF0
aF0
aF0
aF0
aF1.0000000000000004
aF1.0000000000000004
aF1.0000000000000002
aa(lp1565
Vhelmet_sight_anim
p1566
a(lp1567
VtranslateX
p1568
aVtranslateY
p1569
aVtranslateZ
p1570
aVrotateX
p1571
aVrotateY
p1572
aVrotateZ
p1573
aVscaleX
p1574
aVscaleY
p1575
aVscaleZ
p1576
aaF0
aF0
aF0
aF0
aF0
aF0
aF1
aF1
aF1
aa(lp1577
Vhip_pack_a_anim
p1578
a(lp1579
VtranslateX
p1580
aVtranslateY
p1581
aVtranslateZ
p1582
aVrotateX
p1583
aVrotateY
p1584
aVrotateZ
p1585
aVchainAttach
p1586
aVchainStartEnvelope
p1587
aVchainStartFrame
p1588
aVchainStiffness
p1589
aVchainDamping
p1590
aVchainGravity
p1591
aVchainIteration
p1592
aVchainCollide
p1593
aVchainWidthBase
p1594
aVchainWidthExtremity
p1595
aVchainCollideGround
p1596
aVchainCollideGroundHeight
p1597
aaF0
aF0
aF0
aF0
aF0
aF0
aI1
aF0
aF1
aF0.10000000000000001
aF0.20000000000000001
aF1
aI1
aI00
aF1
aF1
aI00
aF0
aa(lp1598
Vhip_pack_b_anim
p1599
a(lp1600
VtranslateX
p1601
aVtranslateY
p1602
aVtranslateZ
p1603
aVrotateX
p1604
aVrotateY
p1605
aVrotateZ
p1606
aVchainAttach
p1607
aVchainStartEnvelope
p1608
aVchainStartFrame
p1609
aVchainStiffness
p1610
aVchainDamping
p1611
aVchainGravity
p1612
aVchainIteration
p1613
aVchainCollide
p1614
aVchainWidthBase
p1615
aVchainWidthExtremity
p1616
aVchainCollideGround
p1617
aVchainCollideGroundHeight
p1618
aaF0
aF0
aF0
aF0
aF0
aF0
aI1
aF0
aF1
aF0.10000000000000001
aF0.20000000000000001
aF1
aI1
aI00
aF1
aF1
aI00
aF0
aa(lp1619
Vhip_pack_c_anim
p1620
a(lp1621
VtranslateX
p1622
aVtranslateY
p1623
aVtranslateZ
p1624
aVrotateX
p1625
aVrotateY
p1626
aVrotateZ
p1627
aVchainAttach
p1628
aVchainStartEnvelope
p1629
aVchainStartFrame
p1630
aVchainStiffness
p1631
aVchainDamping
p1632
aVchainGravity
p1633
aVchainIteration
p1634
aVchainCollide
p1635
aVchainWidthBase
p1636
aVchainWidthExtremity
p1637
aVchainCollideGround
p1638
aVchainCollideGroundHeight
p1639
aaF0
aF0
aF0
aF0
aF0
aF0
aI1
aF0
aF1
aF0.10000000000000001
aF0.20000000000000001
aF1
aI1
aI00
aF1
aF1
aI00
aF0
aa(lp1640
Vhip_pack_d_anim
p1641
a(lp1642
VtranslateX
p1643
aVtranslateY
p1644
aVtranslateZ
p1645
aVrotateX
p1646
aVrotateY
p1647
aVrotateZ
p1648
aVchainAttach
p1649
aVchainStartEnvelope
p1650
aVchainStartFrame
p1651
aVchainStiffness
p1652
aVchainDamping
p1653
aVchainGravity
p1654
aVchainIteration
p1655
aVchainCollide
p1656
aVchainWidthBase
p1657
aVchainWidthExtremity
p1658
aVchainCollideGround
p1659
aVchainCollideGroundHeight
p1660
aaF0
aF0
aF0
aF0
aF0
aF0
aI1
aF0
aF1
aF0.10000000000000001
aF0.20000000000000001
aF1
aI1
aI00
aF1
aF1
aI00
aF0
aa(lp1661
Vjaw_anim
p1662
a(lp1663
VtranslateX
p1664
aVtranslateY
p1665
aVtranslateZ
p1666
aVrotateX
p1667
aVrotateY
p1668
aVrotateZ
p1669
aVscaleX
p1670
aVscaleY
p1671
aVscaleZ
p1672
aaF0
aF0
aF0
aF0
aF0
aF0
aF1
aF1
aF1
aa(lp1673
Vmask_anim
p1674
a(lp1675
VtranslateX
p1676
aVtranslateY
p1677
aVtranslateZ
p1678
aVrotateX
p1679
aVrotateY
p1680
aVrotateZ
p1681
aVscaleX
p1682
aVscaleY
p1683
aVscaleZ
p1684
aaF0
aF0
aF0
aF0
aF0
aF0
aF1
aF1
aF1
aa(lp1685
Vpack_hose_in_anim
p1686
a(lp1687
VtranslateX
p1688
aVtranslateY
p1689
aVtranslateZ
p1690
aVrotateX
p1691
aVrotateY
p1692
aVrotateZ
p1693
aVscaleX
p1694
aVscaleY
p1695
aVscaleZ
p1696
aaF0
aF0
aF0
aF0
aF0
aF0
aF1.0000000000000002
aF1
aF1.0000000000000004
aa(lp1697
Vpack_hose_out_anim
p1698
a(lp1699
VtranslateX
p1700
aVtranslateY
p1701
aVtranslateZ
p1702
aVrotateX
p1703
aVrotateY
p1704
aVrotateZ
p1705
aVscaleX
p1706
aVscaleY
p1707
aVscaleZ
p1708
aaF0
aF0
aF0
aF0
aF0
aF0
aF0.99999999999999978
aF0.99999999999999978
aF0.99999999999999978
aa(lp1709
Vshotgun_anim
p1710
a(lp1711
VtranslateX
p1712
aVtranslateY
p1713
aVtranslateZ
p1714
aVrotateX
p1715
aVrotateY
p1716
aVrotateZ
p1717
aVscaleX
p1718
aVscaleY
p1719
aVscaleZ
p1720
aVshotgun_rotate
p1721
aVshotgun_rail
p1722
aaF0
aF0
aF0
aF0
aF0
aF0
aF0.99999999999999978
aF0.99999999999999956
aF0.99999999999999978
aF0
aF0
aa(lp1723
Vshotgun_base_anim
p1724
a(lp1725
VtranslateX
p1726
aVtranslateY
p1727
aVtranslateZ
p1728
aVrotateX
p1729
aVrotateY
p1730
aVrotateZ
p1731
aVscaleX
p1732
aVscaleY
p1733
aVscaleZ
p1734
aaF0
aF0
aF0
aF0
aF0
aF0
aF1
aF1
aF1
aa(lp1735
Vshotgun_clip_anim
p1736
a(lp1737
VtranslateX
p1738
aVtranslateY
p1739
aVtranslateZ
p1740
aVrotateX
p1741
aVrotateY
p1742
aVrotateZ
p1743
aVscaleX
p1744
aVscaleY
p1745
aVscaleZ
p1746
aaF-5.6843418860808015e-14
aF2.1316282072803006e-14
aF5.6843418860808015e-14
aF0
aF0
aF0
aF1
aF1.0000000000000002
aF1.0000000000000004
aa(lp1747
Vsniper_can_arm_01_anim
p1748
a(lp1749
VtranslateX
p1750
aVtranslateY
p1751
aVtranslateZ
p1752
aVrotateX
p1753
aVrotateY
p1754
aVrotateZ
p1755
aVscaleX
p1756
aVscaleY
p1757
aVscaleZ
p1758
aaF0
aF0
aF0
aF0
aF0
aF0
aF1
aF1
aF1
aa(lp1759
Vsniper_can_arm_02_anim
p1760
a(lp1761
VtranslateX
p1762
aVtranslateY
p1763
aVtranslateZ
p1764
aVrotateX
p1765
aVrotateY
p1766
aVrotateZ
p1767
aVscaleX
p1768
aVscaleY
p1769
aVscaleZ
p1770
aaF0
aF0
aF0
aF0
aF0
aF0
aF1
aF1
aF1
aa(lp1771
Vsniper_can_arm_03_anim
p1772
a(lp1773
VtranslateX
p1774
aVtranslateY
p1775
aVtranslateZ
p1776
aVrotateX
p1777
aVrotateY
p1778
aVrotateZ
p1779
aVscaleX
p1780
aVscaleY
p1781
aVscaleZ
p1782
aaF-5.6843418860808015e-14
aF0
aF0
aF0
aF0
aF0
aF1
aF1
aF1
aa(lp1783
Vtrap_handle_anim
p1784
a(lp1785
VtranslateX
p1786
aVtranslateY
p1787
aVtranslateZ
p1788
aVrotateX
p1789
aVrotateY
p1790
aVrotateZ
p1791
aVscaleX
p1792
aVscaleY
p1793
aVscaleZ
p1794
aaF0
aF0
aF0
aF0
aF0
aF0
aF1
aF1
aF1
aa(lp1795
Vwrist_cover_anim
p1796
a(lp1797
VtranslateX
p1798
aVtranslateY
p1799
aVtranslateZ
p1800
aVrotateX
p1801
aVrotateY
p1802
aVrotateZ
p1803
aVscaleX
p1804
aVscaleY
p1805
aVscaleZ
p1806
aaF0
aF0
aF0
aF0
aF0
aF4.9696166897867449e-17
aF1
aF0.99999999999999967
aF0.99999999999999978
aa(lp1807
Vankle_plate_in_l_anim_space_switcher
p1808
a(lp1809
Vvisibility
p1810
aVtranslateX
p1811
aVtranslateY
p1812
aVtranslateZ
p1813
aVrotateX
p1814
aVrotateY
p1815
aVrotateZ
p1816
aVscaleX
p1817
aVscaleY
p1818
aVscaleZ
p1819
aVspace_world
p1820
aaI01
aF0
aF0
aF0
aF0
aF0
aF0
aF1
aF1
aF0.99999999999999989
aF0
aa(lp1821
Vankle_plate_in_r_anim_space_switcher
p1822
a(lp1823
Vvisibility
p1824
aVtranslateX
p1825
aVtranslateY
p1826
aVtranslateZ
p1827
aVrotateX
p1828
aVrotateY
p1829
aVrotateZ
p1830
aVscaleX
p1831
aVscaleY
p1832
aVscaleZ
p1833
aVspace_world
p1834
aaI01
aF0
aF0
aF0
aF0
aF0
aF0
aF0.99999999999999989
aF0.99999999999999989
aF1
aF0
aa(lp1835
Vankle_plate_out_l_anim_space_switcher
p1836
a(lp1837
Vvisibility
p1838
aVtranslateX
p1839
aVtranslateY
p1840
aVtranslateZ
p1841
aVrotateX
p1842
aVrotateY
p1843
aVrotateZ
p1844
aVscaleX
p1845
aVscaleY
p1846
aVscaleZ
p1847
aVspace_world
p1848
aaI01
aF0
aF0
aF0
aF0
aF0
aF0
aF1
aF1
aF1
aF0
aa(lp1849
Vankle_plate_out_r_anim_space_switcher
p1850
a(lp1851
Vvisibility
p1852
aVtranslateX
p1853
aVtranslateY
p1854
aVtranslateZ
p1855
aVrotateX
p1856
aVrotateY
p1857
aVrotateZ
p1858
aVscaleX
p1859
aVscaleY
p1860
aVscaleZ
p1861
aVspace_world
p1862
aaI01
aF0
aF0
aF0
aF0
aF0
aF0
aF0.99999999999999989
aF1
aF0.99999999999999989
aF0
aa(lp1863
Varm_hose_bott_anim_space_switcher
p1864
a(lp1865
Vvisibility
p1866
aVtranslateX
p1867
aVtranslateY
p1868
aVtranslateZ
p1869
aVrotateX
p1870
aVrotateY
p1871
aVrotateZ
p1872
aVscaleX
p1873
aVscaleY
p1874
aVscaleZ
p1875
aVspace_world
p1876
aaI01
aF0
aF0
aF0
aF0
aF0
aF0
aF1
aF1.0000000000000002
aF1
aF0
aa(lp1877
Varm_hose_top_anim_space_switcher
p1878
a(lp1879
Vvisibility
p1880
aVtranslateX
p1881
aVtranslateY
p1882
aVtranslateZ
p1883
aVrotateX
p1884
aVrotateY
p1885
aVrotateZ
p1886
aVscaleX
p1887
aVscaleY
p1888
aVscaleZ
p1889
aVspace_world
p1890
aaI01
aF0
aF0
aF0
aF0
aF0
aF0
aF1
aF1
aF1
aF0
aa(lp1891
Varm_pouch_l_anim_space_switcher
p1892
a(lp1893
Vvisibility
p1894
aVtranslateX
p1895
aVtranslateY
p1896
aVtranslateZ
p1897
aVrotateX
p1898
aVrotateY
p1899
aVrotateZ
p1900
aVscaleX
p1901
aVscaleY
p1902
aVscaleZ
p1903
aVspace_world
p1904
aaI01
aF0
aF0
aF0
aF0
aF0
aF0
aF1
aF1
aF1
aF0
aa(lp1905
Vbody_anim_space_switcher
p1906
a(lp1907
Vvisibility
p1908
aVtranslateX
p1909
aVtranslateY
p1910
aVtranslateZ
p1911
aVrotateX
p1912
aVrotateY
p1913
aVrotateZ
p1914
aVscaleX
p1915
aVscaleY
p1916
aVscaleZ
p1917
aVspace_world
p1918
aaI01
aF0
aF0
aF0
aF0
aF0
aF0
aF1
aF1
aF1
aF0
aa(lp1919
Vbot_hand_anim_space_switcher
p1920
a(lp1921
Vvisibility
p1922
aVtranslateX
p1923
aVtranslateY
p1924
aVtranslateZ
p1925
aVrotateX
p1926
aVrotateY
p1927
aVrotateZ
p1928
aVscaleX
p1929
aVscaleY
p1930
aVscaleZ
p1931
aVspace_world
p1932
aaI01
aF0
aF0
aF0
aF0
aF0
aF0
aF1
aF1
aF1
aF0
aa(lp1933
Vbot_loarm_anim_space_switcher
p1934
a(lp1935
Vvisibility
p1936
aVtranslateX
p1937
aVtranslateY
p1938
aVtranslateZ
p1939
aVrotateX
p1940
aVrotateY
p1941
aVrotateZ
p1942
aVscaleX
p1943
aVscaleY
p1944
aVscaleZ
p1945
aVspace_world
p1946
aaI01
aF0
aF0
aF0
aF0
aF0
aF0
aF1
aF1
aF1
aF0
aa(lp1947
Vbot_loarm_pistonB_bot_anim_space_switcher
p1948
a(lp1949
Vvisibility
p1950
aVtranslateX
p1951
aVtranslateY
p1952
aVtranslateZ
p1953
aVrotateX
p1954
aVrotateY
p1955
aVrotateZ
p1956
aVscaleX
p1957
aVscaleY
p1958
aVscaleZ
p1959
aVspace_world
p1960
aaI01
aF0
aF0
aF0
aF0
aF0
aF0
aF1
aF1
aF1
aF0
aa(lp1961
Vbot_loarm_pistonB_top_anim_space_switcher
p1962
a(lp1963
Vvisibility
p1964
aVtranslateX
p1965
aVtranslateY
p1966
aVtranslateZ
p1967
aVrotateX
p1968
aVrotateY
p1969
aVrotateZ
p1970
aVscaleX
p1971
aVscaleY
p1972
aVscaleZ
p1973
aVspace_world
p1974
aaI01
aF0
aF0
aF0
aF0
aF0
aF0
aF1
aF1
aF1
aF0
aa(lp1975
Vbot_loarm_pistonC_bot_anim_space_switcher
p1976
a(lp1977
Vvisibility
p1978
aVtranslateX
p1979
aVtranslateY
p1980
aVtranslateZ
p1981
aVrotateX
p1982
aVrotateY
p1983
aVrotateZ
p1984
aVscaleX
p1985
aVscaleY
p1986
aVscaleZ
p1987
aVspace_world
p1988
aaI01
aF0
aF0
aF0
aF0
aF0
aF0
aF1
aF1
aF1
aF0
aa(lp1989
Vbot_loarm_pistonC_top_anim_space_switcher
p1990
a(lp1991
Vvisibility
p1992
aVtranslateX
p1993
aVtranslateY
p1994
aVtranslateZ
p1995
aVrotateX
p1996
aVrotateY
p1997
aVrotateZ
p1998
aVscaleX
p1999
aVscaleY
p2000
aVscaleZ
p2001
aVspace_world
p2002
aaI01
aF0
aF0
aF0
aF0
aF0
aF0
aF1
aF1
aF1
aF0
aa(lp2003
Vbot_loarm_pistonD_bot_anim_space_switcher
p2004
a(lp2005
Vvisibility
p2006
aVtranslateX
p2007
aVtranslateY
p2008
aVtranslateZ
p2009
aVrotateX
p2010
aVrotateY
p2011
aVrotateZ
p2012
aVscaleX
p2013
aVscaleY
p2014
aVscaleZ
p2015
aVspace_world
p2016
aaI01
aF0
aF0
aF0
aF0
aF0
aF0
aF1
aF1
aF1
aF0
aa(lp2017
Vbot_loarm_pistonD_top_anim_space_switcher
p2018
a(lp2019
Vvisibility
p2020
aVtranslateX
p2021
aVtranslateY
p2022
aVtranslateZ
p2023
aVrotateX
p2024
aVrotateY
p2025
aVrotateZ
p2026
aVscaleX
p2027
aVscaleY
p2028
aVscaleZ
p2029
aVspace_world
p2030
aaI01
aF0
aF0
aF0
aF0
aF0
aF0
aF1
aF1
aF1
aF0
aa(lp2031
Vbot_loarm_twist_anim_space_switcher
p2032
a(lp2033
Vvisibility
p2034
aVtranslateX
p2035
aVtranslateY
p2036
aVtranslateZ
p2037
aVrotateX
p2038
aVrotateY
p2039
aVrotateZ
p2040
aVscaleX
p2041
aVscaleY
p2042
aVscaleZ
p2043
aVspace_world
p2044
aaI01
aF0
aF0
aF0
aF-34.583254899327045
aF-0.35763184394603975
aF-0.38943106264905941
aF1
aF1
aF1
aF0
aa(lp2045
Vbot_uparm_anim_space_switcher
p2046
a(lp2047
Vvisibility
p2048
aVtranslateX
p2049
aVtranslateY
p2050
aVtranslateZ
p2051
aVrotateX
p2052
aVrotateY
p2053
aVrotateZ
p2054
aVscaleX
p2055
aVscaleY
p2056
aVscaleZ
p2057
aVspace_world
p2058
aaI01
aF0
aF0
aF0
aF0
aF0
aF0
aF1
aF1
aF1
aF0
aa(lp2059
Vbot_uparm_pistonC_bot_anim_space_switcher
p2060
a(lp2061
Vvisibility
p2062
aVtranslateX
p2063
aVtranslateY
p2064
aVtranslateZ
p2065
aVrotateX
p2066
aVrotateY
p2067
aVrotateZ
p2068
aVscaleX
p2069
aVscaleY
p2070
aVscaleZ
p2071
aVspace_world
p2072
aaI01
aF0
aF0
aF0
aF0
aF0
aF0
aF1
aF1
aF1
aF0
aa(lp2073
Vbot_uparm_pistonC_top_anim_space_switcher
p2074
a(lp2075
Vvisibility
p2076
aVtranslateX
p2077
aVtranslateY
p2078
aVtranslateZ
p2079
aVrotateX
p2080
aVrotateY
p2081
aVrotateZ
p2082
aVscaleX
p2083
aVscaleY
p2084
aVscaleZ
p2085
aVspace_world
p2086
aaI01
aF0
aF0
aF0
aF0
aF0
aF0
aF1
aF1
aF1
aF0
aa(lp2087
Vchest_ik_anim_space_switcher
p2088
a(lp2089
Vvisibility
p2090
aVtranslateX
p2091
aVtranslateY
p2092
aVtranslateZ
p2093
aVrotateX
p2094
aVrotateY
p2095
aVrotateZ
p2096
aVscaleX
p2097
aVscaleY
p2098
aVscaleZ
p2099
aVspace_world
p2100
aVspace_chest_ik_world_aligned
p2101
aaI01
aF0
aF0
aF0
aF0
aF0
aF0
aF1
aF1
aF1
aF0
aF0
aa(lp2102
Veyeball_l_anim_space_switcher
p2103
a(lp2104
Vvisibility
p2105
aVtranslateX
p2106
aVtranslateY
p2107
aVtranslateZ
p2108
aVrotateX
p2109
aVrotateY
p2110
aVrotateZ
p2111
aVscaleX
p2112
aVscaleY
p2113
aVscaleZ
p2114
aVspace_world
p2115
aaI01
aF0
aF0
aF0
aF0
aF0
aF0
aF1
aF1
aF1
aF0
aa(lp2116
Veyeball_r_anim_space_switcher
p2117
a(lp2118
Vvisibility
p2119
aVtranslateX
p2120
aVtranslateY
p2121
aVtranslateZ
p2122
aVrotateX
p2123
aVrotateY
p2124
aVrotateZ
p2125
aVscaleX
p2126
aVscaleY
p2127
aVscaleZ
p2128
aVspace_world
p2129
aaI01
aF0
aF0
aF0
aF0
aF0
aF0
aF1
aF1
aF1
aF0
aa(lp2130
Veyebrow_in_l_anim_space_switcher
p2131
a(lp2132
Vvisibility
p2133
aVtranslateX
p2134
aVtranslateY
p2135
aVtranslateZ
p2136
aVrotateX
p2137
aVrotateY
p2138
aVrotateZ
p2139
aVscaleX
p2140
aVscaleY
p2141
aVscaleZ
p2142
aVspace_world
p2143
aaI01
aF0
aF0
aF0
aF0
aF0
aF0
aF1
aF1.0000000000000002
aF1
aF0
aa(lp2144
Veyebrow_in_r_anim_space_switcher
p2145
a(lp2146
Vvisibility
p2147
aVtranslateX
p2148
aVtranslateY
p2149
aVtranslateZ
p2150
aVrotateX
p2151
aVrotateY
p2152
aVrotateZ
p2153
aVscaleX
p2154
aVscaleY
p2155
aVscaleZ
p2156
aVspace_world
p2157
aaI01
aF0
aF0
aF0
aF0
aF0
aF0
aF1.0000000000000002
aF1.0000000000000002
aF1.0000000000000002
aF0
aa(lp2158
Veyebrow_out_l_anim_space_switcher
p2159
a(lp2160
Vvisibility
p2161
aVtranslateX
p2162
aVtranslateY
p2163
aVtranslateZ
p2164
aVrotateX
p2165
aVrotateY
p2166
aVrotateZ
p2167
aVscaleX
p2168
aVscaleY
p2169
aVscaleZ
p2170
aVspace_world
p2171
aaI01
aF0
aF0
aF0
aF0
aF0
aF0
aF1
aF1
aF1.0000000000000002
aF0
aa(lp2172
Veyebrow_out_r_anim_space_switcher
p2173
a(lp2174
Vvisibility
p2175
aVtranslateX
p2176
aVtranslateY
p2177
aVtranslateZ
p2178
aVrotateX
p2179
aVrotateY
p2180
aVrotateZ
p2181
aVscaleX
p2182
aVscaleY
p2183
aVscaleZ
p2184
aVspace_world
p2185
aaI01
aF0
aF0
aF0
aF0
aF0
aF0
aF1
aF0.99999999999999989
aF0.99999999999999989
aF0
aa(lp2186
Veyelid_bott_l_anim_space_switcher
p2187
a(lp2188
Vvisibility
p2189
aVtranslateX
p2190
aVtranslateY
p2191
aVtranslateZ
p2192
aVrotateX
p2193
aVrotateY
p2194
aVrotateZ
p2195
aVscaleX
p2196
aVscaleY
p2197
aVscaleZ
p2198
aVspace_world
p2199
aaI01
aF0
aF0
aF0
aF0
aF0
aF0
aF1
aF1
aF1
aF0
aa(lp2200
Veyelid_bott_r_anim_space_switcher
p2201
a(lp2202
Vvisibility
p2203
aVtranslateX
p2204
aVtranslateY
p2205
aVtranslateZ
p2206
aVrotateX
p2207
aVrotateY
p2208
aVrotateZ
p2209
aVscaleX
p2210
aVscaleY
p2211
aVscaleZ
p2212
aVspace_world
p2213
aaI01
aF0
aF0
aF0
aF0
aF0
aF0
aF1
aF1
aF1
aF0
aa(lp2214
Veyelid_top_l_anim_space_switcher
p2215
a(lp2216
Vvisibility
p2217
aVtranslateX
p2218
aVtranslateY
p2219
aVtranslateZ
p2220
aVrotateX
p2221
aVrotateY
p2222
aVrotateZ
p2223
aVscaleX
p2224
aVscaleY
p2225
aVscaleZ
p2226
aVspace_world
p2227
aaI01
aF0
aF0
aF0
aF0
aF0
aF0
aF1
aF1
aF1
aF0
aa(lp2228
Veyelid_top_r_anim_space_switcher
p2229
a(lp2230
Vvisibility
p2231
aVtranslateX
p2232
aVtranslateY
p2233
aVtranslateZ
p2234
aVrotateX
p2235
aVrotateY
p2236
aVrotateZ
p2237
aVscaleX
p2238
aVscaleY
p2239
aVscaleZ
p2240
aVspace_world
p2241
aaI01
aF0
aF0
aF0
aF0
aF0
aF0
aF1
aF1
aF1
aF0
aa(lp2242
Vgun_anim_space_switcher
p2243
a(lp2244
Vvisibility
p2245
aVtranslateX
p2246
aVtranslateY
p2247
aVtranslateZ
p2248
aVrotateX
p2249
aVrotateY
p2250
aVrotateZ
p2251
aVscaleX
p2252
aVscaleY
p2253
aVscaleZ
p2254
aVspace_world
p2255
aaI01
aF0
aF0
aF0
aF0
aF0
aF0
aF1
aF1
aF1
aF0
aa(lp2256
Vgun_barrel_anim_space_switcher
p2257
a(lp2258
Vvisibility
p2259
aVtranslateX
p2260
aVtranslateY
p2261
aVtranslateZ
p2262
aVrotateX
p2263
aVrotateY
p2264
aVrotateZ
p2265
aVscaleX
p2266
aVscaleY
p2267
aVscaleZ
p2268
aVspace_world
p2269
aaI01
aF0
aF0
aF0
aF0
aF0
aF0
aF1
aF1
aF1
aF0
aa(lp2270
Vgun_barrel_inner_anim_space_switcher
p2271
a(lp2272
Vvisibility
p2273
aVtranslateX
p2274
aVtranslateY
p2275
aVtranslateZ
p2276
aVrotateX
p2277
aVrotateY
p2278
aVrotateZ
p2279
aVscaleX
p2280
aVscaleY
p2281
aVscaleZ
p2282
aVspace_world
p2283
aaI01
aF0
aF0
aF0
aF0
aF0
aF0
aF1
aF1
aF1.0000000000000002
aF0
aa(lp2284
Vgun_body_panel_l_anim_space_switcher
p2285
a(lp2286
Vvisibility
p2287
aVtranslateX
p2288
aVtranslateY
p2289
aVtranslateZ
p2290
aVrotateX
p2291
aVrotateY
p2292
aVrotateZ
p2293
aVscaleX
p2294
aVscaleY
p2295
aVscaleZ
p2296
aVspace_world
p2297
aaI01
aF0
aF0
aF0
aF0
aF0
aF0
aF1
aF1
aF1.0000000000000002
aF0
aa(lp2298
Vgun_body_panel_r_anim_space_switcher
p2299
a(lp2300
Vvisibility
p2301
aVtranslateX
p2302
aVtranslateY
p2303
aVtranslateZ
p2304
aVrotateX
p2305
aVrotateY
p2306
aVrotateZ
p2307
aVscaleX
p2308
aVscaleY
p2309
aVscaleZ
p2310
aVspace_world
p2311
aaI01
aF0
aF0
aF0
aF0
aF0
aF0
aF1
aF1
aF1.0000000000000002
aF0
aa(lp2312
Vgun_scope_anim_space_switcher
p2313
a(lp2314
Vvisibility
p2315
aVtranslateX
p2316
aVtranslateY
p2317
aVtranslateZ
p2318
aVrotateX
p2319
aVrotateY
p2320
aVrotateZ
p2321
aVscaleX
p2322
aVscaleY
p2323
aVscaleZ
p2324
aVspace_world
p2325
aaI01
aF0
aF0
aF0
aF0
aF0
aF0
aF1
aF1
aF1
aF0
aa(lp2326
Vgun_stock_base_anim_space_switcher
p2327
a(lp2328
Vvisibility
p2329
aVtranslateX
p2330
aVtranslateY
p2331
aVtranslateZ
p2332
aVrotateX
p2333
aVrotateY
p2334
aVrotateZ
p2335
aVscaleX
p2336
aVscaleY
p2337
aVscaleZ
p2338
aVspace_world
p2339
aaI01
aF0
aF0
aF0
aF0
aF0
aF0
aF1
aF1
aF1.0000000000000002
aF0
aa(lp2340
Vgun_stock_base_in_bott_anim_space_switcher
p2341
a(lp2342
Vvisibility
p2343
aVtranslateX
p2344
aVtranslateY
p2345
aVtranslateZ
p2346
aVrotateX
p2347
aVrotateY
p2348
aVrotateZ
p2349
aVscaleX
p2350
aVscaleY
p2351
aVscaleZ
p2352
aVspace_world
p2353
aaI01
aF0
aF0
aF0
aF0
aF0
aF0
aF1
aF1
aF1.0000000000000002
aF0
aa(lp2354
Vgun_stock_base_in_top_anim_space_switcher
p2355
a(lp2356
Vvisibility
p2357
aVtranslateX
p2358
aVtranslateY
p2359
aVtranslateZ
p2360
aVrotateX
p2361
aVrotateY
p2362
aVrotateZ
p2363
aVscaleX
p2364
aVscaleY
p2365
aVscaleZ
p2366
aVspace_world
p2367
aaI01
aF0
aF0
aF0
aF0
aF0
aF0
aF1
aF1
aF1.0000000000000002
aF0
aa(lp2368
Vgun_stock_base_out_bott_anim_space_switcher
p2369
a(lp2370
Vvisibility
p2371
aVtranslateX
p2372
aVtranslateY
p2373
aVtranslateZ
p2374
aVrotateX
p2375
aVrotateY
p2376
aVrotateZ
p2377
aVscaleX
p2378
aVscaleY
p2379
aVscaleZ
p2380
aVspace_world
p2381
aaI01
aF0
aF0
aF0
aF0
aF0
aF0
aF1
aF1
aF1.0000000000000002
aF0
aa(lp2382
Vgun_stock_base_out_top_anim_space_switcher
p2383
a(lp2384
Vvisibility
p2385
aVtranslateX
p2386
aVtranslateY
p2387
aVtranslateZ
p2388
aVrotateX
p2389
aVrotateY
p2390
aVrotateZ
p2391
aVscaleX
p2392
aVscaleY
p2393
aVscaleZ
p2394
aVspace_world
p2395
aaI01
aF0
aF0
aF0
aF0
aF0
aF0
aF1
aF1
aF1.0000000000000002
aF0
aa(lp2396
Vgun_stock_bott_anim_space_switcher
p2397
a(lp2398
Vvisibility
p2399
aVtranslateX
p2400
aVtranslateY
p2401
aVtranslateZ
p2402
aVrotateX
p2403
aVrotateY
p2404
aVrotateZ
p2405
aVscaleX
p2406
aVscaleY
p2407
aVscaleZ
p2408
aVspace_world
p2409
aaI01
aF0
aF0
aF0
aF0
aF0
aF0
aF1
aF1
aF1
aF0
aa(lp2410
Vgun_stock_in_bott_anim_space_switcher
p2411
a(lp2412
Vvisibility
p2413
aVtranslateX
p2414
aVtranslateY
p2415
aVtranslateZ
p2416
aVrotateX
p2417
aVrotateY
p2418
aVrotateZ
p2419
aVscaleX
p2420
aVscaleY
p2421
aVscaleZ
p2422
aVspace_world
p2423
aaI01
aF0
aF0
aF0
aF0
aF0
aF0
aF1
aF1
aF1.0000000000000002
aF0
aa(lp2424
Vgun_stock_in_top_anim_space_switcher
p2425
a(lp2426
Vvisibility
p2427
aVtranslateX
p2428
aVtranslateY
p2429
aVtranslateZ
p2430
aVrotateX
p2431
aVrotateY
p2432
aVrotateZ
p2433
aVscaleX
p2434
aVscaleY
p2435
aVscaleZ
p2436
aVspace_world
p2437
aaI01
aF0
aF0
aF0
aF0
aF0
aF0
aF1
aF1
aF1.0000000000000002
aF0
aa(lp2438
Vgun_stock_panel_l_anim_space_switcher
p2439
a(lp2440
Vvisibility
p2441
aVtranslateX
p2442
aVtranslateY
p2443
aVtranslateZ
p2444
aVrotateX
p2445
aVrotateY
p2446
aVrotateZ
p2447
aVscaleX
p2448
aVscaleY
p2449
aVscaleZ
p2450
aVspace_world
p2451
aaI01
aF0
aF0
aF0
aF0
aF0
aF0
aF1
aF1
aF1
aF0
aa(lp2452
Vgun_stock_panel_r_anim_space_switcher
p2453
a(lp2454
Vvisibility
p2455
aVtranslateX
p2456
aVtranslateY
p2457
aVtranslateZ
p2458
aVrotateX
p2459
aVrotateY
p2460
aVrotateZ
p2461
aVscaleX
p2462
aVscaleY
p2463
aVscaleZ
p2464
aVspace_world
p2465
aaI01
aF0
aF0
aF0
aF0
aF0
aF0
aF1
aF1
aF1
aF0
aa(lp2466
Vheel_plate_l_anim_space_switcher
p2467
a(lp2468
Vvisibility
p2469
aVtranslateX
p2470
aVtranslateY
p2471
aVtranslateZ
p2472
aVrotateX
p2473
aVrotateY
p2474
aVrotateZ
p2475
aVscaleX
p2476
aVscaleY
p2477
aVscaleZ
p2478
aVspace_world
p2479
aaI01
aF0
aF0
aF0
aF0
aF0
aF0
aF1
aF1
aF1
aF0
aa(lp2480
Vheel_plate_r_anim_space_switcher
p2481
a(lp2482
Vvisibility
p2483
aVtranslateX
p2484
aVtranslateY
p2485
aVtranslateZ
p2486
aVrotateX
p2487
aVrotateY
p2488
aVrotateZ
p2489
aVscaleX
p2490
aVscaleY
p2491
aVscaleZ
p2492
aVspace_world
p2493
aaI01
aF0
aF0
aF0
aF0
aF0
aF0
aF0.99999999999999989
aF0.99999999999999989
aF0.99999999999999978
aF0
aa(lp2494
Vhelmet_sight_anim_space_switcher
p2495
a(lp2496
Vvisibility
p2497
aVtranslateX
p2498
aVtranslateY
p2499
aVtranslateZ
p2500
aVrotateX
p2501
aVrotateY
p2502
aVrotateZ
p2503
aVscaleX
p2504
aVscaleY
p2505
aVscaleZ
p2506
aVspace_world
p2507
aaI01
aF0
aF0
aF0
aF0
aF0
aF0
aF1
aF1
aF1
aF0
aa(lp2508
Vik_elbow_l_anim_space_switcher
p2509
a(lp2510
Vvisibility
p2511
aVtranslateX
p2512
aVtranslateY
p2513
aVtranslateZ
p2514
aVrotateX
p2515
aVrotateY
p2516
aVrotateZ
p2517
aVscaleX
p2518
aVscaleY
p2519
aVscaleZ
p2520
aVspace_world
p2521
aVspace_body_anim
p2522
aVspace_chest_ik_anim
p2523
aaI01
aF0
aF0
aF0
aF0
aF0
aF0
aF1
aF1
aF1
aF0
aF0
aF0
aa(lp2524
Vik_elbow_r_anim_space_switcher
p2525
a(lp2526
Vvisibility
p2527
aVtranslateX
p2528
aVtranslateY
p2529
aVtranslateZ
p2530
aVrotateX
p2531
aVrotateY
p2532
aVrotateZ
p2533
aVscaleX
p2534
aVscaleY
p2535
aVscaleZ
p2536
aVspace_world
p2537
aVspace_body_anim
p2538
aVspace_chest_ik_anim
p2539
aaI01
aF0
aF0
aF0
aF0
aF0
aF0
aF1
aF1
aF1
aF0
aF0
aF0
aa(lp2540
Vik_foot_anim_l_space_switcher
p2541
a(lp2542
Vvisibility
p2543
aVtranslateX
p2544
aVtranslateY
p2545
aVtranslateZ
p2546
aVrotateX
p2547
aVrotateY
p2548
aVrotateZ
p2549
aVscaleX
p2550
aVscaleY
p2551
aVscaleZ
p2552
aVspace_world
p2553
aVspace_body_anim
p2554
aaI01
aF0
aF0
aF0
aF0
aF0
aF0
aF1
aF1
aF1
aF0
aF0
aa(lp2555
Vik_foot_anim_r_space_switcher
p2556
a(lp2557
Vvisibility
p2558
aVtranslateX
p2559
aVtranslateY
p2560
aVtranslateZ
p2561
aVrotateX
p2562
aVrotateY
p2563
aVrotateZ
p2564
aVscaleX
p2565
aVscaleY
p2566
aVscaleZ
p2567
aVspace_world
p2568
aVspace_body_anim
p2569
aaI01
aF0
aF0
aF0
aF0
aF0
aF0
aF1
aF1
aF1
aF0
aF0
aa(lp2570
Vik_wrist_l_anim_space_switcher
p2571
a(lp2572
Vvisibility
p2573
aVtranslateX
p2574
aVtranslateY
p2575
aVtranslateZ
p2576
aVrotateX
p2577
aVrotateY
p2578
aVrotateZ
p2579
aVscaleX
p2580
aVscaleY
p2581
aVscaleZ
p2582
aVspace_world
p2583
aVspace_body_anim
p2584
aVspace_head_fk_anim
p2585
aVspace_chest_ik_anim
p2586
aVspace_driver_gun_stock_bott
p2587
aaI00
aF0
aF0
aF0
aF0
aF0
aF0
aF1
aF1
aF1
aF0
aF0
aF0
aF0
aF0
aa(lp2588
Vik_wrist_r_anim_space_switcher
p2589
a(lp2590
Vvisibility
p2591
aVtranslateX
p2592
aVtranslateY
p2593
aVtranslateZ
p2594
aVrotateX
p2595
aVrotateY
p2596
aVrotateZ
p2597
aVscaleX
p2598
aVscaleY
p2599
aVscaleZ
p2600
aVspace_world
p2601
aVspace_body_anim
p2602
aVspace_head_fk_anim
p2603
aVspace_chest_ik_anim
p2604
aaI01
aF0
aF0
aF0
aF0
aF0
aF0
aF1
aF1
aF1
aF0
aF0
aF0
aF0
aa(lp2605
Vjaw_anim_space_switcher
p2606
a(lp2607
Vvisibility
p2608
aVtranslateX
p2609
aVtranslateY
p2610
aVtranslateZ
p2611
aVrotateX
p2612
aVrotateY
p2613
aVrotateZ
p2614
aVscaleX
p2615
aVscaleY
p2616
aVscaleZ
p2617
aVspace_world
p2618
aaI01
aF0
aF0
aF0
aF0
aF0
aF0
aF1
aF1
aF1
aF0
aa(lp2619
Vl_global_ik_anim_space_switcher
p2620
a(lp2621
Vvisibility
p2622
aVtranslateX
p2623
aVtranslateY
p2624
aVtranslateZ
p2625
aVrotateX
p2626
aVrotateY
p2627
aVrotateZ
p2628
aVscaleX
p2629
aVscaleY
p2630
aVscaleZ
p2631
aVspace_world
p2632
aaI01
aF0
aF0
aF0
aF0
aF0
aF0
aF1
aF1
aF1
aF0
aa(lp2633
Vmask_anim_space_switcher
p2634
a(lp2635
Vvisibility
p2636
aVtranslateX
p2637
aVtranslateY
p2638
aVtranslateZ
p2639
aVrotateX
p2640
aVrotateY
p2641
aVrotateZ
p2642
aVscaleX
p2643
aVscaleY
p2644
aVscaleZ
p2645
aVspace_world
p2646
aVspace_driver_hand_l
p2647
aVspace_driver_hand_r
p2648
aaI01
aF0
aF0
aF0
aF0
aF0
aF0
aF1
aF1
aF1
aF0
aF0
aF0
aa(lp2649
Vmaster_anim_space_switcher
p2650
a(lp2651
Vvisibility
p2652
aVtranslateX
p2653
aVtranslateY
p2654
aVtranslateZ
p2655
aVrotateX
p2656
aVrotateY
p2657
aVrotateZ
p2658
aVscaleX
p2659
aVscaleY
p2660
aVscaleZ
p2661
aVspace_world
p2662
aaI01
aF0
aF0
aF0
aF0
aF0
aF0
aF1
aF1
aF1
aF0
aa(lp2663
Vpack_hose_in_anim_space_switcher
p2664
a(lp2665
Vvisibility
p2666
aVtranslateX
p2667
aVtranslateY
p2668
aVtranslateZ
p2669
aVrotateX
p2670
aVrotateY
p2671
aVrotateZ
p2672
aVscaleX
p2673
aVscaleY
p2674
aVscaleZ
p2675
aVspace_world
p2676
aaI01
aF0
aF0
aF0
aF0
aF0
aF0
aF0.99999999999999989
aF0.99999999999999989
aF0.99999999999999989
aF0
aa(lp2677
Vpack_hose_out_anim_space_switcher
p2678
a(lp2679
Vvisibility
p2680
aVtranslateX
p2681
aVtranslateY
p2682
aVtranslateZ
p2683
aVrotateX
p2684
aVrotateY
p2685
aVrotateZ
p2686
aVscaleX
p2687
aVscaleY
p2688
aVscaleZ
p2689
aVspace_world
p2690
aaI01
aF0
aF0
aF0
aF0
aF0
aF0
aF1.0000000000000002
aF1.0000000000000002
aF1.0000000000000002
aF0
aa(lp2691
Vr_global_ik_anim_space_switcher
p2692
a(lp2693
Vvisibility
p2694
aVtranslateX
p2695
aVtranslateY
p2696
aVtranslateZ
p2697
aVrotateX
p2698
aVrotateY
p2699
aVrotateZ
p2700
aVscaleX
p2701
aVscaleY
p2702
aVscaleZ
p2703
aVspace_world
p2704
aaI01
aF0
aF0
aF0
aF0
aF0
aF0
aF1
aF1
aF1
aF0
aa(lp2705
Vshotgun_anim_space_switcher
p2706
a(lp2707
Vvisibility
p2708
aVtranslateX
p2709
aVtranslateY
p2710
aVtranslateZ
p2711
aVrotateX
p2712
aVrotateY
p2713
aVrotateZ
p2714
aVscaleX
p2715
aVscaleY
p2716
aVscaleZ
p2717
aVspace_world
p2718
aVspace_driver_hand_l
p2719
aaI01
aF0
aF0
aF0
aF0
aF0
aF0
aF1
aF1
aF1
aF0
aF0
aa(lp2720
Vshotgun_base_anim_space_switcher
p2721
a(lp2722
Vvisibility
p2723
aVtranslateX
p2724
aVtranslateY
p2725
aVtranslateZ
p2726
aVrotateX
p2727
aVrotateY
p2728
aVrotateZ
p2729
aVscaleX
p2730
aVscaleY
p2731
aVscaleZ
p2732
aVspace_world
p2733
aaI01
aF0
aF0
aF0
aF0
aF0
aF0
aF1
aF1
aF1
aF0
aa(lp2734
Vshotgun_clip_anim_space_switcher
p2735
a(lp2736
Vvisibility
p2737
aVtranslateX
p2738
aVtranslateY
p2739
aVtranslateZ
p2740
aVrotateX
p2741
aVrotateY
p2742
aVrotateZ
p2743
aVscaleX
p2744
aVscaleY
p2745
aVscaleZ
p2746
aVspace_world
p2747
aaI01
aF0
aF0
aF0
aF0
aF0
aF0
aF1
aF1
aF1
aF0
aa(lp2748
Vsniper_can_arm_01_anim_space_switcher
p2749
a(lp2750
Vvisibility
p2751
aVtranslateX
p2752
aVtranslateY
p2753
aVtranslateZ
p2754
aVrotateX
p2755
aVrotateY
p2756
aVrotateZ
p2757
aVscaleX
p2758
aVscaleY
p2759
aVscaleZ
p2760
aVspace_world
p2761
aaI01
aF0
aF0
aF0
aF0
aF0
aF0
aF1
aF1
aF1
aF0
aa(lp2762
Vsniper_can_arm_02_anim_space_switcher
p2763
a(lp2764
Vvisibility
p2765
aVtranslateX
p2766
aVtranslateY
p2767
aVtranslateZ
p2768
aVrotateX
p2769
aVrotateY
p2770
aVrotateZ
p2771
aVscaleX
p2772
aVscaleY
p2773
aVscaleZ
p2774
aVspace_world
p2775
aaI01
aF0
aF0
aF0
aF0
aF0
aF0
aF1
aF1
aF1
aF0
aa(lp2776
Vsniper_can_arm_03_anim_space_switcher
p2777
a(lp2778
Vvisibility
p2779
aVtranslateX
p2780
aVtranslateY
p2781
aVtranslateZ
p2782
aVrotateX
p2783
aVrotateY
p2784
aVrotateZ
p2785
aVscaleX
p2786
aVscaleY
p2787
aVscaleZ
p2788
aVspace_world
p2789
aVspace_driver_hand_l
p2790
aVspace_driver_gun
p2791
aaI01
aF0
aF0
aF0
aF0
aF0
aF0
aF1
aF1
aF1
aF0
aF0
aF0
aa(lp2792
Vspine_01_space_switcher
p2793
a(lp2794
Vvisibility
p2795
aVtranslateX
p2796
aVtranslateY
p2797
aVtranslateZ
p2798
aVrotateX
p2799
aVrotateY
p2800
aVrotateZ
p2801
aVscaleX
p2802
aVscaleY
p2803
aVscaleZ
p2804
aVspace_world
p2805
aaI01
aF0
aF0
aF0
aF0
aF0
aF0
aF1
aF1
aF1
aF0
aa(lp2806
Vtrap_handle_anim_space_switcher
p2807
a(lp2808
Vvisibility
p2809
aVtranslateX
p2810
aVtranslateY
p2811
aVtranslateZ
p2812
aVrotateX
p2813
aVrotateY
p2814
aVrotateZ
p2815
aVscaleX
p2816
aVscaleY
p2817
aVscaleZ
p2818
aVspace_world
p2819
aVspace_driver_hand_l
p2820
aaI01
aF0
aF0
aF0
aF0
aF0
aF0
aF1
aF1
aF1
aF0
aF0
aa(lp2821
Vwrist_cover_anim_space_switcher
p2822
a(lp2823
Vvisibility
p2824
aVtranslateX
p2825
aVtranslateY
p2826
aVtranslateZ
p2827
aVrotateX
p2828
aVrotateY
p2829
aVrotateZ
p2830
aVscaleX
p2831
aVscaleY
p2832
aVscaleZ
p2833
aVspace_world
p2834
aaI01
aF0
aF0
aF0
aF0
aF0
aF0
aF1
aF1
aF1
aF0
aa.