(lp1
(lp2
S'fk_clavicle_r_anim'
p3
a(lp4
VtranslateX
p5
aVtranslateY
p6
aVtranslateZ
p7
aVrotateX
p8
aVrotateY
p9
aVrotateZ
p10
aaF0
aF0
aF0
aF0
aF0
aF0
aa(lp11
S'fk_clavicle_l_anim'
p12
a(lp13
VtranslateX
p14
aVtranslateY
p15
aVtranslateZ
p16
aVrotateX
p17
aVrotateY
p18
aVrotateZ
p19
aaF0
aF0
aF0
aF0
aF0
aF0
aa(lp20
S'head_fk_anim'
p21
a(lp22
VtranslateX
p23
aVtranslateY
p24
aVtranslateZ
p25
aVrotateX
p26
aVrotateY
p27
aVrotateZ
p28
aVscaleX
p29
aVscaleY
p30
aVscaleZ
p31
aVfkOrientation
p32
aaF0
aF0
aF0
aF24.798705836839996
aF11.704370180481565
aF-6.9869594049760719
aF1
aF1
aF1
aI0
aa(lp33
S'neck_01_fk_anim'
p34
a(lp35
VtranslateX
p36
aVtranslateY
p37
aVtranslateZ
p38
aVrotateX
p39
aVrotateY
p40
aVrotateZ
p41
aVscaleX
p42
aVscaleY
p43
aVscaleZ
p44
aVfkOrientation
p45
aaF0
aF0
aF-1.5777218104420236e-30
aF50.1649803378671
aF0
aF-3.4377467707849392
aF1
aF0.99999999999999989
aF0.99999999999999978
aI0
aa(lp46
S'spine_01_anim'
p47
a(lp48
Vlength
p49
aVtranslateY
p50
aVtranslateZ
p51
aVrotateX
p52
aVrotateY
p53
aVrotateZ
p54
aaF0
aF0
aF0
aF-0.53826195567246016
aF-0.060118002682255214
aF-1.6950799854783862
aa(lp55
S'spine_02_anim'
p56
a(lp57
Vlength
p58
aVtranslateY
p59
aVtranslateZ
p60
aVrotateX
p61
aVrotateY
p62
aVrotateZ
p63
aaF0
aF0
aF0
aF-1.0792208634808662
aF0.13342856075692483
aF-3.8281778511417128
aa(lp64
S'spine_03_anim'
p65
a(lp66
Vlength
p67
aVtranslateY
p68
aVtranslateZ
p69
aVrotateX
p70
aVrotateY
p71
aVrotateZ
p72
aaF0
aF0
aF0
aF-1.0814445057741544
aF0.06793565135478212
aF-3.8287829880791553
aa(lp73
S'mid_ik_anim'
p74
a(lp75
VtranslateX
p76
aVtranslateY
p77
aVtranslateZ
p78
aVrotateX
p79
aVrotateY
p80
aVrotateZ
p81
aaF-0.096577800360194033
aF-1.5965686067932712
aF0.016664370708724618
aF-1.620586236364093
aF-0.15680046079365742
aF7.4048866895080554
aa(lp82
S'chest_ik_anim'
p83
a(lp84
VtranslateX
p85
aVtranslateY
p86
aVtranslateZ
p87
aVrotateX
p88
aVrotateY
p89
aVrotateZ
p90
aVstretch
p91
aVsquash
p92
aVtwist_amount
p93
aVautoSpine
p94
aVrotationInfluence
p95
aaF0.18432544963415864
aF-1.5832042968511635
aF0.0045046453864188152
aF-10.407138080498733
aF0.59496829733591139
aF-3.30279567527174
aF0
aF0
aF1
aF0
aF0.25
aa(lp96
S'body_anim'
p97
a(lp98
VtranslateX
p99
aVtranslateY
p100
aVtranslateZ
p101
aVrotateX
p102
aVrotateY
p103
aVrotateZ
p104
aaF-7.9329851345270335
aF6.4960272668074586
aF-11.324426929809492
aF-79.827851659657611
aF6.1278943045103205
aF-9.1969554350529563
aa(lp105
S'hip_anim'
p106
a(lp107
VtranslateX
p108
aVtranslateY
p109
aVtranslateZ
p110
aVrotateX
p111
aVrotateY
p112
aVrotateZ
p113
aVlCalfTwistCtrlVis
p114
aVrCalfTwistCtrlVis
p115
aVautoHips
p116
aaF0
aF0
aF1.2621774483536189e-29
aF31.855862837820681
aF-4.1068121603843659
aF0
aI00
aI00
aF0
aa(lp117
S'clavicle_l_anim'
p118
a(lp119
VtranslateX
p120
aVtranslateY
p121
aVtranslateZ
p122
aVautoShoulders
p123
aaF-4.4338437120259586
aF2.3472421769884071
aF3.6069897455473061
aF0.29999999999999999
aa(lp124
S'clavicle_r_anim'
p125
a(lp126
VtranslateX
p127
aVtranslateY
p128
aVtranslateZ
p129
aVautoShoulders
p130
aaF-5.4655111157990035
aF-5.4889368045345677
aF0.66303542226633816
aF0.20000000000000001
aa(lp131
S'fk_arm_l_anim'
p132
a(lp133
VtranslateX
p134
aVtranslateY
p135
aVtranslateZ
p136
aVrotateX
p137
aVrotateY
p138
aVrotateZ
p139
aaF0
aF0
aF0
aF-34.276203154580003
aF43.783648462996219
aF-45.36411938850614
aa(lp140
S'fk_arm_r_anim'
p141
a(lp142
VtranslateX
p143
aVtranslateY
p144
aVtranslateZ
p145
aVrotateX
p146
aVrotateY
p147
aVrotateZ
p148
aaF0
aF0
aF0
aF-28.022643040011129
aF31.373350599324613
aF-85.068557399492434
aa(lp149
S'fk_elbow_l_anim'
p150
a(lp151
VtranslateX
p152
aVtranslateY
p153
aVtranslateZ
p154
aVrotateX
p155
aVrotateY
p156
aVrotateZ
p157
aaF0
aF0
aF0
aF16.986427307128906
aF-1.9700599908828738
aF-81.873420715332031
aa(lp158
S'fk_elbow_r_anim'
p159
a(lp160
VtranslateX
p161
aVtranslateY
p162
aVtranslateZ
p163
aVrotateX
p164
aVrotateY
p165
aVrotateZ
p166
aaF0
aF0
aF0
aF5.2968387603759757
aF-2.2591130733489986
aF-88.62188720703125
aa(lp167
S'fk_wrist_l_anim'
p168
a(lp169
VtranslateX
p170
aVtranslateY
p171
aVtranslateZ
p172
aVrotateX
p173
aVrotateY
p174
aVrotateZ
p175
aaF0
aF0
aF0
aF-106.28956604003906
aF-18.279989242553711
aF-3.2510626316070579
aa(lp176
S'fk_wrist_r_anim'
p177
a(lp178
VtranslateX
p179
aVtranslateY
p180
aVtranslateZ
p181
aVrotateX
p182
aVrotateY
p183
aVrotateZ
p184
aaF0
aF0
aF0
aF-32.176914215087898
aF-4.6610479354858398
aF1.8415238857269287
aa(lp185
S'ik_elbow_l_anim'
p186
a(lp187
VtranslateX
p188
aVtranslateY
p189
aVtranslateZ
p190
aaF-8.739074919221359
aF-45.9956281991577
aF-61.004430997211955
aa(lp191
S'ik_elbow_r_anim'
p192
a(lp193
VtranslateX
p194
aVtranslateY
p195
aVtranslateZ
p196
aaF22.378852251249089
aF36.715637496100413
aF-27.254551428607783
aa(lp197
S'ik_wrist_l_anim'
p198
a(lp199
VtranslateX
p200
aVtranslateY
p201
aVtranslateZ
p202
aVrotateX
p203
aVrotateY
p204
aVrotateZ
p205
aVstretch
p206
aVsquash
p207
aVstretchBias
p208
aVside
p209
aVmid_bend
p210
aVmid_swivel
p211
aVtip_pivot
p212
aVtip_swivel
p213
aaF-81.506130308883499
aF-53.328060832395096
aF-43.882966975271046
aF15.184583548020694
aF160.36234617748934
aF32.773304647387178
aF0
aF0
aF0
aF0
aF7.2000000000000002
aF0
aF0
aF0
aa(lp214
S'ik_wrist_r_anim'
p215
a(lp216
VtranslateX
p217
aVtranslateY
p218
aVtranslateZ
p219
aVrotateX
p220
aVrotateY
p221
aVrotateZ
p222
aVstretch
p223
aVsquash
p224
aVstretchBias
p225
aVside
p226
aVmid_bend
p227
aVmid_swivel
p228
aVtip_pivot
p229
aVtip_swivel
p230
aaF44.837634265369061
aF3.2979148642318066
aF-35.106153910830457
aF-88.144785889068132
aF-30.325205198966525
aF95.324140885253385
aF0
aF0
aF0
aF0
aF0
aF0
aF0
aF0
aa(lp231
S'fk_thigh_l_anim'
p232
a(lp233
VrotateX
p234
aVrotateY
p235
aVrotateZ
p236
aaF30.978047232667524
aF-18.049191585140665
aF33.410124572101722
aa(lp237
S'fk_thigh_r_anim'
p238
a(lp239
VrotateX
p240
aVrotateY
p241
aVrotateZ
p242
aaF24.626610676673131
aF-14.717174931991217
aF26.698935033193688
aa(lp243
S'fk_calf_l_anim'
p244
a(lp245
VrotateX
p246
aVrotateY
p247
aVrotateZ
p248
aaF1.3046933412551256
aF-0.69259464740757892
aF-30.778654098510732
aa(lp249
S'fk_calf_r_anim'
p250
a(lp251
VrotateX
p252
aVrotateY
p253
aVrotateZ
p254
aaF-0.11435873806471546
aF-0.91247910261152898
aF-31.225751876831048
aa(lp255
S'fk_foot_l_anim'
p256
a(lp257
VrotateX
p258
aVrotateY
p259
aVrotateZ
p260
aaF-5.6440310478210218
aF2.7781219482421875
aF-4.4080839157104679
aa(lp261
S'fk_foot_r_anim'
p262
a(lp263
VrotateX
p264
aVrotateY
p265
aVrotateZ
p266
aaF6.8336400985717756
aF-0.74298369884493631
aF1.3092601299286233
aa(lp267
S'fk_ball_l_anim'
p268
a(lp269
VrotateX
p270
aVrotateY
p271
aVrotateZ
p272
aaF0.016095440834760895
aF-0.00025201743115171123
aF0.30748155713081532
aa(lp273
S'fk_ball_r_anim'
p274
a(lp275
VrotateX
p276
aVrotateY
p277
aVrotateZ
p278
aaF0.0059163044206762749
aF0.5382322072982354
aF4.6641597747802761
aa(lp279
S'ik_foot_anim_l'
p280
a(lp281
VtranslateX
p282
aVtranslateY
p283
aVtranslateZ
p284
aVrotateX
p285
aVrotateY
p286
aVrotateZ
p287
aVknee_twist
p288
aVstretch
p289
aVsquash
p290
aVtoeCtrlVis
p291
aVstretchBias
p292
aaF16.485867977625094
aF-32.616905502706857
aF0.58635108439051642
aF0.049366116782720938
aF0.035443205041242737
aF-18.998592424911887
aF-26.770619521009181
aF0
aF0
aI00
aF0
aa(lp293
S'ik_foot_anim_r'
p294
a(lp295
VtranslateX
p296
aVtranslateY
p297
aVtranslateZ
p298
aVrotateX
p299
aVrotateY
p300
aVrotateZ
p301
aVknee_twist
p302
aVstretch
p303
aVsquash
p304
aVtoeCtrlVis
p305
aVstretchBias
p306
aaF5.7795068246912003
aF33.52938834597569
aF0.021526858248487102
aF0
aF1.9601101835184711
aF-79.64715444480376
aF77.974383976027653
aF0
aF0
aI00
aF0
aa(lp307
S'heel_ctrl_l'
p308
a(lp309
VrotateX
p310
aVrotateY
p311
aVrotateZ
p312
aVheelPivot
p313
aVballPivot
p314
aaF-3.7520606007889914e-15
aF1.2324649390671127e-14
aF0
aF0
aF0
aa(lp315
S'heel_ctrl_r'
p316
a(lp317
VrotateX
p318
aVrotateY
p319
aVrotateZ
p320
aVheelPivot
p321
aVballPivot
p322
aaF-1.5033090486604903e-15
aF-1.9480897423964047e-14
aF0
aF0
aF0
aa(lp323
S'toe_wiggle_ctrl_l'
p324
a(lp325
VrotateX
p326
aVrotateY
p327
aVrotateZ
p328
aaF6.3611092702081637e-15
aF1.2723771731069628e-14
aF-6.3611093629270304e-15
aa(lp329
S'toe_wiggle_ctrl_r'
p330
a(lp331
VrotateX
p332
aVrotateY
p333
aVrotateZ
p334
aaF-3.1794685459000318e-15
aF6.361109362927032e-15
aF-3.1805546814635187e-15
aa(lp335
S'toe_tip_ctrl_l'
p336
a(lp337
VrotateX
p338
aVrotateY
p339
aVrotateZ
p340
aaF0
aF-6.3657683785737075e-15
aF-3.1805546814635183e-15
aa(lp341
S'toe_tip_ctrl_r'
p342
a(lp343
VrotateX
p344
aVrotateY
p345
aVrotateZ
p346
aaF0
aF-6.361109362927032e-15
aF3.1805546814635195e-15
aa(lp347
S'master_anim'
p348
a(lp349
VtranslateX
p350
aVtranslateY
p351
aVtranslateZ
p352
aVrotateX
p353
aVrotateY
p354
aVrotateZ
p355
aaF0
aF0
aF0
aF0
aF0
aF0
aa(lp356
S'offset_anim'
p357
a(lp358
VtranslateX
p359
aVtranslateY
p360
aVtranslateZ
p361
aVrotateX
p362
aVrotateY
p363
aVrotateZ
p364
aaF0
aF0
aF0
aF0
aF0
aF0
aa(lp365
S'root_anim'
p366
a(lp367
VtranslateX
p368
aVtranslateY
p369
aVtranslateZ
p370
aVrotateX
p371
aVrotateY
p372
aVrotateZ
p373
aaF0
aF0
aF0
aF0
aF0
aF0
aa(lp374
S'upperarm_l_twist_anim'
p375
a(lp376
VtranslateX
p377
aVtranslateY
p378
aVtranslateZ
p379
aVrotateX
p380
aVrotateY
p381
aVrotateZ
p382
aVscaleX
p383
aVscaleY
p384
aVscaleZ
p385
aaF0
aF-1.7763568394002505e-15
aF0
aF3.975693351829395e-16
aF-4.9696166897867449e-17
aF1.3977046940025222e-17
aF1
aF1
aF1
aa(lp386
S'upperarm_l_twist_2_anim'
p387
a(lp388
VtranslateX
p389
aVtranslateY
p390
aVtranslateZ
p391
aVrotateX
p392
aVrotateY
p393
aVrotateZ
p394
aVscaleX
p395
aVscaleY
p396
aVscaleZ
p397
aaF0
aF1.7763568394002505e-15
aF0
aF3.975693351829395e-16
aF-4.9696166897867449e-17
aF1.3977046940025222e-17
aF1
aF1
aF1
aa(lp398
S'upperarm_r_twist_anim'
p399
a(lp400
VtranslateX
p401
aVtranslateY
p402
aVtranslateZ
p403
aVrotateX
p404
aVrotateY
p405
aVrotateZ
p406
aVscaleX
p407
aVscaleY
p408
aVscaleZ
p409
aaF-3.5527136788005009e-15
aF3.5527136788005009e-15
aF-2.8421709430404007e-14
aF0
aF4.9696166897867437e-17
aF-1.5530052155583574e-18
aF1
aF1
aF1
aa(lp410
S'upperarm_r_twist_2_anim'
p411
a(lp412
VtranslateX
p413
aVtranslateY
p414
aVtranslateZ
p415
aVrotateX
p416
aVrotateY
p417
aVrotateZ
p418
aVscaleX
p419
aVscaleY
p420
aVscaleZ
p421
aaF-7.1054273576010019e-15
aF0
aF2.8421709430404007e-14
aF0
aF4.9696166897867437e-17
aF-1.5530052155583574e-18
aF1
aF1
aF1
aa(lp422
S'lowerarm_l_twist_anim'
p423
a(lp424
VtranslateX
p425
aVtranslateY
p426
aVtranslateZ
p427
aVrotateX
p428
aVrotateY
p429
aVrotateZ
p430
aaF0
aF0
aF0
aF0
aF0
aF0
aa(lp431
S'lowerarm_r_twist_anim'
p432
a(lp433
VtranslateX
p434
aVtranslateY
p435
aVtranslateZ
p436
aVrotateX
p437
aVrotateY
p438
aVrotateZ
p439
aaF0
aF0
aF0
aF0
aF0
aF0
aa(lp440
S'l_thigh_twist_01_anim'
p441
a(lp442
VtranslateX
p443
aVtranslateY
p444
aVtranslateZ
p445
aVrotateX
p446
aVrotateY
p447
aVrotateZ
p448
aVscaleX
p449
aVscaleY
p450
aVscaleZ
p451
aaF-2.8421709430404007e-14
aF-8.8817841970012523e-16
aF0
aF-1.6151254241806922e-16
aF0
aF0
aF1
aF1
aF1
aa(lp452
S'r_thigh_twist_01_anim'
p453
a(lp454
VtranslateX
p455
aVtranslateY
p456
aVtranslateZ
p457
aVrotateX
p458
aVrotateY
p459
aVrotateZ
p460
aVscaleX
p461
aVscaleY
p462
aVscaleZ
p463
aaF2.8421709430404007e-14
aF0
aF0
aF1.5505204072134644e-14
aF-1.1927080055488186e-14
aF-2.0872390097104326e-15
aF1
aF1
aF1
aa(lp464
S'pinky_finger_fk_ctrl_1_l'
p465
a(lp466
VtranslateX
p467
aVtranslateY
p468
aVtranslateZ
p469
aVrotateX
p470
aVrotateY
p471
aVrotateZ
p472
aVsticky
p473
aaF0.019498285388217761
aF0.57465450232680537
aF-0.012465293119438735
aF7.7630848118714582
aF3.3222092666701148
aF52.565135361419408
aF0
aa(lp474
S'pinky_finger_fk_ctrl_1_r'
p475
a(lp476
VtranslateX
p477
aVtranslateY
p478
aVtranslateZ
p479
aVrotateX
p480
aVrotateY
p481
aVrotateZ
p482
aVsticky
p483
aaF0
aF0
aF0
aF-12.038537149107768
aF-15.346512905441466
aF61.069669371678827
aF0
aa(lp484
S'pinky_finger_fk_ctrl_2_l'
p485
a(lp486
VtranslateX
p487
aVtranslateY
p488
aVtranslateZ
p489
aVrotateX
p490
aVrotateY
p491
aVrotateZ
p492
aaF0
aF0
aF0
aF-5.4671137340668645
aF4.8045469855154881
aF-8.7200932187199989
aa(lp493
S'pinky_finger_fk_ctrl_2_r'
p494
a(lp495
VtranslateX
p496
aVtranslateY
p497
aVtranslateZ
p498
aVrotateX
p499
aVrotateY
p500
aVrotateZ
p501
aaF0
aF0
aF0
aF4.092621231082858
aF-10.906328913024248
aF36.685285091803429
aa(lp502
S'pinky_finger_fk_ctrl_3_l'
p503
a(lp504
VtranslateX
p505
aVtranslateY
p506
aVtranslateZ
p507
aVrotateX
p508
aVrotateY
p509
aVrotateZ
p510
aaF0
aF0
aF0
aF-19.737430918257342
aF4.8226348587712851
aF17.992099408405753
aa(lp511
S'pinky_finger_fk_ctrl_3_r'
p512
a(lp513
VtranslateX
p514
aVtranslateY
p515
aVtranslateZ
p516
aVrotateX
p517
aVrotateY
p518
aVrotateZ
p519
aaF0
aF0
aF0
aF4.0918183326721964
aF-10.422439575195218
aF70.588310241699233
aa(lp520
S'ring_finger_fk_ctrl_1_l'
p521
a(lp522
VtranslateX
p523
aVtranslateY
p524
aVtranslateZ
p525
aVrotateX
p526
aVrotateY
p527
aVrotateZ
p528
aVsticky
p529
aaF-0.0083448964791337978
aF0.55350502390110901
aF-0.15596767270523595
aF-2.5563661393476282
aF8.9682840233567838
aF49.652889658415262
aF0
aa(lp530
S'ring_finger_fk_ctrl_1_r'
p531
a(lp532
VtranslateX
p533
aVtranslateY
p534
aVtranslateZ
p535
aVrotateX
p536
aVrotateY
p537
aVrotateZ
p538
aVsticky
p539
aaF0
aF0
aF0
aF-1.8761689618070569
aF-7.6148050121739663
aF58.806392729110243
aF0
aa(lp540
S'ring_finger_fk_ctrl_2_l'
p541
a(lp542
VtranslateX
p543
aVtranslateY
p544
aVtranslateZ
p545
aVrotateX
p546
aVrotateY
p547
aVrotateZ
p548
aaF0
aF0
aF0
aF-6.0546636127617122
aF-2.4641171730251181
aF9.9056048993928734
aa(lp549
S'ring_finger_fk_ctrl_2_r'
p550
a(lp551
VtranslateX
p552
aVtranslateY
p553
aVtranslateZ
p554
aVrotateX
p555
aVrotateY
p556
aVrotateZ
p557
aaF0
aF0
aF0
aF1.2678331474032762
aF0.84626236834742452
aF58.15179294196863
aa(lp558
S'ring_finger_fk_ctrl_3_l'
p559
a(lp560
VtranslateX
p561
aVtranslateY
p562
aVtranslateZ
p563
aVrotateX
p564
aVrotateY
p565
aVrotateZ
p566
aaF0
aF0
aF0
aF0
aF0
aF21.019213376385007
aa(lp567
S'ring_finger_fk_ctrl_3_r'
p568
a(lp569
VtranslateX
p570
aVtranslateY
p571
aVtranslateZ
p572
aVrotateX
p573
aVrotateY
p574
aVrotateZ
p575
aaF0
aF0
aF0
aF4.968184787457993
aF1.9827603811766792
aF51.810856189638557
aa(lp576
S'middle_finger_fk_ctrl_1_l'
p577
a(lp578
VtranslateX
p579
aVtranslateY
p580
aVtranslateZ
p581
aVrotateX
p582
aVrotateY
p583
aVrotateZ
p584
aVsticky
p585
aaF-0.047150666871850135
aF0.53850382638743388
aF-0.19635123450015501
aF-10.031814921723624
aF3.08896093820097
aF53.348086341326045
aF0
aa(lp586
S'middle_finger_fk_ctrl_1_r'
p587
a(lp588
VtranslateX
p589
aVtranslateY
p590
aVtranslateZ
p591
aVrotateX
p592
aVrotateY
p593
aVrotateZ
p594
aVsticky
p595
aaF0
aF0
aF0
aF-1.5576726256467806
aF-7.490555539641055
aF71.02870484263309
aF0
aa(lp596
S'middle_finger_fk_ctrl_2_l'
p597
a(lp598
VtranslateX
p599
aVtranslateY
p600
aVtranslateZ
p601
aVrotateX
p602
aVrotateY
p603
aVrotateZ
p604
aaF0
aF0
aF0
aF18.43137263865426
aF6.9129903851227015
aF19.314189521770786
aa(lp605
S'middle_finger_fk_ctrl_2_r'
p606
a(lp607
VtranslateX
p608
aVtranslateY
p609
aVtranslateZ
p610
aVrotateX
p611
aVrotateY
p612
aVrotateZ
p613
aaF0
aF0
aF0
aF3.1205578674787855
aF-6.3745989768269888
aF87.623761326050996
aa(lp614
S'middle_finger_fk_ctrl_3_l'
p615
a(lp616
VtranslateX
p617
aVtranslateY
p618
aVtranslateZ
p619
aVrotateX
p620
aVrotateY
p621
aVrotateZ
p622
aaF0
aF0
aF0
aF-33.415324841912494
aF3.6018526705548375
aF18.63023015650424
aa(lp623
S'middle_finger_fk_ctrl_3_r'
p624
a(lp625
VtranslateX
p626
aVtranslateY
p627
aVtranslateZ
p628
aVrotateX
p629
aVrotateY
p630
aVrotateZ
p631
aaF0
aF0
aF0
aF3.4957659244537962
aF-2.3556907176972617
aF56.616756439208757
aa(lp632
S'index_finger_fk_ctrl_1_l'
p633
a(lp634
VtranslateX
p635
aVtranslateY
p636
aVtranslateZ
p637
aVrotateX
p638
aVrotateY
p639
aVrotateZ
p640
aVsticky
p641
aaF0
aF0
aF0
aF-27.470599771115058
aF4.1163992310990478
aF21.259937763283922
aF0
aa(lp642
S'index_finger_fk_ctrl_1_r'
p643
a(lp644
VtranslateX
p645
aVtranslateY
p646
aVtranslateZ
p647
aVrotateX
p648
aVrotateY
p649
aVrotateZ
p650
aVsticky
p651
aaF0
aF0
aF0
aF-3.3387655848653872
aF-6.0928954074903556
aF28.807340222052282
aF0
aa(lp652
S'index_finger_fk_ctrl_2_l'
p653
a(lp654
VtranslateX
p655
aVtranslateY
p656
aVtranslateZ
p657
aVrotateX
p658
aVrotateY
p659
aVrotateZ
p660
aaF0
aF0
aF0
aF-16.393347263175347
aF-5.3813586539425184
aF28.945357810899054
aa(lp661
S'index_finger_fk_ctrl_2_r'
p662
a(lp663
VtranslateX
p664
aVtranslateY
p665
aVtranslateZ
p666
aVrotateX
p667
aVrotateY
p668
aVrotateZ
p669
aaF0
aF0
aF0
aF11.878195406430864
aF10.67039299033722
aF79.2649151528354
aa(lp670
S'index_finger_fk_ctrl_3_l'
p671
a(lp672
VtranslateX
p673
aVtranslateY
p674
aVtranslateZ
p675
aVrotateX
p676
aVrotateY
p677
aVrotateZ
p678
aaF0
aF0
aF0
aF0
aF0
aF22.059717254845935
aa(lp679
S'index_finger_fk_ctrl_3_r'
p680
a(lp681
VtranslateX
p682
aVtranslateY
p683
aVtranslateZ
p684
aVrotateX
p685
aVrotateY
p686
aVrotateZ
p687
aaF0
aF0
aF0
aF3.8930346965788418
aF12.801635742187859
aF55.805820465087841
aa(lp688
S'thumb_finger_fk_ctrl_1_l'
p689
a(lp690
VtranslateX
p691
aVtranslateY
p692
aVtranslateZ
p693
aVrotateX
p694
aVrotateY
p695
aVrotateZ
p696
aVsticky
p697
aaF0
aF0
aF0
aF15.254731217907235
aF1.9921205759110532
aF-21.661200833422892
aF0
aa(lp698
S'thumb_finger_fk_ctrl_1_r'
p699
a(lp700
VtranslateX
p701
aVtranslateY
p702
aVtranslateZ
p703
aVrotateX
p704
aVrotateY
p705
aVrotateZ
p706
aVsticky
p707
aaF0
aF0
aF0
aF13.842244727365063
aF26.503604187545172
aF43.077083507749407
aF0
aa(lp708
S'thumb_finger_fk_ctrl_2_l'
p709
a(lp710
VtranslateX
p711
aVtranslateY
p712
aVtranslateZ
p713
aVrotateX
p714
aVrotateY
p715
aVrotateZ
p716
aaF0
aF0
aF0
aF0
aF0
aF0
aa(lp717
S'thumb_finger_fk_ctrl_2_r'
p718
a(lp719
VtranslateX
p720
aVtranslateY
p721
aVtranslateZ
p722
aVrotateX
p723
aVrotateY
p724
aVrotateZ
p725
aaF0
aF0
aF0
aF-1.7716493101714719
aF4.5295816409483507
aF-4.4364118677265898
aa(lp726
S'thumb_finger_fk_ctrl_3_l'
p727
a(lp728
VtranslateX
p729
aVtranslateY
p730
aVtranslateZ
p731
aVrotateX
p732
aVrotateY
p733
aVrotateZ
p734
aaF0
aF0
aF0
aF-6.997906662654545
aF-2.4044252941487776
aF2.3033591963087394
aa(lp735
S'thumb_finger_fk_ctrl_3_r'
p736
a(lp737
VtranslateX
p738
aVtranslateY
p739
aVtranslateZ
p740
aVrotateX
p741
aVrotateY
p742
aVrotateZ
p743
aaF0
aF0
aF0
aF9.6091172257146707e-06
aF-4.3910623032875192e-08
aF55.176322325550096
aa(lp744
S'index_l_ik_anim'
p745
a(lp746
VtranslateX
p747
aVtranslateY
p748
aVtranslateZ
p749
aVrotateX
p750
aVrotateY
p751
aVrotateZ
p752
aVpoleVectorVis
p753
aaF0
aF0
aF0
aF0
aF0
aF0
aF0
aa(lp754
S'index_r_ik_anim'
p755
a(lp756
VtranslateX
p757
aVtranslateY
p758
aVtranslateZ
p759
aVrotateX
p760
aVrotateY
p761
aVrotateZ
p762
aVpoleVectorVis
p763
aaF0
aF0
aF0
aF0
aF0
aF0
aF0
aa(lp764
S'middle_l_ik_anim'
p765
a(lp766
VtranslateX
p767
aVtranslateY
p768
aVtranslateZ
p769
aVrotateX
p770
aVrotateY
p771
aVrotateZ
p772
aVpoleVectorVis
p773
aaF0
aF0
aF0
aF0
aF0
aF0
aF0
aa(lp774
S'middle_r_ik_anim'
p775
a(lp776
VtranslateX
p777
aVtranslateY
p778
aVtranslateZ
p779
aVrotateX
p780
aVrotateY
p781
aVrotateZ
p782
aVpoleVectorVis
p783
aaF0
aF0
aF0
aF0
aF0
aF0
aF0
aa(lp784
S'ring_l_ik_anim'
p785
a(lp786
VtranslateX
p787
aVtranslateY
p788
aVtranslateZ
p789
aVrotateX
p790
aVrotateY
p791
aVrotateZ
p792
aVpoleVectorVis
p793
aaF0
aF0
aF0
aF0
aF0
aF0
aF0
aa(lp794
S'ring_r_ik_anim'
p795
a(lp796
VtranslateX
p797
aVtranslateY
p798
aVtranslateZ
p799
aVrotateX
p800
aVrotateY
p801
aVrotateZ
p802
aVpoleVectorVis
p803
aaF0
aF0
aF0
aF0
aF0
aF0
aF0
aa(lp804
S'pinky_l_ik_anim'
p805
a(lp806
VtranslateX
p807
aVtranslateY
p808
aVtranslateZ
p809
aVrotateX
p810
aVrotateY
p811
aVrotateZ
p812
aVpoleVectorVis
p813
aaF0
aF0
aF0
aF0
aF0
aF0
aF0
aa(lp814
S'pinky_r_ik_anim'
p815
a(lp816
VtranslateX
p817
aVtranslateY
p818
aVtranslateZ
p819
aVrotateX
p820
aVrotateY
p821
aVrotateZ
p822
aVpoleVectorVis
p823
aaF0
aF0
aF0
aF0
aF0
aF0
aF0
aa(lp824
S'thumb_l_ik_anim'
p825
a(lp826
VtranslateX
p827
aVtranslateY
p828
aVtranslateZ
p829
aVrotateX
p830
aVrotateY
p831
aVrotateZ
p832
aVpoleVectorVis
p833
aaF0
aF0
aF0
aF0
aF0
aF0
aF0
aa(lp834
S'thumb_r_ik_anim'
p835
a(lp836
VtranslateX
p837
aVtranslateY
p838
aVtranslateZ
p839
aVrotateX
p840
aVrotateY
p841
aVrotateZ
p842
aVpoleVectorVis
p843
aaF0
aF0
aF0
aF0
aF0
aF0
aF0
aa(lp844
S'index_l_poleVector'
p845
a(lp846
VtranslateX
p847
aVtranslateY
p848
aVtranslateZ
p849
aVrotateX
p850
aVrotateY
p851
aVrotateZ
p852
aaF0
aF0
aF0
aF0
aF0
aF0
aa(lp853
S'index_r_poleVector'
p854
a(lp855
VtranslateX
p856
aVtranslateY
p857
aVtranslateZ
p858
aVrotateX
p859
aVrotateY
p860
aVrotateZ
p861
aaF0
aF0
aF0
aF0
aF0
aF0
aa(lp862
S'middle_l_poleVector'
p863
a(lp864
VtranslateX
p865
aVtranslateY
p866
aVtranslateZ
p867
aVrotateX
p868
aVrotateY
p869
aVrotateZ
p870
aaF0
aF0
aF0
aF0
aF0
aF0
aa(lp871
S'middle_r_poleVector'
p872
a(lp873
VtranslateX
p874
aVtranslateY
p875
aVtranslateZ
p876
aVrotateX
p877
aVrotateY
p878
aVrotateZ
p879
aaF0
aF0
aF0
aF0
aF0
aF0
aa(lp880
S'ring_l_poleVector'
p881
a(lp882
VtranslateX
p883
aVtranslateY
p884
aVtranslateZ
p885
aVrotateX
p886
aVrotateY
p887
aVrotateZ
p888
aaF0
aF0
aF0
aF0
aF0
aF0
aa(lp889
S'ring_r_poleVector'
p890
a(lp891
VtranslateX
p892
aVtranslateY
p893
aVtranslateZ
p894
aVrotateX
p895
aVrotateY
p896
aVrotateZ
p897
aaF0
aF0
aF0
aF0
aF0
aF0
aa(lp898
S'pinky_l_poleVector'
p899
a(lp900
VtranslateX
p901
aVtranslateY
p902
aVtranslateZ
p903
aVrotateX
p904
aVrotateY
p905
aVrotateZ
p906
aaF0
aF0
aF0
aF0
aF0
aF0
aa(lp907
S'pinky_r_poleVector'
p908
a(lp909
VtranslateX
p910
aVtranslateY
p911
aVtranslateZ
p912
aVrotateX
p913
aVrotateY
p914
aVrotateZ
p915
aaF0
aF0
aF0
aF0
aF0
aF0
aa(lp916
S'thumb_l_poleVector'
p917
a(lp918
VtranslateX
p919
aVtranslateY
p920
aVtranslateZ
p921
aVrotateX
p922
aVrotateY
p923
aVrotateZ
p924
aaF0
aF0
aF0
aF0
aF0
aF0
aa(lp925
S'thumb_r_poleVector'
p926
a(lp927
VtranslateX
p928
aVtranslateY
p929
aVtranslateZ
p930
aVrotateX
p931
aVrotateY
p932
aVrotateZ
p933
aaF0
aF0
aF0
aF0
aF0
aF0
aa(lp934
S'l_global_ik_anim'
p935
a(lp936
VtranslateX
p937
aVtranslateY
p938
aVtranslateZ
p939
aVrotateX
p940
aVrotateY
p941
aVrotateZ
p942
aaF0
aF0
aF0
aF0
aF0
aF0
aa(lp943
S'r_global_ik_anim'
p944
a(lp945
VtranslateX
p946
aVtranslateY
p947
aVtranslateZ
p948
aVrotateX
p949
aVrotateY
p950
aVrotateZ
p951
aaF0
aF0
aF0
aF0
aF0
aF0
aa(lp952
S'Rig_Settings'
p953
a(lp954
Vspine_ik
p955
aVspine_fk
p956
aVlLegMode
p957
aVlThighTwistAmount
p958
aVlThighTwist2Amount
p959
aVllegTwistCtrlVis
p960
aVlCalfTwistAmount
p961
aVrLegMode
p962
aVrThighTwistAmount
p963
aVrThighTwist2Amount
p964
aVrlegTwistCtrlVis
p965
aVrCalfTwistAmount
p966
aVlFkArmOrient
p967
aVlArmMode
p968
aVlClavMode
p969
aVlUpperarmTwistAmount
p970
aVlUpperarmTwist2Amount
p971
aVltwistCtrlVis
p972
aVltwistCtrlVisLower
p973
aVlForearmTwistAmount
p974
aVrFkArmOrient
p975
aVrArmMode
p976
aVrClavMode
p977
aVrUpperarmTwistAmount
p978
aVrUpperarmTwist2Amount
p979
aVrtwistCtrlVis
p980
aVrtwistCtrlVisLower
p981
aVrForearmTwistAmount
p982
aaF1
aF0
aI1
aF1
aF0.59999999999999998
aI00
aF0.5
aI1
aF1
aF0.59999999999999998
aI00
aF0.5
aI0
aI1
aI1
aF0.90000000000000002
aF0.59999999999999998
aI00
aI00
aF0.5
aI0
aI1
aI1
aF0.90000000000000002
aF0.59999999999999998
aI00
aI00
aF0.5
aa(lp983
S'calf_l_twist_anim'
p984
a(lp985
VtranslateX
p986
aVtranslateY
p987
aVtranslateZ
p988
aVrotateX
p989
aVrotateY
p990
aVrotateZ
p991
aaF0
aF0
aF0
aF0
aF0
aF0
aa(lp992
S'calf_r_twist_anim'
p993
a(lp994
VtranslateX
p995
aVtranslateY
p996
aVtranslateZ
p997
aVrotateX
p998
aVrotateY
p999
aVrotateZ
p1000
aaF0
aF0
aF0
aF0
aF0
aF0
aa(lp1001
Vbot_loarm_pistonC_bot_anim
p1002
a(lp1003
VtranslateX
p1004
aVtranslateY
p1005
aVtranslateZ
p1006
aVrotateX
p1007
aVrotateY
p1008
aVrotateZ
p1009
aVscaleX
p1010
aVscaleY
p1011
aVscaleZ
p1012
aaF-4.9936602408706676e-08
aF1.4090232269836633e-07
aF1.4886757071508327e-07
aF0
aF0
aF0
aF1
aF1
aF1
aa(lp1013
Vbot_loarm_pistonB_top_anim
p1014
a(lp1015
VtranslateX
p1016
aVtranslateY
p1017
aVtranslateZ
p1018
aVrotateX
p1019
aVrotateY
p1020
aVrotateZ
p1021
aVscaleX
p1022
aVscaleY
p1023
aVscaleZ
p1024
aaF0
aF0
aF0
aF0
aF0
aF0
aF1
aF1
aF1
aa(lp1025
Vbot_hand_anim
p1026
a(lp1027
VtranslateX
p1028
aVtranslateY
p1029
aVtranslateZ
p1030
aVrotateX
p1031
aVrotateY
p1032
aVrotateZ
p1033
aVscaleX
p1034
aVscaleY
p1035
aVscaleZ
p1036
aaF0
aF0
aF0
aF0
aF0
aF0
aF1
aF1
aF1
aa(lp1037
Vgun_stock_bott_anim
p1038
a(lp1039
VtranslateX
p1040
aVtranslateY
p1041
aVtranslateZ
p1042
aVrotateX
p1043
aVrotateY
p1044
aVrotateZ
p1045
aVscaleX
p1046
aVscaleY
p1047
aVscaleZ
p1048
aaF0
aF0
aF0
aF0
aF0
aF0
aF1
aF1
aF1
aa(lp1049
Vbot_loarm_pistonC_top_anim
p1050
a(lp1051
VtranslateX
p1052
aVtranslateY
p1053
aVtranslateZ
p1054
aVrotateX
p1055
aVrotateY
p1056
aVrotateZ
p1057
aVscaleX
p1058
aVscaleY
p1059
aVscaleZ
p1060
aaF-2.0081228058188572e-07
aF9.3106280019128462e-08
aF-7.4173470920868567e-08
aF0
aF0
aF0
aF1
aF1
aF1
aa(lp1061
Vjaw_anim
p1062
a(lp1063
VtranslateX
p1064
aVtranslateY
p1065
aVtranslateZ
p1066
aVrotateX
p1067
aVrotateY
p1068
aVrotateZ
p1069
aVscaleX
p1070
aVscaleY
p1071
aVscaleZ
p1072
aaF0
aF0
aF0
aF0
aF0
aF0
aF1
aF1
aF1
aa(lp1073
Vbot_uparm_pistonC_bot_anim
p1074
a(lp1075
VtranslateX
p1076
aVtranslateY
p1077
aVtranslateZ
p1078
aVrotateX
p1079
aVrotateY
p1080
aVrotateZ
p1081
aVscaleX
p1082
aVscaleY
p1083
aVscaleZ
p1084
aaF0
aF0
aF0
aF0
aF0
aF0
aF1
aF1
aF1
aa(lp1085
Vankle_plates_r_anim
p1086
a(lp1087
VtranslateX
p1088
aVtranslateY
p1089
aVtranslateZ
p1090
aVrotateX
p1091
aVrotateY
p1092
aVrotateZ
p1093
aVscaleX
p1094
aVscaleY
p1095
aVscaleZ
p1096
aaF-0.00016524725216982006
aF-6.0263833759677254e-05
aF3.7029354359674471e-05
aF-9.5200831169871023
aF14.718818513164711
aF-0.87733190871671396
aF1
aF1
aF1
aa(lp1097
Vbot_uparm_anim
p1098
a(lp1099
VtranslateX
p1100
aVtranslateY
p1101
aVtranslateZ
p1102
aVrotateX
p1103
aVrotateY
p1104
aVrotateZ
p1105
aVscaleX
p1106
aVscaleY
p1107
aVscaleZ
p1108
aaF0
aF0
aF0
aF0
aF0
aF0
aF1
aF1
aF1
aa(lp1109
Vgun_stock_panel_l_anim
p1110
a(lp1111
VtranslateX
p1112
aVtranslateY
p1113
aVtranslateZ
p1114
aVrotateX
p1115
aVrotateY
p1116
aVrotateZ
p1117
aVscaleX
p1118
aVscaleY
p1119
aVscaleZ
p1120
aaF0
aF0
aF0
aF0
aF0
aF0
aF1
aF1
aF1
aa(lp1121
Vtrap_handle_anim
p1122
a(lp1123
VtranslateX
p1124
aVtranslateY
p1125
aVtranslateZ
p1126
aVrotateX
p1127
aVrotateY
p1128
aVrotateZ
p1129
aVscaleX
p1130
aVscaleY
p1131
aVscaleZ
p1132
aaF0
aF0
aF0
aF0
aF0
aF0
aF1
aF1
aF1
aa(lp1133
Vtrap_ring_anim
p1134
a(lp1135
VtranslateX
p1136
aVtranslateY
p1137
aVtranslateZ
p1138
aVrotateX
p1139
aVrotateY
p1140
aVrotateZ
p1141
aVscaleX
p1142
aVscaleY
p1143
aVscaleZ
p1144
aaF5.6843418860808015e-14
aF-2.8421709430404007e-14
aF-7.1054273576010019e-14
aF0
aF0
aF0
aF0.10000000000000001
aF0.10000000000000001
aF0.10000000000000001
aa(lp1145
Vgun_anim
p1146
a(lp1147
VtranslateX
p1148
aVtranslateY
p1149
aVtranslateZ
p1150
aVrotateX
p1151
aVrotateY
p1152
aVrotateZ
p1153
aVscaleX
p1154
aVscaleY
p1155
aVscaleZ
p1156
aaF2.294580371126735
aF0.081511541477898436
aF0.10571991721390056
aF31.434007196564291
aF-0.43412181609596717
aF0.23166590761927211
aF1
aF1
aF1
aa(lp1157
Vgun_scope_anim
p1158
a(lp1159
VtranslateX
p1160
aVtranslateY
p1161
aVtranslateZ
p1162
aVrotateX
p1163
aVrotateY
p1164
aVrotateZ
p1165
aVscaleX
p1166
aVscaleY
p1167
aVscaleZ
p1168
aaF0
aF0
aF0
aF0
aF0
aF0
aF1
aF1
aF1
aa(lp1169
Vwrist_cover_anim
p1170
a(lp1171
VtranslateX
p1172
aVtranslateY
p1173
aVtranslateZ
p1174
aVrotateX
p1175
aVrotateY
p1176
aVrotateZ
p1177
aVscaleX
p1178
aVscaleY
p1179
aVscaleZ
p1180
aaF0
aF0
aF0
aF0
aF0
aF4.9696166897867449e-17
aF1
aF0.99999999999999967
aF0.99999999999999978
aa(lp1181
Vbot_uparm_pistonC_top_anim
p1182
a(lp1183
VtranslateX
p1184
aVtranslateY
p1185
aVtranslateZ
p1186
aVrotateX
p1187
aVrotateY
p1188
aVrotateZ
p1189
aVscaleX
p1190
aVscaleY
p1191
aVscaleZ
p1192
aaF0
aF0
aF0
aF0
aF0
aF0
aF1
aF1
aF1
aa(lp1193
Vgun_barrel_anim
p1194
a(lp1195
VtranslateX
p1196
aVtranslateY
p1197
aVtranslateZ
p1198
aVrotateX
p1199
aVrotateY
p1200
aVrotateZ
p1201
aVscaleX
p1202
aVscaleY
p1203
aVscaleZ
p1204
aaF0
aF0
aF0
aF0
aF0
aF0
aF1
aF1
aF1
aa(lp1205
Vbot_loarm_anim
p1206
a(lp1207
VtranslateX
p1208
aVtranslateY
p1209
aVtranslateZ
p1210
aVrotateX
p1211
aVrotateY
p1212
aVrotateZ
p1213
aVscaleX
p1214
aVscaleY
p1215
aVscaleZ
p1216
aaF0
aF0
aF0
aF0
aF0
aF0
aF1
aF1
aF1
aa(lp1217
Vshotgun_base_anim
p1218
a(lp1219
VtranslateX
p1220
aVtranslateY
p1221
aVtranslateZ
p1222
aVrotateX
p1223
aVrotateY
p1224
aVrotateZ
p1225
aVscaleX
p1226
aVscaleY
p1227
aVscaleZ
p1228
aaF0
aF0
aF0
aF0
aF0
aF0
aF1
aF1
aF1
aa(lp1229
Vhip_pack_c_anim
p1230
a(lp1231
VtranslateX
p1232
aVtranslateY
p1233
aVtranslateZ
p1234
aVrotateX
p1235
aVrotateY
p1236
aVrotateZ
p1237
aVchainAttach
p1238
aVchainStartEnvelope
p1239
aVchainStartFrame
p1240
aVchainStiffness
p1241
aVchainDamping
p1242
aVchainGravity
p1243
aVchainIteration
p1244
aVchainCollide
p1245
aVchainWidthBase
p1246
aVchainWidthExtremity
p1247
aVchainCollideGround
p1248
aVchainCollideGroundHeight
p1249
aaF0
aF0
aF0
aF0
aF0
aF0
aI1
aF0
aF1
aF0.10000000000000001
aF0.20000000000000001
aF1
aI1
aI00
aF1
aF1
aI00
aF0
aa(lp1250
Vhip_pack_b_anim
p1251
a(lp1252
VtranslateX
p1253
aVtranslateY
p1254
aVtranslateZ
p1255
aVrotateX
p1256
aVrotateY
p1257
aVrotateZ
p1258
aVchainAttach
p1259
aVchainStartEnvelope
p1260
aVchainStartFrame
p1261
aVchainStiffness
p1262
aVchainDamping
p1263
aVchainGravity
p1264
aVchainIteration
p1265
aVchainCollide
p1266
aVchainWidthBase
p1267
aVchainWidthExtremity
p1268
aVchainCollideGround
p1269
aVchainCollideGroundHeight
p1270
aaF0
aF0
aF0
aF0
aF0
aF0
aI1
aF0
aF1
aF0.10000000000000001
aF0.20000000000000001
aF1
aI1
aI00
aF1
aF1
aI00
aF0
aa(lp1271
Vhip_pack_a_anim
p1272
a(lp1273
VtranslateX
p1274
aVtranslateY
p1275
aVtranslateZ
p1276
aVrotateX
p1277
aVrotateY
p1278
aVrotateZ
p1279
aVchainAttach
p1280
aVchainStartEnvelope
p1281
aVchainStartFrame
p1282
aVchainStiffness
p1283
aVchainDamping
p1284
aVchainGravity
p1285
aVchainIteration
p1286
aVchainCollide
p1287
aVchainWidthBase
p1288
aVchainWidthExtremity
p1289
aVchainCollideGround
p1290
aVchainCollideGroundHeight
p1291
aaF0
aF0
aF0
aF0
aF0
aF0
aI1
aF0
aF1
aF0.10000000000000001
aF0.20000000000000001
aF1
aI1
aI00
aF1
aF1
aI00
aF0
aa(lp1292
Vhip_pack_d_anim
p1293
a(lp1294
VtranslateX
p1295
aVtranslateY
p1296
aVtranslateZ
p1297
aVrotateX
p1298
aVrotateY
p1299
aVrotateZ
p1300
aVchainAttach
p1301
aVchainStartEnvelope
p1302
aVchainStartFrame
p1303
aVchainStiffness
p1304
aVchainDamping
p1305
aVchainGravity
p1306
aVchainIteration
p1307
aVchainCollide
p1308
aVchainWidthBase
p1309
aVchainWidthExtremity
p1310
aVchainCollideGround
p1311
aVchainCollideGroundHeight
p1312
aaF0
aF0
aF0
aF0
aF0
aF0
aI1
aF0
aF1
aF0.10000000000000001
aF0.20000000000000001
aF1
aI1
aI00
aF1
aF1
aI00
aF0
aa(lp1313
Vgun_stock_panel_r_anim
p1314
a(lp1315
VtranslateX
p1316
aVtranslateY
p1317
aVtranslateZ
p1318
aVrotateX
p1319
aVrotateY
p1320
aVrotateZ
p1321
aVscaleX
p1322
aVscaleY
p1323
aVscaleZ
p1324
aaF0
aF0
aF0
aF0
aF0
aF0
aF1
aF1
aF1
aa(lp1325
Vbot_loarm_pistonD_top_anim
p1326
a(lp1327
VtranslateX
p1328
aVtranslateY
p1329
aVtranslateZ
p1330
aVrotateX
p1331
aVrotateY
p1332
aVrotateZ
p1333
aVscaleX
p1334
aVscaleY
p1335
aVscaleZ
p1336
aaF0
aF0
aF0
aF0
aF0
aF0
aF1
aF1
aF1
aa(lp1337
Vsniper_can_arm_03_anim
p1338
a(lp1339
VtranslateX
p1340
aVtranslateY
p1341
aVtranslateZ
p1342
aVrotateX
p1343
aVrotateY
p1344
aVrotateZ
p1345
aVscaleX
p1346
aVscaleY
p1347
aVscaleZ
p1348
aaF-5.6843418860808015e-14
aF0
aF0
aF0
aF0
aF0
aF1
aF1
aF1
aa(lp1349
Vsniper_can_arm_02_anim
p1350
a(lp1351
VtranslateX
p1352
aVtranslateY
p1353
aVtranslateZ
p1354
aVrotateX
p1355
aVrotateY
p1356
aVrotateZ
p1357
aVscaleX
p1358
aVscaleY
p1359
aVscaleZ
p1360
aaF0
aF0
aF0
aF0
aF0
aF0
aF1
aF1
aF1
aa(lp1361
Vsniper_can_arm_01_anim
p1362
a(lp1363
VtranslateX
p1364
aVtranslateY
p1365
aVtranslateZ
p1366
aVrotateX
p1367
aVrotateY
p1368
aVrotateZ
p1369
aVscaleX
p1370
aVscaleY
p1371
aVscaleZ
p1372
aaF0
aF0
aF0
aF0
aF0
aF0
aF1
aF1
aF1
aa(lp1373
Vbot_loarm_twist_anim
p1374
a(lp1375
VtranslateX
p1376
aVtranslateY
p1377
aVtranslateZ
p1378
aVrotateX
p1379
aVrotateY
p1380
aVrotateZ
p1381
aVscaleX
p1382
aVscaleY
p1383
aVscaleZ
p1384
aaF5.8083031717615086e-08
aF1.9609402102105378e-08
aF-9.0213063685951056e-09
aF0
aF0
aF0
aF1
aF1
aF1
aa(lp1385
Vshotgun_anim
p1386
a(lp1387
VtranslateX
p1388
aVtranslateY
p1389
aVtranslateZ
p1390
aVrotateX
p1391
aVrotateY
p1392
aVrotateZ
p1393
aVscaleX
p1394
aVscaleY
p1395
aVscaleZ
p1396
aVshotgun_rotate
p1397
aVshotgun_rail
p1398
aaF0
aF0
aF0
aF0
aF0
aF0
aF1
aF1
aF1
aF0
aF0
aa(lp1399
Vankle_plates_l_anim
p1400
a(lp1401
VtranslateX
p1402
aVtranslateY
p1403
aVtranslateZ
p1404
aVrotateX
p1405
aVrotateY
p1406
aVrotateZ
p1407
aVscaleX
p1408
aVscaleY
p1409
aVscaleZ
p1410
aaF0.00016637311947320654
aF1.5491858647465051e-05
aF-2.0470967513119831e-05
aF5.0750575589195206
aF-1.223948902269568
aF-0.60246174690137566
aF1
aF1
aF1
aa(lp1411
Vbot_loarm_pistonB_bot_anim
p1412
a(lp1413
VtranslateX
p1414
aVtranslateY
p1415
aVtranslateZ
p1416
aVrotateX
p1417
aVrotateY
p1418
aVrotateZ
p1419
aVscaleX
p1420
aVscaleY
p1421
aVscaleZ
p1422
aaF0
aF0
aF0
aF0
aF0
aF0
aF1
aF1
aF1
aa(lp1423
Vbot_loarm_pistonD_bot_anim
p1424
a(lp1425
VtranslateX
p1426
aVtranslateY
p1427
aVtranslateZ
p1428
aVrotateX
p1429
aVrotateY
p1430
aVrotateZ
p1431
aVscaleX
p1432
aVscaleY
p1433
aVscaleZ
p1434
aaF0
aF0
aF0
aF0
aF0
aF0
aF1
aF1
aF1
aa(lp1435
Vgun_stock_bott_in_anim
p1436
a(lp1437
VtranslateX
p1438
aVtranslateY
p1439
aVtranslateZ
p1440
aVrotateX
p1441
aVrotateY
p1442
aVrotateZ
p1443
aVscaleX
p1444
aVscaleY
p1445
aVscaleZ
p1446
aaF0
aF0
aF0
aF0
aF0
aF0
aF1
aF1
aF1
aa(lp1447
Vgun_stock_top_anim
p1448
a(lp1449
VtranslateX
p1450
aVtranslateY
p1451
aVtranslateZ
p1452
aVrotateX
p1453
aVrotateY
p1454
aVrotateZ
p1455
aVscaleX
p1456
aVscaleY
p1457
aVscaleZ
p1458
aaF0
aF0
aF0
aF0
aF0
aF0
aF1
aF1
aF1
aa(lp1459
Vshotgun_clip_anim
p1460
a(lp1461
VtranslateX
p1462
aVtranslateY
p1463
aVtranslateZ
p1464
aVrotateX
p1465
aVrotateY
p1466
aVrotateZ
p1467
aVscaleX
p1468
aVscaleY
p1469
aVscaleZ
p1470
aaF-5.6843418860808015e-14
aF2.1316282072803006e-14
aF5.6843418860808015e-14
aF0
aF0
aF0
aF0.99999999999999989
aF1
aF1.0000000000000002
aa(lp1471
Vankle_plates_l_anim_space_switcher
p1472
a(lp1473
Vvisibility
p1474
aVtranslateX
p1475
aVtranslateY
p1476
aVtranslateZ
p1477
aVrotateX
p1478
aVrotateY
p1479
aVrotateZ
p1480
aVscaleX
p1481
aVscaleY
p1482
aVscaleZ
p1483
aVspace_world
p1484
aaI01
aF0
aF0
aF0
aF0
aF0
aF0
aF1
aF1
aF1
aF0
aa(lp1485
Vankle_plates_r_anim_space_switcher
p1486
a(lp1487
Vvisibility
p1488
aVtranslateX
p1489
aVtranslateY
p1490
aVtranslateZ
p1491
aVrotateX
p1492
aVrotateY
p1493
aVrotateZ
p1494
aVscaleX
p1495
aVscaleY
p1496
aVscaleZ
p1497
aVspace_world
p1498
aaI01
aF-1.7763568394002505e-15
aF-8.8817841970012523e-16
aF0
aF1.2248130215594724e-23
aF-0
aF0
aF1
aF1
aF1
aF0
aa(lp1499
Vbody_anim_space_switcher
p1500
a(lp1501
Vvisibility
p1502
aVtranslateX
p1503
aVtranslateY
p1504
aVtranslateZ
p1505
aVrotateX
p1506
aVrotateY
p1507
aVrotateZ
p1508
aVscaleX
p1509
aVscaleY
p1510
aVscaleZ
p1511
aVspace_world
p1512
aaI01
aF0
aF0
aF0
aF0
aF0
aF0
aF1
aF1
aF1
aF0
aa(lp1513
Vbot_hand_anim_space_switcher
p1514
a(lp1515
Vvisibility
p1516
aVtranslateX
p1517
aVtranslateY
p1518
aVtranslateZ
p1519
aVrotateX
p1520
aVrotateY
p1521
aVrotateZ
p1522
aVscaleX
p1523
aVscaleY
p1524
aVscaleZ
p1525
aVspace_world
p1526
aaI01
aF2.8421709430404007e-14
aF7.1054273576010019e-15
aF1.4210854715202004e-14
aF-1.5902773407317584e-15
aF-0
aF0
aF1
aF1
aF1
aF0
aa(lp1527
Vbot_loarm_anim_space_switcher
p1528
a(lp1529
Vvisibility
p1530
aVtranslateX
p1531
aVtranslateY
p1532
aVtranslateZ
p1533
aVrotateX
p1534
aVrotateY
p1535
aVrotateZ
p1536
aVscaleX
p1537
aVscaleY
p1538
aVscaleZ
p1539
aVspace_world
p1540
aaI01
aF0
aF-7.1054273576010019e-15
aF-2.8421709430404007e-14
aF0
aF-0
aF6.2120208622334312e-18
aF1
aF1
aF1
aF0
aa(lp1541
Vbot_loarm_pistonB_bot_anim_space_switcher
p1542
a(lp1543
Vvisibility
p1544
aVtranslateX
p1545
aVtranslateY
p1546
aVtranslateZ
p1547
aVrotateX
p1548
aVrotateY
p1549
aVrotateZ
p1550
aVscaleX
p1551
aVscaleY
p1552
aVscaleZ
p1553
aVspace_world
p1554
aaI01
aF0
aF0
aF0
aF0
aF1.490885006936023e-16
aF3.975693351829395e-16
aF1.0000000000000002
aF1.0000000000000002
aF1.0000000000000002
aF0
aa(lp1555
Vbot_loarm_pistonB_top_anim_space_switcher
p1556
a(lp1557
Vvisibility
p1558
aVtranslateX
p1559
aVtranslateY
p1560
aVtranslateZ
p1561
aVrotateX
p1562
aVrotateY
p1563
aVrotateZ
p1564
aVscaleX
p1565
aVscaleY
p1566
aVscaleZ
p1567
aVspace_world
p1568
aaI01
aF0
aF0
aF0
aF-3.1805546814635168e-15
aF9.9392333795734899e-17
aF0
aF1
aF1
aF1
aF0
aa(lp1569
Vbot_loarm_pistonC_bot_anim_space_switcher
p1570
a(lp1571
Vvisibility
p1572
aVtranslateX
p1573
aVtranslateY
p1574
aVtranslateZ
p1575
aVrotateX
p1576
aVrotateY
p1577
aVrotateZ
p1578
aVscaleX
p1579
aVscaleY
p1580
aVscaleZ
p1581
aVspace_world
p1582
aaI01
aF-7.1054273576010019e-15
aF3.5527136788005009e-15
aF2.8421709430404007e-14
aF0
aF-1.5902773407317588e-15
aF-1.9878466759146985e-16
aF0.99999999999999989
aF0.99999999999999989
aF1
aF0
aa(lp1583
Vbot_loarm_pistonC_top_anim_space_switcher
p1584
a(lp1585
Vvisibility
p1586
aVtranslateX
p1587
aVtranslateY
p1588
aVtranslateZ
p1589
aVrotateX
p1590
aVrotateY
p1591
aVrotateZ
p1592
aVscaleX
p1593
aVscaleY
p1594
aVscaleZ
p1595
aVspace_world
p1596
aaI01
aF0
aF0
aF-2.8421709430404007e-14
aF0
aF-0
aF9.9392333795734899e-16
aF1
aF1
aF1
aF0
aa(lp1597
Vbot_loarm_pistonD_bot_anim_space_switcher
p1598
a(lp1599
Vvisibility
p1600
aVtranslateX
p1601
aVtranslateY
p1602
aVtranslateZ
p1603
aVrotateX
p1604
aVrotateY
p1605
aVrotateZ
p1606
aVscaleX
p1607
aVscaleY
p1608
aVscaleZ
p1609
aVspace_world
p1610
aaI01
aF0
aF-2.2204460492503131e-16
aF0
aF7.9513867036587919e-16
aF-0
aF4.7708320221952752e-15
aF1
aF1
aF1
aF0
aa(lp1611
Vbot_loarm_pistonD_top_anim_space_switcher
p1612
a(lp1613
Vvisibility
p1614
aVtranslateX
p1615
aVtranslateY
p1616
aVtranslateZ
p1617
aVrotateX
p1618
aVrotateY
p1619
aVrotateZ
p1620
aVscaleX
p1621
aVscaleY
p1622
aVscaleZ
p1623
aVspace_world
p1624
aaI01
aF-1.4210854715202004e-14
aF0
aF0
aF0
aF2.3854160110976376e-15
aF1.5902773407317584e-15
aF1
aF1
aF0.99999999999999978
aF0
aa(lp1625
Vbot_loarm_twist_anim_space_switcher
p1626
a(lp1627
Vvisibility
p1628
aVtranslateX
p1629
aVtranslateY
p1630
aVtranslateZ
p1631
aVrotateX
p1632
aVrotateY
p1633
aVrotateZ
p1634
aVscaleX
p1635
aVscaleY
p1636
aVscaleZ
p1637
aVspace_world
p1638
aVblendOrient1
p1639
aaI01
aF0
aF0
aF0
aF-19.838187126702056
aF-0.17658311940250215
aF-0.25041428748770955
aF1
aF1
aF1
aF0
aF0
aa(lp1640
Vbot_uparm_anim_space_switcher
p1641
a(lp1642
Vvisibility
p1643
aVtranslateX
p1644
aVtranslateY
p1645
aVtranslateZ
p1646
aVrotateX
p1647
aVrotateY
p1648
aVrotateZ
p1649
aVscaleX
p1650
aVscaleY
p1651
aVscaleZ
p1652
aVspace_world
p1653
aaI01
aF3.5527136788005009e-15
aF0
aF0
aF-7.9513867036587939e-16
aF-0
aF5.9635400277440959e-16
aF0.99999999999999989
aF0.99999999999999978
aF0.99999999999999989
aF0
aa(lp1654
Vbot_uparm_pistonC_bot_anim_space_switcher
p1655
a(lp1656
Vvisibility
p1657
aVtranslateX
p1658
aVtranslateY
p1659
aVtranslateZ
p1660
aVrotateX
p1661
aVrotateY
p1662
aVrotateZ
p1663
aVscaleX
p1664
aVscaleY
p1665
aVscaleZ
p1666
aVspace_world
p1667
aaI01
aF-1.4210854715202004e-14
aF2.8421709430404007e-14
aF-7.1054273576010019e-15
aF3.1805546814635168e-15
aF7.9513867036587919e-16
aF-1.5902773407317584e-15
aF1
aF1
aF1
aF0
aa(lp1668
Vbot_uparm_pistonC_top_anim_space_switcher
p1669
a(lp1670
Vvisibility
p1671
aVtranslateX
p1672
aVtranslateY
p1673
aVtranslateZ
p1674
aVrotateX
p1675
aVrotateY
p1676
aVrotateZ
p1677
aVscaleX
p1678
aVscaleY
p1679
aVscaleZ
p1680
aVspace_world
p1681
aaI01
aF-1.4210854715202004e-14
aF1.7763568394002505e-15
aF0
aF0
aF1.5902773407317584e-15
aF7.9513867036587919e-16
aF1
aF1
aF1
aF0
aa(lp1682
Vchest_ik_anim_space_switcher
p1683
a(lp1684
Vvisibility
p1685
aVtranslateX
p1686
aVtranslateY
p1687
aVtranslateZ
p1688
aVrotateX
p1689
aVrotateY
p1690
aVrotateZ
p1691
aVscaleX
p1692
aVscaleY
p1693
aVscaleZ
p1694
aVspace_world
p1695
aVspace_chest_ik_world_aligned
p1696
aaI01
aF0
aF-3.5527136788005009e-15
aF2.0194839173657902e-28
aF7.0622500768802538e-31
aF-0
aF0
aF1
aF1
aF1
aF0
aF0
aa(lp1697
Vgun_anim_space_switcher
p1698
a(lp1699
Vvisibility
p1700
aVtranslateX
p1701
aVtranslateY
p1702
aVtranslateZ
p1703
aVrotateX
p1704
aVrotateY
p1705
aVrotateZ
p1706
aVscaleX
p1707
aVscaleY
p1708
aVscaleZ
p1709
aVspace_world
p1710
aaI01
aF2.8421709430404007e-14
aF4.4408920985006262e-16
aF0
aF3.7272125173400599e-17
aF-0
aF0
aF0.99999999999999989
aF0.99999999999999989
aF0.99999999999999989
aF0
aa(lp1711
Vgun_barrel_anim_space_switcher
p1712
a(lp1713
Vvisibility
p1714
aVtranslateX
p1715
aVtranslateY
p1716
aVtranslateZ
p1717
aVrotateX
p1718
aVrotateY
p1719
aVrotateZ
p1720
aVscaleX
p1721
aVscaleY
p1722
aVscaleZ
p1723
aVspace_world
p1724
aaI01
aF0
aF-1.7763568394002505e-15
aF-2.8421709430404007e-14
aF-1.1181637552020177e-16
aF1.9878466759146975e-16
aF-7.9513867036587899e-16
aF1.0000000000000002
aF1
aF1.0000000000000002
aF0
aa(lp1725
Vgun_scope_anim_space_switcher
p1726
a(lp1727
Vvisibility
p1728
aVtranslateX
p1729
aVtranslateY
p1730
aVtranslateZ
p1731
aVrotateX
p1732
aVrotateY
p1733
aVrotateZ
p1734
aVscaleX
p1735
aVscaleY
p1736
aVscaleZ
p1737
aVspace_world
p1738
aaI01
aF2.8421709430404007e-14
aF0
aF-2.8421709430404007e-14
aF-1.1181637552020177e-16
aF1.9878466759146975e-16
aF-7.9513867036587899e-16
aF1.0000000000000002
aF1
aF1.0000000000000002
aF0
aa(lp1739
Vgun_stock_bott_anim_space_switcher
p1740
a(lp1741
Vvisibility
p1742
aVtranslateX
p1743
aVtranslateY
p1744
aVtranslateZ
p1745
aVrotateX
p1746
aVrotateY
p1747
aVrotateZ
p1748
aVscaleX
p1749
aVscaleY
p1750
aVscaleZ
p1751
aVspace_world
p1752
aaI01
aF0
aF1.7798262863522041e-15
aF0
aF-6.2120208622334324e-17
aF-0
aF7.9513867036587939e-16
aF0.99999999999999989
aF0.99999999999999989
aF0.99999999999999989
aF0
aa(lp1753
Vgun_stock_bott_in_anim_space_switcher
p1754
a(lp1755
Vvisibility
p1756
aVtranslateX
p1757
aVtranslateY
p1758
aVtranslateZ
p1759
aVrotateX
p1760
aVrotateY
p1761
aVrotateZ
p1762
aVscaleX
p1763
aVscaleY
p1764
aVscaleZ
p1765
aVspace_world
p1766
aaI01
aF-2.8421709430404007e-14
aF0
aF0
aF-1.1181637552020177e-16
aF1.9878466759146975e-16
aF-7.9513867036587899e-16
aF1.0000000000000002
aF1
aF1.0000000000000002
aF0
aa(lp1767
Vgun_stock_panel_l_anim_space_switcher
p1768
a(lp1769
Vvisibility
p1770
aVtranslateX
p1771
aVtranslateY
p1772
aVtranslateZ
p1773
aVrotateX
p1774
aVrotateY
p1775
aVrotateZ
p1776
aVscaleX
p1777
aVscaleY
p1778
aVscaleZ
p1779
aVspace_world
p1780
aaI01
aF2.8421709430404007e-14
aF0
aF-2.8421709430404007e-14
aF-6.2120208622334324e-17
aF-0
aF7.9513867036587939e-16
aF0.99999999999999989
aF0.99999999999999989
aF0.99999999999999989
aF0
aa(lp1781
Vgun_stock_panel_r_anim_space_switcher
p1782
a(lp1783
Vvisibility
p1784
aVtranslateX
p1785
aVtranslateY
p1786
aVtranslateZ
p1787
aVrotateX
p1788
aVrotateY
p1789
aVrotateZ
p1790
aVscaleX
p1791
aVscaleY
p1792
aVscaleZ
p1793
aVspace_world
p1794
aaI01
aF2.8421709430404007e-14
aF0
aF2.8421709430404007e-14
aF0
aF1.9878466759146985e-16
aF7.9513867036587939e-16
aF0.99999999999999989
aF0.99999999999999989
aF0.99999999999999989
aF0
aa(lp1795
Vgun_stock_top_anim_space_switcher
p1796
a(lp1797
Vvisibility
p1798
aVtranslateX
p1799
aVtranslateY
p1800
aVtranslateZ
p1801
aVrotateX
p1802
aVrotateY
p1803
aVrotateZ
p1804
aVscaleX
p1805
aVscaleY
p1806
aVscaleZ
p1807
aVspace_world
p1808
aaI01
aF0
aF-1.3322676295501878e-15
aF0
aF-1.1181637552020177e-16
aF1.9878466759146975e-16
aF-7.9513867036587899e-16
aF1.0000000000000002
aF1
aF1.0000000000000002
aF0
aa(lp1809
Vik_elbow_l_anim_space_switcher
p1810
a(lp1811
Vvisibility
p1812
aVtranslateX
p1813
aVtranslateY
p1814
aVtranslateZ
p1815
aVrotateX
p1816
aVrotateY
p1817
aVrotateZ
p1818
aVscaleX
p1819
aVscaleY
p1820
aVscaleZ
p1821
aVspace_world
p1822
aVspace_body_anim
p1823
aVspace_chest_ik_anim
p1824
aaI01
aF0
aF0
aF0
aF0
aF0
aF0
aF1
aF1
aF1
aF0
aF0
aF0
aa(lp1825
Vik_elbow_r_anim_space_switcher
p1826
a(lp1827
Vvisibility
p1828
aVtranslateX
p1829
aVtranslateY
p1830
aVtranslateZ
p1831
aVrotateX
p1832
aVrotateY
p1833
aVrotateZ
p1834
aVscaleX
p1835
aVscaleY
p1836
aVscaleZ
p1837
aVspace_world
p1838
aVspace_body_anim
p1839
aVspace_chest_ik_anim
p1840
aaI01
aF0
aF0
aF0
aF0
aF0
aF0
aF1
aF1
aF1
aF0
aF0
aF0
aa(lp1841
Vik_foot_anim_l_space_switcher
p1842
a(lp1843
Vvisibility
p1844
aVtranslateX
p1845
aVtranslateY
p1846
aVtranslateZ
p1847
aVrotateX
p1848
aVrotateY
p1849
aVrotateZ
p1850
aVscaleX
p1851
aVscaleY
p1852
aVscaleZ
p1853
aVspace_world
p1854
aVspace_body_anim
p1855
aaI01
aF0
aF0
aF0
aF0
aF0
aF0
aF1
aF1
aF1
aF0
aF0
aa(lp1856
Vik_foot_anim_r_space_switcher
p1857
a(lp1858
Vvisibility
p1859
aVtranslateX
p1860
aVtranslateY
p1861
aVtranslateZ
p1862
aVrotateX
p1863
aVrotateY
p1864
aVrotateZ
p1865
aVscaleX
p1866
aVscaleY
p1867
aVscaleZ
p1868
aVspace_world
p1869
aVspace_body_anim
p1870
aaI01
aF0
aF0
aF0
aF0
aF0
aF0
aF1
aF1
aF1
aF0
aF0
aa(lp1871
Vik_wrist_l_anim_space_switcher
p1872
a(lp1873
Vvisibility
p1874
aVtranslateX
p1875
aVtranslateY
p1876
aVtranslateZ
p1877
aVrotateX
p1878
aVrotateY
p1879
aVrotateZ
p1880
aVscaleX
p1881
aVscaleY
p1882
aVscaleZ
p1883
aVspace_world
p1884
aVspace_body_anim
p1885
aVspace_head_fk_anim
p1886
aVspace_chest_ik_anim
p1887
aVspace_driver_gun_stock_bott
p1888
aaI01
aF0
aF0
aF0
aF0
aF0
aF0
aF1
aF1
aF1
aF0
aF0
aF0
aF0
aF0
aa(lp1889
Vik_wrist_r_anim_space_switcher
p1890
a(lp1891
Vvisibility
p1892
aVtranslateX
p1893
aVtranslateY
p1894
aVtranslateZ
p1895
aVrotateX
p1896
aVrotateY
p1897
aVrotateZ
p1898
aVscaleX
p1899
aVscaleY
p1900
aVscaleZ
p1901
aVspace_world
p1902
aVspace_body_anim
p1903
aVspace_head_fk_anim
p1904
aVspace_chest_ik_anim
p1905
aaI01
aF0
aF0
aF0
aF0
aF0
aF0
aF1
aF1
aF1
aF0
aF0
aF0
aF0
aa(lp1906
Vjaw_anim_space_switcher
p1907
a(lp1908
Vvisibility
p1909
aVtranslateX
p1910
aVtranslateY
p1911
aVtranslateZ
p1912
aVrotateX
p1913
aVrotateY
p1914
aVrotateZ
p1915
aVscaleX
p1916
aVscaleY
p1917
aVscaleZ
p1918
aVspace_world
p1919
aaI01
aF0
aF0
aF0
aF0
aF0
aF0
aF1
aF1
aF1
aF0
aa(lp1920
Vl_global_ik_anim_space_switcher
p1921
a(lp1922
Vvisibility
p1923
aVtranslateX
p1924
aVtranslateY
p1925
aVtranslateZ
p1926
aVrotateX
p1927
aVrotateY
p1928
aVrotateZ
p1929
aVscaleX
p1930
aVscaleY
p1931
aVscaleZ
p1932
aVspace_world
p1933
aaI01
aF0
aF0
aF0
aF0
aF0
aF0
aF1
aF1
aF1
aF0
aa(lp1934
Vmaster_anim_space_switcher
p1935
a(lp1936
Vvisibility
p1937
aVtranslateX
p1938
aVtranslateY
p1939
aVtranslateZ
p1940
aVrotateX
p1941
aVrotateY
p1942
aVrotateZ
p1943
aVscaleX
p1944
aVscaleY
p1945
aVscaleZ
p1946
aVspace_world
p1947
aaI01
aF0
aF0
aF0
aF0
aF0
aF0
aF1
aF1
aF1
aF0
aa(lp1948
Vr_global_ik_anim_space_switcher
p1949
a(lp1950
Vvisibility
p1951
aVtranslateX
p1952
aVtranslateY
p1953
aVtranslateZ
p1954
aVrotateX
p1955
aVrotateY
p1956
aVrotateZ
p1957
aVscaleX
p1958
aVscaleY
p1959
aVscaleZ
p1960
aVspace_world
p1961
aaI01
aF0
aF0
aF0
aF0
aF0
aF0
aF1
aF1
aF1
aF0
aa(lp1962
Vshotgun_anim_space_switcher
p1963
a(lp1964
Vvisibility
p1965
aVtranslateX
p1966
aVtranslateY
p1967
aVtranslateZ
p1968
aVrotateX
p1969
aVrotateY
p1970
aVrotateZ
p1971
aVscaleX
p1972
aVscaleY
p1973
aVscaleZ
p1974
aVspace_world
p1975
aVspace_driver_hand_l
p1976
aaI01
aF4.9960036108132044e-16
aF0
aF-2.8421709430404007e-14
aF0
aF-2.4848083448933725e-17
aF-1.4334238139603642e-15
aF1
aF1
aF1
aF0
aF0
aa(lp1977
Vshotgun_base_anim_space_switcher
p1978
a(lp1979
Vvisibility
p1980
aVtranslateX
p1981
aVtranslateY
p1982
aVtranslateZ
p1983
aVrotateX
p1984
aVrotateY
p1985
aVrotateZ
p1986
aVscaleX
p1987
aVscaleY
p1988
aVscaleZ
p1989
aVspace_world
p1990
aaI01
aF0
aF0
aF0
aF0
aF0
aF0
aF1
aF1
aF1
aF0
aa(lp1991
Vshotgun_clip_anim_space_switcher
p1992
a(lp1993
Vvisibility
p1994
aVtranslateX
p1995
aVtranslateY
p1996
aVtranslateZ
p1997
aVrotateX
p1998
aVrotateY
p1999
aVrotateZ
p2000
aVscaleX
p2001
aVscaleY
p2002
aVscaleZ
p2003
aVspace_world
p2004
aaI01
aF8.8817841970012523e-16
aF-3.5527136788005009e-15
aF0
aF-9.9392333795734924e-17
aF-0
aF-1.2045496703174517e-15
aF0.99999999999999989
aF0.99999999999999989
aF0.99999999999999989
aF0
aa(lp2005
Vsniper_can_arm_01_anim_space_switcher
p2006
a(lp2007
Vvisibility
p2008
aVtranslateX
p2009
aVtranslateY
p2010
aVtranslateZ
p2011
aVrotateX
p2012
aVrotateY
p2013
aVrotateZ
p2014
aVscaleX
p2015
aVscaleY
p2016
aVscaleZ
p2017
aVspace_world
p2018
aaI01
aF2.5243548967072378e-29
aF0
aF0
aF0
aF0
aF0
aF1
aF1
aF1
aF0
aa(lp2019
Vsniper_can_arm_02_anim_space_switcher
p2020
a(lp2021
Vvisibility
p2022
aVtranslateX
p2023
aVtranslateY
p2024
aVtranslateZ
p2025
aVrotateX
p2026
aVrotateY
p2027
aVrotateZ
p2028
aVscaleX
p2029
aVscaleY
p2030
aVscaleZ
p2031
aVspace_world
p2032
aaI01
aF0
aF0
aF7.1054273576010019e-15
aF-3.180554681463516e-15
aF-0
aF0
aF1
aF1.0000000000000002
aF1.0000000000000002
aF0
aa(lp2033
Vsniper_can_arm_03_anim_space_switcher
p2034
a(lp2035
Vvisibility
p2036
aVtranslateX
p2037
aVtranslateY
p2038
aVtranslateZ
p2039
aVrotateX
p2040
aVrotateY
p2041
aVrotateZ
p2042
aVscaleX
p2043
aVscaleY
p2044
aVscaleZ
p2045
aVspace_world
p2046
aVspace_driver_hand_l
p2047
aVspace_driver_gun
p2048
aaI01
aF0
aF-3.5527136788005009e-15
aF0
aF0
aF0
aF0
aF1
aF1
aF1
aF0
aF0
aF0
aa(lp2049
Vspine_01_space_switcher
p2050
a(lp2051
Vvisibility
p2052
aVtranslateX
p2053
aVtranslateY
p2054
aVtranslateZ
p2055
aVrotateX
p2056
aVrotateY
p2057
aVrotateZ
p2058
aVscaleX
p2059
aVscaleY
p2060
aVscaleZ
p2061
aVspace_world
p2062
aaI01
aF-1.4210854715202004e-14
aF-4.4408920985006262e-16
aF1.2621774483536189e-29
aF-1.7655625192200634e-31
aF-0
aF0
aF1
aF1
aF1
aF0
aa(lp2063
Vtrap_handle_anim_space_switcher
p2064
a(lp2065
Vvisibility
p2066
aVtranslateX
p2067
aVtranslateY
p2068
aVtranslateZ
p2069
aVrotateX
p2070
aVrotateY
p2071
aVrotateZ
p2072
aVscaleX
p2073
aVscaleY
p2074
aVscaleZ
p2075
aVspace_world
p2076
aVspace_driver_hand_l
p2077
aaI01
aF-7.1054273576010019e-15
aF1.4210854715202004e-14
aF0
aF0
aF-7.9513867036587919e-16
aF-2.3854160110976376e-15
aF1
aF1
aF1
aF0
aF0
aa(lp2078
Vtrap_ring_anim_space_switcher
p2079
a(lp2080
Vvisibility
p2081
aVtranslateX
p2082
aVtranslateY
p2083
aVtranslateZ
p2084
aVrotateX
p2085
aVrotateY
p2086
aVrotateZ
p2087
aVscaleX
p2088
aVscaleY
p2089
aVscaleZ
p2090
aVspace_world
p2091
aaI01
aF3.5527136788005009e-15
aF-1.4210854715202004e-14
aF-1.4210854715202004e-14
aF-3.1805546814635168e-15
aF-1.5902773407317584e-15
aF2.3854160110976376e-15
aF1
aF1
aF1
aF0
aa(lp2092
Vwrist_cover_anim_space_switcher
p2093
a(lp2094
Vvisibility
p2095
aVtranslateX
p2096
aVtranslateY
p2097
aVtranslateZ
p2098
aVrotateX
p2099
aVrotateY
p2100
aVrotateZ
p2101
aVscaleX
p2102
aVscaleY
p2103
aVscaleZ
p2104
aVspace_world
p2105
aaI01
aF-2.1316282072803006e-14
aF2.8421709430404007e-14
aF0
aF7.9513867036587939e-16
aF-9.9392333795734899e-17
aF0
aF1
aF0.99999999999999989
aF1
aF0
aa.