(lp1
(lp2
S'fk_clavicle_r_anim'
p3
a(lp4
VtranslateX
p5
aVtranslateY
p6
aVtranslateZ
p7
aVrotateX
p8
aVrotateY
p9
aVrotateZ
p10
aaF0
aF0
aF0
aF0
aF0
aF0
aa(lp11
S'fk_clavicle_l_anim'
p12
a(lp13
VtranslateX
p14
aVtranslateY
p15
aVtranslateZ
p16
aVrotateX
p17
aVrotateY
p18
aVrotateZ
p19
aaF0
aF0
aF0
aF0
aF0
aF0
aa(lp20
S'head_fk_anim'
p21
a(lp22
VtranslateX
p23
aVtranslateY
p24
aVtranslateZ
p25
aVrotateX
p26
aVrotateY
p27
aVrotateZ
p28
aVscaleX
p29
aVscaleY
p30
aVscaleZ
p31
aVfkOrientation
p32
aVblendOrient1
p33
aaF0
aF0
aF0
aF15.454967694845459
aF-6.8923001192696134
aF5.9868000211343899
aF1
aF1
aF1
aI0
aF1
aa(lp34
S'neck_01_fk_anim'
p35
a(lp36
VtranslateX
p37
aVtranslateY
p38
aVtranslateZ
p39
aVrotateX
p40
aVrotateY
p41
aVrotateZ
p42
aVscaleX
p43
aVscaleY
p44
aVscaleZ
p45
aVfkOrientation
p46
aVblendOrient1
p47
aaF5.6843418860808015e-14
aF0
aF0
aF11.823514995295181
aF23.165541543011209
aF-6.7383855048804255
aF0.99999999999999978
aF1
aF1
aI0
aF1
aa(lp48
S'spine_01_anim'
p49
a(lp50
Vlength
p51
aVtranslateY
p52
aVtranslateZ
p53
aVrotateX
p54
aVrotateY
p55
aVrotateZ
p56
aVblendOrient1
p57
aaF0
aF0
aF0
aF2.6877218101568641
aF6.3548988722556974
aF-10.025864404325858
aF1
aa(lp58
S'spine_02_anim'
p59
a(lp60
Vlength
p61
aVtranslateY
p62
aVtranslateZ
p63
aVrotateX
p64
aVrotateY
p65
aVrotateZ
p66
aVblendOrient1
p67
aaF0
aF0
aF0
aF7.4102039025784592
aF3.2266322292016407
aF-8.0165097289319895
aF1
aa(lp68
S'spine_03_anim'
p69
a(lp70
Vlength
p71
aVtranslateY
p72
aVtranslateZ
p73
aVrotateX
p74
aVrotateY
p75
aVrotateZ
p76
aVblendOrient1
p77
aaF0
aF0
aF0
aF7.1880736317393792
aF3.9387400926802645
aF-7.9339541577192376
aF1
aa(lp78
S'mid_ik_anim'
p79
a(lp80
VtranslateX
p81
aVtranslateY
p82
aVtranslateZ
p83
aVrotateX
p84
aVrotateY
p85
aVrotateZ
p86
aVblendParent1
p87
aaF-0.30248440810819943
aF-3.3526200890941951
aF-1.4699387861379449
aF9.8163389808438168
aF9.9845270437094626
aF-5.9415447091991593
aF1
aa(lp88
S'chest_ik_anim'
p89
a(lp90
VtranslateX
p91
aVtranslateY
p92
aVtranslateZ
p93
aVrotateX
p94
aVrotateY
p95
aVrotateZ
p96
aVstretch
p97
aVsquash
p98
aVtwist_amount
p99
aVautoSpine
p100
aVrotationInfluence
p101
aaF-0.17937004078552832
aF-7.7344616121329182
aF-0.54751072419408331
aF-25.428852543454173
aF12.608764503660272
aF-18.63194564808343
aF0
aF0
aF1
aF0
aF0.25
aa(lp102
S'body_anim'
p103
a(lp104
VtranslateX
p105
aVtranslateY
p106
aVtranslateZ
p107
aVrotateX
p108
aVrotateY
p109
aVrotateZ
p110
aVblendParent1
p111
aaF-15.237579817872366
aF-1.6921002252054649
aF-11.760333183643196
aF-26.300208343333797
aF-8.9021587520649401
aF5.7999202417160225
aF1
aa(lp112
S'hip_anim'
p113
a(lp114
VtranslateX
p115
aVtranslateY
p116
aVtranslateZ
p117
aVrotateX
p118
aVrotateY
p119
aVrotateZ
p120
aVlCalfTwistCtrlVis
p121
aVrCalfTwistCtrlVis
p122
aVautoHips
p123
aaF0
aF0
aF1.2621774483536189e-29
aF3.7272125173400562e-17
aF-2.5444437451708134e-14
aF4.9696166897867437e-17
aI00
aI00
aF0
aa(lp124
S'clavicle_l_anim'
p125
a(lp126
VtranslateX
p127
aVtranslateY
p128
aVtranslateZ
p129
aVautoShoulders
p130
aVblendPoint1
p131
aaF-10.577801449107023
aF-2.9264811236746722
aF7.3353184498276169
aF0.23391779396462017
aF1
aa(lp132
S'clavicle_r_anim'
p133
a(lp134
VtranslateX
p135
aVtranslateY
p136
aVtranslateZ
p137
aVautoShoulders
p138
aVblendPoint1
p139
aaF-3.2814295416601538
aF-3.0777813887156307
aF12.128547061773517
aF0.19117585848074922
aF1
aa(lp140
S'fk_arm_l_anim'
p141
a(lp142
VtranslateX
p143
aVtranslateY
p144
aVtranslateZ
p145
aVrotateX
p146
aVrotateY
p147
aVrotateZ
p148
aVblendOrient1
p149
aaF0
aF0
aF0
aF3.1327575132078986
aF76.317914517296217
aF16.391066699832955
aF0
aa(lp150
S'fk_arm_r_anim'
p151
a(lp152
VtranslateX
p153
aVtranslateY
p154
aVtranslateZ
p155
aVrotateX
p156
aVrotateY
p157
aVrotateZ
p158
aVblendOrient1
p159
aaF0
aF0
aF0
aF22.679515645095599
aF58.170020711758276
aF-41.933051509525988
aF1
aa(lp160
S'fk_elbow_l_anim'
p161
a(lp162
VtranslateX
p163
aVtranslateY
p164
aVtranslateZ
p165
aVrotateX
p166
aVrotateY
p167
aVrotateZ
p168
aVblendOrient1
p169
aaF0
aF0
aF0
aF0.30393959466910719
aF0.21521692669537582
aF-104.69840350828024
aF0
aa(lp170
S'fk_elbow_r_anim'
p171
a(lp172
VtranslateX
p173
aVtranslateY
p174
aVtranslateZ
p175
aVrotateX
p176
aVrotateY
p177
aVrotateZ
p178
aVblendOrient1
p179
aaF0
aF0
aF0
aF36.939380645751953
aF-27.89997673034668
aF-101.08219146728516
aF1
aa(lp180
S'fk_wrist_l_anim'
p181
a(lp182
VtranslateX
p183
aVtranslateY
p184
aVtranslateZ
p185
aVrotateX
p186
aVrotateY
p187
aVrotateZ
p188
aVblendOrient1
p189
aaF0
aF0
aF0
aF-75.798406629076467
aF-23.712456245371623
aF-5.3863236187962142
aF0
aa(lp190
S'fk_wrist_r_anim'
p191
a(lp192
VtranslateX
p193
aVtranslateY
p194
aVtranslateZ
p195
aVrotateX
p196
aVrotateY
p197
aVrotateZ
p198
aVblendOrient1
p199
aaF0
aF0
aF0
aF-71.908111572265625
aF-8.9827442169189471
aF-14.362060546875002
aF1
aa(lp200
S'ik_elbow_l_anim'
p201
a(lp202
VtranslateX
p203
aVtranslateY
p204
aVtranslateZ
p205
aVblendPoint1
p206
aaF16.228680152711277
aF-67.811604511614888
aF-23.344558205799501
aF1
aa(lp207
S'ik_elbow_r_anim'
p208
a(lp209
VtranslateX
p210
aVtranslateY
p211
aVtranslateZ
p212
aVblendPoint1
p213
aaF5.216286670618814
aF36.809768111954071
aF-14.057293093125608
aF1
aa(lp214
S'ik_wrist_l_anim'
p215
a(lp216
VtranslateX
p217
aVtranslateY
p218
aVtranslateZ
p219
aVrotateX
p220
aVrotateY
p221
aVrotateZ
p222
aVstretch
p223
aVsquash
p224
aVstretchBias
p225
aVside
p226
aVmid_bend
p227
aVmid_swivel
p228
aVtip_pivot
p229
aVtip_swivel
p230
aaF-89.885052496141554
aF-50.451613482926334
aF-40.212480273939732
aF6.2757722737130557
aF174.84972578955521
aF30.462045314284559
aF0
aF0
aF0
aF0
aF0
aF0
aF0
aF0
aa(lp231
S'ik_wrist_r_anim'
p232
a(lp233
VtranslateX
p234
aVtranslateY
p235
aVtranslateZ
p236
aVrotateX
p237
aVrotateY
p238
aVrotateZ
p239
aVstretch
p240
aVsquash
p241
aVstretchBias
p242
aVside
p243
aVmid_bend
p244
aVmid_swivel
p245
aVtip_pivot
p246
aVtip_swivel
p247
aVblendParent1
p248
aaF40.619155857702253
aF6.3888683268673301
aF-23.493636308598305
aF-68.569297476254818
aF-30.221676526338577
aF85.004187911504772
aF0
aF0
aF0
aF0
aF0
aF0
aF0
aF0
aF1
aa(lp249
S'fk_thigh_l_anim'
p250
a(lp251
VrotateX
p252
aVrotateY
p253
aVrotateZ
p254
aVblendOrient1
p255
aaF23.016190852830483
aF-39.393358363638086
aF41.831600819332721
aF1
aa(lp256
S'fk_thigh_r_anim'
p257
a(lp258
VrotateX
p259
aVrotateY
p260
aVrotateZ
p261
aVblendOrient1
p262
aaF0.79131530020035445
aF-33.758612209035554
aF56.914437232444861
aF1
aa(lp263
S'fk_calf_l_anim'
p264
a(lp265
VrotateX
p266
aVrotateY
p267
aVrotateZ
p268
aVblendOrient1
p269
aaF2.1932288135144886
aF-5.2883250302919347
aF-38.694636264330406
aF1
aa(lp270
S'fk_calf_r_anim'
p271
a(lp272
VrotateX
p273
aVrotateY
p274
aVrotateZ
p275
aVblendOrient1
p276
aaF-3.2918210342125409
aF6.8404014056227442
aF-116.72082062914269
aF1
aa(lp277
S'fk_foot_l_anim'
p278
a(lp279
VrotateX
p280
aVrotateY
p281
aVrotateZ
p282
aVblendOrient1
p283
aaF-0.98454454485383913
aF-0.34102475902557361
aF-22.879810869705366
aF1
aa(lp284
S'fk_foot_r_anim'
p285
a(lp286
VrotateX
p287
aVrotateY
p288
aVrotateZ
p289
aVblendOrient1
p290
aaF-0.29821145408485172
aF-1.637352646214562
aF-7.0529952877639035
aF1
aa(lp291
S'fk_ball_l_anim'
p292
a(lp293
VrotateX
p294
aVrotateY
p295
aVrotateZ
p296
aVblendOrient1
p297
aaF0.066367857158183885
aF-0.0041301725432047924
aF-0.47063583135601955
aF1
aa(lp298
S'fk_ball_r_anim'
p299
a(lp300
VrotateX
p301
aVrotateY
p302
aVrotateZ
p303
aVblendOrient1
p304
aaF-0.21203905344009449
aF0.00269722985101569
aF1.402016162872308
aF1
aa(lp305
S'ik_foot_anim_l'
p306
a(lp307
VtranslateX
p308
aVtranslateY
p309
aVtranslateZ
p310
aVrotateX
p311
aVrotateY
p312
aVrotateZ
p313
aVknee_twist
p314
aVstretch
p315
aVsquash
p316
aVtoeCtrlVis
p317
aVstretchBias
p318
aVblendPoint1
p319
aVblendOrient1
p320
aaF-2.3922876731644998
aF-79.641282196980612
aF21.172979344050077
aF-3.1020485739123225
aF-22.194418075965096
aF-22.378674112161431
aF-47
aF0
aF0
aI00
aF0
aF1
aF1
aa(lp321
S'ik_foot_anim_r'
p322
a(lp323
VtranslateX
p324
aVtranslateY
p325
aVtranslateZ
p326
aVrotateX
p327
aVrotateY
p328
aVrotateZ
p329
aVknee_twist
p330
aVstretch
p331
aVsquash
p332
aVtoeCtrlVis
p333
aVstretchBias
p334
aVblendPoint1
p335
aVblendOrient1
p336
aaF24.685949063082234
aF9.7833312164497386
aF27.568614869698635
aF65.498026961544724
aF6.3832596040369189
aF-103.80260365764316
aF107
aF0
aF0
aI00
aF0
aF1
aF1
aa(lp337
S'heel_ctrl_l'
p338
a(lp339
VrotateX
p340
aVrotateY
p341
aVrotateZ
p342
aVheelPivot
p343
aVballPivot
p344
aaF-7.3624871259190632e-14
aF-2.5842006786891074e-14
aF0
aF0
aF0
aa(lp345
S'heel_ctrl_r'
p346
a(lp347
VrotateX
p348
aVrotateY
p349
aVrotateZ
p350
aVheelPivot
p351
aVballPivot
p352
aaF2.3369622483722168e-14
aF6.3611093629270335e-15
aF0
aF0
aF0
aa(lp353
S'toe_wiggle_ctrl_l'
p354
a(lp355
VrotateX
p356
aVrotateY
p357
aVrotateZ
p358
aaF-3.178382456695932e-15
aF-6.3657683785737075e-15
aF-3.1805546814635183e-15
aa(lp359
S'toe_wiggle_ctrl_r'
p360
a(lp361
VrotateX
p362
aVrotateY
p363
aVrotateZ
p364
aaF-3.1794685459000318e-15
aF6.361109362927032e-15
aF-3.1805546814635187e-15
aa(lp365
S'toe_tip_ctrl_l'
p366
a(lp367
VrotateX
p368
aVrotateY
p369
aVrotateZ
p370
aaF0
aF1.5530052155555332e-18
aF6.3611093629270335e-15
aa(lp371
S'toe_tip_ctrl_r'
p372
a(lp373
VrotateX
p374
aVrotateY
p375
aVrotateZ
p376
aaF0
aF-6.361109362927032e-15
aF3.1805546814635195e-15
aa(lp377
S'master_anim'
p378
a(lp379
VtranslateX
p380
aVtranslateY
p381
aVtranslateZ
p382
aVrotateX
p383
aVrotateY
p384
aVrotateZ
p385
aaF0
aF0
aF0
aF0
aF0
aF0
aa(lp386
S'offset_anim'
p387
a(lp388
VtranslateX
p389
aVtranslateY
p390
aVtranslateZ
p391
aVrotateX
p392
aVrotateY
p393
aVrotateZ
p394
aaF0
aF0
aF0
aF0
aF0
aF0
aa(lp395
S'root_anim'
p396
a(lp397
VtranslateX
p398
aVtranslateY
p399
aVtranslateZ
p400
aVrotateX
p401
aVrotateY
p402
aVrotateZ
p403
aaF0
aF0
aF0
aF0
aF0
aF0
aa(lp404
S'upperarm_l_twist_anim'
p405
a(lp406
VtranslateX
p407
aVtranslateY
p408
aVtranslateZ
p409
aVrotateX
p410
aVrotateY
p411
aVrotateZ
p412
aVscaleX
p413
aVscaleY
p414
aVscaleZ
p415
aaF3.5527136788005009e-15
aF-1.7763568394002505e-15
aF0
aF1.987846675914698e-16
aF-4.9696166897867449e-17
aF1.2424041724466862e-17
aF1
aF1
aF1
aa(lp416
S'upperarm_l_twist_2_anim'
p417
a(lp418
VtranslateX
p419
aVtranslateY
p420
aVtranslateZ
p421
aVrotateX
p422
aVrotateY
p423
aVrotateZ
p424
aVscaleX
p425
aVscaleY
p426
aVscaleZ
p427
aaF7.1054273576010019e-15
aF0
aF2.8421709430404007e-14
aF1.987846675914698e-16
aF-4.9696166897867449e-17
aF1.2424041724466862e-17
aF1
aF1
aF1
aa(lp428
S'upperarm_r_twist_anim'
p429
a(lp430
VtranslateX
p431
aVtranslateY
p432
aVtranslateZ
p433
aVrotateX
p434
aVrotateY
p435
aVrotateZ
p436
aVscaleX
p437
aVscaleY
p438
aVscaleZ
p439
aaF3.5527136788005009e-15
aF1.7763568394002505e-15
aF-2.8421709430404007e-14
aF-1.9878466759146975e-16
aF2.4848083448933725e-17
aF-1.5530052155583578e-18
aF1
aF1.0000000000000002
aF1.0000000000000002
aa(lp440
S'upperarm_r_twist_2_anim'
p441
a(lp442
VtranslateX
p443
aVtranslateY
p444
aVtranslateZ
p445
aVrotateX
p446
aVrotateY
p447
aVrotateZ
p448
aVscaleX
p449
aVscaleY
p450
aVscaleZ
p451
aaF0
aF-1.7763568394002505e-15
aF-2.8421709430404007e-14
aF-1.9878466759146975e-16
aF2.4848083448933725e-17
aF-1.5530052155583578e-18
aF1
aF1.0000000000000002
aF1.0000000000000002
aa(lp452
S'lowerarm_l_twist_anim'
p453
a(lp454
VtranslateX
p455
aVtranslateY
p456
aVtranslateZ
p457
aVrotateX
p458
aVrotateY
p459
aVrotateZ
p460
aaF0
aF0
aF0
aF0
aF0
aF0
aa(lp461
S'lowerarm_r_twist_anim'
p462
a(lp463
VtranslateX
p464
aVtranslateY
p465
aVtranslateZ
p466
aVrotateX
p467
aVrotateY
p468
aVrotateZ
p469
aaF0
aF0
aF0
aF0
aF0
aF0
aa(lp470
S'l_thigh_twist_01_anim'
p471
a(lp472
VtranslateX
p473
aVtranslateY
p474
aVtranslateZ
p475
aVrotateX
p476
aVrotateY
p477
aVrotateZ
p478
aVscaleX
p479
aVscaleY
p480
aVscaleZ
p481
aaF-1.4210854715202004e-14
aF-4.4408920985006262e-16
aF-3.5527136788005009e-15
aF-1.1181637552020177e-16
aF-0
aF0
aF1.0000000000000002
aF1
aF1.0000000000000002
aa(lp482
S'r_thigh_twist_01_anim'
p483
a(lp484
VtranslateX
p485
aVtranslateY
p486
aVtranslateZ
p487
aVrotateX
p488
aVrotateY
p489
aVrotateZ
p490
aVscaleX
p491
aVscaleY
p492
aVscaleZ
p493
aaF1.4210854715202004e-14
aF8.8817841970012523e-16
aF3.5527136788005009e-15
aF1.7511686810636043e-14
aF-1.1927080055488186e-14
aF-2.4848083448933718e-15
aF1.0000000000000002
aF1
aF1.0000000000000002
aa(lp494
S'pinky_finger_fk_ctrl_1_l'
p495
a(lp496
VtranslateX
p497
aVtranslateY
p498
aVtranslateZ
p499
aVrotateX
p500
aVrotateY
p501
aVrotateZ
p502
aVsticky
p503
aVblendOrient1
p504
aaF0.019498285388217761
aF0.57465450232680537
aF-0.012465293119438735
aF7.7630848118714582
aF3.3222092666701148
aF52.565135361419408
aF0
aF0
aa(lp505
S'pinky_finger_fk_ctrl_1_r'
p506
a(lp507
VtranslateX
p508
aVtranslateY
p509
aVtranslateZ
p510
aVrotateX
p511
aVrotateY
p512
aVrotateZ
p513
aVsticky
p514
aVblendOrient1
p515
aaF0
aF0
aF0
aF-12.038537149107768
aF-15.346512905441463
aF61.069669371678827
aF0
aF0
aa(lp516
S'pinky_finger_fk_ctrl_2_l'
p517
a(lp518
VtranslateX
p519
aVtranslateY
p520
aVtranslateZ
p521
aVrotateX
p522
aVrotateY
p523
aVrotateZ
p524
aVblendOrient1
p525
aaF0
aF0
aF0
aF-5.4671137340668645
aF4.8045469855154881
aF-8.7200932187199989
aF0
aa(lp526
S'pinky_finger_fk_ctrl_2_r'
p527
a(lp528
VtranslateX
p529
aVtranslateY
p530
aVtranslateZ
p531
aVrotateX
p532
aVrotateY
p533
aVrotateZ
p534
aVblendOrient1
p535
aaF0
aF0
aF0
aF4.092621231082858
aF-10.906328913024248
aF36.685285091803422
aF0
aa(lp536
S'pinky_finger_fk_ctrl_3_l'
p537
a(lp538
VtranslateX
p539
aVtranslateY
p540
aVtranslateZ
p541
aVrotateX
p542
aVrotateY
p543
aVrotateZ
p544
aVblendOrient1
p545
aaF0
aF0
aF0
aF-19.737430918257342
aF4.8226348587712851
aF17.992099408405753
aF0
aa(lp546
S'pinky_finger_fk_ctrl_3_r'
p547
a(lp548
VtranslateX
p549
aVtranslateY
p550
aVtranslateZ
p551
aVrotateX
p552
aVrotateY
p553
aVrotateZ
p554
aVblendOrient1
p555
aaF0
aF0
aF0
aF4.0918183326721964
aF-10.42243957519522
aF70.588310241699233
aF0
aa(lp556
S'ring_finger_fk_ctrl_1_l'
p557
a(lp558
VtranslateX
p559
aVtranslateY
p560
aVtranslateZ
p561
aVrotateX
p562
aVrotateY
p563
aVrotateZ
p564
aVsticky
p565
aVblendOrient1
p566
aaF-0.0083448964791337978
aF0.55350502390110901
aF-0.15596767270523595
aF-2.5563661393476287
aF8.9682840233567838
aF49.652889658415262
aF0
aF0
aa(lp567
S'ring_finger_fk_ctrl_1_r'
p568
a(lp569
VtranslateX
p570
aVtranslateY
p571
aVtranslateZ
p572
aVrotateX
p573
aVrotateY
p574
aVrotateZ
p575
aVsticky
p576
aVblendOrient1
p577
aaF0
aF0
aF0
aF-1.8761689618070569
aF-7.6148050121739645
aF58.806392729110243
aF0
aF0
aa(lp578
S'ring_finger_fk_ctrl_2_l'
p579
a(lp580
VtranslateX
p581
aVtranslateY
p582
aVtranslateZ
p583
aVrotateX
p584
aVrotateY
p585
aVrotateZ
p586
aVblendOrient1
p587
aaF0
aF0
aF0
aF-6.0546636127617122
aF-2.4641171730251181
aF9.9056048993928734
aF0
aa(lp588
S'ring_finger_fk_ctrl_2_r'
p589
a(lp590
VtranslateX
p591
aVtranslateY
p592
aVtranslateZ
p593
aVrotateX
p594
aVrotateY
p595
aVrotateZ
p596
aVblendOrient1
p597
aaF0
aF0
aF0
aF1.2678331474032762
aF0.84626236834742452
aF58.15179294196863
aF0
aa(lp598
S'ring_finger_fk_ctrl_3_l'
p599
a(lp600
VtranslateX
p601
aVtranslateY
p602
aVtranslateZ
p603
aVrotateX
p604
aVrotateY
p605
aVrotateZ
p606
aVblendOrient1
p607
aaF0
aF0
aF0
aF0
aF0
aF21.019213376385007
aF0
aa(lp608
S'ring_finger_fk_ctrl_3_r'
p609
a(lp610
VtranslateX
p611
aVtranslateY
p612
aVtranslateZ
p613
aVrotateX
p614
aVrotateY
p615
aVrotateZ
p616
aVblendOrient1
p617
aaF0
aF0
aF0
aF4.968184787457993
aF1.9827603811766792
aF51.810856189638557
aF0
aa(lp618
S'middle_finger_fk_ctrl_1_l'
p619
a(lp620
VtranslateX
p621
aVtranslateY
p622
aVtranslateZ
p623
aVrotateX
p624
aVrotateY
p625
aVrotateZ
p626
aVsticky
p627
aVblendOrient1
p628
aaF-0.047150666871850135
aF0.53850382638743388
aF-0.19635123450015501
aF-10.031814921723624
aF3.08896093820097
aF53.348086341326045
aF0
aF0
aa(lp629
S'middle_finger_fk_ctrl_1_r'
p630
a(lp631
VtranslateX
p632
aVtranslateY
p633
aVtranslateZ
p634
aVrotateX
p635
aVrotateY
p636
aVrotateZ
p637
aVsticky
p638
aVblendOrient1
p639
aaF0
aF0
aF0
aF-1.5576726256467806
aF-7.4905555396410568
aF71.02870484263309
aF0
aF0
aa(lp640
S'middle_finger_fk_ctrl_2_l'
p641
a(lp642
VtranslateX
p643
aVtranslateY
p644
aVtranslateZ
p645
aVrotateX
p646
aVrotateY
p647
aVrotateZ
p648
aVblendOrient1
p649
aaF0
aF0
aF0
aF18.43137263865426
aF6.9129903851227015
aF19.314189521770786
aF0
aa(lp650
S'middle_finger_fk_ctrl_2_r'
p651
a(lp652
VtranslateX
p653
aVtranslateY
p654
aVtranslateZ
p655
aVrotateX
p656
aVrotateY
p657
aVrotateZ
p658
aVblendOrient1
p659
aaF0
aF0
aF0
aF3.1205578674787855
aF-6.3745989768269888
aF87.623761326050996
aF0
aa(lp660
S'middle_finger_fk_ctrl_3_l'
p661
a(lp662
VtranslateX
p663
aVtranslateY
p664
aVtranslateZ
p665
aVrotateX
p666
aVrotateY
p667
aVrotateZ
p668
aVblendOrient1
p669
aaF0
aF0
aF0
aF-33.415324841912494
aF3.6018526705548375
aF18.63023015650424
aF0
aa(lp670
S'middle_finger_fk_ctrl_3_r'
p671
a(lp672
VtranslateX
p673
aVtranslateY
p674
aVtranslateZ
p675
aVrotateX
p676
aVrotateY
p677
aVrotateZ
p678
aVblendOrient1
p679
aaF0
aF0
aF0
aF3.4957659244537962
aF-2.3556907176972621
aF56.61675643920875
aF0
aa(lp680
S'index_finger_fk_ctrl_1_l'
p681
a(lp682
VtranslateX
p683
aVtranslateY
p684
aVtranslateZ
p685
aVrotateX
p686
aVrotateY
p687
aVrotateZ
p688
aVsticky
p689
aVblendOrient1
p690
aaF0
aF0
aF0
aF-27.470599771115058
aF4.1163992310990478
aF21.259937763283922
aF0
aF0
aa(lp691
S'index_finger_fk_ctrl_1_r'
p692
a(lp693
VtranslateX
p694
aVtranslateY
p695
aVtranslateZ
p696
aVrotateX
p697
aVrotateY
p698
aVrotateZ
p699
aVsticky
p700
aVblendOrient1
p701
aaF0
aF0
aF0
aF-3.3387655848653877
aF-6.0928954074903556
aF28.807340222052282
aF0
aF0
aa(lp702
S'index_finger_fk_ctrl_2_l'
p703
a(lp704
VtranslateX
p705
aVtranslateY
p706
aVtranslateZ
p707
aVrotateX
p708
aVrotateY
p709
aVrotateZ
p710
aVblendOrient1
p711
aaF0
aF0
aF0
aF-16.393347263175347
aF-5.3813586539425184
aF28.945357810899054
aF0
aa(lp712
S'index_finger_fk_ctrl_2_r'
p713
a(lp714
VtranslateX
p715
aVtranslateY
p716
aVtranslateZ
p717
aVrotateX
p718
aVrotateY
p719
aVrotateZ
p720
aVblendOrient1
p721
aaF0
aF0
aF0
aF11.878195406430866
aF10.67039299033722
aF79.2649151528354
aF0
aa(lp722
S'index_finger_fk_ctrl_3_l'
p723
a(lp724
VtranslateX
p725
aVtranslateY
p726
aVtranslateZ
p727
aVrotateX
p728
aVrotateY
p729
aVrotateZ
p730
aVblendOrient1
p731
aaF0
aF0
aF0
aF0
aF0
aF22.059717254845935
aF0
aa(lp732
S'index_finger_fk_ctrl_3_r'
p733
a(lp734
VtranslateX
p735
aVtranslateY
p736
aVtranslateZ
p737
aVrotateX
p738
aVrotateY
p739
aVrotateZ
p740
aVblendOrient1
p741
aaF0
aF0
aF0
aF3.8930346965788418
aF12.801635742187861
aF55.805820465087848
aF0
aa(lp742
S'thumb_finger_fk_ctrl_1_l'
p743
a(lp744
VtranslateX
p745
aVtranslateY
p746
aVtranslateZ
p747
aVrotateX
p748
aVrotateY
p749
aVrotateZ
p750
aVsticky
p751
aVblendOrient1
p752
aaF0
aF0
aF0
aF15.254731217907235
aF1.9921205759110532
aF-21.661200833422892
aF0
aF0
aa(lp753
S'thumb_finger_fk_ctrl_1_r'
p754
a(lp755
VtranslateX
p756
aVtranslateY
p757
aVtranslateZ
p758
aVrotateX
p759
aVrotateY
p760
aVrotateZ
p761
aVsticky
p762
aVblendOrient1
p763
aaF0
aF0
aF0
aF13.842244727365063
aF26.503604187545172
aF43.077083507749407
aF0
aF0
aa(lp764
S'thumb_finger_fk_ctrl_2_l'
p765
a(lp766
VtranslateX
p767
aVtranslateY
p768
aVtranslateZ
p769
aVrotateX
p770
aVrotateY
p771
aVrotateZ
p772
aVblendOrient1
p773
aaF0
aF0
aF0
aF0
aF0
aF0
aF0
aa(lp774
S'thumb_finger_fk_ctrl_2_r'
p775
a(lp776
VtranslateX
p777
aVtranslateY
p778
aVtranslateZ
p779
aVrotateX
p780
aVrotateY
p781
aVrotateZ
p782
aVblendOrient1
p783
aaF0
aF0
aF0
aF-1.7716493101714719
aF4.5295816409483507
aF-4.4364118677265898
aF0
aa(lp784
S'thumb_finger_fk_ctrl_3_l'
p785
a(lp786
VtranslateX
p787
aVtranslateY
p788
aVtranslateZ
p789
aVrotateX
p790
aVrotateY
p791
aVrotateZ
p792
aVblendOrient1
p793
aaF0
aF0
aF0
aF-6.997906662654545
aF-2.4044252941487776
aF2.3033591963087394
aF0
aa(lp794
S'thumb_finger_fk_ctrl_3_r'
p795
a(lp796
VtranslateX
p797
aVtranslateY
p798
aVtranslateZ
p799
aVrotateX
p800
aVrotateY
p801
aVrotateZ
p802
aVblendOrient1
p803
aaF0
aF0
aF0
aF9.6091172257146707e-06
aF-4.3910623032876708e-08
aF55.176322325550096
aF0
aa(lp804
S'index_l_ik_anim'
p805
a(lp806
VtranslateX
p807
aVtranslateY
p808
aVtranslateZ
p809
aVrotateX
p810
aVrotateY
p811
aVrotateZ
p812
aVpoleVectorVis
p813
aaF0
aF0
aF0
aF0
aF0
aF0
aF0
aa(lp814
S'index_r_ik_anim'
p815
a(lp816
VtranslateX
p817
aVtranslateY
p818
aVtranslateZ
p819
aVrotateX
p820
aVrotateY
p821
aVrotateZ
p822
aVpoleVectorVis
p823
aaF0
aF0
aF0
aF0
aF0
aF0
aF0
aa(lp824
S'middle_l_ik_anim'
p825
a(lp826
VtranslateX
p827
aVtranslateY
p828
aVtranslateZ
p829
aVrotateX
p830
aVrotateY
p831
aVrotateZ
p832
aVpoleVectorVis
p833
aaF0
aF0
aF0
aF0
aF0
aF0
aF0
aa(lp834
S'middle_r_ik_anim'
p835
a(lp836
VtranslateX
p837
aVtranslateY
p838
aVtranslateZ
p839
aVrotateX
p840
aVrotateY
p841
aVrotateZ
p842
aVpoleVectorVis
p843
aaF0
aF0
aF0
aF0
aF0
aF0
aF0
aa(lp844
S'ring_l_ik_anim'
p845
a(lp846
VtranslateX
p847
aVtranslateY
p848
aVtranslateZ
p849
aVrotateX
p850
aVrotateY
p851
aVrotateZ
p852
aVpoleVectorVis
p853
aaF0
aF0
aF0
aF0
aF0
aF0
aF0
aa(lp854
S'ring_r_ik_anim'
p855
a(lp856
VtranslateX
p857
aVtranslateY
p858
aVtranslateZ
p859
aVrotateX
p860
aVrotateY
p861
aVrotateZ
p862
aVpoleVectorVis
p863
aaF0
aF0
aF0
aF0
aF0
aF0
aF0
aa(lp864
S'pinky_l_ik_anim'
p865
a(lp866
VtranslateX
p867
aVtranslateY
p868
aVtranslateZ
p869
aVrotateX
p870
aVrotateY
p871
aVrotateZ
p872
aVpoleVectorVis
p873
aaF0
aF0
aF0
aF0
aF0
aF0
aF0
aa(lp874
S'pinky_r_ik_anim'
p875
a(lp876
VtranslateX
p877
aVtranslateY
p878
aVtranslateZ
p879
aVrotateX
p880
aVrotateY
p881
aVrotateZ
p882
aVpoleVectorVis
p883
aaF0
aF0
aF0
aF0
aF0
aF0
aF0
aa(lp884
S'thumb_l_ik_anim'
p885
a(lp886
VtranslateX
p887
aVtranslateY
p888
aVtranslateZ
p889
aVrotateX
p890
aVrotateY
p891
aVrotateZ
p892
aVpoleVectorVis
p893
aaF0
aF0
aF0
aF0
aF0
aF0
aF0
aa(lp894
S'thumb_r_ik_anim'
p895
a(lp896
VtranslateX
p897
aVtranslateY
p898
aVtranslateZ
p899
aVrotateX
p900
aVrotateY
p901
aVrotateZ
p902
aVpoleVectorVis
p903
aaF0
aF0
aF0
aF0
aF0
aF0
aF0
aa(lp904
S'index_l_poleVector'
p905
a(lp906
VtranslateX
p907
aVtranslateY
p908
aVtranslateZ
p909
aVrotateX
p910
aVrotateY
p911
aVrotateZ
p912
aaF0
aF0
aF0
aF0
aF0
aF0
aa(lp913
S'index_r_poleVector'
p914
a(lp915
VtranslateX
p916
aVtranslateY
p917
aVtranslateZ
p918
aVrotateX
p919
aVrotateY
p920
aVrotateZ
p921
aaF0
aF0
aF0
aF0
aF0
aF0
aa(lp922
S'middle_l_poleVector'
p923
a(lp924
VtranslateX
p925
aVtranslateY
p926
aVtranslateZ
p927
aVrotateX
p928
aVrotateY
p929
aVrotateZ
p930
aaF0
aF0
aF0
aF0
aF0
aF0
aa(lp931
S'middle_r_poleVector'
p932
a(lp933
VtranslateX
p934
aVtranslateY
p935
aVtranslateZ
p936
aVrotateX
p937
aVrotateY
p938
aVrotateZ
p939
aaF0
aF0
aF0
aF0
aF0
aF0
aa(lp940
S'ring_l_poleVector'
p941
a(lp942
VtranslateX
p943
aVtranslateY
p944
aVtranslateZ
p945
aVrotateX
p946
aVrotateY
p947
aVrotateZ
p948
aaF0
aF0
aF0
aF0
aF0
aF0
aa(lp949
S'ring_r_poleVector'
p950
a(lp951
VtranslateX
p952
aVtranslateY
p953
aVtranslateZ
p954
aVrotateX
p955
aVrotateY
p956
aVrotateZ
p957
aaF0
aF0
aF0
aF0
aF0
aF0
aa(lp958
S'pinky_l_poleVector'
p959
a(lp960
VtranslateX
p961
aVtranslateY
p962
aVtranslateZ
p963
aVrotateX
p964
aVrotateY
p965
aVrotateZ
p966
aaF0
aF0
aF0
aF0
aF0
aF0
aa(lp967
S'pinky_r_poleVector'
p968
a(lp969
VtranslateX
p970
aVtranslateY
p971
aVtranslateZ
p972
aVrotateX
p973
aVrotateY
p974
aVrotateZ
p975
aaF0
aF0
aF0
aF0
aF0
aF0
aa(lp976
S'thumb_l_poleVector'
p977
a(lp978
VtranslateX
p979
aVtranslateY
p980
aVtranslateZ
p981
aVrotateX
p982
aVrotateY
p983
aVrotateZ
p984
aaF0
aF0
aF0
aF0
aF0
aF0
aa(lp985
S'thumb_r_poleVector'
p986
a(lp987
VtranslateX
p988
aVtranslateY
p989
aVtranslateZ
p990
aVrotateX
p991
aVrotateY
p992
aVrotateZ
p993
aaF0
aF0
aF0
aF0
aF0
aF0
aa(lp994
S'l_global_ik_anim'
p995
a(lp996
VtranslateX
p997
aVtranslateY
p998
aVtranslateZ
p999
aVrotateX
p1000
aVrotateY
p1001
aVrotateZ
p1002
aaF0
aF0
aF0
aF0
aF0
aF0
aa(lp1003
S'r_global_ik_anim'
p1004
a(lp1005
VtranslateX
p1006
aVtranslateY
p1007
aVtranslateZ
p1008
aVrotateX
p1009
aVrotateY
p1010
aVrotateZ
p1011
aaF0
aF0
aF0
aF0
aF0
aF0
aa(lp1012
S'Rig_Settings'
p1013
a(lp1014
Vspine_ik
p1015
aVspine_fk
p1016
aVlLegMode
p1017
aVlThighTwistAmount
p1018
aVlThighTwist2Amount
p1019
aVllegTwistCtrlVis
p1020
aVlCalfTwistAmount
p1021
aVrLegMode
p1022
aVrThighTwistAmount
p1023
aVrThighTwist2Amount
p1024
aVrlegTwistCtrlVis
p1025
aVrCalfTwistAmount
p1026
aVlFkArmOrient
p1027
aVlArmMode
p1028
aVlClavMode
p1029
aVlUpperarmTwistAmount
p1030
aVlUpperarmTwist2Amount
p1031
aVltwistCtrlVis
p1032
aVltwistCtrlVisLower
p1033
aVlForearmTwistAmount
p1034
aVrFkArmOrient
p1035
aVrArmMode
p1036
aVrClavMode
p1037
aVrUpperarmTwistAmount
p1038
aVrUpperarmTwist2Amount
p1039
aVrtwistCtrlVis
p1040
aVrtwistCtrlVisLower
p1041
aVrForearmTwistAmount
p1042
aaF1
aF0
aI1
aF1
aF0.59999999999999998
aI00
aF0.5
aI1
aF1
aF0.59999999999999998
aI00
aF0.5
aI0
aI1
aI1
aF0.90000000000000002
aF0.59999999999999998
aI00
aI00
aF0.5
aI0
aI1
aI1
aF0.90000000000000002
aF0.59999999999999998
aI00
aI00
aF0.5
aa(lp1043
S'calf_l_twist_anim'
p1044
a(lp1045
VtranslateX
p1046
aVtranslateY
p1047
aVtranslateZ
p1048
aVrotateX
p1049
aVrotateY
p1050
aVrotateZ
p1051
aaF0
aF0
aF0
aF0
aF0
aF0
aa(lp1052
S'calf_r_twist_anim'
p1053
a(lp1054
VtranslateX
p1055
aVtranslateY
p1056
aVtranslateZ
p1057
aVrotateX
p1058
aVrotateY
p1059
aVrotateZ
p1060
aaF0
aF0
aF0
aF0
aF0
aF0
aa(lp1061
Vankle_plate_in_l_anim
p1062
a(lp1063
VtranslateX
p1064
aVtranslateY
p1065
aVtranslateZ
p1066
aVrotateX
p1067
aVrotateY
p1068
aVrotateZ
p1069
aVscaleX
p1070
aVscaleY
p1071
aVscaleZ
p1072
aVblendParent1
p1073
aaF0.33825301144709385
aF0.33518289555418335
aF0.090931721484524886
aF-7.4273394912862924
aF0.85212087456219165
aF-6.9971039193265527
aF1
aF1
aF0.99999999999999989
aF1
aa(lp1074
Vankle_plate_in_r_anim
p1075
a(lp1076
VtranslateX
p1077
aVtranslateY
p1078
aVtranslateZ
p1079
aVrotateX
p1080
aVrotateY
p1081
aVrotateZ
p1082
aVscaleX
p1083
aVscaleY
p1084
aVscaleZ
p1085
aVblendParent1
p1086
aaF0
aF0
aF0
aF0
aF0
aF0
aF1
aF1.0000000000000002
aF1
aF1
aa(lp1087
Vankle_plate_out_l_anim
p1088
a(lp1089
VtranslateX
p1090
aVtranslateY
p1091
aVtranslateZ
p1092
aVrotateX
p1093
aVrotateY
p1094
aVrotateZ
p1095
aVscaleX
p1096
aVscaleY
p1097
aVscaleZ
p1098
aVblendParent1
p1099
aaF0
aF0
aF0
aF0
aF0
aF0
aF1
aF1
aF1
aF1
aa(lp1100
Vankle_plate_out_r_anim
p1101
a(lp1102
VtranslateX
p1103
aVtranslateY
p1104
aVtranslateZ
p1105
aVrotateX
p1106
aVrotateY
p1107
aVrotateZ
p1108
aVscaleX
p1109
aVscaleY
p1110
aVscaleZ
p1111
aVblendParent1
p1112
aaF0
aF0
aF0
aF0
aF0
aF0
aF0.99999999999999967
aF0.99999999999999978
aF0.99999999999999989
aF1
aa(lp1113
Varm_hose_bott_anim
p1114
a(lp1115
VtranslateX
p1116
aVtranslateY
p1117
aVtranslateZ
p1118
aVrotateX
p1119
aVrotateY
p1120
aVrotateZ
p1121
aVscaleX
p1122
aVscaleY
p1123
aVscaleZ
p1124
aVblendParent1
p1125
aaF0
aF0
aF0
aF0
aF0
aF0
aF1
aF1.0000000000000002
aF1
aF1
aa(lp1126
Varm_hose_top_anim
p1127
a(lp1128
VtranslateX
p1129
aVtranslateY
p1130
aVtranslateZ
p1131
aVrotateX
p1132
aVrotateY
p1133
aVrotateZ
p1134
aVscaleX
p1135
aVscaleY
p1136
aVscaleZ
p1137
aVblendParent1
p1138
aaF0
aF0
aF0
aF0
aF0
aF0
aF1
aF1
aF1
aF1
aa(lp1139
Varm_pouch_l_anim
p1140
a(lp1141
VtranslateX
p1142
aVtranslateY
p1143
aVtranslateZ
p1144
aVrotateX
p1145
aVrotateY
p1146
aVrotateZ
p1147
aVscaleX
p1148
aVscaleY
p1149
aVscaleZ
p1150
aVblendParent1
p1151
aaF0
aF0
aF0
aF0
aF0
aF0
aF1
aF1
aF1
aF1
aa(lp1152
Vbot_hand_anim
p1153
a(lp1154
VtranslateX
p1155
aVtranslateY
p1156
aVtranslateZ
p1157
aVrotateX
p1158
aVrotateY
p1159
aVrotateZ
p1160
aVscaleX
p1161
aVscaleY
p1162
aVscaleZ
p1163
aVblendParent1
p1164
aaF0
aF0
aF0
aF0
aF0
aF0
aF1
aF0.99999999999999989
aF0.99999999999999978
aF1
aa(lp1165
Vbot_loarm_anim
p1166
a(lp1167
VtranslateX
p1168
aVtranslateY
p1169
aVtranslateZ
p1170
aVrotateX
p1171
aVrotateY
p1172
aVrotateZ
p1173
aVscaleX
p1174
aVscaleY
p1175
aVscaleZ
p1176
aVblendParent1
p1177
aaF0
aF0
aF0
aF0
aF0
aF0
aF1
aF1
aF1
aF1
aa(lp1178
Vbot_loarm_pistonB_bot_anim
p1179
a(lp1180
VtranslateX
p1181
aVtranslateY
p1182
aVtranslateZ
p1183
aVrotateX
p1184
aVrotateY
p1185
aVrotateZ
p1186
aVscaleX
p1187
aVscaleY
p1188
aVscaleZ
p1189
aVblendParent1
p1190
aaF0
aF0
aF0
aF0
aF0
aF0
aF1
aF1
aF1
aF1
aa(lp1191
Vbot_loarm_pistonB_top_anim
p1192
a(lp1193
VtranslateX
p1194
aVtranslateY
p1195
aVtranslateZ
p1196
aVrotateX
p1197
aVrotateY
p1198
aVrotateZ
p1199
aVscaleX
p1200
aVscaleY
p1201
aVscaleZ
p1202
aVblendParent1
p1203
aaF0
aF0
aF0
aF0
aF0
aF0
aF1
aF1
aF1
aF1
aa(lp1204
Vbot_loarm_pistonC_bot_anim
p1205
a(lp1206
VtranslateX
p1207
aVtranslateY
p1208
aVtranslateZ
p1209
aVrotateX
p1210
aVrotateY
p1211
aVrotateZ
p1212
aVscaleX
p1213
aVscaleY
p1214
aVscaleZ
p1215
aVblendParent1
p1216
aaF0
aF0
aF0
aF0
aF0
aF0
aF1
aF1
aF1
aF1
aa(lp1217
Vbot_loarm_pistonC_top_anim
p1218
a(lp1219
VtranslateX
p1220
aVtranslateY
p1221
aVtranslateZ
p1222
aVrotateX
p1223
aVrotateY
p1224
aVrotateZ
p1225
aVscaleX
p1226
aVscaleY
p1227
aVscaleZ
p1228
aVblendParent1
p1229
aaF0
aF0
aF0
aF0
aF0
aF0
aF1
aF1
aF1
aF1
aa(lp1230
Vbot_loarm_pistonD_bot_anim
p1231
a(lp1232
VtranslateX
p1233
aVtranslateY
p1234
aVtranslateZ
p1235
aVrotateX
p1236
aVrotateY
p1237
aVrotateZ
p1238
aVscaleX
p1239
aVscaleY
p1240
aVscaleZ
p1241
aVblendParent1
p1242
aaF0
aF0
aF0
aF0
aF0
aF0
aF0.99999999999999989
aF0.99999999999999989
aF0.99999999999999989
aF1
aa(lp1243
Vbot_loarm_pistonD_top_anim
p1244
a(lp1245
VtranslateX
p1246
aVtranslateY
p1247
aVtranslateZ
p1248
aVrotateX
p1249
aVrotateY
p1250
aVrotateZ
p1251
aVscaleX
p1252
aVscaleY
p1253
aVscaleZ
p1254
aVblendParent1
p1255
aaF0
aF0
aF0
aF0
aF0
aF0
aF1
aF1.0000000000000002
aF1
aF1
aa(lp1256
Vbot_loarm_twist_anim
p1257
a(lp1258
VtranslateX
p1259
aVtranslateY
p1260
aVtranslateZ
p1261
aVrotateX
p1262
aVrotateY
p1263
aVrotateZ
p1264
aVscaleX
p1265
aVscaleY
p1266
aVscaleZ
p1267
aVblendParent1
p1268
aaF0
aF0
aF0
aF0
aF0
aF0
aF1
aF0.99999999999999989
aF1
aF1
aa(lp1269
Vbot_uparm_anim
p1270
a(lp1271
VtranslateX
p1272
aVtranslateY
p1273
aVtranslateZ
p1274
aVrotateX
p1275
aVrotateY
p1276
aVrotateZ
p1277
aVscaleX
p1278
aVscaleY
p1279
aVscaleZ
p1280
aVblendParent1
p1281
aaF0
aF0
aF0
aF0
aF0
aF0
aF1
aF1
aF1
aF1
aa(lp1282
Vbot_uparm_pistonC_bot_anim
p1283
a(lp1284
VtranslateX
p1285
aVtranslateY
p1286
aVtranslateZ
p1287
aVrotateX
p1288
aVrotateY
p1289
aVrotateZ
p1290
aVscaleX
p1291
aVscaleY
p1292
aVscaleZ
p1293
aVblendParent1
p1294
aaF0
aF0
aF0
aF0
aF0
aF0
aF1
aF1
aF1
aF1
aa(lp1295
Vbot_uparm_pistonC_top_anim
p1296
a(lp1297
VtranslateX
p1298
aVtranslateY
p1299
aVtranslateZ
p1300
aVrotateX
p1301
aVrotateY
p1302
aVrotateZ
p1303
aVscaleX
p1304
aVscaleY
p1305
aVscaleZ
p1306
aVblendParent1
p1307
aaF0
aF0
aF0
aF0
aF0
aF0
aF1
aF1
aF1
aF1
aa(lp1308
Veyeball_l_anim
p1309
a(lp1310
VtranslateX
p1311
aVtranslateY
p1312
aVtranslateZ
p1313
aVrotateX
p1314
aVrotateY
p1315
aVrotateZ
p1316
aVscaleX
p1317
aVscaleY
p1318
aVscaleZ
p1319
aVblendParent1
p1320
aaF0
aF0
aF0
aF0
aF0
aF0
aF1
aF1
aF1
aF1
aa(lp1321
Veyeball_r_anim
p1322
a(lp1323
VtranslateX
p1324
aVtranslateY
p1325
aVtranslateZ
p1326
aVrotateX
p1327
aVrotateY
p1328
aVrotateZ
p1329
aVscaleX
p1330
aVscaleY
p1331
aVscaleZ
p1332
aVblendParent1
p1333
aaF0
aF0
aF0
aF0
aF0
aF0
aF1
aF1
aF1
aF1
aa(lp1334
Veyebrow_in_l_anim
p1335
a(lp1336
VtranslateX
p1337
aVtranslateY
p1338
aVtranslateZ
p1339
aVrotateX
p1340
aVrotateY
p1341
aVrotateZ
p1342
aVscaleX
p1343
aVscaleY
p1344
aVscaleZ
p1345
aVblendParent1
p1346
aaF0
aF0
aF0
aF0
aF0
aF0
aF1
aF0.99999999999999989
aF0.99999999999999989
aF1
aa(lp1347
Veyebrow_in_r_anim
p1348
a(lp1349
VtranslateX
p1350
aVtranslateY
p1351
aVtranslateZ
p1352
aVrotateX
p1353
aVrotateY
p1354
aVrotateZ
p1355
aVscaleX
p1356
aVscaleY
p1357
aVscaleZ
p1358
aVblendParent1
p1359
aaF0
aF0
aF0
aF0
aF0
aF0
aF1.0000000000000002
aF1.0000000000000002
aF1.0000000000000002
aF1
aa(lp1360
Veyebrow_out_l_anim
p1361
a(lp1362
VtranslateX
p1363
aVtranslateY
p1364
aVtranslateZ
p1365
aVrotateX
p1366
aVrotateY
p1367
aVrotateZ
p1368
aVscaleX
p1369
aVscaleY
p1370
aVscaleZ
p1371
aVblendParent1
p1372
aaF0
aF0
aF0
aF0
aF0
aF0
aF1.0000000000000002
aF1.0000000000000002
aF1
aF1
aa(lp1373
Veyebrow_out_r_anim
p1374
a(lp1375
VtranslateX
p1376
aVtranslateY
p1377
aVtranslateZ
p1378
aVrotateX
p1379
aVrotateY
p1380
aVrotateZ
p1381
aVscaleX
p1382
aVscaleY
p1383
aVscaleZ
p1384
aVblendParent1
p1385
aaF0
aF0
aF0
aF0
aF0
aF0
aF0.99999999999999989
aF0.99999999999999978
aF0.99999999999999967
aF1
aa(lp1386
Veyelid_bott_l_anim
p1387
a(lp1388
VtranslateX
p1389
aVtranslateY
p1390
aVtranslateZ
p1391
aVrotateX
p1392
aVrotateY
p1393
aVrotateZ
p1394
aVscaleX
p1395
aVscaleY
p1396
aVscaleZ
p1397
aVblendParent1
p1398
aaF0
aF0
aF0
aF0
aF0
aF0
aF1
aF1
aF1
aF1
aa(lp1399
Veyelid_bott_r_anim
p1400
a(lp1401
VtranslateX
p1402
aVtranslateY
p1403
aVtranslateZ
p1404
aVrotateX
p1405
aVrotateY
p1406
aVrotateZ
p1407
aVscaleX
p1408
aVscaleY
p1409
aVscaleZ
p1410
aVblendParent1
p1411
aaF0
aF0
aF0
aF0
aF0
aF0
aF1
aF1
aF1
aF1
aa(lp1412
Veyelid_top_l_anim
p1413
a(lp1414
VtranslateX
p1415
aVtranslateY
p1416
aVtranslateZ
p1417
aVrotateX
p1418
aVrotateY
p1419
aVrotateZ
p1420
aVscaleX
p1421
aVscaleY
p1422
aVscaleZ
p1423
aVblendParent1
p1424
aaF0
aF0
aF0
aF0
aF0
aF0
aF1
aF1
aF1
aF1
aa(lp1425
Veyelid_top_r_anim
p1426
a(lp1427
VtranslateX
p1428
aVtranslateY
p1429
aVtranslateZ
p1430
aVrotateX
p1431
aVrotateY
p1432
aVrotateZ
p1433
aVscaleX
p1434
aVscaleY
p1435
aVscaleZ
p1436
aVblendParent1
p1437
aaF0
aF0
aF0
aF0
aF0
aF0
aF1
aF1
aF1
aF1
aa(lp1438
Vgun_anim
p1439
a(lp1440
VtranslateX
p1441
aVtranslateY
p1442
aVtranslateZ
p1443
aVrotateX
p1444
aVrotateY
p1445
aVrotateZ
p1446
aVscaleX
p1447
aVscaleY
p1448
aVscaleZ
p1449
aVblendParent1
p1450
aaF2.2945803711267345
aF0.081511541477898297
aF0.10571991721390051
aF31.434007196564291
aF-0.43412181609596773
aF0.231665907619271
aF1
aF1
aF1
aF0
aa(lp1451
Vgun_barrel_anim
p1452
a(lp1453
VtranslateX
p1454
aVtranslateY
p1455
aVtranslateZ
p1456
aVrotateX
p1457
aVrotateY
p1458
aVrotateZ
p1459
aVscaleX
p1460
aVscaleY
p1461
aVscaleZ
p1462
aVblendParent1
p1463
aaF0
aF0
aF0
aF0
aF0
aF0
aF1
aF1
aF1
aF1
aa(lp1464
Vgun_barrel_inner_anim
p1465
a(lp1466
VtranslateX
p1467
aVtranslateY
p1468
aVtranslateZ
p1469
aVrotateX
p1470
aVrotateY
p1471
aVrotateZ
p1472
aVscaleX
p1473
aVscaleY
p1474
aVscaleZ
p1475
aVblendParent1
p1476
aaF0
aF0
aF0
aF0
aF0
aF0
aF1
aF1
aF1
aF1
aa(lp1477
Vgun_body_panel_l_anim
p1478
a(lp1479
VtranslateX
p1480
aVtranslateY
p1481
aVtranslateZ
p1482
aVrotateX
p1483
aVrotateY
p1484
aVrotateZ
p1485
aVscaleX
p1486
aVscaleY
p1487
aVscaleZ
p1488
aVblendParent1
p1489
aaF0
aF0
aF0
aF0
aF0
aF0
aF1
aF1
aF1
aF1
aa(lp1490
Vgun_body_panel_r_anim
p1491
a(lp1492
VtranslateX
p1493
aVtranslateY
p1494
aVtranslateZ
p1495
aVrotateX
p1496
aVrotateY
p1497
aVrotateZ
p1498
aVscaleX
p1499
aVscaleY
p1500
aVscaleZ
p1501
aVblendParent1
p1502
aaF0
aF0
aF0
aF0
aF0
aF0
aF1
aF1
aF1
aF1
aa(lp1503
Vgun_scope_anim
p1504
a(lp1505
VtranslateX
p1506
aVtranslateY
p1507
aVtranslateZ
p1508
aVrotateX
p1509
aVrotateY
p1510
aVrotateZ
p1511
aVscaleX
p1512
aVscaleY
p1513
aVscaleZ
p1514
aVblendParent1
p1515
aaF0
aF0
aF0
aF0
aF0
aF0
aF1
aF1
aF1
aF1
aa(lp1516
Vgun_stock_base_anim
p1517
a(lp1518
VtranslateX
p1519
aVtranslateY
p1520
aVtranslateZ
p1521
aVrotateX
p1522
aVrotateY
p1523
aVrotateZ
p1524
aVscaleX
p1525
aVscaleY
p1526
aVscaleZ
p1527
aVblendParent1
p1528
aaF0
aF0
aF0
aF0
aF0
aF0
aF1
aF1
aF1
aF1
aa(lp1529
Vgun_stock_base_in_bott_anim
p1530
a(lp1531
VtranslateX
p1532
aVtranslateY
p1533
aVtranslateZ
p1534
aVrotateX
p1535
aVrotateY
p1536
aVrotateZ
p1537
aVscaleX
p1538
aVscaleY
p1539
aVscaleZ
p1540
aVblendParent1
p1541
aaF0
aF0
aF0
aF0
aF0
aF0
aF1
aF1
aF1
aF1
aa(lp1542
Vgun_stock_base_in_top_anim
p1543
a(lp1544
VtranslateX
p1545
aVtranslateY
p1546
aVtranslateZ
p1547
aVrotateX
p1548
aVrotateY
p1549
aVrotateZ
p1550
aVscaleX
p1551
aVscaleY
p1552
aVscaleZ
p1553
aVblendParent1
p1554
aaF0
aF0
aF0
aF0
aF0
aF0
aF1
aF1
aF1
aF1
aa(lp1555
Vgun_stock_base_out_bott_anim
p1556
a(lp1557
VtranslateX
p1558
aVtranslateY
p1559
aVtranslateZ
p1560
aVrotateX
p1561
aVrotateY
p1562
aVrotateZ
p1563
aVscaleX
p1564
aVscaleY
p1565
aVscaleZ
p1566
aVblendParent1
p1567
aaF0
aF0
aF0
aF0
aF0
aF0
aF1
aF1
aF1
aF1
aa(lp1568
Vgun_stock_base_out_top_anim
p1569
a(lp1570
VtranslateX
p1571
aVtranslateY
p1572
aVtranslateZ
p1573
aVrotateX
p1574
aVrotateY
p1575
aVrotateZ
p1576
aVscaleX
p1577
aVscaleY
p1578
aVscaleZ
p1579
aVblendParent1
p1580
aaF0
aF0
aF0
aF0
aF0
aF0
aF1
aF1
aF1
aF1
aa(lp1581
Vgun_stock_bott_anim
p1582
a(lp1583
VtranslateX
p1584
aVtranslateY
p1585
aVtranslateZ
p1586
aVrotateX
p1587
aVrotateY
p1588
aVrotateZ
p1589
aVscaleX
p1590
aVscaleY
p1591
aVscaleZ
p1592
aVblendParent1
p1593
aaF0
aF0
aF0
aF0
aF0
aF0
aF1
aF1
aF1
aF1
aa(lp1594
Vgun_stock_in_bott_anim
p1595
a(lp1596
VtranslateX
p1597
aVtranslateY
p1598
aVtranslateZ
p1599
aVrotateX
p1600
aVrotateY
p1601
aVrotateZ
p1602
aVscaleX
p1603
aVscaleY
p1604
aVscaleZ
p1605
aVblendParent1
p1606
aaF0
aF0
aF0
aF0
aF0
aF0
aF1
aF1
aF1
aF1
aa(lp1607
Vgun_stock_in_top_anim
p1608
a(lp1609
VtranslateX
p1610
aVtranslateY
p1611
aVtranslateZ
p1612
aVrotateX
p1613
aVrotateY
p1614
aVrotateZ
p1615
aVscaleX
p1616
aVscaleY
p1617
aVscaleZ
p1618
aVblendParent1
p1619
aaF0
aF0
aF0
aF0
aF0
aF0
aF1
aF1
aF1
aF1
aa(lp1620
Vgun_stock_panel_l_anim
p1621
a(lp1622
VtranslateX
p1623
aVtranslateY
p1624
aVtranslateZ
p1625
aVrotateX
p1626
aVrotateY
p1627
aVrotateZ
p1628
aVscaleX
p1629
aVscaleY
p1630
aVscaleZ
p1631
aVblendParent1
p1632
aaF0
aF0
aF0
aF0
aF0
aF0
aF1
aF1
aF1
aF1
aa(lp1633
Vgun_stock_panel_r_anim
p1634
a(lp1635
VtranslateX
p1636
aVtranslateY
p1637
aVtranslateZ
p1638
aVrotateX
p1639
aVrotateY
p1640
aVrotateZ
p1641
aVscaleX
p1642
aVscaleY
p1643
aVscaleZ
p1644
aVblendParent1
p1645
aaF0
aF0
aF0
aF0
aF0
aF0
aF1
aF1
aF1
aF1
aa(lp1646
Vheel_plate_l_anim
p1647
a(lp1648
VtranslateX
p1649
aVtranslateY
p1650
aVtranslateZ
p1651
aVrotateX
p1652
aVrotateY
p1653
aVrotateZ
p1654
aVscaleX
p1655
aVscaleY
p1656
aVscaleZ
p1657
aVblendParent1
p1658
aaF0
aF0
aF0
aF0
aF0
aF0
aF1
aF1
aF1
aF1
aa(lp1659
Vheel_plate_r_anim
p1660
a(lp1661
VtranslateX
p1662
aVtranslateY
p1663
aVtranslateZ
p1664
aVrotateX
p1665
aVrotateY
p1666
aVrotateZ
p1667
aVscaleX
p1668
aVscaleY
p1669
aVscaleZ
p1670
aVblendParent1
p1671
aaF0
aF0
aF0
aF0
aF0
aF0
aF0.99999999999999967
aF0.99999999999999967
aF0.99999999999999978
aF1
aa(lp1672
Vhelmet_sight_anim
p1673
a(lp1674
VtranslateX
p1675
aVtranslateY
p1676
aVtranslateZ
p1677
aVrotateX
p1678
aVrotateY
p1679
aVrotateZ
p1680
aVscaleX
p1681
aVscaleY
p1682
aVscaleZ
p1683
aVblendParent1
p1684
aaF0
aF0
aF0
aF0
aF0
aF0
aF1
aF1
aF1
aF1
aa(lp1685
Vhip_pack_a_anim
p1686
a(lp1687
VtranslateX
p1688
aVtranslateY
p1689
aVtranslateZ
p1690
aVrotateX
p1691
aVrotateY
p1692
aVrotateZ
p1693
aVchainAttach
p1694
aVchainStartEnvelope
p1695
aVchainStartFrame
p1696
aVchainStiffness
p1697
aVchainDamping
p1698
aVchainGravity
p1699
aVchainIteration
p1700
aVchainCollide
p1701
aVchainWidthBase
p1702
aVchainWidthExtremity
p1703
aVchainCollideGround
p1704
aVchainCollideGroundHeight
p1705
aVblendParent1
p1706
aaF0
aF0
aF0
aF0
aF0
aF0
aI1
aF0
aF1
aF0.10000000000000001
aF0.20000000000000001
aF1
aI1
aI00
aF1
aF1
aI00
aF0
aF1
aa(lp1707
Vhip_pack_b_anim
p1708
a(lp1709
VtranslateX
p1710
aVtranslateY
p1711
aVtranslateZ
p1712
aVrotateX
p1713
aVrotateY
p1714
aVrotateZ
p1715
aVchainAttach
p1716
aVchainStartEnvelope
p1717
aVchainStartFrame
p1718
aVchainStiffness
p1719
aVchainDamping
p1720
aVchainGravity
p1721
aVchainIteration
p1722
aVchainCollide
p1723
aVchainWidthBase
p1724
aVchainWidthExtremity
p1725
aVchainCollideGround
p1726
aVchainCollideGroundHeight
p1727
aVblendParent1
p1728
aaF0
aF0
aF0
aF0
aF0
aF0
aI1
aF0
aF1
aF0.10000000000000001
aF0.20000000000000001
aF1
aI1
aI00
aF1
aF1
aI00
aF0
aF1
aa(lp1729
Vhip_pack_c_anim
p1730
a(lp1731
VtranslateX
p1732
aVtranslateY
p1733
aVtranslateZ
p1734
aVrotateX
p1735
aVrotateY
p1736
aVrotateZ
p1737
aVchainAttach
p1738
aVchainStartEnvelope
p1739
aVchainStartFrame
p1740
aVchainStiffness
p1741
aVchainDamping
p1742
aVchainGravity
p1743
aVchainIteration
p1744
aVchainCollide
p1745
aVchainWidthBase
p1746
aVchainWidthExtremity
p1747
aVchainCollideGround
p1748
aVchainCollideGroundHeight
p1749
aVblendParent1
p1750
aaF0
aF0
aF0
aF0
aF0
aF0
aI1
aF0
aF1
aF0.10000000000000001
aF0.20000000000000001
aF1
aI1
aI00
aF1
aF1
aI00
aF0
aF1
aa(lp1751
Vhip_pack_d_anim
p1752
a(lp1753
VtranslateX
p1754
aVtranslateY
p1755
aVtranslateZ
p1756
aVrotateX
p1757
aVrotateY
p1758
aVrotateZ
p1759
aVchainAttach
p1760
aVchainStartEnvelope
p1761
aVchainStartFrame
p1762
aVchainStiffness
p1763
aVchainDamping
p1764
aVchainGravity
p1765
aVchainIteration
p1766
aVchainCollide
p1767
aVchainWidthBase
p1768
aVchainWidthExtremity
p1769
aVchainCollideGround
p1770
aVchainCollideGroundHeight
p1771
aVblendParent1
p1772
aaF0
aF0
aF0
aF0
aF0
aF0
aI1
aF0
aF1
aF0.10000000000000001
aF0.20000000000000001
aF1
aI1
aI00
aF1
aF1
aI00
aF0
aF1
aa(lp1773
Vjaw_anim
p1774
a(lp1775
VtranslateX
p1776
aVtranslateY
p1777
aVtranslateZ
p1778
aVrotateX
p1779
aVrotateY
p1780
aVrotateZ
p1781
aVscaleX
p1782
aVscaleY
p1783
aVscaleZ
p1784
aVblendParent1
p1785
aaF0
aF0
aF0
aF0
aF0
aF0
aF1
aF1
aF1
aF1
aa(lp1786
Vmask_anim
p1787
a(lp1788
VtranslateX
p1789
aVtranslateY
p1790
aVtranslateZ
p1791
aVrotateX
p1792
aVrotateY
p1793
aVrotateZ
p1794
aVscaleX
p1795
aVscaleY
p1796
aVscaleZ
p1797
aVblendParent1
p1798
aaF0
aF0
aF0
aF0
aF0
aF0
aF1
aF1
aF1
aF1
aa(lp1799
Vpack_hose_in_anim
p1800
a(lp1801
VtranslateX
p1802
aVtranslateY
p1803
aVtranslateZ
p1804
aVrotateX
p1805
aVrotateY
p1806
aVrotateZ
p1807
aVscaleX
p1808
aVscaleY
p1809
aVscaleZ
p1810
aVblendParent1
p1811
aaF0
aF0
aF0
aF0
aF0
aF0
aF0.99999999999999989
aF1
aF0.99999999999999967
aF1
aa(lp1812
Vpack_hose_out_anim
p1813
a(lp1814
VtranslateX
p1815
aVtranslateY
p1816
aVtranslateZ
p1817
aVrotateX
p1818
aVrotateY
p1819
aVrotateZ
p1820
aVscaleX
p1821
aVscaleY
p1822
aVscaleZ
p1823
aVblendParent1
p1824
aaF0
aF0
aF0
aF0
aF0
aF0
aF1.0000000000000002
aF1.0000000000000002
aF1.0000000000000002
aF1
aa(lp1825
Vshotgun_anim
p1826
a(lp1827
VtranslateX
p1828
aVtranslateY
p1829
aVtranslateZ
p1830
aVrotateX
p1831
aVrotateY
p1832
aVrotateZ
p1833
aVscaleX
p1834
aVscaleY
p1835
aVscaleZ
p1836
aVshotgun_rotate
p1837
aVshotgun_rail
p1838
aVblendParent1
p1839
aaF0
aF0
aF0
aF0
aF0
aF0
aF1.0000000000000002
aF1.0000000000000004
aF1.0000000000000002
aF0
aF0
aF1
aa(lp1840
Vshotgun_base_anim
p1841
a(lp1842
VtranslateX
p1843
aVtranslateY
p1844
aVtranslateZ
p1845
aVrotateX
p1846
aVrotateY
p1847
aVrotateZ
p1848
aVscaleX
p1849
aVscaleY
p1850
aVscaleZ
p1851
aVblendParent1
p1852
aaF0
aF0
aF0
aF0
aF0
aF0
aF1
aF1
aF1
aF1
aa(lp1853
Vshotgun_clip_anim
p1854
a(lp1855
VtranslateX
p1856
aVtranslateY
p1857
aVtranslateZ
p1858
aVrotateX
p1859
aVrotateY
p1860
aVrotateZ
p1861
aVscaleX
p1862
aVscaleY
p1863
aVscaleZ
p1864
aVblendParent1
p1865
aaF0
aF0
aF0
aF0
aF0
aF0
aF0.99999999999999989
aF0.99999999999999978
aF0.99999999999999989
aF1
aa(lp1866
Vsniper_can_arm_01_anim
p1867
a(lp1868
VtranslateX
p1869
aVtranslateY
p1870
aVtranslateZ
p1871
aVrotateX
p1872
aVrotateY
p1873
aVrotateZ
p1874
aVscaleX
p1875
aVscaleY
p1876
aVscaleZ
p1877
aVblendParent1
p1878
aaF0
aF0
aF0
aF0
aF0
aF0
aF1
aF1
aF1
aF1
aa(lp1879
Vsniper_can_arm_02_anim
p1880
a(lp1881
VtranslateX
p1882
aVtranslateY
p1883
aVtranslateZ
p1884
aVrotateX
p1885
aVrotateY
p1886
aVrotateZ
p1887
aVscaleX
p1888
aVscaleY
p1889
aVscaleZ
p1890
aVblendParent1
p1891
aaF0
aF0
aF0
aF0
aF0
aF0
aF1
aF1
aF1
aF1
aa(lp1892
Vsniper_can_arm_03_anim
p1893
a(lp1894
VtranslateX
p1895
aVtranslateY
p1896
aVtranslateZ
p1897
aVrotateX
p1898
aVrotateY
p1899
aVrotateZ
p1900
aVscaleX
p1901
aVscaleY
p1902
aVscaleZ
p1903
aVblendParent1
p1904
aaF0
aF0
aF0
aF0
aF0
aF0
aF1
aF1
aF1
aF1
aa(lp1905
Vtrap_handle_anim
p1906
a(lp1907
VtranslateX
p1908
aVtranslateY
p1909
aVtranslateZ
p1910
aVrotateX
p1911
aVrotateY
p1912
aVrotateZ
p1913
aVscaleX
p1914
aVscaleY
p1915
aVscaleZ
p1916
aVblendParent1
p1917
aaF0
aF0
aF0
aF0
aF0
aF0
aF1
aF1
aF1
aF1
aa(lp1918
Vwrist_cover_anim
p1919
a(lp1920
VtranslateX
p1921
aVtranslateY
p1922
aVtranslateZ
p1923
aVrotateX
p1924
aVrotateY
p1925
aVrotateZ
p1926
aVscaleX
p1927
aVscaleY
p1928
aVscaleZ
p1929
aVblendParent1
p1930
aaF0
aF0
aF0
aF0
aF0
aF0
aF1
aF1
aF1
aF1
aa(lp1931
Vankle_plate_in_l_anim_space_switcher
p1932
a(lp1933
Vvisibility
p1934
aVtranslateX
p1935
aVtranslateY
p1936
aVtranslateZ
p1937
aVrotateX
p1938
aVrotateY
p1939
aVrotateZ
p1940
aVscaleX
p1941
aVscaleY
p1942
aVscaleZ
p1943
aVspace_world
p1944
aaI01
aF0
aF0
aF0
aF0
aF0
aF0
aF1
aF1
aF1
aF0
aa(lp1945
Vankle_plate_in_r_anim_space_switcher
p1946
a(lp1947
Vvisibility
p1948
aVtranslateX
p1949
aVtranslateY
p1950
aVtranslateZ
p1951
aVrotateX
p1952
aVrotateY
p1953
aVrotateZ
p1954
aVscaleX
p1955
aVscaleY
p1956
aVscaleZ
p1957
aVspace_world
p1958
aaI01
aF0
aF0
aF0
aF0
aF0
aF0
aF1
aF1
aF1
aF0
aa(lp1959
Vankle_plate_out_l_anim_space_switcher
p1960
a(lp1961
Vvisibility
p1962
aVtranslateX
p1963
aVtranslateY
p1964
aVtranslateZ
p1965
aVrotateX
p1966
aVrotateY
p1967
aVrotateZ
p1968
aVscaleX
p1969
aVscaleY
p1970
aVscaleZ
p1971
aVspace_world
p1972
aaI01
aF0
aF0
aF0
aF0
aF0
aF0
aF1
aF1
aF1
aF0
aa(lp1973
Vankle_plate_out_r_anim_space_switcher
p1974
a(lp1975
Vvisibility
p1976
aVtranslateX
p1977
aVtranslateY
p1978
aVtranslateZ
p1979
aVrotateX
p1980
aVrotateY
p1981
aVrotateZ
p1982
aVscaleX
p1983
aVscaleY
p1984
aVscaleZ
p1985
aVspace_world
p1986
aaI01
aF0
aF0
aF0
aF0
aF0
aF0
aF1
aF1
aF1
aF0
aa(lp1987
Varm_hose_bott_anim_space_switcher
p1988
a(lp1989
Vvisibility
p1990
aVtranslateX
p1991
aVtranslateY
p1992
aVtranslateZ
p1993
aVrotateX
p1994
aVrotateY
p1995
aVrotateZ
p1996
aVscaleX
p1997
aVscaleY
p1998
aVscaleZ
p1999
aVspace_world
p2000
aaI01
aF0
aF0
aF0
aF0
aF0
aF0
aF1
aF1
aF1
aF0
aa(lp2001
Varm_hose_top_anim_space_switcher
p2002
a(lp2003
Vvisibility
p2004
aVtranslateX
p2005
aVtranslateY
p2006
aVtranslateZ
p2007
aVrotateX
p2008
aVrotateY
p2009
aVrotateZ
p2010
aVscaleX
p2011
aVscaleY
p2012
aVscaleZ
p2013
aVspace_world
p2014
aaI01
aF0
aF0
aF0
aF0
aF0
aF0
aF1
aF1
aF1
aF0
aa(lp2015
Varm_pouch_l_anim_space_switcher
p2016
a(lp2017
Vvisibility
p2018
aVtranslateX
p2019
aVtranslateY
p2020
aVtranslateZ
p2021
aVrotateX
p2022
aVrotateY
p2023
aVrotateZ
p2024
aVscaleX
p2025
aVscaleY
p2026
aVscaleZ
p2027
aVspace_world
p2028
aaI01
aF0
aF0
aF0
aF0
aF0
aF0
aF1
aF1
aF1
aF0
aa(lp2029
Vbody_anim_space_switcher
p2030
a(lp2031
Vvisibility
p2032
aVtranslateX
p2033
aVtranslateY
p2034
aVtranslateZ
p2035
aVrotateX
p2036
aVrotateY
p2037
aVrotateZ
p2038
aVscaleX
p2039
aVscaleY
p2040
aVscaleZ
p2041
aVspace_world
p2042
aaI01
aF0
aF0
aF0
aF0
aF0
aF0
aF1
aF1
aF1
aF0
aa(lp2043
Vbot_hand_anim_space_switcher
p2044
a(lp2045
Vvisibility
p2046
aVtranslateX
p2047
aVtranslateY
p2048
aVtranslateZ
p2049
aVrotateX
p2050
aVrotateY
p2051
aVrotateZ
p2052
aVscaleX
p2053
aVscaleY
p2054
aVscaleZ
p2055
aVspace_world
p2056
aaI01
aF0
aF0
aF0
aF0
aF0
aF0
aF1
aF1
aF1
aF0
aa(lp2057
Vbot_loarm_anim_space_switcher
p2058
a(lp2059
Vvisibility
p2060
aVtranslateX
p2061
aVtranslateY
p2062
aVtranslateZ
p2063
aVrotateX
p2064
aVrotateY
p2065
aVrotateZ
p2066
aVscaleX
p2067
aVscaleY
p2068
aVscaleZ
p2069
aVspace_world
p2070
aaI01
aF0
aF0
aF0
aF0
aF0
aF0
aF1
aF1
aF1
aF0
aa(lp2071
Vbot_loarm_pistonB_bot_anim_space_switcher
p2072
a(lp2073
Vvisibility
p2074
aVtranslateX
p2075
aVtranslateY
p2076
aVtranslateZ
p2077
aVrotateX
p2078
aVrotateY
p2079
aVrotateZ
p2080
aVscaleX
p2081
aVscaleY
p2082
aVscaleZ
p2083
aVspace_world
p2084
aaI01
aF0
aF0
aF0
aF0
aF0
aF0
aF1
aF1
aF1
aF0
aa(lp2085
Vbot_loarm_pistonB_top_anim_space_switcher
p2086
a(lp2087
Vvisibility
p2088
aVtranslateX
p2089
aVtranslateY
p2090
aVtranslateZ
p2091
aVrotateX
p2092
aVrotateY
p2093
aVrotateZ
p2094
aVscaleX
p2095
aVscaleY
p2096
aVscaleZ
p2097
aVspace_world
p2098
aaI01
aF0
aF0
aF0
aF0
aF0
aF0
aF1
aF1
aF1
aF0
aa(lp2099
Vbot_loarm_pistonC_bot_anim_space_switcher
p2100
a(lp2101
Vvisibility
p2102
aVtranslateX
p2103
aVtranslateY
p2104
aVtranslateZ
p2105
aVrotateX
p2106
aVrotateY
p2107
aVrotateZ
p2108
aVscaleX
p2109
aVscaleY
p2110
aVscaleZ
p2111
aVspace_world
p2112
aaI01
aF0
aF0
aF0
aF0
aF0
aF0
aF1
aF1
aF1
aF0
aa(lp2113
Vbot_loarm_pistonC_top_anim_space_switcher
p2114
a(lp2115
Vvisibility
p2116
aVtranslateX
p2117
aVtranslateY
p2118
aVtranslateZ
p2119
aVrotateX
p2120
aVrotateY
p2121
aVrotateZ
p2122
aVscaleX
p2123
aVscaleY
p2124
aVscaleZ
p2125
aVspace_world
p2126
aaI01
aF0
aF0
aF0
aF0
aF0
aF0
aF1
aF1
aF1
aF0
aa(lp2127
Vbot_loarm_pistonD_bot_anim_space_switcher
p2128
a(lp2129
Vvisibility
p2130
aVtranslateX
p2131
aVtranslateY
p2132
aVtranslateZ
p2133
aVrotateX
p2134
aVrotateY
p2135
aVrotateZ
p2136
aVscaleX
p2137
aVscaleY
p2138
aVscaleZ
p2139
aVspace_world
p2140
aaI01
aF0
aF0
aF0
aF0
aF0
aF0
aF1
aF1
aF1
aF0
aa(lp2141
Vbot_loarm_pistonD_top_anim_space_switcher
p2142
a(lp2143
Vvisibility
p2144
aVtranslateX
p2145
aVtranslateY
p2146
aVtranslateZ
p2147
aVrotateX
p2148
aVrotateY
p2149
aVrotateZ
p2150
aVscaleX
p2151
aVscaleY
p2152
aVscaleZ
p2153
aVspace_world
p2154
aaI01
aF0
aF0
aF0
aF0
aF0
aF0
aF1
aF1
aF1
aF0
aa(lp2155
Vbot_loarm_twist_anim_space_switcher
p2156
a(lp2157
Vvisibility
p2158
aVtranslateX
p2159
aVtranslateY
p2160
aVtranslateZ
p2161
aVrotateX
p2162
aVrotateY
p2163
aVrotateZ
p2164
aVscaleX
p2165
aVscaleY
p2166
aVscaleZ
p2167
aVspace_world
p2168
aaI01
aF0
aF0
aF0
aF-16.436393338474023
aF-0.14029996087937946
aF-0.21205689000855346
aF1
aF1
aF1
aF0
aa(lp2169
Vbot_uparm_anim_space_switcher
p2170
a(lp2171
Vvisibility
p2172
aVtranslateX
p2173
aVtranslateY
p2174
aVtranslateZ
p2175
aVrotateX
p2176
aVrotateY
p2177
aVrotateZ
p2178
aVscaleX
p2179
aVscaleY
p2180
aVscaleZ
p2181
aVspace_world
p2182
aaI01
aF0
aF0
aF0
aF0
aF0
aF0
aF1
aF1
aF1
aF0
aa(lp2183
Vbot_uparm_pistonC_bot_anim_space_switcher
p2184
a(lp2185
Vvisibility
p2186
aVtranslateX
p2187
aVtranslateY
p2188
aVtranslateZ
p2189
aVrotateX
p2190
aVrotateY
p2191
aVrotateZ
p2192
aVscaleX
p2193
aVscaleY
p2194
aVscaleZ
p2195
aVspace_world
p2196
aaI01
aF0
aF0
aF0
aF0
aF0
aF0
aF1
aF1
aF1
aF0
aa(lp2197
Vbot_uparm_pistonC_top_anim_space_switcher
p2198
a(lp2199
Vvisibility
p2200
aVtranslateX
p2201
aVtranslateY
p2202
aVtranslateZ
p2203
aVrotateX
p2204
aVrotateY
p2205
aVrotateZ
p2206
aVscaleX
p2207
aVscaleY
p2208
aVscaleZ
p2209
aVspace_world
p2210
aaI01
aF0
aF0
aF0
aF0
aF0
aF0
aF1
aF1
aF1
aF0
aa(lp2211
Vchest_ik_anim_space_switcher
p2212
a(lp2213
Vvisibility
p2214
aVtranslateX
p2215
aVtranslateY
p2216
aVtranslateZ
p2217
aVrotateX
p2218
aVrotateY
p2219
aVrotateZ
p2220
aVscaleX
p2221
aVscaleY
p2222
aVscaleZ
p2223
aVspace_world
p2224
aVspace_chest_ik_world_aligned
p2225
aaI01
aF0
aF0
aF2.0194839173657902e-28
aF-4.855296927855174e-31
aF-8.827812596100315e-32
aF0
aF1.0000000000000002
aF1.0000000000000002
aF1
aF0
aF0
aa(lp2226
Veyeball_l_anim_space_switcher
p2227
a(lp2228
Vvisibility
p2229
aVtranslateX
p2230
aVtranslateY
p2231
aVtranslateZ
p2232
aVrotateX
p2233
aVrotateY
p2234
aVrotateZ
p2235
aVscaleX
p2236
aVscaleY
p2237
aVscaleZ
p2238
aVspace_world
p2239
aaI01
aF0
aF0
aF0
aF0
aF0
aF0
aF1
aF1
aF1
aF0
aa(lp2240
Veyeball_r_anim_space_switcher
p2241
a(lp2242
Vvisibility
p2243
aVtranslateX
p2244
aVtranslateY
p2245
aVtranslateZ
p2246
aVrotateX
p2247
aVrotateY
p2248
aVrotateZ
p2249
aVscaleX
p2250
aVscaleY
p2251
aVscaleZ
p2252
aVspace_world
p2253
aaI01
aF0
aF0
aF0
aF0
aF0
aF0
aF1
aF1
aF1
aF0
aa(lp2254
Veyebrow_in_l_anim_space_switcher
p2255
a(lp2256
Vvisibility
p2257
aVtranslateX
p2258
aVtranslateY
p2259
aVtranslateZ
p2260
aVrotateX
p2261
aVrotateY
p2262
aVrotateZ
p2263
aVscaleX
p2264
aVscaleY
p2265
aVscaleZ
p2266
aVspace_world
p2267
aaI01
aF0
aF0
aF0
aF0
aF0
aF0
aF1
aF1
aF1
aF0
aa(lp2268
Veyebrow_in_r_anim_space_switcher
p2269
a(lp2270
Vvisibility
p2271
aVtranslateX
p2272
aVtranslateY
p2273
aVtranslateZ
p2274
aVrotateX
p2275
aVrotateY
p2276
aVrotateZ
p2277
aVscaleX
p2278
aVscaleY
p2279
aVscaleZ
p2280
aVspace_world
p2281
aaI01
aF0
aF0
aF0
aF0
aF0
aF0
aF1
aF1
aF1
aF0
aa(lp2282
Veyebrow_out_l_anim_space_switcher
p2283
a(lp2284
Vvisibility
p2285
aVtranslateX
p2286
aVtranslateY
p2287
aVtranslateZ
p2288
aVrotateX
p2289
aVrotateY
p2290
aVrotateZ
p2291
aVscaleX
p2292
aVscaleY
p2293
aVscaleZ
p2294
aVspace_world
p2295
aaI01
aF0
aF0
aF0
aF0
aF0
aF0
aF1
aF1
aF1
aF0
aa(lp2296
Veyebrow_out_r_anim_space_switcher
p2297
a(lp2298
Vvisibility
p2299
aVtranslateX
p2300
aVtranslateY
p2301
aVtranslateZ
p2302
aVrotateX
p2303
aVrotateY
p2304
aVrotateZ
p2305
aVscaleX
p2306
aVscaleY
p2307
aVscaleZ
p2308
aVspace_world
p2309
aaI01
aF0
aF0
aF0
aF0
aF0
aF0
aF1
aF1
aF1
aF0
aa(lp2310
Veyelid_bott_l_anim_space_switcher
p2311
a(lp2312
Vvisibility
p2313
aVtranslateX
p2314
aVtranslateY
p2315
aVtranslateZ
p2316
aVrotateX
p2317
aVrotateY
p2318
aVrotateZ
p2319
aVscaleX
p2320
aVscaleY
p2321
aVscaleZ
p2322
aVspace_world
p2323
aaI01
aF0
aF0
aF0
aF0
aF0
aF0
aF1
aF1
aF1
aF0
aa(lp2324
Veyelid_bott_r_anim_space_switcher
p2325
a(lp2326
Vvisibility
p2327
aVtranslateX
p2328
aVtranslateY
p2329
aVtranslateZ
p2330
aVrotateX
p2331
aVrotateY
p2332
aVrotateZ
p2333
aVscaleX
p2334
aVscaleY
p2335
aVscaleZ
p2336
aVspace_world
p2337
aaI01
aF0
aF0
aF0
aF0
aF0
aF0
aF1
aF1
aF1
aF0
aa(lp2338
Veyelid_top_l_anim_space_switcher
p2339
a(lp2340
Vvisibility
p2341
aVtranslateX
p2342
aVtranslateY
p2343
aVtranslateZ
p2344
aVrotateX
p2345
aVrotateY
p2346
aVrotateZ
p2347
aVscaleX
p2348
aVscaleY
p2349
aVscaleZ
p2350
aVspace_world
p2351
aaI01
aF0
aF0
aF0
aF0
aF0
aF0
aF1
aF1
aF1
aF0
aa(lp2352
Veyelid_top_r_anim_space_switcher
p2353
a(lp2354
Vvisibility
p2355
aVtranslateX
p2356
aVtranslateY
p2357
aVtranslateZ
p2358
aVrotateX
p2359
aVrotateY
p2360
aVrotateZ
p2361
aVscaleX
p2362
aVscaleY
p2363
aVscaleZ
p2364
aVspace_world
p2365
aaI01
aF0
aF0
aF0
aF0
aF0
aF0
aF1
aF1
aF1
aF0
aa(lp2366
Vgun_anim_space_switcher
p2367
a(lp2368
Vvisibility
p2369
aVtranslateX
p2370
aVtranslateY
p2371
aVtranslateZ
p2372
aVrotateX
p2373
aVrotateY
p2374
aVrotateZ
p2375
aVscaleX
p2376
aVscaleY
p2377
aVscaleZ
p2378
aVspace_world
p2379
aaI01
aF0
aF0
aF0
aF0
aF0
aF0
aF1
aF1
aF1
aF0
aa(lp2380
Vgun_barrel_anim_space_switcher
p2381
a(lp2382
Vvisibility
p2383
aVtranslateX
p2384
aVtranslateY
p2385
aVtranslateZ
p2386
aVrotateX
p2387
aVrotateY
p2388
aVrotateZ
p2389
aVscaleX
p2390
aVscaleY
p2391
aVscaleZ
p2392
aVspace_world
p2393
aaI01
aF0
aF0
aF0
aF0
aF0
aF0
aF1
aF1
aF1
aF0
aa(lp2394
Vgun_barrel_inner_anim_space_switcher
p2395
a(lp2396
Vvisibility
p2397
aVtranslateX
p2398
aVtranslateY
p2399
aVtranslateZ
p2400
aVrotateX
p2401
aVrotateY
p2402
aVrotateZ
p2403
aVscaleX
p2404
aVscaleY
p2405
aVscaleZ
p2406
aVspace_world
p2407
aaI01
aF0
aF0
aF0
aF0
aF0
aF0
aF1
aF1
aF1
aF0
aa(lp2408
Vgun_body_panel_l_anim_space_switcher
p2409
a(lp2410
Vvisibility
p2411
aVtranslateX
p2412
aVtranslateY
p2413
aVtranslateZ
p2414
aVrotateX
p2415
aVrotateY
p2416
aVrotateZ
p2417
aVscaleX
p2418
aVscaleY
p2419
aVscaleZ
p2420
aVspace_world
p2421
aaI01
aF0
aF0
aF0
aF0
aF0
aF0
aF1
aF1
aF1
aF0
aa(lp2422
Vgun_body_panel_r_anim_space_switcher
p2423
a(lp2424
Vvisibility
p2425
aVtranslateX
p2426
aVtranslateY
p2427
aVtranslateZ
p2428
aVrotateX
p2429
aVrotateY
p2430
aVrotateZ
p2431
aVscaleX
p2432
aVscaleY
p2433
aVscaleZ
p2434
aVspace_world
p2435
aaI01
aF0
aF0
aF0
aF0
aF0
aF0
aF1
aF1
aF1
aF0
aa(lp2436
Vgun_scope_anim_space_switcher
p2437
a(lp2438
Vvisibility
p2439
aVtranslateX
p2440
aVtranslateY
p2441
aVtranslateZ
p2442
aVrotateX
p2443
aVrotateY
p2444
aVrotateZ
p2445
aVscaleX
p2446
aVscaleY
p2447
aVscaleZ
p2448
aVspace_world
p2449
aaI01
aF0
aF0
aF0
aF0
aF0
aF0
aF1
aF1
aF1
aF0
aa(lp2450
Vgun_stock_base_anim_space_switcher
p2451
a(lp2452
Vvisibility
p2453
aVtranslateX
p2454
aVtranslateY
p2455
aVtranslateZ
p2456
aVrotateX
p2457
aVrotateY
p2458
aVrotateZ
p2459
aVscaleX
p2460
aVscaleY
p2461
aVscaleZ
p2462
aVspace_world
p2463
aaI01
aF0
aF0
aF0
aF0
aF0
aF0
aF1
aF1
aF1
aF0
aa(lp2464
Vgun_stock_base_in_bott_anim_space_switcher
p2465
a(lp2466
Vvisibility
p2467
aVtranslateX
p2468
aVtranslateY
p2469
aVtranslateZ
p2470
aVrotateX
p2471
aVrotateY
p2472
aVrotateZ
p2473
aVscaleX
p2474
aVscaleY
p2475
aVscaleZ
p2476
aVspace_world
p2477
aaI01
aF0
aF0
aF0
aF0
aF0
aF0
aF1
aF1
aF1
aF0
aa(lp2478
Vgun_stock_base_in_top_anim_space_switcher
p2479
a(lp2480
Vvisibility
p2481
aVtranslateX
p2482
aVtranslateY
p2483
aVtranslateZ
p2484
aVrotateX
p2485
aVrotateY
p2486
aVrotateZ
p2487
aVscaleX
p2488
aVscaleY
p2489
aVscaleZ
p2490
aVspace_world
p2491
aaI01
aF0
aF0
aF0
aF0
aF0
aF0
aF1
aF1
aF1
aF0
aa(lp2492
Vgun_stock_base_out_bott_anim_space_switcher
p2493
a(lp2494
Vvisibility
p2495
aVtranslateX
p2496
aVtranslateY
p2497
aVtranslateZ
p2498
aVrotateX
p2499
aVrotateY
p2500
aVrotateZ
p2501
aVscaleX
p2502
aVscaleY
p2503
aVscaleZ
p2504
aVspace_world
p2505
aaI01
aF0
aF0
aF0
aF0
aF0
aF0
aF1
aF1
aF1
aF0
aa(lp2506
Vgun_stock_base_out_top_anim_space_switcher
p2507
a(lp2508
Vvisibility
p2509
aVtranslateX
p2510
aVtranslateY
p2511
aVtranslateZ
p2512
aVrotateX
p2513
aVrotateY
p2514
aVrotateZ
p2515
aVscaleX
p2516
aVscaleY
p2517
aVscaleZ
p2518
aVspace_world
p2519
aaI01
aF0
aF0
aF0
aF0
aF0
aF0
aF1
aF1
aF1
aF0
aa(lp2520
Vgun_stock_bott_anim_space_switcher
p2521
a(lp2522
Vvisibility
p2523
aVtranslateX
p2524
aVtranslateY
p2525
aVtranslateZ
p2526
aVrotateX
p2527
aVrotateY
p2528
aVrotateZ
p2529
aVscaleX
p2530
aVscaleY
p2531
aVscaleZ
p2532
aVspace_world
p2533
aaI01
aF0
aF0
aF0
aF0
aF0
aF0
aF1
aF1
aF1
aF0
aa(lp2534
Vgun_stock_in_bott_anim_space_switcher
p2535
a(lp2536
Vvisibility
p2537
aVtranslateX
p2538
aVtranslateY
p2539
aVtranslateZ
p2540
aVrotateX
p2541
aVrotateY
p2542
aVrotateZ
p2543
aVscaleX
p2544
aVscaleY
p2545
aVscaleZ
p2546
aVspace_world
p2547
aaI01
aF0
aF0
aF0
aF0
aF0
aF0
aF1
aF1
aF1
aF0
aa(lp2548
Vgun_stock_in_top_anim_space_switcher
p2549
a(lp2550
Vvisibility
p2551
aVtranslateX
p2552
aVtranslateY
p2553
aVtranslateZ
p2554
aVrotateX
p2555
aVrotateY
p2556
aVrotateZ
p2557
aVscaleX
p2558
aVscaleY
p2559
aVscaleZ
p2560
aVspace_world
p2561
aaI01
aF0
aF0
aF0
aF0
aF0
aF0
aF1
aF1
aF1
aF0
aa(lp2562
Vgun_stock_panel_l_anim_space_switcher
p2563
a(lp2564
Vvisibility
p2565
aVtranslateX
p2566
aVtranslateY
p2567
aVtranslateZ
p2568
aVrotateX
p2569
aVrotateY
p2570
aVrotateZ
p2571
aVscaleX
p2572
aVscaleY
p2573
aVscaleZ
p2574
aVspace_world
p2575
aaI01
aF0
aF0
aF0
aF0
aF0
aF0
aF1
aF1
aF1
aF0
aa(lp2576
Vgun_stock_panel_r_anim_space_switcher
p2577
a(lp2578
Vvisibility
p2579
aVtranslateX
p2580
aVtranslateY
p2581
aVtranslateZ
p2582
aVrotateX
p2583
aVrotateY
p2584
aVrotateZ
p2585
aVscaleX
p2586
aVscaleY
p2587
aVscaleZ
p2588
aVspace_world
p2589
aaI01
aF0
aF0
aF0
aF0
aF0
aF0
aF1
aF1
aF1
aF0
aa(lp2590
Vheel_plate_l_anim_space_switcher
p2591
a(lp2592
Vvisibility
p2593
aVtranslateX
p2594
aVtranslateY
p2595
aVtranslateZ
p2596
aVrotateX
p2597
aVrotateY
p2598
aVrotateZ
p2599
aVscaleX
p2600
aVscaleY
p2601
aVscaleZ
p2602
aVspace_world
p2603
aaI01
aF0
aF0
aF0
aF0
aF0
aF0
aF1
aF1
aF1
aF0
aa(lp2604
Vheel_plate_r_anim_space_switcher
p2605
a(lp2606
Vvisibility
p2607
aVtranslateX
p2608
aVtranslateY
p2609
aVtranslateZ
p2610
aVrotateX
p2611
aVrotateY
p2612
aVrotateZ
p2613
aVscaleX
p2614
aVscaleY
p2615
aVscaleZ
p2616
aVspace_world
p2617
aaI01
aF0
aF0
aF0
aF0
aF0
aF0
aF1
aF1
aF1
aF0
aa(lp2618
Vhelmet_sight_anim_space_switcher
p2619
a(lp2620
Vvisibility
p2621
aVtranslateX
p2622
aVtranslateY
p2623
aVtranslateZ
p2624
aVrotateX
p2625
aVrotateY
p2626
aVrotateZ
p2627
aVscaleX
p2628
aVscaleY
p2629
aVscaleZ
p2630
aVspace_world
p2631
aaI01
aF0
aF0
aF0
aF0
aF0
aF0
aF1
aF1
aF1
aF0
aa(lp2632
Vik_elbow_l_anim_space_switcher
p2633
a(lp2634
Vvisibility
p2635
aVtranslateX
p2636
aVtranslateY
p2637
aVtranslateZ
p2638
aVrotateX
p2639
aVrotateY
p2640
aVrotateZ
p2641
aVscaleX
p2642
aVscaleY
p2643
aVscaleZ
p2644
aVspace_world
p2645
aVspace_body_anim
p2646
aVspace_chest_ik_anim
p2647
aaI01
aF0
aF0
aF0
aF0
aF0
aF0
aF1
aF1
aF1
aF0
aF0
aF0
aa(lp2648
Vik_elbow_r_anim_space_switcher
p2649
a(lp2650
Vvisibility
p2651
aVtranslateX
p2652
aVtranslateY
p2653
aVtranslateZ
p2654
aVrotateX
p2655
aVrotateY
p2656
aVrotateZ
p2657
aVscaleX
p2658
aVscaleY
p2659
aVscaleZ
p2660
aVspace_world
p2661
aVspace_body_anim
p2662
aVspace_chest_ik_anim
p2663
aaI01
aF0
aF0
aF0
aF0
aF0
aF0
aF1
aF1
aF1
aF0
aF0
aF0
aa(lp2664
Vik_foot_anim_l_space_switcher
p2665
a(lp2666
Vvisibility
p2667
aVtranslateX
p2668
aVtranslateY
p2669
aVtranslateZ
p2670
aVrotateX
p2671
aVrotateY
p2672
aVrotateZ
p2673
aVscaleX
p2674
aVscaleY
p2675
aVscaleZ
p2676
aVspace_world
p2677
aVspace_body_anim
p2678
aaI01
aF0
aF0
aF0
aF0
aF0
aF0
aF1
aF1
aF1
aF0
aF0
aa(lp2679
Vik_foot_anim_r_space_switcher
p2680
a(lp2681
Vvisibility
p2682
aVtranslateX
p2683
aVtranslateY
p2684
aVtranslateZ
p2685
aVrotateX
p2686
aVrotateY
p2687
aVrotateZ
p2688
aVscaleX
p2689
aVscaleY
p2690
aVscaleZ
p2691
aVspace_world
p2692
aVspace_body_anim
p2693
aaI01
aF0
aF0
aF0
aF0
aF0
aF0
aF1
aF1
aF1
aF0
aF0
aa(lp2694
Vik_wrist_l_anim_space_switcher
p2695
a(lp2696
Vvisibility
p2697
aVtranslateX
p2698
aVtranslateY
p2699
aVtranslateZ
p2700
aVrotateX
p2701
aVrotateY
p2702
aVrotateZ
p2703
aVscaleX
p2704
aVscaleY
p2705
aVscaleZ
p2706
aVspace_world
p2707
aVspace_body_anim
p2708
aVspace_head_fk_anim
p2709
aVspace_chest_ik_anim
p2710
aVspace_driver_gun_stock_bott
p2711
aaI01
aF0
aF0
aF0
aF0
aF0
aF0
aF1
aF1
aF1
aF0
aF0
aF0
aF0
aF0
aa(lp2712
Vik_wrist_r_anim_space_switcher
p2713
a(lp2714
Vvisibility
p2715
aVtranslateX
p2716
aVtranslateY
p2717
aVtranslateZ
p2718
aVrotateX
p2719
aVrotateY
p2720
aVrotateZ
p2721
aVscaleX
p2722
aVscaleY
p2723
aVscaleZ
p2724
aVspace_world
p2725
aVspace_body_anim
p2726
aVspace_head_fk_anim
p2727
aVspace_chest_ik_anim
p2728
aaI01
aF0
aF0
aF0
aF0
aF0
aF0
aF1
aF1
aF1
aF0
aF0
aF0
aF0
aa(lp2729
Vjaw_anim_space_switcher
p2730
a(lp2731
Vvisibility
p2732
aVtranslateX
p2733
aVtranslateY
p2734
aVtranslateZ
p2735
aVrotateX
p2736
aVrotateY
p2737
aVrotateZ
p2738
aVscaleX
p2739
aVscaleY
p2740
aVscaleZ
p2741
aVspace_world
p2742
aaI01
aF0
aF0
aF0
aF0
aF0
aF0
aF1
aF1
aF1
aF0
aa(lp2743
Vl_global_ik_anim_space_switcher
p2744
a(lp2745
Vvisibility
p2746
aVtranslateX
p2747
aVtranslateY
p2748
aVtranslateZ
p2749
aVrotateX
p2750
aVrotateY
p2751
aVrotateZ
p2752
aVscaleX
p2753
aVscaleY
p2754
aVscaleZ
p2755
aVspace_world
p2756
aaI01
aF0
aF0
aF0
aF0
aF0
aF0
aF1
aF1
aF1
aF0
aa(lp2757
Vmask_anim_space_switcher
p2758
a(lp2759
Vvisibility
p2760
aVtranslateX
p2761
aVtranslateY
p2762
aVtranslateZ
p2763
aVrotateX
p2764
aVrotateY
p2765
aVrotateZ
p2766
aVscaleX
p2767
aVscaleY
p2768
aVscaleZ
p2769
aVspace_world
p2770
aVspace_driver_hand_l
p2771
aVspace_driver_hand_r
p2772
aaI01
aF0
aF0
aF0
aF0
aF0
aF0
aF1
aF1
aF1
aF0
aF0
aF0
aa(lp2773
Vmaster_anim_space_switcher
p2774
a(lp2775
Vvisibility
p2776
aVtranslateX
p2777
aVtranslateY
p2778
aVtranslateZ
p2779
aVrotateX
p2780
aVrotateY
p2781
aVrotateZ
p2782
aVscaleX
p2783
aVscaleY
p2784
aVscaleZ
p2785
aVspace_world
p2786
aaI01
aF0
aF0
aF0
aF0
aF0
aF0
aF1
aF1
aF1
aF0
aa(lp2787
Vpack_hose_in_anim_space_switcher
p2788
a(lp2789
Vvisibility
p2790
aVtranslateX
p2791
aVtranslateY
p2792
aVtranslateZ
p2793
aVrotateX
p2794
aVrotateY
p2795
aVrotateZ
p2796
aVscaleX
p2797
aVscaleY
p2798
aVscaleZ
p2799
aVspace_world
p2800
aaI01
aF0
aF0
aF0
aF0
aF0
aF0
aF1
aF1
aF1
aF0
aa(lp2801
Vpack_hose_out_anim_space_switcher
p2802
a(lp2803
Vvisibility
p2804
aVtranslateX
p2805
aVtranslateY
p2806
aVtranslateZ
p2807
aVrotateX
p2808
aVrotateY
p2809
aVrotateZ
p2810
aVscaleX
p2811
aVscaleY
p2812
aVscaleZ
p2813
aVspace_world
p2814
aaI01
aF0
aF0
aF0
aF0
aF0
aF0
aF1
aF1
aF1
aF0
aa(lp2815
Vr_global_ik_anim_space_switcher
p2816
a(lp2817
Vvisibility
p2818
aVtranslateX
p2819
aVtranslateY
p2820
aVtranslateZ
p2821
aVrotateX
p2822
aVrotateY
p2823
aVrotateZ
p2824
aVscaleX
p2825
aVscaleY
p2826
aVscaleZ
p2827
aVspace_world
p2828
aaI01
aF0
aF0
aF0
aF0
aF0
aF0
aF1
aF1
aF1
aF0
aa(lp2829
Vshotgun_anim_space_switcher
p2830
a(lp2831
Vvisibility
p2832
aVtranslateX
p2833
aVtranslateY
p2834
aVtranslateZ
p2835
aVrotateX
p2836
aVrotateY
p2837
aVrotateZ
p2838
aVscaleX
p2839
aVscaleY
p2840
aVscaleZ
p2841
aVspace_world
p2842
aVspace_driver_hand_l
p2843
aaI01
aF0
aF0
aF0
aF0
aF0
aF0
aF1
aF1
aF1
aF0
aF0
aa(lp2844
Vshotgun_base_anim_space_switcher
p2845
a(lp2846
Vvisibility
p2847
aVtranslateX
p2848
aVtranslateY
p2849
aVtranslateZ
p2850
aVrotateX
p2851
aVrotateY
p2852
aVrotateZ
p2853
aVscaleX
p2854
aVscaleY
p2855
aVscaleZ
p2856
aVspace_world
p2857
aaI01
aF0
aF0
aF0
aF0
aF0
aF0
aF1
aF1
aF1
aF0
aa(lp2858
Vshotgun_clip_anim_space_switcher
p2859
a(lp2860
Vvisibility
p2861
aVtranslateX
p2862
aVtranslateY
p2863
aVtranslateZ
p2864
aVrotateX
p2865
aVrotateY
p2866
aVrotateZ
p2867
aVscaleX
p2868
aVscaleY
p2869
aVscaleZ
p2870
aVspace_world
p2871
aaI01
aF0
aF0
aF0
aF0
aF0
aF0
aF1
aF1
aF1
aF0
aa(lp2872
Vsniper_can_arm_01_anim_space_switcher
p2873
a(lp2874
Vvisibility
p2875
aVtranslateX
p2876
aVtranslateY
p2877
aVtranslateZ
p2878
aVrotateX
p2879
aVrotateY
p2880
aVrotateZ
p2881
aVscaleX
p2882
aVscaleY
p2883
aVscaleZ
p2884
aVspace_world
p2885
aaI01
aF0
aF0
aF0
aF0
aF0
aF0
aF1
aF1
aF1
aF0
aa(lp2886
Vsniper_can_arm_02_anim_space_switcher
p2887
a(lp2888
Vvisibility
p2889
aVtranslateX
p2890
aVtranslateY
p2891
aVtranslateZ
p2892
aVrotateX
p2893
aVrotateY
p2894
aVrotateZ
p2895
aVscaleX
p2896
aVscaleY
p2897
aVscaleZ
p2898
aVspace_world
p2899
aaI01
aF0
aF0
aF0
aF0
aF0
aF0
aF1
aF1
aF1
aF0
aa(lp2900
Vsniper_can_arm_03_anim_space_switcher
p2901
a(lp2902
Vvisibility
p2903
aVtranslateX
p2904
aVtranslateY
p2905
aVtranslateZ
p2906
aVrotateX
p2907
aVrotateY
p2908
aVrotateZ
p2909
aVscaleX
p2910
aVscaleY
p2911
aVscaleZ
p2912
aVspace_world
p2913
aVspace_driver_hand_l
p2914
aVspace_driver_gun
p2915
aaI01
aF0
aF0
aF0
aF0
aF0
aF0
aF1
aF1
aF1
aF0
aF0
aF0
aa(lp2916
Vspine_01_space_switcher
p2917
a(lp2918
Vvisibility
p2919
aVtranslateX
p2920
aVtranslateY
p2921
aVtranslateZ
p2922
aVrotateX
p2923
aVrotateY
p2924
aVrotateZ
p2925
aVscaleX
p2926
aVscaleY
p2927
aVscaleZ
p2928
aVspace_world
p2929
aaI01
aF0
aF0
aF0
aF0
aF0
aF0
aF1
aF1
aF1
aF0
aa(lp2930
Vtrap_handle_anim_space_switcher
p2931
a(lp2932
Vvisibility
p2933
aVtranslateX
p2934
aVtranslateY
p2935
aVtranslateZ
p2936
aVrotateX
p2937
aVrotateY
p2938
aVrotateZ
p2939
aVscaleX
p2940
aVscaleY
p2941
aVscaleZ
p2942
aVspace_world
p2943
aVspace_driver_hand_l
p2944
aaI01
aF0
aF0
aF0
aF0
aF0
aF0
aF1
aF1
aF1
aF0
aF0
aa(lp2945
Vwrist_cover_anim_space_switcher
p2946
a(lp2947
Vvisibility
p2948
aVtranslateX
p2949
aVtranslateY
p2950
aVtranslateZ
p2951
aVrotateX
p2952
aVrotateY
p2953
aVrotateZ
p2954
aVscaleX
p2955
aVscaleY
p2956
aVscaleZ
p2957
aVspace_world
p2958
aaI01
aF0
aF0
aF0
aF0
aF0
aF0
aF1
aF1
aF1
aF0
aa.