(lp1
(lp2
S'fk_clavicle_r_anim'
p3
a(lp4
VtranslateX
p5
aVtranslateY
p6
aVtranslateZ
p7
aVrotateX
p8
aVrotateY
p9
aVrotateZ
p10
aaF0
aF0
aF0
aF0
aF0
aF0
aa(lp11
S'fk_clavicle_l_anim'
p12
a(lp13
VtranslateX
p14
aVtranslateY
p15
aVtranslateZ
p16
aVrotateX
p17
aVrotateY
p18
aVrotateZ
p19
aaF0
aF0
aF0
aF0
aF0
aF0
aa(lp20
S'head_fk_anim'
p21
a(lp22
VtranslateX
p23
aVtranslateY
p24
aVtranslateZ
p25
aVrotateX
p26
aVrotateY
p27
aVrotateZ
p28
aVscaleX
p29
aVscaleY
p30
aVscaleZ
p31
aVfkOrientation
p32
aVblendOrient1
p33
aaF0
aF0
aF0
aF49.815702743913427
aF0.0074763016719021913
aF7.854371587301527
aF1
aF1
aF1
aI0
aF1
aa(lp34
S'neck_01_fk_anim'
p35
a(lp36
VtranslateX
p37
aVtranslateY
p38
aVtranslateZ
p39
aVrotateX
p40
aVrotateY
p41
aVrotateZ
p42
aVscaleX
p43
aVscaleY
p44
aVscaleZ
p45
aVfkOrientation
p46
aaF0
aF0
aF-1.5777218104420236e-30
aF17.127414531712112
aF-4.1421073974166456
aF-8.1392895545989212
aF1
aF1.0000000000000002
aF1.0000000000000002
aI0
aa(lp47
S'spine_01_anim'
p48
a(lp49
Vlength
p50
aVtranslateY
p51
aVtranslateZ
p52
aVrotateX
p53
aVrotateY
p54
aVrotateZ
p55
aVblendOrient1
p56
aaF0
aF0
aF0
aF-1.3705963955636449
aF-2.7386972059248746
aF-4.5540805738008743
aF1
aa(lp57
S'spine_02_anim'
p58
a(lp59
Vlength
p60
aVtranslateY
p61
aVtranslateZ
p62
aVrotateX
p63
aVrotateY
p64
aVrotateZ
p65
aVblendOrient1
p66
aaF0
aF0
aF0
aF-4.8759478506333496
aF-3.5636175951431923
aF-3.6335120992102836
aF1
aa(lp67
S'spine_03_anim'
p68
a(lp69
Vlength
p70
aVtranslateY
p71
aVtranslateZ
p72
aVrotateX
p73
aVrotateY
p74
aVrotateZ
p75
aVblendOrient1
p76
aaF0
aF0
aF0
aF-4.6059855935713605
aF-3.8591098744767716
aF-3.6894353355043958
aF1
aa(lp77
S'mid_ik_anim'
p78
a(lp79
VtranslateX
p80
aVtranslateY
p81
aVtranslateZ
p82
aVrotateX
p83
aVrotateY
p84
aVrotateZ
p85
aVblendParent1
p86
aaF-0.12534073123072176
aF-2.2090616856664287
aF0.62188510843729716
aF-5.6079407442172169
aF-7.0089583024720286
aF4.5279342410715291
aF1
aa(lp87
S'chest_ik_anim'
p88
a(lp89
VtranslateX
p90
aVtranslateY
p91
aVtranslateZ
p92
aVrotateX
p93
aVrotateY
p94
aVrotateZ
p95
aVstretch
p96
aVsquash
p97
aVtwist_amount
p98
aVautoSpine
p99
aVrotationInfluence
p100
aVblendParent1
p101
aaF0.1265093730980027
aF-2.6974259782818697
aF2.1008448812364122
aF-12.629282954985074
aF-5.5708894518795695
aF3.3542676015942687
aF0
aF0
aF1
aF0
aF0.25
aF1
aa(lp102
S'body_anim'
p103
a(lp104
VtranslateX
p105
aVtranslateY
p106
aVtranslateZ
p107
aVrotateX
p108
aVrotateY
p109
aVrotateZ
p110
aVblendParent1
p111
aaF-11.665113923835346
aF0.27397226899617366
aF-10.185701489053118
aF-60.047452493682648
aF17.260517787788
aF-14.292874060328197
aF1
aa(lp112
S'hip_anim'
p113
a(lp114
VtranslateX
p115
aVtranslateY
p116
aVtranslateZ
p117
aVrotateX
p118
aVrotateY
p119
aVrotateZ
p120
aVlCalfTwistCtrlVis
p121
aVrCalfTwistCtrlVis
p122
aVautoHips
p123
aaF0
aF0
aF1.2621774483536189e-29
aF29.365925623874659
aF-4.6834291290775925
aF10.606492973918295
aI00
aI00
aF0
aa(lp124
S'clavicle_l_anim'
p125
a(lp126
VtranslateX
p127
aVtranslateY
p128
aVtranslateZ
p129
aVautoShoulders
p130
aVblendPoint1
p131
aaF-10.51002603691493
aF-3.4798824724092712
aF5.555484736898662
aF0.23391779396462017
aF1
aa(lp132
S'clavicle_r_anim'
p133
a(lp134
VtranslateX
p135
aVtranslateY
p136
aVtranslateZ
p137
aVautoShoulders
p138
aVblendPoint1
p139
aaF-3.0702423758501647
aF-4.802171674435411
aF6.5826119609843703
aF0.19117585848074922
aF1
aa(lp140
S'fk_arm_l_anim'
p141
a(lp142
VtranslateX
p143
aVtranslateY
p144
aVtranslateZ
p145
aVrotateX
p146
aVrotateY
p147
aVrotateZ
p148
aaF0
aF0
aF0
aF3.1327575132078986
aF76.317914517296217
aF16.391066699832955
aa(lp149
S'fk_arm_r_anim'
p150
a(lp151
VtranslateX
p152
aVtranslateY
p153
aVtranslateZ
p154
aVrotateX
p155
aVrotateY
p156
aVrotateZ
p157
aVblendOrient1
p158
aaF0
aF0
aF0
aF22.679515645095599
aF58.170020711758276
aF-41.933051509525988
aF1
aa(lp159
S'fk_elbow_l_anim'
p160
a(lp161
VtranslateX
p162
aVtranslateY
p163
aVtranslateZ
p164
aVrotateX
p165
aVrotateY
p166
aVrotateZ
p167
aaF0
aF0
aF0
aF0.30393959466910786
aF0.21521692669537454
aF-104.69840350828024
aa(lp168
S'fk_elbow_r_anim'
p169
a(lp170
VtranslateX
p171
aVtranslateY
p172
aVtranslateZ
p173
aVrotateX
p174
aVrotateY
p175
aVrotateZ
p176
aVblendOrient1
p177
aaF0
aF0
aF0
aF36.939380645751953
aF-27.89997673034668
aF-101.08219146728516
aF1
aa(lp178
S'fk_wrist_l_anim'
p179
a(lp180
VtranslateX
p181
aVtranslateY
p182
aVtranslateZ
p183
aVrotateX
p184
aVrotateY
p185
aVrotateZ
p186
aaF0
aF0
aF0
aF-75.798406629076467
aF-23.712456245371623
aF-5.3863236187962142
aa(lp187
S'fk_wrist_r_anim'
p188
a(lp189
VtranslateX
p190
aVtranslateY
p191
aVtranslateZ
p192
aVrotateX
p193
aVrotateY
p194
aVrotateZ
p195
aVblendOrient1
p196
aaF0
aF0
aF0
aF-71.908111572265625
aF-8.9827442169189471
aF-14.362060546875002
aF1
aa(lp197
S'ik_elbow_l_anim'
p198
a(lp199
VtranslateX
p200
aVtranslateY
p201
aVtranslateZ
p202
aVblendPoint1
p203
aaF-11.424612444827739
aF-45.995628284356663
aF-61.004430997211998
aF1
aa(lp204
S'ik_elbow_r_anim'
p205
a(lp206
VtranslateX
p207
aVtranslateY
p208
aVtranslateZ
p209
aVblendPoint1
p210
aaF19.693314725642715
aF36.715637496100413
aF-27.254551428607826
aF1
aa(lp211
S'ik_wrist_l_anim'
p212
a(lp213
VtranslateX
p214
aVtranslateY
p215
aVtranslateZ
p216
aVrotateX
p217
aVrotateY
p218
aVrotateZ
p219
aVstretch
p220
aVsquash
p221
aVstretchBias
p222
aVside
p223
aVmid_bend
p224
aVmid_swivel
p225
aVtip_pivot
p226
aVtip_swivel
p227
aaF-82.318299212279669
aF-53.509992189613065
aF-44.200474963962591
aF15.182547425641946
aF160.36234512211135
aF32.414732566882122
aF0
aF0
aF0
aF0
aF0
aF0
aF0
aF0
aa(lp228
S'ik_wrist_r_anim'
p229
a(lp230
VtranslateX
p231
aVtranslateY
p232
aVtranslateZ
p233
aVrotateX
p234
aVrotateY
p235
aVrotateZ
p236
aVstretch
p237
aVsquash
p238
aVstretchBias
p239
aVside
p240
aVmid_bend
p241
aVmid_swivel
p242
aVtip_pivot
p243
aVtip_swivel
p244
aVblendParent1
p245
aaF44.379695413522541
aF3.297914864231815
aF-35.421739150963013
aF-88.144784798829633
aF-30.325204906841261
aF94.967753840627026
aF0
aF0
aF0
aF0
aF0
aF0
aF0
aF0
aF1
aa(lp246
S'fk_thigh_l_anim'
p247
a(lp248
VrotateX
p249
aVrotateY
p250
aVrotateZ
p251
aVblendOrient1
p252
aaF0.71405654320487189
aF-5.3397994084761615
aF37.269115722878169
aF1
aa(lp253
S'fk_thigh_r_anim'
p254
a(lp255
VrotateX
p256
aVrotateY
p257
aVrotateZ
p258
aVblendOrient1
p259
aaF2.778559486059923
aF8.0553749770064904
aF49.688424452333109
aF1
aa(lp260
S'fk_calf_l_anim'
p261
a(lp262
VrotateX
p263
aVrotateY
p264
aVrotateZ
p265
aVblendOrient1
p266
aaF1.0256866366419117
aF1.7973043398606865
aF-65.674674178435808
aF1
aa(lp267
S'fk_calf_r_anim'
p268
a(lp269
VrotateX
p270
aVrotateY
p271
aVrotateZ
p272
aVblendOrient1
p273
aaF2.54356112226675
aF-2.0523993662090847
aF-78.867623194202991
aF1
aa(lp274
S'fk_foot_l_anim'
p275
a(lp276
VrotateX
p277
aVrotateY
p278
aVrotateZ
p279
aVblendOrient1
p280
aaF13.357592984391317
aF-14.40653224004793
aF39.606693309788021
aF1
aa(lp281
S'fk_foot_r_anim'
p282
a(lp283
VrotateX
p284
aVrotateY
p285
aVrotateZ
p286
aVblendOrient1
p287
aaF2.5292093531371349
aF1.9845806430982083
aF5.7194594347329675
aF1
aa(lp288
S'fk_ball_l_anim'
p289
a(lp290
VrotateX
p291
aVrotateY
p292
aVrotateZ
p293
aVblendOrient1
p294
aaF0.072263546288013195
aF-0.0012630370910910907
aF-0.52926856279373014
aF1
aa(lp295
S'fk_ball_r_anim'
p296
a(lp297
VrotateX
p298
aVrotateY
p299
aVrotateZ
p300
aVblendOrient1
p301
aaF0.0087412353605033095
aF-0.00095365033488104976
aF-0.20549008250236422
aF1
aa(lp302
S'ik_foot_anim_l'
p303
a(lp304
VtranslateX
p305
aVtranslateY
p306
aVtranslateZ
p307
aVrotateX
p308
aVrotateY
p309
aVrotateZ
p310
aVknee_twist
p311
aVstretch
p312
aVsquash
p313
aVtoeCtrlVis
p314
aVstretchBias
p315
aVblendPoint1
p316
aVblendOrient1
p317
aaF1.229900886365062
aF8.445596733834158
aF0.50658145143303202
aF3.0292314070199193
aF-3.770739019482809
aF-21.534849591938489
aF-20.330279961593646
aF0
aF0
aI00
aF0
aF1
aF1
aa(lp318
S'ik_foot_anim_r'
p319
a(lp320
VtranslateX
p321
aVtranslateY
p322
aVtranslateZ
p323
aVrotateX
p324
aVrotateY
p325
aVrotateZ
p326
aVknee_twist
p327
aVstretch
p328
aVsquash
p329
aVtoeCtrlVis
p330
aVstretchBias
p331
aVblendPoint1
p332
aVblendOrient1
p333
aaF12.705784634811934
aF18.592705145798512
aF13.710622343427287
aF217.50670360907532
aF165.53414353914789
aF137.31626694671911
aF35.100000000000001
aF0
aF0
aI00
aF0
aF1
aF1
aa(lp334
S'heel_ctrl_l'
p335
a(lp336
VrotateX
p337
aVrotateY
p338
aVrotateZ
p339
aVheelPivot
p340
aVballPivot
p341
aaF0
aF0
aF0
aF0
aF0
aa(lp342
S'heel_ctrl_r'
p343
a(lp344
VrotateX
p345
aVrotateY
p346
aVrotateZ
p347
aVheelPivot
p348
aVballPivot
p349
aaF0
aF0
aF0
aF0
aF0
aa(lp350
S'toe_wiggle_ctrl_l'
p351
a(lp352
VrotateX
p353
aVrotateY
p354
aVrotateZ
p355
aaF0
aF0
aF0
aa(lp356
S'toe_wiggle_ctrl_r'
p357
a(lp358
VrotateX
p359
aVrotateY
p360
aVrotateZ
p361
aaF0
aF0
aF0
aa(lp362
S'toe_tip_ctrl_l'
p363
a(lp364
VrotateX
p365
aVrotateY
p366
aVrotateZ
p367
aaF0
aF0
aF0
aa(lp368
S'toe_tip_ctrl_r'
p369
a(lp370
VrotateX
p371
aVrotateY
p372
aVrotateZ
p373
aaF0
aF0
aF0
aa(lp374
S'master_anim'
p375
a(lp376
VtranslateX
p377
aVtranslateY
p378
aVtranslateZ
p379
aVrotateX
p380
aVrotateY
p381
aVrotateZ
p382
aaF0
aF0
aF0
aF0
aF0
aF0
aa(lp383
S'offset_anim'
p384
a(lp385
VtranslateX
p386
aVtranslateY
p387
aVtranslateZ
p388
aVrotateX
p389
aVrotateY
p390
aVrotateZ
p391
aaF0
aF0
aF0
aF0
aF0
aF0
aa(lp392
S'root_anim'
p393
a(lp394
VtranslateX
p395
aVtranslateY
p396
aVtranslateZ
p397
aVrotateX
p398
aVrotateY
p399
aVrotateZ
p400
aaF0
aF0
aF0
aF0
aF0
aF0
aa(lp401
S'upperarm_l_twist_anim'
p402
a(lp403
VtranslateX
p404
aVtranslateY
p405
aVtranslateZ
p406
aVrotateX
p407
aVrotateY
p408
aVrotateZ
p409
aVscaleX
p410
aVscaleY
p411
aVscaleZ
p412
aaF0
aF-1.7763568394002505e-15
aF0
aF0
aF0
aF0
aF1
aF1
aF1
aa(lp413
S'upperarm_l_twist_2_anim'
p414
a(lp415
VtranslateX
p416
aVtranslateY
p417
aVtranslateZ
p418
aVrotateX
p419
aVrotateY
p420
aVrotateZ
p421
aVscaleX
p422
aVscaleY
p423
aVscaleZ
p424
aaF0
aF1.7763568394002505e-15
aF0
aF0
aF0
aF0
aF1
aF1
aF1
aa(lp425
S'upperarm_r_twist_anim'
p426
a(lp427
VtranslateX
p428
aVtranslateY
p429
aVtranslateZ
p430
aVrotateX
p431
aVrotateY
p432
aVrotateZ
p433
aVscaleX
p434
aVscaleY
p435
aVscaleZ
p436
aaF-3.5527136788005009e-15
aF3.5527136788005009e-15
aF-2.8421709430404007e-14
aF0
aF0
aF0
aF1
aF1
aF1
aa(lp437
S'upperarm_r_twist_2_anim'
p438
a(lp439
VtranslateX
p440
aVtranslateY
p441
aVtranslateZ
p442
aVrotateX
p443
aVrotateY
p444
aVrotateZ
p445
aVscaleX
p446
aVscaleY
p447
aVscaleZ
p448
aaF-7.1054273576010019e-15
aF0
aF2.8421709430404007e-14
aF0
aF0
aF0
aF1
aF1
aF1
aa(lp449
S'lowerarm_l_twist_anim'
p450
a(lp451
VtranslateX
p452
aVtranslateY
p453
aVtranslateZ
p454
aVrotateX
p455
aVrotateY
p456
aVrotateZ
p457
aaF0
aF0
aF0
aF0
aF0
aF0
aa(lp458
S'lowerarm_r_twist_anim'
p459
a(lp460
VtranslateX
p461
aVtranslateY
p462
aVtranslateZ
p463
aVrotateX
p464
aVrotateY
p465
aVrotateZ
p466
aaF0
aF0
aF0
aF0
aF0
aF0
aa(lp467
S'l_thigh_twist_01_anim'
p468
a(lp469
VtranslateX
p470
aVtranslateY
p471
aVtranslateZ
p472
aVrotateX
p473
aVrotateY
p474
aVrotateZ
p475
aVscaleX
p476
aVscaleY
p477
aVscaleZ
p478
aaF-2.8421709430404007e-14
aF-8.8817841970012523e-16
aF0
aF0
aF0
aF0
aF1
aF1
aF1
aa(lp479
S'r_thigh_twist_01_anim'
p480
a(lp481
VtranslateX
p482
aVtranslateY
p483
aVtranslateZ
p484
aVrotateX
p485
aVrotateY
p486
aVrotateZ
p487
aVscaleX
p488
aVscaleY
p489
aVscaleZ
p490
aaF2.8421709430404007e-14
aF0
aF0
aF0
aF0
aF0
aF1
aF1
aF1
aa(lp491
S'pinky_finger_fk_ctrl_1_l'
p492
a(lp493
VtranslateX
p494
aVtranslateY
p495
aVtranslateZ
p496
aVrotateX
p497
aVrotateY
p498
aVrotateZ
p499
aVsticky
p500
aVblendOrient1
p501
aaF0.019498285388217761
aF0.57465450232680537
aF-0.012465293119438735
aF7.7630848118714582
aF3.3222092666701148
aF52.565135361419408
aF0
aF0
aa(lp502
S'pinky_finger_fk_ctrl_1_r'
p503
a(lp504
VtranslateX
p505
aVtranslateY
p506
aVtranslateZ
p507
aVrotateX
p508
aVrotateY
p509
aVrotateZ
p510
aVsticky
p511
aVblendOrient1
p512
aaF0
aF0
aF0
aF-12.038537149107768
aF-15.346512905441463
aF61.069669371678827
aF0
aF0
aa(lp513
S'pinky_finger_fk_ctrl_2_l'
p514
a(lp515
VtranslateX
p516
aVtranslateY
p517
aVtranslateZ
p518
aVrotateX
p519
aVrotateY
p520
aVrotateZ
p521
aVblendOrient1
p522
aaF0
aF0
aF0
aF-5.4671137340668645
aF4.8045469855154881
aF-8.7200932187199989
aF0
aa(lp523
S'pinky_finger_fk_ctrl_2_r'
p524
a(lp525
VtranslateX
p526
aVtranslateY
p527
aVtranslateZ
p528
aVrotateX
p529
aVrotateY
p530
aVrotateZ
p531
aVblendOrient1
p532
aaF0
aF0
aF0
aF4.092621231082858
aF-10.906328913024248
aF36.685285091803422
aF0
aa(lp533
S'pinky_finger_fk_ctrl_3_l'
p534
a(lp535
VtranslateX
p536
aVtranslateY
p537
aVtranslateZ
p538
aVrotateX
p539
aVrotateY
p540
aVrotateZ
p541
aVblendOrient1
p542
aaF0
aF0
aF0
aF-19.737430918257342
aF4.8226348587712851
aF17.992099408405753
aF0
aa(lp543
S'pinky_finger_fk_ctrl_3_r'
p544
a(lp545
VtranslateX
p546
aVtranslateY
p547
aVtranslateZ
p548
aVrotateX
p549
aVrotateY
p550
aVrotateZ
p551
aVblendOrient1
p552
aaF0
aF0
aF0
aF4.0918183326721964
aF-10.42243957519522
aF70.588310241699233
aF0
aa(lp553
S'ring_finger_fk_ctrl_1_l'
p554
a(lp555
VtranslateX
p556
aVtranslateY
p557
aVtranslateZ
p558
aVrotateX
p559
aVrotateY
p560
aVrotateZ
p561
aVsticky
p562
aVblendOrient1
p563
aaF-0.0083448964791337978
aF0.55350502390110901
aF-0.15596767270523595
aF-2.5563661393476287
aF8.9682840233567838
aF49.652889658415262
aF0
aF0
aa(lp564
S'ring_finger_fk_ctrl_1_r'
p565
a(lp566
VtranslateX
p567
aVtranslateY
p568
aVtranslateZ
p569
aVrotateX
p570
aVrotateY
p571
aVrotateZ
p572
aVsticky
p573
aVblendOrient1
p574
aaF0
aF0
aF0
aF-1.8761689618070569
aF-7.6148050121739645
aF58.806392729110243
aF0
aF0
aa(lp575
S'ring_finger_fk_ctrl_2_l'
p576
a(lp577
VtranslateX
p578
aVtranslateY
p579
aVtranslateZ
p580
aVrotateX
p581
aVrotateY
p582
aVrotateZ
p583
aVblendOrient1
p584
aaF0
aF0
aF0
aF-6.0546636127617122
aF-2.4641171730251181
aF9.9056048993928734
aF0
aa(lp585
S'ring_finger_fk_ctrl_2_r'
p586
a(lp587
VtranslateX
p588
aVtranslateY
p589
aVtranslateZ
p590
aVrotateX
p591
aVrotateY
p592
aVrotateZ
p593
aVblendOrient1
p594
aaF0
aF0
aF0
aF1.2678331474032762
aF0.84626236834742452
aF58.15179294196863
aF0
aa(lp595
S'ring_finger_fk_ctrl_3_l'
p596
a(lp597
VtranslateX
p598
aVtranslateY
p599
aVtranslateZ
p600
aVrotateX
p601
aVrotateY
p602
aVrotateZ
p603
aVblendOrient1
p604
aaF0
aF0
aF0
aF0
aF0
aF21.019213376385007
aF0
aa(lp605
S'ring_finger_fk_ctrl_3_r'
p606
a(lp607
VtranslateX
p608
aVtranslateY
p609
aVtranslateZ
p610
aVrotateX
p611
aVrotateY
p612
aVrotateZ
p613
aVblendOrient1
p614
aaF0
aF0
aF0
aF4.968184787457993
aF1.9827603811766792
aF51.810856189638557
aF0
aa(lp615
S'middle_finger_fk_ctrl_1_l'
p616
a(lp617
VtranslateX
p618
aVtranslateY
p619
aVtranslateZ
p620
aVrotateX
p621
aVrotateY
p622
aVrotateZ
p623
aVsticky
p624
aVblendOrient1
p625
aaF-0.047150666871850135
aF0.53850382638743388
aF-0.19635123450015501
aF-10.031814921723624
aF3.08896093820097
aF53.348086341326045
aF0
aF0
aa(lp626
S'middle_finger_fk_ctrl_1_r'
p627
a(lp628
VtranslateX
p629
aVtranslateY
p630
aVtranslateZ
p631
aVrotateX
p632
aVrotateY
p633
aVrotateZ
p634
aVsticky
p635
aVblendOrient1
p636
aaF0
aF0
aF0
aF-1.5576726256467806
aF-7.4905555396410568
aF71.02870484263309
aF0
aF0
aa(lp637
S'middle_finger_fk_ctrl_2_l'
p638
a(lp639
VtranslateX
p640
aVtranslateY
p641
aVtranslateZ
p642
aVrotateX
p643
aVrotateY
p644
aVrotateZ
p645
aVblendOrient1
p646
aaF0
aF0
aF0
aF18.43137263865426
aF6.9129903851227015
aF19.314189521770786
aF0
aa(lp647
S'middle_finger_fk_ctrl_2_r'
p648
a(lp649
VtranslateX
p650
aVtranslateY
p651
aVtranslateZ
p652
aVrotateX
p653
aVrotateY
p654
aVrotateZ
p655
aVblendOrient1
p656
aaF0
aF0
aF0
aF3.1205578674787855
aF-6.3745989768269888
aF87.623761326050996
aF0
aa(lp657
S'middle_finger_fk_ctrl_3_l'
p658
a(lp659
VtranslateX
p660
aVtranslateY
p661
aVtranslateZ
p662
aVrotateX
p663
aVrotateY
p664
aVrotateZ
p665
aVblendOrient1
p666
aaF0
aF0
aF0
aF-33.415324841912494
aF3.6018526705548375
aF18.63023015650424
aF0
aa(lp667
S'middle_finger_fk_ctrl_3_r'
p668
a(lp669
VtranslateX
p670
aVtranslateY
p671
aVtranslateZ
p672
aVrotateX
p673
aVrotateY
p674
aVrotateZ
p675
aVblendOrient1
p676
aaF0
aF0
aF0
aF3.4957659244537962
aF-2.3556907176972621
aF56.61675643920875
aF0
aa(lp677
S'index_finger_fk_ctrl_1_l'
p678
a(lp679
VtranslateX
p680
aVtranslateY
p681
aVtranslateZ
p682
aVrotateX
p683
aVrotateY
p684
aVrotateZ
p685
aVsticky
p686
aVblendOrient1
p687
aaF0
aF0
aF0
aF-27.470599771115058
aF4.1163992310990478
aF21.259937763283922
aF0
aF0
aa(lp688
S'index_finger_fk_ctrl_1_r'
p689
a(lp690
VtranslateX
p691
aVtranslateY
p692
aVtranslateZ
p693
aVrotateX
p694
aVrotateY
p695
aVrotateZ
p696
aVsticky
p697
aVblendOrient1
p698
aaF0
aF0
aF0
aF-3.3387655848653877
aF-6.0928954074903556
aF28.807340222052282
aF0
aF0
aa(lp699
S'index_finger_fk_ctrl_2_l'
p700
a(lp701
VtranslateX
p702
aVtranslateY
p703
aVtranslateZ
p704
aVrotateX
p705
aVrotateY
p706
aVrotateZ
p707
aVblendOrient1
p708
aaF0
aF0
aF0
aF-16.393347263175347
aF-5.3813586539425184
aF28.945357810899054
aF0
aa(lp709
S'index_finger_fk_ctrl_2_r'
p710
a(lp711
VtranslateX
p712
aVtranslateY
p713
aVtranslateZ
p714
aVrotateX
p715
aVrotateY
p716
aVrotateZ
p717
aVblendOrient1
p718
aaF0
aF0
aF0
aF11.878195406430866
aF10.67039299033722
aF79.2649151528354
aF0
aa(lp719
S'index_finger_fk_ctrl_3_l'
p720
a(lp721
VtranslateX
p722
aVtranslateY
p723
aVtranslateZ
p724
aVrotateX
p725
aVrotateY
p726
aVrotateZ
p727
aVblendOrient1
p728
aaF0
aF0
aF0
aF0
aF0
aF22.059717254845935
aF0
aa(lp729
S'index_finger_fk_ctrl_3_r'
p730
a(lp731
VtranslateX
p732
aVtranslateY
p733
aVtranslateZ
p734
aVrotateX
p735
aVrotateY
p736
aVrotateZ
p737
aVblendOrient1
p738
aaF0
aF0
aF0
aF3.8930346965788418
aF12.801635742187861
aF55.805820465087848
aF0
aa(lp739
S'thumb_finger_fk_ctrl_1_l'
p740
a(lp741
VtranslateX
p742
aVtranslateY
p743
aVtranslateZ
p744
aVrotateX
p745
aVrotateY
p746
aVrotateZ
p747
aVsticky
p748
aVblendOrient1
p749
aaF0
aF0
aF0
aF15.254731217907235
aF1.9921205759110532
aF-21.661200833422892
aF0
aF0
aa(lp750
S'thumb_finger_fk_ctrl_1_r'
p751
a(lp752
VtranslateX
p753
aVtranslateY
p754
aVtranslateZ
p755
aVrotateX
p756
aVrotateY
p757
aVrotateZ
p758
aVsticky
p759
aVblendOrient1
p760
aaF0
aF0
aF0
aF13.842244727365063
aF26.503604187545172
aF43.077083507749407
aF0
aF0
aa(lp761
S'thumb_finger_fk_ctrl_2_l'
p762
a(lp763
VtranslateX
p764
aVtranslateY
p765
aVtranslateZ
p766
aVrotateX
p767
aVrotateY
p768
aVrotateZ
p769
aVblendOrient1
p770
aaF0
aF0
aF0
aF0
aF0
aF0
aF0
aa(lp771
S'thumb_finger_fk_ctrl_2_r'
p772
a(lp773
VtranslateX
p774
aVtranslateY
p775
aVtranslateZ
p776
aVrotateX
p777
aVrotateY
p778
aVrotateZ
p779
aVblendOrient1
p780
aaF0
aF0
aF0
aF-1.7716493101714719
aF4.5295816409483507
aF-4.4364118677265898
aF0
aa(lp781
S'thumb_finger_fk_ctrl_3_l'
p782
a(lp783
VtranslateX
p784
aVtranslateY
p785
aVtranslateZ
p786
aVrotateX
p787
aVrotateY
p788
aVrotateZ
p789
aVblendOrient1
p790
aaF0
aF0
aF0
aF-6.997906662654545
aF-2.4044252941487776
aF2.3033591963087394
aF0
aa(lp791
S'thumb_finger_fk_ctrl_3_r'
p792
a(lp793
VtranslateX
p794
aVtranslateY
p795
aVtranslateZ
p796
aVrotateX
p797
aVrotateY
p798
aVrotateZ
p799
aVblendOrient1
p800
aaF0
aF0
aF0
aF9.6091172257146707e-06
aF-4.3910623032876708e-08
aF55.176322325550096
aF0
aa(lp801
S'index_l_ik_anim'
p802
a(lp803
VtranslateX
p804
aVtranslateY
p805
aVtranslateZ
p806
aVrotateX
p807
aVrotateY
p808
aVrotateZ
p809
aVpoleVectorVis
p810
aaF0
aF0
aF0
aF0
aF0
aF0
aF0
aa(lp811
S'index_r_ik_anim'
p812
a(lp813
VtranslateX
p814
aVtranslateY
p815
aVtranslateZ
p816
aVrotateX
p817
aVrotateY
p818
aVrotateZ
p819
aVpoleVectorVis
p820
aaF0
aF0
aF0
aF0
aF0
aF0
aF0
aa(lp821
S'middle_l_ik_anim'
p822
a(lp823
VtranslateX
p824
aVtranslateY
p825
aVtranslateZ
p826
aVrotateX
p827
aVrotateY
p828
aVrotateZ
p829
aVpoleVectorVis
p830
aaF0
aF0
aF0
aF0
aF0
aF0
aF0
aa(lp831
S'middle_r_ik_anim'
p832
a(lp833
VtranslateX
p834
aVtranslateY
p835
aVtranslateZ
p836
aVrotateX
p837
aVrotateY
p838
aVrotateZ
p839
aVpoleVectorVis
p840
aaF0
aF0
aF0
aF0
aF0
aF0
aF0
aa(lp841
S'ring_l_ik_anim'
p842
a(lp843
VtranslateX
p844
aVtranslateY
p845
aVtranslateZ
p846
aVrotateX
p847
aVrotateY
p848
aVrotateZ
p849
aVpoleVectorVis
p850
aaF0
aF0
aF0
aF0
aF0
aF0
aF0
aa(lp851
S'ring_r_ik_anim'
p852
a(lp853
VtranslateX
p854
aVtranslateY
p855
aVtranslateZ
p856
aVrotateX
p857
aVrotateY
p858
aVrotateZ
p859
aVpoleVectorVis
p860
aaF0
aF0
aF0
aF0
aF0
aF0
aF0
aa(lp861
S'pinky_l_ik_anim'
p862
a(lp863
VtranslateX
p864
aVtranslateY
p865
aVtranslateZ
p866
aVrotateX
p867
aVrotateY
p868
aVrotateZ
p869
aVpoleVectorVis
p870
aaF0
aF0
aF0
aF0
aF0
aF0
aF0
aa(lp871
S'pinky_r_ik_anim'
p872
a(lp873
VtranslateX
p874
aVtranslateY
p875
aVtranslateZ
p876
aVrotateX
p877
aVrotateY
p878
aVrotateZ
p879
aVpoleVectorVis
p880
aaF0
aF0
aF0
aF0
aF0
aF0
aF0
aa(lp881
S'thumb_l_ik_anim'
p882
a(lp883
VtranslateX
p884
aVtranslateY
p885
aVtranslateZ
p886
aVrotateX
p887
aVrotateY
p888
aVrotateZ
p889
aVpoleVectorVis
p890
aaF0
aF0
aF0
aF0
aF0
aF0
aF0
aa(lp891
S'thumb_r_ik_anim'
p892
a(lp893
VtranslateX
p894
aVtranslateY
p895
aVtranslateZ
p896
aVrotateX
p897
aVrotateY
p898
aVrotateZ
p899
aVpoleVectorVis
p900
aaF0
aF0
aF0
aF0
aF0
aF0
aF0
aa(lp901
S'index_l_poleVector'
p902
a(lp903
VtranslateX
p904
aVtranslateY
p905
aVtranslateZ
p906
aVrotateX
p907
aVrotateY
p908
aVrotateZ
p909
aaF0
aF0
aF0
aF0
aF0
aF0
aa(lp910
S'index_r_poleVector'
p911
a(lp912
VtranslateX
p913
aVtranslateY
p914
aVtranslateZ
p915
aVrotateX
p916
aVrotateY
p917
aVrotateZ
p918
aaF0
aF0
aF0
aF0
aF0
aF0
aa(lp919
S'middle_l_poleVector'
p920
a(lp921
VtranslateX
p922
aVtranslateY
p923
aVtranslateZ
p924
aVrotateX
p925
aVrotateY
p926
aVrotateZ
p927
aaF0
aF0
aF0
aF0
aF0
aF0
aa(lp928
S'middle_r_poleVector'
p929
a(lp930
VtranslateX
p931
aVtranslateY
p932
aVtranslateZ
p933
aVrotateX
p934
aVrotateY
p935
aVrotateZ
p936
aaF0
aF0
aF0
aF0
aF0
aF0
aa(lp937
S'ring_l_poleVector'
p938
a(lp939
VtranslateX
p940
aVtranslateY
p941
aVtranslateZ
p942
aVrotateX
p943
aVrotateY
p944
aVrotateZ
p945
aaF0
aF0
aF0
aF0
aF0
aF0
aa(lp946
S'ring_r_poleVector'
p947
a(lp948
VtranslateX
p949
aVtranslateY
p950
aVtranslateZ
p951
aVrotateX
p952
aVrotateY
p953
aVrotateZ
p954
aaF0
aF0
aF0
aF0
aF0
aF0
aa(lp955
S'pinky_l_poleVector'
p956
a(lp957
VtranslateX
p958
aVtranslateY
p959
aVtranslateZ
p960
aVrotateX
p961
aVrotateY
p962
aVrotateZ
p963
aaF0
aF0
aF0
aF0
aF0
aF0
aa(lp964
S'pinky_r_poleVector'
p965
a(lp966
VtranslateX
p967
aVtranslateY
p968
aVtranslateZ
p969
aVrotateX
p970
aVrotateY
p971
aVrotateZ
p972
aaF0
aF0
aF0
aF0
aF0
aF0
aa(lp973
S'thumb_l_poleVector'
p974
a(lp975
VtranslateX
p976
aVtranslateY
p977
aVtranslateZ
p978
aVrotateX
p979
aVrotateY
p980
aVrotateZ
p981
aaF0
aF0
aF0
aF0
aF0
aF0
aa(lp982
S'thumb_r_poleVector'
p983
a(lp984
VtranslateX
p985
aVtranslateY
p986
aVtranslateZ
p987
aVrotateX
p988
aVrotateY
p989
aVrotateZ
p990
aaF0
aF0
aF0
aF0
aF0
aF0
aa(lp991
S'l_global_ik_anim'
p992
a(lp993
VtranslateX
p994
aVtranslateY
p995
aVtranslateZ
p996
aVrotateX
p997
aVrotateY
p998
aVrotateZ
p999
aaF0
aF0
aF0
aF0
aF0
aF0
aa(lp1000
S'r_global_ik_anim'
p1001
a(lp1002
VtranslateX
p1003
aVtranslateY
p1004
aVtranslateZ
p1005
aVrotateX
p1006
aVrotateY
p1007
aVrotateZ
p1008
aaF0
aF0
aF0
aF0
aF0
aF0
aa(lp1009
S'Rig_Settings'
p1010
a(lp1011
Vspine_ik
p1012
aVspine_fk
p1013
aVlLegMode
p1014
aVlThighTwistAmount
p1015
aVlThighTwist2Amount
p1016
aVllegTwistCtrlVis
p1017
aVlCalfTwistAmount
p1018
aVrLegMode
p1019
aVrThighTwistAmount
p1020
aVrThighTwist2Amount
p1021
aVrlegTwistCtrlVis
p1022
aVrCalfTwistAmount
p1023
aVlFkArmOrient
p1024
aVlArmMode
p1025
aVlClavMode
p1026
aVlUpperarmTwistAmount
p1027
aVlUpperarmTwist2Amount
p1028
aVltwistCtrlVis
p1029
aVltwistCtrlVisLower
p1030
aVlForearmTwistAmount
p1031
aVrFkArmOrient
p1032
aVrArmMode
p1033
aVrClavMode
p1034
aVrUpperarmTwistAmount
p1035
aVrUpperarmTwist2Amount
p1036
aVrtwistCtrlVis
p1037
aVrtwistCtrlVisLower
p1038
aVrForearmTwistAmount
p1039
aaF1
aF0
aI1
aF1
aF0.59999999999999998
aI00
aF0.5
aI1
aF1
aF0.59999999999999998
aI00
aF0.5
aI0
aI0
aI1
aF0.90000000000000002
aF0.59999999999999998
aI00
aI00
aF0.5
aI0
aI1
aI1
aF0.90000000000000002
aF0.59999999999999998
aI00
aI00
aF0.5
aa(lp1040
S'calf_l_twist_anim'
p1041
a(lp1042
VtranslateX
p1043
aVtranslateY
p1044
aVtranslateZ
p1045
aVrotateX
p1046
aVrotateY
p1047
aVrotateZ
p1048
aaF0
aF0
aF0
aF0
aF0
aF0
aa(lp1049
S'calf_r_twist_anim'
p1050
a(lp1051
VtranslateX
p1052
aVtranslateY
p1053
aVtranslateZ
p1054
aVrotateX
p1055
aVrotateY
p1056
aVrotateZ
p1057
aaF0
aF0
aF0
aF0
aF0
aF0
aa(lp1058
Vbot_loarm_pistonC_bot_anim
p1059
a(lp1060
VtranslateX
p1061
aVtranslateY
p1062
aVtranslateZ
p1063
aVrotateX
p1064
aVrotateY
p1065
aVrotateZ
p1066
aVscaleX
p1067
aVscaleY
p1068
aVscaleZ
p1069
aVblendParent1
p1070
aaF0
aF0
aF0
aF0
aF0
aF0
aF1
aF1
aF1
aF1
aa(lp1071
Vbot_loarm_pistonB_top_anim
p1072
a(lp1073
VtranslateX
p1074
aVtranslateY
p1075
aVtranslateZ
p1076
aVrotateX
p1077
aVrotateY
p1078
aVrotateZ
p1079
aVscaleX
p1080
aVscaleY
p1081
aVscaleZ
p1082
aVblendParent1
p1083
aaF0
aF0
aF0
aF0
aF0
aF0
aF1
aF1
aF1
aF1
aa(lp1084
Vbot_hand_anim
p1085
a(lp1086
VtranslateX
p1087
aVtranslateY
p1088
aVtranslateZ
p1089
aVrotateX
p1090
aVrotateY
p1091
aVrotateZ
p1092
aVscaleX
p1093
aVscaleY
p1094
aVscaleZ
p1095
aVblendParent1
p1096
aaF0
aF0
aF0
aF0
aF0
aF0
aF1
aF1
aF1
aF1
aa(lp1097
Vgun_stock_bott_anim
p1098
a(lp1099
VtranslateX
p1100
aVtranslateY
p1101
aVtranslateZ
p1102
aVrotateX
p1103
aVrotateY
p1104
aVrotateZ
p1105
aVscaleX
p1106
aVscaleY
p1107
aVscaleZ
p1108
aVblendParent1
p1109
aaF0
aF0
aF0
aF0
aF0
aF0
aF1
aF1
aF1
aF1
aa(lp1110
Vbot_loarm_pistonC_top_anim
p1111
a(lp1112
VtranslateX
p1113
aVtranslateY
p1114
aVtranslateZ
p1115
aVrotateX
p1116
aVrotateY
p1117
aVrotateZ
p1118
aVscaleX
p1119
aVscaleY
p1120
aVscaleZ
p1121
aVblendParent1
p1122
aaF0
aF0
aF0
aF0
aF0
aF0
aF1
aF1
aF1
aF1
aa(lp1123
Vjaw_anim
p1124
a(lp1125
VtranslateX
p1126
aVtranslateY
p1127
aVtranslateZ
p1128
aVrotateX
p1129
aVrotateY
p1130
aVrotateZ
p1131
aVscaleX
p1132
aVscaleY
p1133
aVscaleZ
p1134
aVblendParent1
p1135
aaF0
aF0
aF0
aF0
aF0
aF0
aF1
aF1
aF1
aF1
aa(lp1136
Vbot_uparm_pistonC_bot_anim
p1137
a(lp1138
VtranslateX
p1139
aVtranslateY
p1140
aVtranslateZ
p1141
aVrotateX
p1142
aVrotateY
p1143
aVrotateZ
p1144
aVscaleX
p1145
aVscaleY
p1146
aVscaleZ
p1147
aVblendParent1
p1148
aaF0
aF0
aF0
aF0
aF0
aF0
aF1
aF1
aF1
aF1
aa(lp1149
Vankle_plates_r_anim
p1150
a(lp1151
VtranslateX
p1152
aVtranslateY
p1153
aVtranslateZ
p1154
aVrotateX
p1155
aVrotateY
p1156
aVrotateZ
p1157
aVscaleX
p1158
aVscaleY
p1159
aVscaleZ
p1160
aVblendParent1
p1161
aaF0
aF0
aF0
aF0
aF0
aF0
aF1
aF1
aF1
aF1
aa(lp1162
Vbot_uparm_anim
p1163
a(lp1164
VtranslateX
p1165
aVtranslateY
p1166
aVtranslateZ
p1167
aVrotateX
p1168
aVrotateY
p1169
aVrotateZ
p1170
aVscaleX
p1171
aVscaleY
p1172
aVscaleZ
p1173
aVblendParent1
p1174
aaF0
aF0
aF0
aF0
aF0
aF0
aF1
aF1
aF1
aF1
aa(lp1175
Vgun_stock_panel_l_anim
p1176
a(lp1177
VtranslateX
p1178
aVtranslateY
p1179
aVtranslateZ
p1180
aVrotateX
p1181
aVrotateY
p1182
aVrotateZ
p1183
aVscaleX
p1184
aVscaleY
p1185
aVscaleZ
p1186
aVblendParent1
p1187
aaF0
aF0
aF0
aF0
aF0
aF0
aF1
aF1
aF1
aF1
aa(lp1188
Vtrap_handle_anim
p1189
a(lp1190
VtranslateX
p1191
aVtranslateY
p1192
aVtranslateZ
p1193
aVrotateX
p1194
aVrotateY
p1195
aVrotateZ
p1196
aVscaleX
p1197
aVscaleY
p1198
aVscaleZ
p1199
aVblendParent1
p1200
aaF0
aF0
aF0
aF0
aF0
aF0
aF1
aF1
aF1
aF1
aa(lp1201
Vtrap_ring_anim
p1202
a(lp1203
VtranslateX
p1204
aVtranslateY
p1205
aVtranslateZ
p1206
aVrotateX
p1207
aVrotateY
p1208
aVrotateZ
p1209
aVscaleX
p1210
aVscaleY
p1211
aVscaleZ
p1212
aVblendParent1
p1213
aaF0
aF0
aF0
aF0
aF0
aF0
aF1
aF1
aF1
aF1
aa(lp1214
Vgun_anim
p1215
a(lp1216
VtranslateX
p1217
aVtranslateY
p1218
aVtranslateZ
p1219
aVrotateX
p1220
aVrotateY
p1221
aVrotateZ
p1222
aVscaleX
p1223
aVscaleY
p1224
aVscaleZ
p1225
aVblendParent1
p1226
aaF2.2945803711267345
aF0.081511541477898297
aF0.10571991721390051
aF31.434007196564291
aF-0.43412181609596773
aF0.231665907619271
aF1
aF1
aF1
aF0
aa(lp1227
Vgun_scope_anim
p1228
a(lp1229
VtranslateX
p1230
aVtranslateY
p1231
aVtranslateZ
p1232
aVrotateX
p1233
aVrotateY
p1234
aVrotateZ
p1235
aVscaleX
p1236
aVscaleY
p1237
aVscaleZ
p1238
aVblendParent1
p1239
aaF0
aF0
aF0
aF0
aF0
aF0
aF1
aF1
aF1
aF1
aa(lp1240
Vwrist_cover_anim
p1241
a(lp1242
VtranslateX
p1243
aVtranslateY
p1244
aVtranslateZ
p1245
aVrotateX
p1246
aVrotateY
p1247
aVrotateZ
p1248
aVscaleX
p1249
aVscaleY
p1250
aVscaleZ
p1251
aVblendParent1
p1252
aaF0
aF0
aF0
aF0
aF0
aF0
aF1
aF1
aF1
aF1
aa(lp1253
Vbot_uparm_pistonC_top_anim
p1254
a(lp1255
VtranslateX
p1256
aVtranslateY
p1257
aVtranslateZ
p1258
aVrotateX
p1259
aVrotateY
p1260
aVrotateZ
p1261
aVscaleX
p1262
aVscaleY
p1263
aVscaleZ
p1264
aVblendParent1
p1265
aaF0
aF0
aF0
aF0
aF0
aF0
aF1
aF1
aF1
aF1
aa(lp1266
Vgun_barrel_anim
p1267
a(lp1268
VtranslateX
p1269
aVtranslateY
p1270
aVtranslateZ
p1271
aVrotateX
p1272
aVrotateY
p1273
aVrotateZ
p1274
aVscaleX
p1275
aVscaleY
p1276
aVscaleZ
p1277
aVblendParent1
p1278
aaF0
aF0
aF0
aF0
aF0
aF0
aF1
aF1
aF1
aF1
aa(lp1279
Vbot_loarm_anim
p1280
a(lp1281
VtranslateX
p1282
aVtranslateY
p1283
aVtranslateZ
p1284
aVrotateX
p1285
aVrotateY
p1286
aVrotateZ
p1287
aVscaleX
p1288
aVscaleY
p1289
aVscaleZ
p1290
aVblendParent1
p1291
aaF0
aF0
aF0
aF0
aF0
aF0
aF1
aF1
aF1
aF1
aa(lp1292
Vshotgun_base_anim
p1293
a(lp1294
VtranslateX
p1295
aVtranslateY
p1296
aVtranslateZ
p1297
aVrotateX
p1298
aVrotateY
p1299
aVrotateZ
p1300
aVscaleX
p1301
aVscaleY
p1302
aVscaleZ
p1303
aVblendParent1
p1304
aaF0
aF0
aF0
aF0
aF0
aF0
aF1
aF1
aF1
aF1
aa(lp1305
Vhip_pack_c_anim
p1306
a(lp1307
VtranslateX
p1308
aVtranslateY
p1309
aVtranslateZ
p1310
aVrotateX
p1311
aVrotateY
p1312
aVrotateZ
p1313
aVchainAttach
p1314
aVchainStartEnvelope
p1315
aVchainStartFrame
p1316
aVchainStiffness
p1317
aVchainDamping
p1318
aVchainGravity
p1319
aVchainIteration
p1320
aVchainCollide
p1321
aVchainWidthBase
p1322
aVchainWidthExtremity
p1323
aVchainCollideGround
p1324
aVchainCollideGroundHeight
p1325
aVblendParent1
p1326
aaF-4.7393055001466458
aF-10.687730048784644
aF-1.8783940298034594
aF9.7545356858136643
aF3.4128528443548354
aF-30.330183861720933
aI0
aF0
aF1
aF0.10000000000000001
aF0.20000000000000001
aF1
aI1
aI00
aF1
aF1
aI00
aF0
aF1
aa(lp1327
Vhip_pack_b_anim
p1328
a(lp1329
VtranslateX
p1330
aVtranslateY
p1331
aVtranslateZ
p1332
aVrotateX
p1333
aVrotateY
p1334
aVrotateZ
p1335
aVchainAttach
p1336
aVchainStartEnvelope
p1337
aVchainStartFrame
p1338
aVchainStiffness
p1339
aVchainDamping
p1340
aVchainGravity
p1341
aVchainIteration
p1342
aVchainCollide
p1343
aVchainWidthBase
p1344
aVchainWidthExtremity
p1345
aVchainCollideGround
p1346
aVchainCollideGroundHeight
p1347
aVblendParent1
p1348
aaF-1.4989238199940367
aF-7.2772430194011974
aF0.64351328195368751
aF-13.43616986300616
aF-3.1682771119935853
aF-28.87702970644181
aI0
aF0
aF1
aF0.10000000000000001
aF0.20000000000000001
aF1
aI1
aI00
aF1
aF1
aI00
aF0
aF1
aa(lp1349
Vhip_pack_a_anim
p1350
a(lp1351
VtranslateX
p1352
aVtranslateY
p1353
aVtranslateZ
p1354
aVrotateX
p1355
aVrotateY
p1356
aVrotateZ
p1357
aVchainAttach
p1358
aVchainStartEnvelope
p1359
aVchainStartFrame
p1360
aVchainStiffness
p1361
aVchainDamping
p1362
aVchainGravity
p1363
aVchainIteration
p1364
aVchainCollide
p1365
aVchainWidthBase
p1366
aVchainWidthExtremity
p1367
aVchainCollideGround
p1368
aVchainCollideGroundHeight
p1369
aVblendParent1
p1370
aaF-0.74203689650264693
aF-10.908750312945571
aF-2.6550611853871402
aF4.7199551772823245
aF8.4746503298845912
aF-30.474624034368308
aI1
aF0
aF1
aF0.10000000000000001
aF0.20000000000000001
aF1
aI1
aI00
aF1
aF1
aI00
aF0
aF1
aa(lp1371
Vhip_pack_d_anim
p1372
a(lp1373
VtranslateX
p1374
aVtranslateY
p1375
aVtranslateZ
p1376
aVrotateX
p1377
aVrotateY
p1378
aVrotateZ
p1379
aVchainAttach
p1380
aVchainStartEnvelope
p1381
aVchainStartFrame
p1382
aVchainStiffness
p1383
aVchainDamping
p1384
aVchainGravity
p1385
aVchainIteration
p1386
aVchainCollide
p1387
aVchainWidthBase
p1388
aVchainWidthExtremity
p1389
aVchainCollideGround
p1390
aVchainCollideGroundHeight
p1391
aVblendParent1
p1392
aaF-4.9183314154334283
aF-8.8680065244562343
aF0.38580497565777705
aF7.9419111555616357
aF-3.0867773721350864
aF-31.376245566753401
aI1
aF0
aF1
aF0.10000000000000001
aF0.20000000000000001
aF1
aI1
aI00
aF1
aF1
aI00
aF0
aF1
aa(lp1393
Vgun_stock_panel_r_anim
p1394
a(lp1395
VtranslateX
p1396
aVtranslateY
p1397
aVtranslateZ
p1398
aVrotateX
p1399
aVrotateY
p1400
aVrotateZ
p1401
aVscaleX
p1402
aVscaleY
p1403
aVscaleZ
p1404
aVblendParent1
p1405
aaF0
aF0
aF0
aF0
aF0
aF0
aF1
aF1
aF1
aF1
aa(lp1406
Vbot_loarm_pistonD_top_anim
p1407
a(lp1408
VtranslateX
p1409
aVtranslateY
p1410
aVtranslateZ
p1411
aVrotateX
p1412
aVrotateY
p1413
aVrotateZ
p1414
aVscaleX
p1415
aVscaleY
p1416
aVscaleZ
p1417
aVblendParent1
p1418
aaF0
aF0
aF0
aF0
aF0
aF0
aF1
aF1
aF1
aF1
aa(lp1419
Vsniper_can_arm_03_anim
p1420
a(lp1421
VtranslateX
p1422
aVtranslateY
p1423
aVtranslateZ
p1424
aVrotateX
p1425
aVrotateY
p1426
aVrotateZ
p1427
aVscaleX
p1428
aVscaleY
p1429
aVscaleZ
p1430
aVblendParent1
p1431
aaF0
aF0
aF0
aF0
aF0
aF0
aF1
aF1
aF1
aF1
aa(lp1432
Vsniper_can_arm_02_anim
p1433
a(lp1434
VtranslateX
p1435
aVtranslateY
p1436
aVtranslateZ
p1437
aVrotateX
p1438
aVrotateY
p1439
aVrotateZ
p1440
aVscaleX
p1441
aVscaleY
p1442
aVscaleZ
p1443
aVblendParent1
p1444
aaF0
aF0
aF0
aF0
aF0
aF0
aF1
aF1
aF1
aF1
aa(lp1445
Vsniper_can_arm_01_anim
p1446
a(lp1447
VtranslateX
p1448
aVtranslateY
p1449
aVtranslateZ
p1450
aVrotateX
p1451
aVrotateY
p1452
aVrotateZ
p1453
aVscaleX
p1454
aVscaleY
p1455
aVscaleZ
p1456
aVblendParent1
p1457
aaF0
aF0
aF0
aF0
aF0
aF0
aF1
aF1
aF1
aF1
aa(lp1458
Vbot_loarm_twist_anim
p1459
a(lp1460
VtranslateX
p1461
aVtranslateY
p1462
aVtranslateZ
p1463
aVrotateX
p1464
aVrotateY
p1465
aVrotateZ
p1466
aVscaleX
p1467
aVscaleY
p1468
aVscaleZ
p1469
aVblendParent1
p1470
aaF0
aF0
aF0
aF0
aF0
aF0
aF1
aF1
aF1
aF1
aa(lp1471
Vshotgun_anim
p1472
a(lp1473
VtranslateX
p1474
aVtranslateY
p1475
aVtranslateZ
p1476
aVrotateX
p1477
aVrotateY
p1478
aVrotateZ
p1479
aVscaleX
p1480
aVscaleY
p1481
aVscaleZ
p1482
aVshotgun_rotate
p1483
aVshotgun_rail
p1484
aVblendParent1
p1485
aaF0
aF0
aF0
aF0
aF0
aF0
aF1
aF1
aF1
aF0
aF0
aF1
aa(lp1486
Vankle_plates_l_anim
p1487
a(lp1488
VtranslateX
p1489
aVtranslateY
p1490
aVtranslateZ
p1491
aVrotateX
p1492
aVrotateY
p1493
aVrotateZ
p1494
aVscaleX
p1495
aVscaleY
p1496
aVscaleZ
p1497
aVblendParent1
p1498
aaF0.302845717193307
aF-0.039398005218686194
aF0.010362417584534711
aF-9.8364265729316109
aF2.8323941990769481
aF-4.2610484062731668
aF1
aF1
aF1
aF1
aa(lp1499
Vbot_loarm_pistonB_bot_anim
p1500
a(lp1501
VtranslateX
p1502
aVtranslateY
p1503
aVtranslateZ
p1504
aVrotateX
p1505
aVrotateY
p1506
aVrotateZ
p1507
aVscaleX
p1508
aVscaleY
p1509
aVscaleZ
p1510
aVblendParent1
p1511
aaF0
aF0
aF0
aF0
aF0
aF0
aF1
aF1
aF1
aF1
aa(lp1512
Vbot_loarm_pistonD_bot_anim
p1513
a(lp1514
VtranslateX
p1515
aVtranslateY
p1516
aVtranslateZ
p1517
aVrotateX
p1518
aVrotateY
p1519
aVrotateZ
p1520
aVscaleX
p1521
aVscaleY
p1522
aVscaleZ
p1523
aVblendParent1
p1524
aaF0
aF0
aF0
aF0
aF0
aF0
aF1
aF1
aF1
aF1
aa(lp1525
Vgun_stock_bott_in_anim
p1526
a(lp1527
VtranslateX
p1528
aVtranslateY
p1529
aVtranslateZ
p1530
aVrotateX
p1531
aVrotateY
p1532
aVrotateZ
p1533
aVscaleX
p1534
aVscaleY
p1535
aVscaleZ
p1536
aVblendParent1
p1537
aaF0
aF0
aF0
aF0
aF0
aF0
aF1
aF1
aF1
aF1
aa(lp1538
Vgun_stock_top_anim
p1539
a(lp1540
VtranslateX
p1541
aVtranslateY
p1542
aVtranslateZ
p1543
aVrotateX
p1544
aVrotateY
p1545
aVrotateZ
p1546
aVscaleX
p1547
aVscaleY
p1548
aVscaleZ
p1549
aVblendParent1
p1550
aaF0
aF0
aF0
aF0
aF0
aF0
aF1
aF1
aF1
aF1
aa(lp1551
Vshotgun_clip_anim
p1552
a(lp1553
VtranslateX
p1554
aVtranslateY
p1555
aVtranslateZ
p1556
aVrotateX
p1557
aVrotateY
p1558
aVrotateZ
p1559
aVscaleX
p1560
aVscaleY
p1561
aVscaleZ
p1562
aVblendParent1
p1563
aaF0
aF0
aF0
aF0
aF0
aF0
aF1
aF1
aF1
aF1
aa(lp1564
Vankle_plates_l_anim_space_switcher
p1565
a(lp1566
Vvisibility
p1567
aVtranslateX
p1568
aVtranslateY
p1569
aVtranslateZ
p1570
aVrotateX
p1571
aVrotateY
p1572
aVrotateZ
p1573
aVscaleX
p1574
aVscaleY
p1575
aVscaleZ
p1576
aVspace_world
p1577
aaI01
aF0
aF0
aF0
aF0
aF0
aF0
aF1
aF1
aF1
aF0
aa(lp1578
Vankle_plates_r_anim_space_switcher
p1579
a(lp1580
Vvisibility
p1581
aVtranslateX
p1582
aVtranslateY
p1583
aVtranslateZ
p1584
aVrotateX
p1585
aVrotateY
p1586
aVrotateZ
p1587
aVscaleX
p1588
aVscaleY
p1589
aVscaleZ
p1590
aVspace_world
p1591
aaI01
aF-1.7763568394002505e-15
aF-8.8817841970012523e-16
aF0
aF1.2248130215594724e-23
aF-0
aF0
aF1
aF1
aF1
aF0
aa(lp1592
Vbody_anim_space_switcher
p1593
a(lp1594
Vvisibility
p1595
aVtranslateX
p1596
aVtranslateY
p1597
aVtranslateZ
p1598
aVrotateX
p1599
aVrotateY
p1600
aVrotateZ
p1601
aVscaleX
p1602
aVscaleY
p1603
aVscaleZ
p1604
aVspace_world
p1605
aaI01
aF0
aF0
aF0
aF0
aF0
aF0
aF1
aF1
aF1
aF0
aa(lp1606
Vbot_hand_anim_space_switcher
p1607
a(lp1608
Vvisibility
p1609
aVtranslateX
p1610
aVtranslateY
p1611
aVtranslateZ
p1612
aVrotateX
p1613
aVrotateY
p1614
aVrotateZ
p1615
aVscaleX
p1616
aVscaleY
p1617
aVscaleZ
p1618
aVspace_world
p1619
aaI01
aF2.8421709430404007e-14
aF7.1054273576010019e-15
aF1.4210854715202004e-14
aF-1.5902773407317584e-15
aF-0
aF0
aF1
aF1
aF1
aF0
aa(lp1620
Vbot_loarm_anim_space_switcher
p1621
a(lp1622
Vvisibility
p1623
aVtranslateX
p1624
aVtranslateY
p1625
aVtranslateZ
p1626
aVrotateX
p1627
aVrotateY
p1628
aVrotateZ
p1629
aVscaleX
p1630
aVscaleY
p1631
aVscaleZ
p1632
aVspace_world
p1633
aaI01
aF0
aF-7.1054273576010019e-15
aF-2.8421709430404007e-14
aF0
aF-0
aF6.2120208622334312e-18
aF1
aF1
aF1
aF0
aa(lp1634
Vbot_loarm_pistonB_bot_anim_space_switcher
p1635
a(lp1636
Vvisibility
p1637
aVtranslateX
p1638
aVtranslateY
p1639
aVtranslateZ
p1640
aVrotateX
p1641
aVrotateY
p1642
aVrotateZ
p1643
aVscaleX
p1644
aVscaleY
p1645
aVscaleZ
p1646
aVspace_world
p1647
aaI01
aF0
aF0
aF0
aF0
aF1.490885006936023e-16
aF3.975693351829395e-16
aF1.0000000000000002
aF1.0000000000000002
aF1.0000000000000002
aF0
aa(lp1648
Vbot_loarm_pistonB_top_anim_space_switcher
p1649
a(lp1650
Vvisibility
p1651
aVtranslateX
p1652
aVtranslateY
p1653
aVtranslateZ
p1654
aVrotateX
p1655
aVrotateY
p1656
aVrotateZ
p1657
aVscaleX
p1658
aVscaleY
p1659
aVscaleZ
p1660
aVspace_world
p1661
aaI01
aF0
aF0
aF0
aF-3.1805546814635168e-15
aF9.9392333795734899e-17
aF0
aF1
aF1
aF1
aF0
aa(lp1662
Vbot_loarm_pistonC_bot_anim_space_switcher
p1663
a(lp1664
Vvisibility
p1665
aVtranslateX
p1666
aVtranslateY
p1667
aVtranslateZ
p1668
aVrotateX
p1669
aVrotateY
p1670
aVrotateZ
p1671
aVscaleX
p1672
aVscaleY
p1673
aVscaleZ
p1674
aVspace_world
p1675
aaI01
aF-7.1054273576010019e-15
aF3.5527136788005009e-15
aF2.8421709430404007e-14
aF0
aF-1.5902773407317588e-15
aF-1.9878466759146985e-16
aF0.99999999999999989
aF0.99999999999999989
aF1
aF0
aa(lp1676
Vbot_loarm_pistonC_top_anim_space_switcher
p1677
a(lp1678
Vvisibility
p1679
aVtranslateX
p1680
aVtranslateY
p1681
aVtranslateZ
p1682
aVrotateX
p1683
aVrotateY
p1684
aVrotateZ
p1685
aVscaleX
p1686
aVscaleY
p1687
aVscaleZ
p1688
aVspace_world
p1689
aaI01
aF0
aF0
aF-2.8421709430404007e-14
aF0
aF-0
aF9.9392333795734899e-16
aF1
aF1
aF1
aF0
aa(lp1690
Vbot_loarm_pistonD_bot_anim_space_switcher
p1691
a(lp1692
Vvisibility
p1693
aVtranslateX
p1694
aVtranslateY
p1695
aVtranslateZ
p1696
aVrotateX
p1697
aVrotateY
p1698
aVrotateZ
p1699
aVscaleX
p1700
aVscaleY
p1701
aVscaleZ
p1702
aVspace_world
p1703
aaI01
aF0
aF-2.2204460492503131e-16
aF0
aF7.9513867036587919e-16
aF-0
aF4.7708320221952752e-15
aF1
aF1
aF1
aF0
aa(lp1704
Vbot_loarm_pistonD_top_anim_space_switcher
p1705
a(lp1706
Vvisibility
p1707
aVtranslateX
p1708
aVtranslateY
p1709
aVtranslateZ
p1710
aVrotateX
p1711
aVrotateY
p1712
aVrotateZ
p1713
aVscaleX
p1714
aVscaleY
p1715
aVscaleZ
p1716
aVspace_world
p1717
aaI01
aF-1.4210854715202004e-14
aF0
aF0
aF0
aF2.3854160110976376e-15
aF1.5902773407317584e-15
aF1
aF1
aF0.99999999999999978
aF0
aa(lp1718
Vbot_loarm_twist_anim_space_switcher
p1719
a(lp1720
Vvisibility
p1721
aVtranslateX
p1722
aVtranslateY
p1723
aVtranslateZ
p1724
aVrotateX
p1725
aVrotateY
p1726
aVrotateZ
p1727
aVscaleX
p1728
aVscaleY
p1729
aVscaleZ
p1730
aVspace_world
p1731
aVblendOrient1
p1732
aaI01
aF0
aF0
aF0
aF-8.8225794038049727
aF-0.067750214385112834
aF-0.11886412392102257
aF1
aF1
aF1
aF0
aF0
aa(lp1733
Vbot_uparm_anim_space_switcher
p1734
a(lp1735
Vvisibility
p1736
aVtranslateX
p1737
aVtranslateY
p1738
aVtranslateZ
p1739
aVrotateX
p1740
aVrotateY
p1741
aVrotateZ
p1742
aVscaleX
p1743
aVscaleY
p1744
aVscaleZ
p1745
aVspace_world
p1746
aaI01
aF3.5527136788005009e-15
aF0
aF0
aF-7.9513867036587939e-16
aF-0
aF5.9635400277440959e-16
aF0.99999999999999989
aF0.99999999999999978
aF0.99999999999999989
aF0
aa(lp1747
Vbot_uparm_pistonC_bot_anim_space_switcher
p1748
a(lp1749
Vvisibility
p1750
aVtranslateX
p1751
aVtranslateY
p1752
aVtranslateZ
p1753
aVrotateX
p1754
aVrotateY
p1755
aVrotateZ
p1756
aVscaleX
p1757
aVscaleY
p1758
aVscaleZ
p1759
aVspace_world
p1760
aaI01
aF-1.4210854715202004e-14
aF2.8421709430404007e-14
aF-7.1054273576010019e-15
aF3.1805546814635168e-15
aF7.9513867036587919e-16
aF-1.5902773407317584e-15
aF1
aF1
aF1
aF0
aa(lp1761
Vbot_uparm_pistonC_top_anim_space_switcher
p1762
a(lp1763
Vvisibility
p1764
aVtranslateX
p1765
aVtranslateY
p1766
aVtranslateZ
p1767
aVrotateX
p1768
aVrotateY
p1769
aVrotateZ
p1770
aVscaleX
p1771
aVscaleY
p1772
aVscaleZ
p1773
aVspace_world
p1774
aaI01
aF-1.4210854715202004e-14
aF1.7763568394002505e-15
aF0
aF0
aF1.5902773407317584e-15
aF7.9513867036587919e-16
aF1
aF1
aF1
aF0
aa(lp1775
Vchest_ik_anim_space_switcher
p1776
a(lp1777
Vvisibility
p1778
aVtranslateX
p1779
aVtranslateY
p1780
aVtranslateZ
p1781
aVrotateX
p1782
aVrotateY
p1783
aVrotateZ
p1784
aVscaleX
p1785
aVscaleY
p1786
aVscaleZ
p1787
aVspace_world
p1788
aVspace_chest_ik_world_aligned
p1789
aaI01
aF0
aF-3.5527136788005009e-15
aF2.0194839173657902e-28
aF7.0622500768802538e-31
aF-0
aF0
aF1
aF1
aF1
aF0
aF0
aa(lp1790
Vgun_anim_space_switcher
p1791
a(lp1792
Vvisibility
p1793
aVtranslateX
p1794
aVtranslateY
p1795
aVtranslateZ
p1796
aVrotateX
p1797
aVrotateY
p1798
aVrotateZ
p1799
aVscaleX
p1800
aVscaleY
p1801
aVscaleZ
p1802
aVspace_world
p1803
aaI01
aF2.8421709430404007e-14
aF4.4408920985006262e-16
aF0
aF3.7272125173400599e-17
aF-0
aF0
aF0.99999999999999989
aF0.99999999999999989
aF0.99999999999999989
aF0
aa(lp1804
Vgun_barrel_anim_space_switcher
p1805
a(lp1806
Vvisibility
p1807
aVtranslateX
p1808
aVtranslateY
p1809
aVtranslateZ
p1810
aVrotateX
p1811
aVrotateY
p1812
aVrotateZ
p1813
aVscaleX
p1814
aVscaleY
p1815
aVscaleZ
p1816
aVspace_world
p1817
aaI01
aF0
aF-1.7763568394002505e-15
aF-2.8421709430404007e-14
aF-1.1181637552020177e-16
aF1.9878466759146975e-16
aF-7.9513867036587899e-16
aF1.0000000000000002
aF1
aF1.0000000000000002
aF0
aa(lp1818
Vgun_scope_anim_space_switcher
p1819
a(lp1820
Vvisibility
p1821
aVtranslateX
p1822
aVtranslateY
p1823
aVtranslateZ
p1824
aVrotateX
p1825
aVrotateY
p1826
aVrotateZ
p1827
aVscaleX
p1828
aVscaleY
p1829
aVscaleZ
p1830
aVspace_world
p1831
aaI01
aF2.8421709430404007e-14
aF0
aF-2.8421709430404007e-14
aF-1.1181637552020177e-16
aF1.9878466759146975e-16
aF-7.9513867036587899e-16
aF1.0000000000000002
aF1
aF1.0000000000000002
aF0
aa(lp1832
Vgun_stock_bott_anim_space_switcher
p1833
a(lp1834
Vvisibility
p1835
aVtranslateX
p1836
aVtranslateY
p1837
aVtranslateZ
p1838
aVrotateX
p1839
aVrotateY
p1840
aVrotateZ
p1841
aVscaleX
p1842
aVscaleY
p1843
aVscaleZ
p1844
aVspace_world
p1845
aaI01
aF0
aF1.7798262863522041e-15
aF0
aF-6.2120208622334324e-17
aF-0
aF7.9513867036587939e-16
aF0.99999999999999989
aF0.99999999999999989
aF0.99999999999999989
aF0
aa(lp1846
Vgun_stock_bott_in_anim_space_switcher
p1847
a(lp1848
Vvisibility
p1849
aVtranslateX
p1850
aVtranslateY
p1851
aVtranslateZ
p1852
aVrotateX
p1853
aVrotateY
p1854
aVrotateZ
p1855
aVscaleX
p1856
aVscaleY
p1857
aVscaleZ
p1858
aVspace_world
p1859
aaI01
aF-2.8421709430404007e-14
aF0
aF0
aF-1.1181637552020177e-16
aF1.9878466759146975e-16
aF-7.9513867036587899e-16
aF1.0000000000000002
aF1
aF1.0000000000000002
aF0
aa(lp1860
Vgun_stock_panel_l_anim_space_switcher
p1861
a(lp1862
Vvisibility
p1863
aVtranslateX
p1864
aVtranslateY
p1865
aVtranslateZ
p1866
aVrotateX
p1867
aVrotateY
p1868
aVrotateZ
p1869
aVscaleX
p1870
aVscaleY
p1871
aVscaleZ
p1872
aVspace_world
p1873
aaI01
aF2.8421709430404007e-14
aF0
aF-2.8421709430404007e-14
aF-6.2120208622334324e-17
aF-0
aF7.9513867036587939e-16
aF0.99999999999999989
aF0.99999999999999989
aF0.99999999999999989
aF0
aa(lp1874
Vgun_stock_panel_r_anim_space_switcher
p1875
a(lp1876
Vvisibility
p1877
aVtranslateX
p1878
aVtranslateY
p1879
aVtranslateZ
p1880
aVrotateX
p1881
aVrotateY
p1882
aVrotateZ
p1883
aVscaleX
p1884
aVscaleY
p1885
aVscaleZ
p1886
aVspace_world
p1887
aaI01
aF2.8421709430404007e-14
aF0
aF2.8421709430404007e-14
aF0
aF1.9878466759146985e-16
aF7.9513867036587939e-16
aF0.99999999999999989
aF0.99999999999999989
aF0.99999999999999989
aF0
aa(lp1888
Vgun_stock_top_anim_space_switcher
p1889
a(lp1890
Vvisibility
p1891
aVtranslateX
p1892
aVtranslateY
p1893
aVtranslateZ
p1894
aVrotateX
p1895
aVrotateY
p1896
aVrotateZ
p1897
aVscaleX
p1898
aVscaleY
p1899
aVscaleZ
p1900
aVspace_world
p1901
aaI01
aF0
aF-1.3322676295501878e-15
aF0
aF-1.1181637552020177e-16
aF1.9878466759146975e-16
aF-7.9513867036587899e-16
aF1.0000000000000002
aF1
aF1.0000000000000002
aF0
aa(lp1902
Vik_elbow_l_anim_space_switcher
p1903
a(lp1904
Vvisibility
p1905
aVtranslateX
p1906
aVtranslateY
p1907
aVtranslateZ
p1908
aVrotateX
p1909
aVrotateY
p1910
aVrotateZ
p1911
aVscaleX
p1912
aVscaleY
p1913
aVscaleZ
p1914
aVspace_world
p1915
aVspace_body_anim
p1916
aVspace_chest_ik_anim
p1917
aaI00
aF0
aF0
aF0
aF0
aF0
aF0
aF1
aF1
aF1
aF0
aF0
aF0
aa(lp1918
Vik_elbow_r_anim_space_switcher
p1919
a(lp1920
Vvisibility
p1921
aVtranslateX
p1922
aVtranslateY
p1923
aVtranslateZ
p1924
aVrotateX
p1925
aVrotateY
p1926
aVrotateZ
p1927
aVscaleX
p1928
aVscaleY
p1929
aVscaleZ
p1930
aVspace_world
p1931
aVspace_body_anim
p1932
aVspace_chest_ik_anim
p1933
aaI00
aF0
aF0
aF0
aF0
aF0
aF0
aF1
aF1
aF1
aF0
aF0
aF0
aa(lp1934
Vik_foot_anim_l_space_switcher
p1935
a(lp1936
Vvisibility
p1937
aVtranslateX
p1938
aVtranslateY
p1939
aVtranslateZ
p1940
aVrotateX
p1941
aVrotateY
p1942
aVrotateZ
p1943
aVscaleX
p1944
aVscaleY
p1945
aVscaleZ
p1946
aVspace_world
p1947
aVspace_body_anim
p1948
aaI01
aF0
aF0
aF0
aF0
aF0
aF0
aF1
aF1
aF1
aF0
aF0
aa(lp1949
Vik_foot_anim_r_space_switcher
p1950
a(lp1951
Vvisibility
p1952
aVtranslateX
p1953
aVtranslateY
p1954
aVtranslateZ
p1955
aVrotateX
p1956
aVrotateY
p1957
aVrotateZ
p1958
aVscaleX
p1959
aVscaleY
p1960
aVscaleZ
p1961
aVspace_world
p1962
aVspace_body_anim
p1963
aaI01
aF0
aF0
aF0
aF0
aF0
aF0
aF1
aF1
aF1
aF0
aF0
aa(lp1964
Vik_wrist_l_anim_space_switcher
p1965
a(lp1966
Vvisibility
p1967
aVtranslateX
p1968
aVtranslateY
p1969
aVtranslateZ
p1970
aVrotateX
p1971
aVrotateY
p1972
aVrotateZ
p1973
aVscaleX
p1974
aVscaleY
p1975
aVscaleZ
p1976
aVspace_world
p1977
aVspace_body_anim
p1978
aVspace_head_fk_anim
p1979
aVspace_chest_ik_anim
p1980
aVspace_driver_gun_stock_bott
p1981
aaI00
aF0
aF0
aF0
aF0
aF0
aF0
aF1
aF1
aF1
aF0
aF0
aF0
aF0
aF0
aa(lp1982
Vik_wrist_r_anim_space_switcher
p1983
a(lp1984
Vvisibility
p1985
aVtranslateX
p1986
aVtranslateY
p1987
aVtranslateZ
p1988
aVrotateX
p1989
aVrotateY
p1990
aVrotateZ
p1991
aVscaleX
p1992
aVscaleY
p1993
aVscaleZ
p1994
aVspace_world
p1995
aVspace_body_anim
p1996
aVspace_head_fk_anim
p1997
aVspace_chest_ik_anim
p1998
aaI00
aF0
aF0
aF0
aF0
aF0
aF0
aF1
aF1
aF1
aF0
aF0
aF0
aF0
aa(lp1999
Vjaw_anim_space_switcher
p2000
a(lp2001
Vvisibility
p2002
aVtranslateX
p2003
aVtranslateY
p2004
aVtranslateZ
p2005
aVrotateX
p2006
aVrotateY
p2007
aVrotateZ
p2008
aVscaleX
p2009
aVscaleY
p2010
aVscaleZ
p2011
aVspace_world
p2012
aaI01
aF0
aF0
aF0
aF0
aF0
aF0
aF1
aF1
aF1
aF0
aa(lp2013
Vl_global_ik_anim_space_switcher
p2014
a(lp2015
Vvisibility
p2016
aVtranslateX
p2017
aVtranslateY
p2018
aVtranslateZ
p2019
aVrotateX
p2020
aVrotateY
p2021
aVrotateZ
p2022
aVscaleX
p2023
aVscaleY
p2024
aVscaleZ
p2025
aVspace_world
p2026
aaI01
aF0
aF0
aF0
aF0
aF0
aF0
aF1
aF1
aF1
aF0
aa(lp2027
Vmaster_anim_space_switcher
p2028
a(lp2029
Vvisibility
p2030
aVtranslateX
p2031
aVtranslateY
p2032
aVtranslateZ
p2033
aVrotateX
p2034
aVrotateY
p2035
aVrotateZ
p2036
aVscaleX
p2037
aVscaleY
p2038
aVscaleZ
p2039
aVspace_world
p2040
aaI01
aF0
aF0
aF0
aF0
aF0
aF0
aF1
aF1
aF1
aF0
aa(lp2041
Vr_global_ik_anim_space_switcher
p2042
a(lp2043
Vvisibility
p2044
aVtranslateX
p2045
aVtranslateY
p2046
aVtranslateZ
p2047
aVrotateX
p2048
aVrotateY
p2049
aVrotateZ
p2050
aVscaleX
p2051
aVscaleY
p2052
aVscaleZ
p2053
aVspace_world
p2054
aaI01
aF0
aF0
aF0
aF0
aF0
aF0
aF1
aF1
aF1
aF0
aa(lp2055
Vshotgun_anim_space_switcher
p2056
a(lp2057
Vvisibility
p2058
aVtranslateX
p2059
aVtranslateY
p2060
aVtranslateZ
p2061
aVrotateX
p2062
aVrotateY
p2063
aVrotateZ
p2064
aVscaleX
p2065
aVscaleY
p2066
aVscaleZ
p2067
aVspace_world
p2068
aVspace_driver_hand_l
p2069
aaI01
aF4.9960036108132044e-16
aF0
aF-2.8421709430404007e-14
aF0
aF-2.4848083448933725e-17
aF-1.4334238139603642e-15
aF1
aF1
aF1
aF0
aF0
aa(lp2070
Vshotgun_base_anim_space_switcher
p2071
a(lp2072
Vvisibility
p2073
aVtranslateX
p2074
aVtranslateY
p2075
aVtranslateZ
p2076
aVrotateX
p2077
aVrotateY
p2078
aVrotateZ
p2079
aVscaleX
p2080
aVscaleY
p2081
aVscaleZ
p2082
aVspace_world
p2083
aaI01
aF0
aF0
aF0
aF0
aF0
aF0
aF1
aF1
aF1
aF0
aa(lp2084
Vshotgun_clip_anim_space_switcher
p2085
a(lp2086
Vvisibility
p2087
aVtranslateX
p2088
aVtranslateY
p2089
aVtranslateZ
p2090
aVrotateX
p2091
aVrotateY
p2092
aVrotateZ
p2093
aVscaleX
p2094
aVscaleY
p2095
aVscaleZ
p2096
aVspace_world
p2097
aaI01
aF8.8817841970012523e-16
aF-3.5527136788005009e-15
aF0
aF-9.9392333795734924e-17
aF-0
aF-1.2045496703174517e-15
aF0.99999999999999989
aF0.99999999999999989
aF0.99999999999999989
aF0
aa(lp2098
Vsniper_can_arm_01_anim_space_switcher
p2099
a(lp2100
Vvisibility
p2101
aVtranslateX
p2102
aVtranslateY
p2103
aVtranslateZ
p2104
aVrotateX
p2105
aVrotateY
p2106
aVrotateZ
p2107
aVscaleX
p2108
aVscaleY
p2109
aVscaleZ
p2110
aVspace_world
p2111
aaI01
aF2.5243548967072378e-29
aF0
aF0
aF0
aF0
aF0
aF1
aF1
aF1
aF0
aa(lp2112
Vsniper_can_arm_02_anim_space_switcher
p2113
a(lp2114
Vvisibility
p2115
aVtranslateX
p2116
aVtranslateY
p2117
aVtranslateZ
p2118
aVrotateX
p2119
aVrotateY
p2120
aVrotateZ
p2121
aVscaleX
p2122
aVscaleY
p2123
aVscaleZ
p2124
aVspace_world
p2125
aaI01
aF0
aF0
aF7.1054273576010019e-15
aF-3.180554681463516e-15
aF-0
aF0
aF1
aF1.0000000000000002
aF1.0000000000000002
aF0
aa(lp2126
Vsniper_can_arm_03_anim_space_switcher
p2127
a(lp2128
Vvisibility
p2129
aVtranslateX
p2130
aVtranslateY
p2131
aVtranslateZ
p2132
aVrotateX
p2133
aVrotateY
p2134
aVrotateZ
p2135
aVscaleX
p2136
aVscaleY
p2137
aVscaleZ
p2138
aVspace_world
p2139
aVspace_driver_hand_l
p2140
aVspace_driver_gun
p2141
aaI01
aF0
aF-3.5527136788005009e-15
aF0
aF0
aF0
aF0
aF1
aF1
aF1
aF0
aF0
aF0
aa(lp2142
Vspine_01_space_switcher
p2143
a(lp2144
Vvisibility
p2145
aVtranslateX
p2146
aVtranslateY
p2147
aVtranslateZ
p2148
aVrotateX
p2149
aVrotateY
p2150
aVrotateZ
p2151
aVscaleX
p2152
aVscaleY
p2153
aVscaleZ
p2154
aVspace_world
p2155
aaI01
aF-1.4210854715202004e-14
aF-4.4408920985006262e-16
aF1.2621774483536189e-29
aF-1.7655625192200634e-31
aF-0
aF0
aF1
aF1
aF1
aF0
aa(lp2156
Vtrap_handle_anim_space_switcher
p2157
a(lp2158
Vvisibility
p2159
aVtranslateX
p2160
aVtranslateY
p2161
aVtranslateZ
p2162
aVrotateX
p2163
aVrotateY
p2164
aVrotateZ
p2165
aVscaleX
p2166
aVscaleY
p2167
aVscaleZ
p2168
aVspace_world
p2169
aVspace_driver_hand_l
p2170
aaI01
aF-7.1054273576010019e-15
aF1.4210854715202004e-14
aF0
aF0
aF-7.9513867036587919e-16
aF-2.3854160110976376e-15
aF1
aF1
aF1
aF0
aF0
aa(lp2171
Vtrap_ring_anim_space_switcher
p2172
a(lp2173
Vvisibility
p2174
aVtranslateX
p2175
aVtranslateY
p2176
aVtranslateZ
p2177
aVrotateX
p2178
aVrotateY
p2179
aVrotateZ
p2180
aVscaleX
p2181
aVscaleY
p2182
aVscaleZ
p2183
aVspace_world
p2184
aaI01
aF3.5527136788005009e-15
aF-1.4210854715202004e-14
aF-1.4210854715202004e-14
aF-3.1805546814635168e-15
aF-1.5902773407317584e-15
aF2.3854160110976376e-15
aF1
aF1
aF1
aF0
aa(lp2185
Vwrist_cover_anim_space_switcher
p2186
a(lp2187
Vvisibility
p2188
aVtranslateX
p2189
aVtranslateY
p2190
aVtranslateZ
p2191
aVrotateX
p2192
aVrotateY
p2193
aVrotateZ
p2194
aVscaleX
p2195
aVscaleY
p2196
aVscaleZ
p2197
aVspace_world
p2198
aaI01
aF-2.1316282072803006e-14
aF2.8421709430404007e-14
aF0
aF7.9513867036587939e-16
aF-9.9392333795734899e-17
aF0
aF1
aF0.99999999999999989
aF1
aF0
aa.