(lp1
(lp2
S'fk_clavicle_r_anim'
p3
a(lp4
VtranslateX
p5
aVtranslateY
p6
aVtranslateZ
p7
aVrotateX
p8
aVrotateY
p9
aVrotateZ
p10
aaF0
aF0
aF0
aF0
aF0
aF0
aa(lp11
S'fk_clavicle_l_anim'
p12
a(lp13
VtranslateX
p14
aVtranslateY
p15
aVtranslateZ
p16
aVrotateX
p17
aVrotateY
p18
aVrotateZ
p19
aaF0
aF0
aF0
aF0
aF0
aF0
aa(lp20
S'head_fk_anim'
p21
a(lp22
VtranslateX
p23
aVtranslateY
p24
aVtranslateZ
p25
aVrotateX
p26
aVrotateY
p27
aVrotateZ
p28
aVscaleX
p29
aVscaleY
p30
aVscaleZ
p31
aVfkOrientation
p32
aaF0
aF0
aF0
aF26.043095268744384
aF2.8434760726657378
aF-2.7376463578943322
aF1
aF1
aF1
aI0
aa(lp33
S'neck_01_fk_anim'
p34
a(lp35
VtranslateX
p36
aVtranslateY
p37
aVtranslateZ
p38
aVrotateX
p39
aVrotateY
p40
aVrotateZ
p41
aVscaleX
p42
aVscaleY
p43
aVscaleZ
p44
aVfkOrientation
p45
aaF0
aF0
aF-1.577721810442024e-30
aF6.1063835129180655
aF5.4491188184008976
aF-8.1820688710628442
aF1
aF0.99999999999999989
aF0.99999999999999989
aI0
aa(lp46
S'spine_01_anim'
p47
a(lp48
Vlength
p49
aVtranslateY
p50
aVtranslateZ
p51
aVrotateX
p52
aVrotateY
p53
aVrotateZ
p54
aaF0
aF0
aF0
aF-0.53826195567246005
aF-0.06011800268225486
aF-1.6950799854783867
aa(lp55
S'spine_02_anim'
p56
a(lp57
Vlength
p58
aVtranslateY
p59
aVtranslateZ
p60
aVrotateX
p61
aVrotateY
p62
aVrotateZ
p63
aaF0
aF0
aF0
aF-1.0792208634808667
aF0.13342856075692452
aF-3.8281778511417133
aa(lp64
S'spine_03_anim'
p65
a(lp66
Vlength
p67
aVtranslateY
p68
aVtranslateZ
p69
aVrotateX
p70
aVrotateY
p71
aVrotateZ
p72
aaF0
aF0
aF0
aF-1.0814445057741544
aF0.067935651354782536
aF-3.8287829880791553
aa(lp73
S'mid_ik_anim'
p74
a(lp75
VtranslateX
p76
aVtranslateY
p77
aVtranslateZ
p78
aVrotateX
p79
aVrotateY
p80
aVrotateZ
p81
aaF-0.12129887485144764
aF-1.9219184378338543
aF0.73200255294103644
aF-7.0574535337339075
aF-5.5693780082813023
aF3.9377928300356091
aa(lp82
S'chest_ik_anim'
p83
a(lp84
VtranslateX
p85
aVtranslateY
p86
aVtranslateZ
p87
aVrotateX
p88
aVrotateY
p89
aVrotateZ
p90
aVstretch
p91
aVsquash
p92
aVtwist_amount
p93
aVautoSpine
p94
aVrotationInfluence
p95
aaF0.17622401211539795
aF-2.5460387141594074
aF1.8756864956417945
aF-12.57536544261664
aF-7.3394208994205883
aF-5.4057263141906713
aF0
aF0
aF1
aF0
aF0.25
aa(lp96
S'body_anim'
p97
a(lp98
VtranslateX
p99
aVtranslateY
p100
aVtranslateZ
p101
aVrotateX
p102
aVrotateY
p103
aVrotateZ
p104
aaF-2.8836025267901282
aF-1.5372992991735259
aF-13.089906730113043
aF-28.886867551869422
aF0.37322078042032608
aF-0.45948469695137933
aa(lp105
S'hip_anim'
p106
a(lp107
VtranslateX
p108
aVtranslateY
p109
aVtranslateZ
p110
aVrotateX
p111
aVrotateY
p112
aVrotateZ
p113
aVlCalfTwistCtrlVis
p114
aVrCalfTwistCtrlVis
p115
aVautoHips
p116
aaF0
aF0
aF1.2621774483536189e-29
aF10.716826308037836
aF-4.1068121603843659
aF0
aI00
aI00
aF0
aa(lp117
S'clavicle_l_anim'
p118
a(lp119
VtranslateX
p120
aVtranslateY
p121
aVtranslateZ
p122
aVautoShoulders
p123
aaF-10.51002611694266
aF-3.4798824650080822
aF3.5164298641860063
aF0.28000000000000003
aa(lp124
S'clavicle_r_anim'
p125
a(lp126
VtranslateX
p127
aVtranslateY
p128
aVtranslateZ
p129
aVautoShoulders
p130
aaF-4.2257642224390102
aF-4.454197234353126
aF10.893227853055768
aF0.20000000000000001
aa(lp131
S'fk_arm_l_anim'
p132
a(lp133
VtranslateX
p134
aVtranslateY
p135
aVtranslateZ
p136
aVrotateX
p137
aVrotateY
p138
aVrotateZ
p139
aaF0
aF0
aF0
aF-34.276203154580003
aF43.783648462996219
aF-45.36411938850614
aa(lp140
S'fk_arm_r_anim'
p141
a(lp142
VtranslateX
p143
aVtranslateY
p144
aVtranslateZ
p145
aVrotateX
p146
aVrotateY
p147
aVrotateZ
p148
aaF0
aF0
aF0
aF-28.022643040011129
aF31.373350599324613
aF-85.068557399492434
aa(lp149
S'fk_elbow_l_anim'
p150
a(lp151
VtranslateX
p152
aVtranslateY
p153
aVtranslateZ
p154
aVrotateX
p155
aVrotateY
p156
aVrotateZ
p157
aaF0
aF0
aF0
aF16.986427307128906
aF-1.9700599908828733
aF-81.873420715332031
aa(lp158
S'fk_elbow_r_anim'
p159
a(lp160
VtranslateX
p161
aVtranslateY
p162
aVtranslateZ
p163
aVrotateX
p164
aVrotateY
p165
aVrotateZ
p166
aaF0
aF0
aF0
aF5.2968387603759757
aF-2.2591130733489981
aF-88.62188720703125
aa(lp167
S'fk_wrist_l_anim'
p168
a(lp169
VtranslateX
p170
aVtranslateY
p171
aVtranslateZ
p172
aVrotateX
p173
aVrotateY
p174
aVrotateZ
p175
aaF0
aF0
aF0
aF-106.28956604003906
aF-18.279989242553711
aF-3.2510626316070583
aa(lp176
S'fk_wrist_r_anim'
p177
a(lp178
VtranslateX
p179
aVtranslateY
p180
aVtranslateZ
p181
aVrotateX
p182
aVrotateY
p183
aVrotateZ
p184
aaF0
aF0
aF0
aF-32.176914215087905
aF-4.6610479354858407
aF1.8415238857269278
aa(lp185
S'ik_elbow_l_anim'
p186
a(lp187
VtranslateX
p188
aVtranslateY
p189
aVtranslateZ
p190
aaF-8.739074919221359
aF-45.9956281991577
aF-61.004430997211955
aa(lp191
S'ik_elbow_r_anim'
p192
a(lp193
VtranslateX
p194
aVtranslateY
p195
aVtranslateZ
p196
aaF22.378852251249093
aF36.715637496100413
aF-27.254551428607783
aa(lp197
S'ik_wrist_l_anim'
p198
a(lp199
VtranslateX
p200
aVtranslateY
p201
aVtranslateZ
p202
aVrotateX
p203
aVrotateY
p204
aVrotateZ
p205
aVstretch
p206
aVsquash
p207
aVstretchBias
p208
aVside
p209
aVmid_bend
p210
aVmid_swivel
p211
aVtip_pivot
p212
aVtip_swivel
p213
aaF-79.631649486531188
aF-53.509565069374453
aF-43.883433791719554
aF15.184082642250862
aF160.36232880639972
aF32.416405890100165
aF0
aF0
aF0
aF0
aF0
aF0
aF0
aF0
aa(lp214
S'ik_wrist_r_anim'
p215
a(lp216
VtranslateX
p217
aVtranslateY
p218
aVtranslateZ
p219
aVrotateX
p220
aVrotateY
p221
aVrotateZ
p222
aVstretch
p223
aVsquash
p224
aVstretchBias
p225
aVside
p226
aVmid_bend
p227
aVmid_swivel
p228
aVtip_pivot
p229
aVtip_swivel
p230
aaF47.065232939128919
aF3.2979148642318066
aF-35.106153672084261
aF-88.144785889068146
aF-30.325205169232593
aF94.967754213531848
aF0
aF0
aF0
aF0
aF0
aF0
aF0
aF0
aa(lp231
S'fk_thigh_l_anim'
p232
a(lp233
VrotateX
p234
aVrotateY
p235
aVrotateZ
p236
aVblendOrient1
p237
aaF22.04012727250236
aF3.8197327369215475
aF18.336939243587334
aF1
aa(lp238
S'fk_thigh_r_anim'
p239
a(lp240
VrotateX
p241
aVrotateY
p242
aVrotateZ
p243
aVblendOrient1
p244
aaF-5.8890138610827574
aF-5.6780111117605179
aF22.625159659515784
aF1
aa(lp245
S'fk_calf_l_anim'
p246
a(lp247
VrotateX
p248
aVrotateY
p249
aVrotateZ
p250
aVblendOrient1
p251
aaF1.937473897200962
aF-4.2219028495578392
aF-30.758703065136661
aF1
aa(lp252
S'fk_calf_r_anim'
p253
a(lp254
VrotateX
p255
aVrotateY
p256
aVrotateZ
p257
aVblendOrient1
p258
aaF0.05409300932968316
aF3.3126472318404172
aF-62.80157744167628
aF1
aa(lp259
S'fk_foot_l_anim'
p260
a(lp261
VrotateX
p262
aVrotateY
p263
aVrotateZ
p264
aVblendOrient1
p265
aaF2.6113454786856303
aF-5.4655465525748603
aF13.542008204232808
aF1
aa(lp266
S'fk_foot_r_anim'
p267
a(lp268
VrotateX
p269
aVrotateY
p270
aVrotateZ
p271
aVblendOrient1
p272
aaF6.5229233356949372
aF-2.0006971865407248
aF3.5351687364944588
aF1
aa(lp273
S'fk_ball_l_anim'
p274
a(lp275
VrotateX
p276
aVrotateY
p277
aVrotateZ
p278
aVblendOrient1
p279
aaF-0.32679733633994873
aF-0.0086246142163433331
aF2.3148570060729696
aF1
aa(lp280
S'fk_ball_r_anim'
p281
a(lp282
VrotateX
p283
aVrotateY
p284
aVrotateZ
p285
aVblendOrient1
p286
aaF-1.4821450710296693
aF0.12840366363521696
aF9.8461856842040856
aF1
aa(lp287
S'ik_foot_anim_l'
p288
a(lp289
VtranslateX
p290
aVtranslateY
p291
aVtranslateZ
p292
aVrotateX
p293
aVrotateY
p294
aVrotateZ
p295
aVknee_twist
p296
aVstretch
p297
aVsquash
p298
aVtoeCtrlVis
p299
aVstretchBias
p300
aaF-1.0016652808968693
aF-9.0373602901415637
aF0.74349439449162169
aF0.82188131327643299
aF-0.33682232077142416
aF-4.8834410536152619
aF-13.856333356484537
aF0
aF0
aI00
aF0
aa(lp301
S'ik_foot_anim_r'
p302
a(lp303
VtranslateX
p304
aVtranslateY
p305
aVtranslateZ
p306
aVrotateX
p307
aVrotateY
p308
aVrotateZ
p309
aVknee_twist
p310
aVstretch
p311
aVsquash
p312
aVtoeCtrlVis
p313
aVstretchBias
p314
aaF14.633611644019812
aF17.946957448173578
aF13.583849239741067
aF215.97694343534613
aF166.65753565953025
aF145.82682884947857
aF34.634748387096778
aF0
aF0
aI00
aF0
aa(lp315
S'heel_ctrl_l'
p316
a(lp317
VrotateX
p318
aVrotateY
p319
aVrotateZ
p320
aVheelPivot
p321
aVballPivot
p322
aaF-3.7520606007889914e-15
aF1.2324649390671127e-14
aF0
aF0
aF0
aa(lp323
S'heel_ctrl_r'
p324
a(lp325
VrotateX
p326
aVrotateY
p327
aVrotateZ
p328
aVheelPivot
p329
aVballPivot
p330
aaF-1.5033090486604903e-15
aF-1.9480897423964047e-14
aF0
aF0
aF0
aa(lp331
S'toe_wiggle_ctrl_l'
p332
a(lp333
VrotateX
p334
aVrotateY
p335
aVrotateZ
p336
aaF6.3611092702081637e-15
aF1.2723771731069628e-14
aF-6.3611093629270304e-15
aa(lp337
S'toe_wiggle_ctrl_r'
p338
a(lp339
VrotateX
p340
aVrotateY
p341
aVrotateZ
p342
aaF-3.1794685459000318e-15
aF6.361109362927032e-15
aF-3.1805546814635187e-15
aa(lp343
S'toe_tip_ctrl_l'
p344
a(lp345
VrotateX
p346
aVrotateY
p347
aVrotateZ
p348
aaF0
aF-6.3657683785737075e-15
aF-3.1805546814635183e-15
aa(lp349
S'toe_tip_ctrl_r'
p350
a(lp351
VrotateX
p352
aVrotateY
p353
aVrotateZ
p354
aaF0
aF-6.361109362927032e-15
aF3.1805546814635195e-15
aa(lp355
S'master_anim'
p356
a(lp357
VtranslateX
p358
aVtranslateY
p359
aVtranslateZ
p360
aVrotateX
p361
aVrotateY
p362
aVrotateZ
p363
aaF0
aF0
aF0
aF0
aF0
aF0
aa(lp364
S'offset_anim'
p365
a(lp366
VtranslateX
p367
aVtranslateY
p368
aVtranslateZ
p369
aVrotateX
p370
aVrotateY
p371
aVrotateZ
p372
aaF0
aF0
aF0
aF0
aF0
aF0
aa(lp373
S'root_anim'
p374
a(lp375
VtranslateX
p376
aVtranslateY
p377
aVtranslateZ
p378
aVrotateX
p379
aVrotateY
p380
aVrotateZ
p381
aaF0
aF0
aF0
aF0
aF0
aF0
aa(lp382
S'upperarm_l_twist_anim'
p383
a(lp384
VtranslateX
p385
aVtranslateY
p386
aVtranslateZ
p387
aVrotateX
p388
aVrotateY
p389
aVrotateZ
p390
aVscaleX
p391
aVscaleY
p392
aVscaleZ
p393
aaF0
aF-1.7763568394002505e-15
aF0
aF3.975693351829395e-16
aF-4.9696166897867449e-17
aF1.3977046940025222e-17
aF1
aF1
aF1
aa(lp394
S'upperarm_l_twist_2_anim'
p395
a(lp396
VtranslateX
p397
aVtranslateY
p398
aVtranslateZ
p399
aVrotateX
p400
aVrotateY
p401
aVrotateZ
p402
aVscaleX
p403
aVscaleY
p404
aVscaleZ
p405
aaF0
aF1.7763568394002505e-15
aF0
aF3.975693351829395e-16
aF-4.9696166897867449e-17
aF1.3977046940025222e-17
aF1
aF1
aF1
aa(lp406
S'upperarm_r_twist_anim'
p407
a(lp408
VtranslateX
p409
aVtranslateY
p410
aVtranslateZ
p411
aVrotateX
p412
aVrotateY
p413
aVrotateZ
p414
aVscaleX
p415
aVscaleY
p416
aVscaleZ
p417
aaF-3.5527136788005009e-15
aF3.5527136788005009e-15
aF-2.8421709430404007e-14
aF0
aF4.9696166897867437e-17
aF-1.5530052155583574e-18
aF1
aF1
aF1
aa(lp418
S'upperarm_r_twist_2_anim'
p419
a(lp420
VtranslateX
p421
aVtranslateY
p422
aVtranslateZ
p423
aVrotateX
p424
aVrotateY
p425
aVrotateZ
p426
aVscaleX
p427
aVscaleY
p428
aVscaleZ
p429
aaF-7.1054273576010019e-15
aF0
aF2.8421709430404007e-14
aF0
aF4.9696166897867437e-17
aF-1.5530052155583574e-18
aF1
aF1
aF1
aa(lp430
S'lowerarm_l_twist_anim'
p431
a(lp432
VtranslateX
p433
aVtranslateY
p434
aVtranslateZ
p435
aVrotateX
p436
aVrotateY
p437
aVrotateZ
p438
aaF0
aF0
aF0
aF0
aF0
aF0
aa(lp439
S'lowerarm_r_twist_anim'
p440
a(lp441
VtranslateX
p442
aVtranslateY
p443
aVtranslateZ
p444
aVrotateX
p445
aVrotateY
p446
aVrotateZ
p447
aaF0
aF0
aF0
aF0
aF0
aF0
aa(lp448
S'l_thigh_twist_01_anim'
p449
a(lp450
VtranslateX
p451
aVtranslateY
p452
aVtranslateZ
p453
aVrotateX
p454
aVrotateY
p455
aVrotateZ
p456
aVscaleX
p457
aVscaleY
p458
aVscaleZ
p459
aaF-2.8421709430404007e-14
aF-8.8817841970012523e-16
aF0
aF-1.6151254241806922e-16
aF0
aF0
aF1
aF1
aF1
aa(lp460
S'r_thigh_twist_01_anim'
p461
a(lp462
VtranslateX
p463
aVtranslateY
p464
aVtranslateZ
p465
aVrotateX
p466
aVrotateY
p467
aVrotateZ
p468
aVscaleX
p469
aVscaleY
p470
aVscaleZ
p471
aaF2.8421709430404007e-14
aF0
aF0
aF1.5505204072134644e-14
aF-1.1927080055488186e-14
aF-2.0872390097104326e-15
aF1
aF1
aF1
aa(lp472
S'pinky_finger_fk_ctrl_1_l'
p473
a(lp474
VtranslateX
p475
aVtranslateY
p476
aVtranslateZ
p477
aVrotateX
p478
aVrotateY
p479
aVrotateZ
p480
aVsticky
p481
aVblendOrient1
p482
aaF0.019498285388217761
aF0.57465450232680537
aF-0.012465293119438735
aF7.7630848118714582
aF3.3222092666701148
aF52.565135361419408
aF0
aF0
aa(lp483
S'pinky_finger_fk_ctrl_1_r'
p484
a(lp485
VtranslateX
p486
aVtranslateY
p487
aVtranslateZ
p488
aVrotateX
p489
aVrotateY
p490
aVrotateZ
p491
aVsticky
p492
aVblendOrient1
p493
aaF0
aF0
aF0
aF-12.038537149107768
aF-15.346512905441463
aF61.069669371678827
aF0
aF0
aa(lp494
S'pinky_finger_fk_ctrl_2_l'
p495
a(lp496
VtranslateX
p497
aVtranslateY
p498
aVtranslateZ
p499
aVrotateX
p500
aVrotateY
p501
aVrotateZ
p502
aVblendOrient1
p503
aaF0
aF0
aF0
aF-5.4671137340668645
aF4.8045469855154881
aF-8.7200932187199989
aF0
aa(lp504
S'pinky_finger_fk_ctrl_2_r'
p505
a(lp506
VtranslateX
p507
aVtranslateY
p508
aVtranslateZ
p509
aVrotateX
p510
aVrotateY
p511
aVrotateZ
p512
aVblendOrient1
p513
aaF0
aF0
aF0
aF4.092621231082858
aF-10.906328913024248
aF36.685285091803422
aF0
aa(lp514
S'pinky_finger_fk_ctrl_3_l'
p515
a(lp516
VtranslateX
p517
aVtranslateY
p518
aVtranslateZ
p519
aVrotateX
p520
aVrotateY
p521
aVrotateZ
p522
aVblendOrient1
p523
aaF0
aF0
aF0
aF-19.737430918257342
aF4.8226348587712851
aF17.992099408405753
aF0
aa(lp524
S'pinky_finger_fk_ctrl_3_r'
p525
a(lp526
VtranslateX
p527
aVtranslateY
p528
aVtranslateZ
p529
aVrotateX
p530
aVrotateY
p531
aVrotateZ
p532
aVblendOrient1
p533
aaF0
aF0
aF0
aF4.0918183326721964
aF-10.42243957519522
aF70.588310241699233
aF0
aa(lp534
S'ring_finger_fk_ctrl_1_l'
p535
a(lp536
VtranslateX
p537
aVtranslateY
p538
aVtranslateZ
p539
aVrotateX
p540
aVrotateY
p541
aVrotateZ
p542
aVsticky
p543
aVblendOrient1
p544
aaF-0.0083448964791337978
aF0.55350502390110901
aF-0.15596767270523595
aF-2.5563661393476287
aF8.9682840233567838
aF49.652889658415262
aF0
aF0
aa(lp545
S'ring_finger_fk_ctrl_1_r'
p546
a(lp547
VtranslateX
p548
aVtranslateY
p549
aVtranslateZ
p550
aVrotateX
p551
aVrotateY
p552
aVrotateZ
p553
aVsticky
p554
aVblendOrient1
p555
aaF0
aF0
aF0
aF-1.8761689618070569
aF-7.6148050121739645
aF58.806392729110243
aF0
aF0
aa(lp556
S'ring_finger_fk_ctrl_2_l'
p557
a(lp558
VtranslateX
p559
aVtranslateY
p560
aVtranslateZ
p561
aVrotateX
p562
aVrotateY
p563
aVrotateZ
p564
aVblendOrient1
p565
aaF0
aF0
aF0
aF-6.0546636127617122
aF-2.4641171730251181
aF9.9056048993928734
aF0
aa(lp566
S'ring_finger_fk_ctrl_2_r'
p567
a(lp568
VtranslateX
p569
aVtranslateY
p570
aVtranslateZ
p571
aVrotateX
p572
aVrotateY
p573
aVrotateZ
p574
aVblendOrient1
p575
aaF0
aF0
aF0
aF1.2678331474032762
aF0.84626236834742452
aF58.15179294196863
aF0
aa(lp576
S'ring_finger_fk_ctrl_3_l'
p577
a(lp578
VtranslateX
p579
aVtranslateY
p580
aVtranslateZ
p581
aVrotateX
p582
aVrotateY
p583
aVrotateZ
p584
aVblendOrient1
p585
aaF0
aF0
aF0
aF0
aF0
aF21.019213376385007
aF0
aa(lp586
S'ring_finger_fk_ctrl_3_r'
p587
a(lp588
VtranslateX
p589
aVtranslateY
p590
aVtranslateZ
p591
aVrotateX
p592
aVrotateY
p593
aVrotateZ
p594
aVblendOrient1
p595
aaF0
aF0
aF0
aF4.968184787457993
aF1.9827603811766792
aF51.810856189638557
aF0
aa(lp596
S'middle_finger_fk_ctrl_1_l'
p597
a(lp598
VtranslateX
p599
aVtranslateY
p600
aVtranslateZ
p601
aVrotateX
p602
aVrotateY
p603
aVrotateZ
p604
aVsticky
p605
aVblendOrient1
p606
aaF-0.047150666871850135
aF0.53850382638743388
aF-0.19635123450015501
aF-10.031814921723624
aF3.08896093820097
aF53.348086341326045
aF0
aF0
aa(lp607
S'middle_finger_fk_ctrl_1_r'
p608
a(lp609
VtranslateX
p610
aVtranslateY
p611
aVtranslateZ
p612
aVrotateX
p613
aVrotateY
p614
aVrotateZ
p615
aVsticky
p616
aVblendOrient1
p617
aaF0
aF0
aF0
aF-1.5576726256467806
aF-7.4905555396410568
aF71.02870484263309
aF0
aF0
aa(lp618
S'middle_finger_fk_ctrl_2_l'
p619
a(lp620
VtranslateX
p621
aVtranslateY
p622
aVtranslateZ
p623
aVrotateX
p624
aVrotateY
p625
aVrotateZ
p626
aVblendOrient1
p627
aaF0
aF0
aF0
aF18.43137263865426
aF6.9129903851227015
aF19.314189521770786
aF0
aa(lp628
S'middle_finger_fk_ctrl_2_r'
p629
a(lp630
VtranslateX
p631
aVtranslateY
p632
aVtranslateZ
p633
aVrotateX
p634
aVrotateY
p635
aVrotateZ
p636
aVblendOrient1
p637
aaF0
aF0
aF0
aF3.1205578674787855
aF-6.3745989768269888
aF87.623761326050996
aF0
aa(lp638
S'middle_finger_fk_ctrl_3_l'
p639
a(lp640
VtranslateX
p641
aVtranslateY
p642
aVtranslateZ
p643
aVrotateX
p644
aVrotateY
p645
aVrotateZ
p646
aVblendOrient1
p647
aaF0
aF0
aF0
aF-33.415324841912494
aF3.6018526705548375
aF18.63023015650424
aF0
aa(lp648
S'middle_finger_fk_ctrl_3_r'
p649
a(lp650
VtranslateX
p651
aVtranslateY
p652
aVtranslateZ
p653
aVrotateX
p654
aVrotateY
p655
aVrotateZ
p656
aVblendOrient1
p657
aaF0
aF0
aF0
aF3.4957659244537962
aF-2.3556907176972621
aF56.61675643920875
aF0
aa(lp658
S'index_finger_fk_ctrl_1_l'
p659
a(lp660
VtranslateX
p661
aVtranslateY
p662
aVtranslateZ
p663
aVrotateX
p664
aVrotateY
p665
aVrotateZ
p666
aVsticky
p667
aVblendOrient1
p668
aaF0
aF0
aF0
aF-27.470599771115058
aF4.1163992310990478
aF21.259937763283922
aF0
aF0
aa(lp669
S'index_finger_fk_ctrl_1_r'
p670
a(lp671
VtranslateX
p672
aVtranslateY
p673
aVtranslateZ
p674
aVrotateX
p675
aVrotateY
p676
aVrotateZ
p677
aVsticky
p678
aVblendOrient1
p679
aaF0
aF0
aF0
aF-3.3387655848653877
aF-6.0928954074903556
aF28.807340222052282
aF0
aF0
aa(lp680
S'index_finger_fk_ctrl_2_l'
p681
a(lp682
VtranslateX
p683
aVtranslateY
p684
aVtranslateZ
p685
aVrotateX
p686
aVrotateY
p687
aVrotateZ
p688
aVblendOrient1
p689
aaF0
aF0
aF0
aF-16.393347263175347
aF-5.3813586539425184
aF28.945357810899054
aF0
aa(lp690
S'index_finger_fk_ctrl_2_r'
p691
a(lp692
VtranslateX
p693
aVtranslateY
p694
aVtranslateZ
p695
aVrotateX
p696
aVrotateY
p697
aVrotateZ
p698
aVblendOrient1
p699
aaF0
aF0
aF0
aF11.878195406430866
aF10.67039299033722
aF79.2649151528354
aF0
aa(lp700
S'index_finger_fk_ctrl_3_l'
p701
a(lp702
VtranslateX
p703
aVtranslateY
p704
aVtranslateZ
p705
aVrotateX
p706
aVrotateY
p707
aVrotateZ
p708
aVblendOrient1
p709
aaF0
aF0
aF0
aF0
aF0
aF22.059717254845935
aF0
aa(lp710
S'index_finger_fk_ctrl_3_r'
p711
a(lp712
VtranslateX
p713
aVtranslateY
p714
aVtranslateZ
p715
aVrotateX
p716
aVrotateY
p717
aVrotateZ
p718
aVblendOrient1
p719
aaF0
aF0
aF0
aF3.8930346965788418
aF12.801635742187861
aF55.805820465087848
aF0
aa(lp720
S'thumb_finger_fk_ctrl_1_l'
p721
a(lp722
VtranslateX
p723
aVtranslateY
p724
aVtranslateZ
p725
aVrotateX
p726
aVrotateY
p727
aVrotateZ
p728
aVsticky
p729
aVblendOrient1
p730
aaF0
aF0
aF0
aF15.254731217907235
aF1.9921205759110532
aF-21.661200833422892
aF0
aF0
aa(lp731
S'thumb_finger_fk_ctrl_1_r'
p732
a(lp733
VtranslateX
p734
aVtranslateY
p735
aVtranslateZ
p736
aVrotateX
p737
aVrotateY
p738
aVrotateZ
p739
aVsticky
p740
aVblendOrient1
p741
aaF0
aF0
aF0
aF13.842244727365063
aF26.503604187545172
aF43.077083507749407
aF0
aF0
aa(lp742
S'thumb_finger_fk_ctrl_2_l'
p743
a(lp744
VtranslateX
p745
aVtranslateY
p746
aVtranslateZ
p747
aVrotateX
p748
aVrotateY
p749
aVrotateZ
p750
aVblendOrient1
p751
aaF0
aF0
aF0
aF0
aF0
aF0
aF0
aa(lp752
S'thumb_finger_fk_ctrl_2_r'
p753
a(lp754
VtranslateX
p755
aVtranslateY
p756
aVtranslateZ
p757
aVrotateX
p758
aVrotateY
p759
aVrotateZ
p760
aVblendOrient1
p761
aaF0
aF0
aF0
aF-1.7716493101714719
aF4.5295816409483507
aF-4.4364118677265898
aF0
aa(lp762
S'thumb_finger_fk_ctrl_3_l'
p763
a(lp764
VtranslateX
p765
aVtranslateY
p766
aVtranslateZ
p767
aVrotateX
p768
aVrotateY
p769
aVrotateZ
p770
aVblendOrient1
p771
aaF0
aF0
aF0
aF-6.997906662654545
aF-2.4044252941487776
aF2.3033591963087394
aF0
aa(lp772
S'thumb_finger_fk_ctrl_3_r'
p773
a(lp774
VtranslateX
p775
aVtranslateY
p776
aVtranslateZ
p777
aVrotateX
p778
aVrotateY
p779
aVrotateZ
p780
aVblendOrient1
p781
aaF0
aF0
aF0
aF9.6091172257146707e-06
aF-4.3910623032876708e-08
aF55.176322325550096
aF0
aa(lp782
S'index_l_ik_anim'
p783
a(lp784
VtranslateX
p785
aVtranslateY
p786
aVtranslateZ
p787
aVrotateX
p788
aVrotateY
p789
aVrotateZ
p790
aVpoleVectorVis
p791
aaF0
aF0
aF0
aF0
aF0
aF0
aF0
aa(lp792
S'index_r_ik_anim'
p793
a(lp794
VtranslateX
p795
aVtranslateY
p796
aVtranslateZ
p797
aVrotateX
p798
aVrotateY
p799
aVrotateZ
p800
aVpoleVectorVis
p801
aaF0
aF0
aF0
aF0
aF0
aF0
aF0
aa(lp802
S'middle_l_ik_anim'
p803
a(lp804
VtranslateX
p805
aVtranslateY
p806
aVtranslateZ
p807
aVrotateX
p808
aVrotateY
p809
aVrotateZ
p810
aVpoleVectorVis
p811
aaF0
aF0
aF0
aF0
aF0
aF0
aF0
aa(lp812
S'middle_r_ik_anim'
p813
a(lp814
VtranslateX
p815
aVtranslateY
p816
aVtranslateZ
p817
aVrotateX
p818
aVrotateY
p819
aVrotateZ
p820
aVpoleVectorVis
p821
aaF0
aF0
aF0
aF0
aF0
aF0
aF0
aa(lp822
S'ring_l_ik_anim'
p823
a(lp824
VtranslateX
p825
aVtranslateY
p826
aVtranslateZ
p827
aVrotateX
p828
aVrotateY
p829
aVrotateZ
p830
aVpoleVectorVis
p831
aaF0
aF0
aF0
aF0
aF0
aF0
aF0
aa(lp832
S'ring_r_ik_anim'
p833
a(lp834
VtranslateX
p835
aVtranslateY
p836
aVtranslateZ
p837
aVrotateX
p838
aVrotateY
p839
aVrotateZ
p840
aVpoleVectorVis
p841
aaF0
aF0
aF0
aF0
aF0
aF0
aF0
aa(lp842
S'pinky_l_ik_anim'
p843
a(lp844
VtranslateX
p845
aVtranslateY
p846
aVtranslateZ
p847
aVrotateX
p848
aVrotateY
p849
aVrotateZ
p850
aVpoleVectorVis
p851
aaF0
aF0
aF0
aF0
aF0
aF0
aF0
aa(lp852
S'pinky_r_ik_anim'
p853
a(lp854
VtranslateX
p855
aVtranslateY
p856
aVtranslateZ
p857
aVrotateX
p858
aVrotateY
p859
aVrotateZ
p860
aVpoleVectorVis
p861
aaF0
aF0
aF0
aF0
aF0
aF0
aF0
aa(lp862
S'thumb_l_ik_anim'
p863
a(lp864
VtranslateX
p865
aVtranslateY
p866
aVtranslateZ
p867
aVrotateX
p868
aVrotateY
p869
aVrotateZ
p870
aVpoleVectorVis
p871
aaF0
aF0
aF0
aF0
aF0
aF0
aF0
aa(lp872
S'thumb_r_ik_anim'
p873
a(lp874
VtranslateX
p875
aVtranslateY
p876
aVtranslateZ
p877
aVrotateX
p878
aVrotateY
p879
aVrotateZ
p880
aVpoleVectorVis
p881
aaF0
aF0
aF0
aF0
aF0
aF0
aF0
aa(lp882
S'index_l_poleVector'
p883
a(lp884
VtranslateX
p885
aVtranslateY
p886
aVtranslateZ
p887
aVrotateX
p888
aVrotateY
p889
aVrotateZ
p890
aaF0
aF0
aF0
aF0
aF0
aF0
aa(lp891
S'index_r_poleVector'
p892
a(lp893
VtranslateX
p894
aVtranslateY
p895
aVtranslateZ
p896
aVrotateX
p897
aVrotateY
p898
aVrotateZ
p899
aaF0
aF0
aF0
aF0
aF0
aF0
aa(lp900
S'middle_l_poleVector'
p901
a(lp902
VtranslateX
p903
aVtranslateY
p904
aVtranslateZ
p905
aVrotateX
p906
aVrotateY
p907
aVrotateZ
p908
aaF0
aF0
aF0
aF0
aF0
aF0
aa(lp909
S'middle_r_poleVector'
p910
a(lp911
VtranslateX
p912
aVtranslateY
p913
aVtranslateZ
p914
aVrotateX
p915
aVrotateY
p916
aVrotateZ
p917
aaF0
aF0
aF0
aF0
aF0
aF0
aa(lp918
S'ring_l_poleVector'
p919
a(lp920
VtranslateX
p921
aVtranslateY
p922
aVtranslateZ
p923
aVrotateX
p924
aVrotateY
p925
aVrotateZ
p926
aaF0
aF0
aF0
aF0
aF0
aF0
aa(lp927
S'ring_r_poleVector'
p928
a(lp929
VtranslateX
p930
aVtranslateY
p931
aVtranslateZ
p932
aVrotateX
p933
aVrotateY
p934
aVrotateZ
p935
aaF0
aF0
aF0
aF0
aF0
aF0
aa(lp936
S'pinky_l_poleVector'
p937
a(lp938
VtranslateX
p939
aVtranslateY
p940
aVtranslateZ
p941
aVrotateX
p942
aVrotateY
p943
aVrotateZ
p944
aaF0
aF0
aF0
aF0
aF0
aF0
aa(lp945
S'pinky_r_poleVector'
p946
a(lp947
VtranslateX
p948
aVtranslateY
p949
aVtranslateZ
p950
aVrotateX
p951
aVrotateY
p952
aVrotateZ
p953
aaF0
aF0
aF0
aF0
aF0
aF0
aa(lp954
S'thumb_l_poleVector'
p955
a(lp956
VtranslateX
p957
aVtranslateY
p958
aVtranslateZ
p959
aVrotateX
p960
aVrotateY
p961
aVrotateZ
p962
aaF0
aF0
aF0
aF0
aF0
aF0
aa(lp963
S'thumb_r_poleVector'
p964
a(lp965
VtranslateX
p966
aVtranslateY
p967
aVtranslateZ
p968
aVrotateX
p969
aVrotateY
p970
aVrotateZ
p971
aaF0
aF0
aF0
aF0
aF0
aF0
aa(lp972
S'l_global_ik_anim'
p973
a(lp974
VtranslateX
p975
aVtranslateY
p976
aVtranslateZ
p977
aVrotateX
p978
aVrotateY
p979
aVrotateZ
p980
aaF0
aF0
aF0
aF0
aF0
aF0
aa(lp981
S'r_global_ik_anim'
p982
a(lp983
VtranslateX
p984
aVtranslateY
p985
aVtranslateZ
p986
aVrotateX
p987
aVrotateY
p988
aVrotateZ
p989
aaF0
aF0
aF0
aF0
aF0
aF0
aa(lp990
S'Rig_Settings'
p991
a(lp992
Vspine_ik
p993
aVspine_fk
p994
aVlLegMode
p995
aVlThighTwistAmount
p996
aVlThighTwist2Amount
p997
aVllegTwistCtrlVis
p998
aVlCalfTwistAmount
p999
aVrLegMode
p1000
aVrThighTwistAmount
p1001
aVrThighTwist2Amount
p1002
aVrlegTwistCtrlVis
p1003
aVrCalfTwistAmount
p1004
aVlFkArmOrient
p1005
aVlArmMode
p1006
aVlClavMode
p1007
aVlUpperarmTwistAmount
p1008
aVlUpperarmTwist2Amount
p1009
aVltwistCtrlVis
p1010
aVltwistCtrlVisLower
p1011
aVlForearmTwistAmount
p1012
aVrFkArmOrient
p1013
aVrArmMode
p1014
aVrClavMode
p1015
aVrUpperarmTwistAmount
p1016
aVrUpperarmTwist2Amount
p1017
aVrtwistCtrlVis
p1018
aVrtwistCtrlVisLower
p1019
aVrForearmTwistAmount
p1020
aaF1
aF0
aI1
aF1
aF0.59999999999999998
aI00
aF0.5
aI1
aF1
aF0.59999999999999998
aI00
aF0.5
aI0
aI1
aI1
aF0.90000000000000002
aF0.59999999999999998
aI00
aI00
aF0.5
aI0
aI1
aI1
aF0.90000000000000002
aF0.59999999999999998
aI00
aI00
aF0.5
aa(lp1021
S'calf_l_twist_anim'
p1022
a(lp1023
VtranslateX
p1024
aVtranslateY
p1025
aVtranslateZ
p1026
aVrotateX
p1027
aVrotateY
p1028
aVrotateZ
p1029
aaF0
aF0
aF0
aF0
aF0
aF0
aa(lp1030
S'calf_r_twist_anim'
p1031
a(lp1032
VtranslateX
p1033
aVtranslateY
p1034
aVtranslateZ
p1035
aVrotateX
p1036
aVrotateY
p1037
aVrotateZ
p1038
aaF0
aF0
aF0
aF0
aF0
aF0
aa(lp1039
Vbot_loarm_pistonC_bot_anim
p1040
a(lp1041
VtranslateX
p1042
aVtranslateY
p1043
aVtranslateZ
p1044
aVrotateX
p1045
aVrotateY
p1046
aVrotateZ
p1047
aVscaleX
p1048
aVscaleY
p1049
aVscaleZ
p1050
aVblendParent1
p1051
aaF0
aF0
aF0
aF0
aF0
aF0
aF0.99999999999999967
aF0.99999999999999989
aF0.99999999999999967
aF1
aa(lp1052
Vbot_loarm_pistonB_top_anim
p1053
a(lp1054
VtranslateX
p1055
aVtranslateY
p1056
aVtranslateZ
p1057
aVrotateX
p1058
aVrotateY
p1059
aVrotateZ
p1060
aVscaleX
p1061
aVscaleY
p1062
aVscaleZ
p1063
aVblendParent1
p1064
aaF0
aF0
aF0
aF0
aF0
aF0
aF1
aF1
aF1
aF1
aa(lp1065
Vbot_hand_anim
p1066
a(lp1067
VtranslateX
p1068
aVtranslateY
p1069
aVtranslateZ
p1070
aVrotateX
p1071
aVrotateY
p1072
aVrotateZ
p1073
aVscaleX
p1074
aVscaleY
p1075
aVscaleZ
p1076
aVblendParent1
p1077
aaF0
aF0
aF0
aF0
aF0
aF0
aF1
aF1
aF1
aF1
aa(lp1078
Vgun_stock_bott_anim
p1079
a(lp1080
VtranslateX
p1081
aVtranslateY
p1082
aVtranslateZ
p1083
aVrotateX
p1084
aVrotateY
p1085
aVrotateZ
p1086
aVscaleX
p1087
aVscaleY
p1088
aVscaleZ
p1089
aVblendParent1
p1090
aaF0
aF0
aF0
aF0
aF0
aF0
aF0.99999999999999967
aF0.99999999999999967
aF0.99999999999999967
aF1
aa(lp1091
Vbot_loarm_pistonC_top_anim
p1092
a(lp1093
VtranslateX
p1094
aVtranslateY
p1095
aVtranslateZ
p1096
aVrotateX
p1097
aVrotateY
p1098
aVrotateZ
p1099
aVscaleX
p1100
aVscaleY
p1101
aVscaleZ
p1102
aVblendParent1
p1103
aaF0
aF0
aF0
aF0
aF0
aF0
aF1
aF1
aF1
aF1
aa(lp1104
Vjaw_anim
p1105
a(lp1106
VtranslateX
p1107
aVtranslateY
p1108
aVtranslateZ
p1109
aVrotateX
p1110
aVrotateY
p1111
aVrotateZ
p1112
aVscaleX
p1113
aVscaleY
p1114
aVscaleZ
p1115
aVblendParent1
p1116
aaF0
aF0
aF0
aF0
aF0
aF0
aF1
aF1
aF1
aF1
aa(lp1117
Vbot_uparm_pistonC_bot_anim
p1118
a(lp1119
VtranslateX
p1120
aVtranslateY
p1121
aVtranslateZ
p1122
aVrotateX
p1123
aVrotateY
p1124
aVrotateZ
p1125
aVscaleX
p1126
aVscaleY
p1127
aVscaleZ
p1128
aVblendParent1
p1129
aaF0
aF0
aF0
aF0
aF0
aF0
aF1
aF1
aF1
aF1
aa(lp1130
Vankle_plates_r_anim
p1131
a(lp1132
VtranslateX
p1133
aVtranslateY
p1134
aVtranslateZ
p1135
aVrotateX
p1136
aVrotateY
p1137
aVrotateZ
p1138
aVscaleX
p1139
aVscaleY
p1140
aVscaleZ
p1141
aVblendParent1
p1142
aaF0
aF0
aF0
aF0
aF0
aF0
aF1
aF1
aF1
aF1
aa(lp1143
Vbot_uparm_anim
p1144
a(lp1145
VtranslateX
p1146
aVtranslateY
p1147
aVtranslateZ
p1148
aVrotateX
p1149
aVrotateY
p1150
aVrotateZ
p1151
aVscaleX
p1152
aVscaleY
p1153
aVscaleZ
p1154
aVblendParent1
p1155
aaF0
aF0
aF0
aF0
aF0
aF0
aF1.0000000000000002
aF1.0000000000000002
aF1.0000000000000004
aF1
aa(lp1156
Vgun_stock_panel_l_anim
p1157
a(lp1158
VtranslateX
p1159
aVtranslateY
p1160
aVtranslateZ
p1161
aVrotateX
p1162
aVrotateY
p1163
aVrotateZ
p1164
aVscaleX
p1165
aVscaleY
p1166
aVscaleZ
p1167
aVblendParent1
p1168
aaF0
aF0
aF0
aF0
aF0
aF0
aF0.99999999999999967
aF0.99999999999999967
aF0.99999999999999967
aF1
aa(lp1169
Vtrap_handle_anim
p1170
a(lp1171
VtranslateX
p1172
aVtranslateY
p1173
aVtranslateZ
p1174
aVrotateX
p1175
aVrotateY
p1176
aVrotateZ
p1177
aVscaleX
p1178
aVscaleY
p1179
aVscaleZ
p1180
aVblendParent1
p1181
aaF0
aF0
aF0
aF0
aF0
aF0
aF1
aF1
aF1
aF1
aa(lp1182
Vtrap_ring_anim
p1183
a(lp1184
VtranslateX
p1185
aVtranslateY
p1186
aVtranslateZ
p1187
aVrotateX
p1188
aVrotateY
p1189
aVrotateZ
p1190
aVscaleX
p1191
aVscaleY
p1192
aVscaleZ
p1193
aVblendParent1
p1194
aaF0
aF0
aF0
aF0
aF0
aF0
aF0.10000000000000001
aF0.10000000000000001
aF0.10000000000000001
aF1
aa(lp1195
Vgun_anim
p1196
a(lp1197
VtranslateX
p1198
aVtranslateY
p1199
aVtranslateZ
p1200
aVrotateX
p1201
aVrotateY
p1202
aVrotateZ
p1203
aVscaleX
p1204
aVscaleY
p1205
aVscaleZ
p1206
aVblendParent1
p1207
aaF2.2945803711267345
aF0.081511541477898297
aF0.10571991721390051
aF31.434007196564291
aF-0.43412181609596773
aF0.231665907619271
aF1
aF1
aF1
aF0
aa(lp1208
Vgun_scope_anim
p1209
a(lp1210
VtranslateX
p1211
aVtranslateY
p1212
aVtranslateZ
p1213
aVrotateX
p1214
aVrotateY
p1215
aVrotateZ
p1216
aVscaleX
p1217
aVscaleY
p1218
aVscaleZ
p1219
aVblendParent1
p1220
aaF0
aF0
aF0
aF0
aF0
aF0
aF1.0000000000000002
aF1
aF1.0000000000000002
aF1
aa(lp1221
Vwrist_cover_anim
p1222
a(lp1223
VtranslateX
p1224
aVtranslateY
p1225
aVtranslateZ
p1226
aVrotateX
p1227
aVrotateY
p1228
aVrotateZ
p1229
aVscaleX
p1230
aVscaleY
p1231
aVscaleZ
p1232
aVblendParent1
p1233
aaF0
aF0
aF0
aF0
aF0
aF0
aF1
aF0.99999999999999967
aF0.99999999999999989
aF1
aa(lp1234
Vbot_uparm_pistonC_top_anim
p1235
a(lp1236
VtranslateX
p1237
aVtranslateY
p1238
aVtranslateZ
p1239
aVrotateX
p1240
aVrotateY
p1241
aVrotateZ
p1242
aVscaleX
p1243
aVscaleY
p1244
aVscaleZ
p1245
aVblendParent1
p1246
aaF0
aF0
aF0
aF0
aF0
aF0
aF1
aF1
aF1
aF1
aa(lp1247
Vgun_barrel_anim
p1248
a(lp1249
VtranslateX
p1250
aVtranslateY
p1251
aVtranslateZ
p1252
aVrotateX
p1253
aVrotateY
p1254
aVrotateZ
p1255
aVscaleX
p1256
aVscaleY
p1257
aVscaleZ
p1258
aVblendParent1
p1259
aaF0
aF0
aF0
aF0
aF0
aF0
aF1.0000000000000002
aF1
aF1.0000000000000002
aF1
aa(lp1260
Vbot_loarm_anim
p1261
a(lp1262
VtranslateX
p1263
aVtranslateY
p1264
aVtranslateZ
p1265
aVrotateX
p1266
aVrotateY
p1267
aVrotateZ
p1268
aVscaleX
p1269
aVscaleY
p1270
aVscaleZ
p1271
aVblendParent1
p1272
aaF0
aF0
aF0
aF0
aF0
aF0
aF1
aF1
aF1
aF1
aa(lp1273
Vshotgun_base_anim
p1274
a(lp1275
VtranslateX
p1276
aVtranslateY
p1277
aVtranslateZ
p1278
aVrotateX
p1279
aVrotateY
p1280
aVrotateZ
p1281
aVscaleX
p1282
aVscaleY
p1283
aVscaleZ
p1284
aVblendParent1
p1285
aaF0
aF0
aF0
aF0
aF0
aF0
aF1
aF1
aF1
aF1
aa(lp1286
Vhip_pack_c_anim
p1287
a(lp1288
VtranslateX
p1289
aVtranslateY
p1290
aVtranslateZ
p1291
aVrotateX
p1292
aVrotateY
p1293
aVrotateZ
p1294
aVchainAttach
p1295
aVchainStartEnvelope
p1296
aVchainStartFrame
p1297
aVchainStiffness
p1298
aVchainDamping
p1299
aVchainGravity
p1300
aVchainIteration
p1301
aVchainCollide
p1302
aVchainWidthBase
p1303
aVchainWidthExtremity
p1304
aVchainCollideGround
p1305
aVchainCollideGroundHeight
p1306
aVblendParent1
p1307
aaF0
aF0
aF0
aF0
aF0
aF0
aI1
aF0
aF1
aF0.10000000000000001
aF0.20000000000000001
aF1
aI1
aI00
aF1
aF1
aI00
aF0
aF1
aa(lp1308
Vhip_pack_b_anim
p1309
a(lp1310
VtranslateX
p1311
aVtranslateY
p1312
aVtranslateZ
p1313
aVrotateX
p1314
aVrotateY
p1315
aVrotateZ
p1316
aVchainAttach
p1317
aVchainStartEnvelope
p1318
aVchainStartFrame
p1319
aVchainStiffness
p1320
aVchainDamping
p1321
aVchainGravity
p1322
aVchainIteration
p1323
aVchainCollide
p1324
aVchainWidthBase
p1325
aVchainWidthExtremity
p1326
aVchainCollideGround
p1327
aVchainCollideGroundHeight
p1328
aVblendParent1
p1329
aaF0
aF0
aF0
aF0
aF0
aF0
aI1
aF0
aF1
aF0.10000000000000001
aF0.20000000000000001
aF1
aI1
aI00
aF1
aF1
aI00
aF0
aF1
aa(lp1330
Vhip_pack_a_anim
p1331
a(lp1332
VtranslateX
p1333
aVtranslateY
p1334
aVtranslateZ
p1335
aVrotateX
p1336
aVrotateY
p1337
aVrotateZ
p1338
aVchainAttach
p1339
aVchainStartEnvelope
p1340
aVchainStartFrame
p1341
aVchainStiffness
p1342
aVchainDamping
p1343
aVchainGravity
p1344
aVchainIteration
p1345
aVchainCollide
p1346
aVchainWidthBase
p1347
aVchainWidthExtremity
p1348
aVchainCollideGround
p1349
aVchainCollideGroundHeight
p1350
aVblendParent1
p1351
aaF-0.020600840225540651
aF0.028594630181927982
aF0.03524955063940638
aF-0.16198589165761976
aF-0.13044651166271698
aF0.01135712285427681
aI1
aF0
aF1
aF0.10000000000000001
aF0.20000000000000001
aF1
aI1
aI00
aF1
aF1
aI00
aF0
aF1
aa(lp1352
Vhip_pack_d_anim
p1353
a(lp1354
VtranslateX
p1355
aVtranslateY
p1356
aVtranslateZ
p1357
aVrotateX
p1358
aVrotateY
p1359
aVrotateZ
p1360
aVchainAttach
p1361
aVchainStartEnvelope
p1362
aVchainStartFrame
p1363
aVchainStiffness
p1364
aVchainDamping
p1365
aVchainGravity
p1366
aVchainIteration
p1367
aVchainCollide
p1368
aVchainWidthBase
p1369
aVchainWidthExtremity
p1370
aVchainCollideGround
p1371
aVchainCollideGroundHeight
p1372
aVblendParent1
p1373
aaF0
aF0
aF0
aF0
aF0
aF0
aI1
aF0
aF1
aF0.10000000000000001
aF0.20000000000000001
aF1
aI1
aI00
aF1
aF1
aI00
aF0
aF1
aa(lp1374
Vgun_stock_panel_r_anim
p1375
a(lp1376
VtranslateX
p1377
aVtranslateY
p1378
aVtranslateZ
p1379
aVrotateX
p1380
aVrotateY
p1381
aVrotateZ
p1382
aVscaleX
p1383
aVscaleY
p1384
aVscaleZ
p1385
aVblendParent1
p1386
aaF0
aF0
aF0
aF0
aF0
aF0
aF0.99999999999999967
aF0.99999999999999967
aF0.99999999999999967
aF1
aa(lp1387
Vbot_loarm_pistonD_top_anim
p1388
a(lp1389
VtranslateX
p1390
aVtranslateY
p1391
aVtranslateZ
p1392
aVrotateX
p1393
aVrotateY
p1394
aVrotateZ
p1395
aVscaleX
p1396
aVscaleY
p1397
aVscaleZ
p1398
aVblendParent1
p1399
aaF0
aF0
aF0
aF0
aF0
aF0
aF0.99999999999999989
aF0.99999999999999989
aF0.99999999999999967
aF1
aa(lp1400
Vsniper_can_arm_03_anim
p1401
a(lp1402
VtranslateX
p1403
aVtranslateY
p1404
aVtranslateZ
p1405
aVrotateX
p1406
aVrotateY
p1407
aVrotateZ
p1408
aVscaleX
p1409
aVscaleY
p1410
aVscaleZ
p1411
aVblendParent1
p1412
aaF0
aF0
aF0
aF0
aF0
aF0
aF1
aF1
aF1
aF1
aa(lp1413
Vsniper_can_arm_02_anim
p1414
a(lp1415
VtranslateX
p1416
aVtranslateY
p1417
aVtranslateZ
p1418
aVrotateX
p1419
aVrotateY
p1420
aVrotateZ
p1421
aVscaleX
p1422
aVscaleY
p1423
aVscaleZ
p1424
aVblendParent1
p1425
aaF0
aF0
aF0
aF0
aF0
aF0
aF1
aF1
aF1
aF1
aa(lp1426
Vsniper_can_arm_01_anim
p1427
a(lp1428
VtranslateX
p1429
aVtranslateY
p1430
aVtranslateZ
p1431
aVrotateX
p1432
aVrotateY
p1433
aVrotateZ
p1434
aVscaleX
p1435
aVscaleY
p1436
aVscaleZ
p1437
aVblendParent1
p1438
aaF0
aF0
aF0
aF0
aF0
aF0
aF1
aF1
aF1
aF1
aa(lp1439
Vbot_loarm_twist_anim
p1440
a(lp1441
VtranslateX
p1442
aVtranslateY
p1443
aVtranslateZ
p1444
aVrotateX
p1445
aVrotateY
p1446
aVrotateZ
p1447
aVscaleX
p1448
aVscaleY
p1449
aVscaleZ
p1450
aVblendParent1
p1451
aaF0
aF0
aF0
aF0
aF0
aF0
aF1
aF1
aF1
aF1
aa(lp1452
Vshotgun_anim
p1453
a(lp1454
VtranslateX
p1455
aVtranslateY
p1456
aVtranslateZ
p1457
aVrotateX
p1458
aVrotateY
p1459
aVrotateZ
p1460
aVscaleX
p1461
aVscaleY
p1462
aVscaleZ
p1463
aVshotgun_rotate
p1464
aVshotgun_rail
p1465
aVblendParent1
p1466
aaF0
aF0
aF0
aF0
aF0
aF0
aF1
aF1
aF1
aF0
aF0
aF1
aa(lp1467
Vankle_plates_l_anim
p1468
a(lp1469
VtranslateX
p1470
aVtranslateY
p1471
aVtranslateZ
p1472
aVrotateX
p1473
aVrotateY
p1474
aVrotateZ
p1475
aVscaleX
p1476
aVscaleY
p1477
aVscaleZ
p1478
aVblendParent1
p1479
aaF0.30404166221202367
aF-0.026618778440294477
aF-0.013882239613881351
aF-2.2153822232762832
aF6.9473393470782838
aF-1.2545948061164098
aF1
aF1
aF1
aF1
aa(lp1480
Vbot_loarm_pistonB_bot_anim
p1481
a(lp1482
VtranslateX
p1483
aVtranslateY
p1484
aVtranslateZ
p1485
aVrotateX
p1486
aVrotateY
p1487
aVrotateZ
p1488
aVscaleX
p1489
aVscaleY
p1490
aVscaleZ
p1491
aVblendParent1
p1492
aaF0
aF0
aF0
aF0
aF0
aF0
aF1.0000000000000002
aF1.0000000000000002
aF1
aF1
aa(lp1493
Vbot_loarm_pistonD_bot_anim
p1494
a(lp1495
VtranslateX
p1496
aVtranslateY
p1497
aVtranslateZ
p1498
aVrotateX
p1499
aVrotateY
p1500
aVrotateZ
p1501
aVscaleX
p1502
aVscaleY
p1503
aVscaleZ
p1504
aVblendParent1
p1505
aaF0
aF0
aF0
aF0
aF0
aF0
aF1
aF1
aF1
aF1
aa(lp1506
Vgun_stock_bott_in_anim
p1507
a(lp1508
VtranslateX
p1509
aVtranslateY
p1510
aVtranslateZ
p1511
aVrotateX
p1512
aVrotateY
p1513
aVrotateZ
p1514
aVscaleX
p1515
aVscaleY
p1516
aVscaleZ
p1517
aVblendParent1
p1518
aaF0
aF0
aF0
aF0
aF0
aF0
aF1.0000000000000002
aF1
aF1.0000000000000002
aF1
aa(lp1519
Vgun_stock_top_anim
p1520
a(lp1521
VtranslateX
p1522
aVtranslateY
p1523
aVtranslateZ
p1524
aVrotateX
p1525
aVrotateY
p1526
aVrotateZ
p1527
aVscaleX
p1528
aVscaleY
p1529
aVscaleZ
p1530
aVblendParent1
p1531
aaF0
aF0
aF0
aF0
aF0
aF0
aF1.0000000000000002
aF1
aF1.0000000000000002
aF1
aa(lp1532
Vshotgun_clip_anim
p1533
a(lp1534
VtranslateX
p1535
aVtranslateY
p1536
aVtranslateZ
p1537
aVrotateX
p1538
aVrotateY
p1539
aVrotateZ
p1540
aVscaleX
p1541
aVscaleY
p1542
aVscaleZ
p1543
aVblendParent1
p1544
aaF0
aF0
aF0
aF0
aF0
aF0
aF0.99999999999999989
aF1
aF1.0000000000000002
aF1
aa(lp1545
Vankle_plates_l_anim_space_switcher
p1546
a(lp1547
Vvisibility
p1548
aVtranslateX
p1549
aVtranslateY
p1550
aVtranslateZ
p1551
aVrotateX
p1552
aVrotateY
p1553
aVrotateZ
p1554
aVscaleX
p1555
aVscaleY
p1556
aVscaleZ
p1557
aVspace_world
p1558
aaI01
aF0
aF0
aF0
aF0
aF0
aF0
aF1
aF1
aF1
aF0
aa(lp1559
Vankle_plates_r_anim_space_switcher
p1560
a(lp1561
Vvisibility
p1562
aVtranslateX
p1563
aVtranslateY
p1564
aVtranslateZ
p1565
aVrotateX
p1566
aVrotateY
p1567
aVrotateZ
p1568
aVscaleX
p1569
aVscaleY
p1570
aVscaleZ
p1571
aVspace_world
p1572
aaI01
aF0
aF0
aF0
aF0
aF0
aF0
aF1
aF1
aF1
aF0
aa(lp1573
Vbody_anim_space_switcher
p1574
a(lp1575
Vvisibility
p1576
aVtranslateX
p1577
aVtranslateY
p1578
aVtranslateZ
p1579
aVrotateX
p1580
aVrotateY
p1581
aVrotateZ
p1582
aVscaleX
p1583
aVscaleY
p1584
aVscaleZ
p1585
aVspace_world
p1586
aaI01
aF0
aF0
aF0
aF0
aF0
aF0
aF1
aF1
aF1
aF0
aa(lp1587
Vbot_hand_anim_space_switcher
p1588
a(lp1589
Vvisibility
p1590
aVtranslateX
p1591
aVtranslateY
p1592
aVtranslateZ
p1593
aVrotateX
p1594
aVrotateY
p1595
aVrotateZ
p1596
aVscaleX
p1597
aVscaleY
p1598
aVscaleZ
p1599
aVspace_world
p1600
aaI01
aF0
aF0
aF0
aF0
aF0
aF0
aF1
aF1
aF1
aF0
aa(lp1601
Vbot_loarm_anim_space_switcher
p1602
a(lp1603
Vvisibility
p1604
aVtranslateX
p1605
aVtranslateY
p1606
aVtranslateZ
p1607
aVrotateX
p1608
aVrotateY
p1609
aVrotateZ
p1610
aVscaleX
p1611
aVscaleY
p1612
aVscaleZ
p1613
aVspace_world
p1614
aaI01
aF0
aF0
aF0
aF0
aF0
aF0
aF1
aF1
aF1
aF0
aa(lp1615
Vbot_loarm_pistonB_bot_anim_space_switcher
p1616
a(lp1617
Vvisibility
p1618
aVtranslateX
p1619
aVtranslateY
p1620
aVtranslateZ
p1621
aVrotateX
p1622
aVrotateY
p1623
aVrotateZ
p1624
aVscaleX
p1625
aVscaleY
p1626
aVscaleZ
p1627
aVspace_world
p1628
aaI01
aF0
aF0
aF0
aF0
aF0
aF0
aF1
aF1
aF1
aF0
aa(lp1629
Vbot_loarm_pistonB_top_anim_space_switcher
p1630
a(lp1631
Vvisibility
p1632
aVtranslateX
p1633
aVtranslateY
p1634
aVtranslateZ
p1635
aVrotateX
p1636
aVrotateY
p1637
aVrotateZ
p1638
aVscaleX
p1639
aVscaleY
p1640
aVscaleZ
p1641
aVspace_world
p1642
aaI01
aF0
aF0
aF0
aF0
aF0
aF0
aF1
aF1
aF1
aF0
aa(lp1643
Vbot_loarm_pistonC_bot_anim_space_switcher
p1644
a(lp1645
Vvisibility
p1646
aVtranslateX
p1647
aVtranslateY
p1648
aVtranslateZ
p1649
aVrotateX
p1650
aVrotateY
p1651
aVrotateZ
p1652
aVscaleX
p1653
aVscaleY
p1654
aVscaleZ
p1655
aVspace_world
p1656
aaI01
aF0
aF0
aF0
aF0
aF0
aF0
aF1
aF1
aF1
aF0
aa(lp1657
Vbot_loarm_pistonC_top_anim_space_switcher
p1658
a(lp1659
Vvisibility
p1660
aVtranslateX
p1661
aVtranslateY
p1662
aVtranslateZ
p1663
aVrotateX
p1664
aVrotateY
p1665
aVrotateZ
p1666
aVscaleX
p1667
aVscaleY
p1668
aVscaleZ
p1669
aVspace_world
p1670
aaI01
aF0
aF0
aF0
aF0
aF0
aF0
aF1
aF1
aF1
aF0
aa(lp1671
Vbot_loarm_pistonD_bot_anim_space_switcher
p1672
a(lp1673
Vvisibility
p1674
aVtranslateX
p1675
aVtranslateY
p1676
aVtranslateZ
p1677
aVrotateX
p1678
aVrotateY
p1679
aVrotateZ
p1680
aVscaleX
p1681
aVscaleY
p1682
aVscaleZ
p1683
aVspace_world
p1684
aaI01
aF0
aF0
aF0
aF0
aF0
aF0
aF1
aF1
aF1
aF0
aa(lp1685
Vbot_loarm_pistonD_top_anim_space_switcher
p1686
a(lp1687
Vvisibility
p1688
aVtranslateX
p1689
aVtranslateY
p1690
aVtranslateZ
p1691
aVrotateX
p1692
aVrotateY
p1693
aVrotateZ
p1694
aVscaleX
p1695
aVscaleY
p1696
aVscaleZ
p1697
aVspace_world
p1698
aaI01
aF0
aF0
aF0
aF0
aF0
aF0
aF1
aF1
aF1
aF0
aa(lp1699
Vbot_loarm_twist_anim_space_switcher
p1700
a(lp1701
Vvisibility
p1702
aVtranslateX
p1703
aVtranslateY
p1704
aVtranslateZ
p1705
aVrotateX
p1706
aVrotateY
p1707
aVrotateZ
p1708
aVscaleX
p1709
aVscaleY
p1710
aVscaleZ
p1711
aVspace_world
p1712
aaI01
aF0
aF0
aF0
aF-7.197724557378236
aF-0.053909845101795098
aF-0.097779047183056342
aF1
aF1
aF1
aF0
aa(lp1713
Vbot_uparm_anim_space_switcher
p1714
a(lp1715
Vvisibility
p1716
aVtranslateX
p1717
aVtranslateY
p1718
aVtranslateZ
p1719
aVrotateX
p1720
aVrotateY
p1721
aVrotateZ
p1722
aVscaleX
p1723
aVscaleY
p1724
aVscaleZ
p1725
aVspace_world
p1726
aaI01
aF0
aF0
aF0
aF0
aF0
aF0
aF1
aF1
aF1
aF0
aa(lp1727
Vbot_uparm_pistonC_bot_anim_space_switcher
p1728
a(lp1729
Vvisibility
p1730
aVtranslateX
p1731
aVtranslateY
p1732
aVtranslateZ
p1733
aVrotateX
p1734
aVrotateY
p1735
aVrotateZ
p1736
aVscaleX
p1737
aVscaleY
p1738
aVscaleZ
p1739
aVspace_world
p1740
aaI01
aF0
aF0
aF0
aF0
aF0
aF0
aF1
aF1
aF1
aF0
aa(lp1741
Vbot_uparm_pistonC_top_anim_space_switcher
p1742
a(lp1743
Vvisibility
p1744
aVtranslateX
p1745
aVtranslateY
p1746
aVtranslateZ
p1747
aVrotateX
p1748
aVrotateY
p1749
aVrotateZ
p1750
aVscaleX
p1751
aVscaleY
p1752
aVscaleZ
p1753
aVspace_world
p1754
aaI01
aF0
aF0
aF0
aF0
aF0
aF0
aF1
aF1
aF1
aF0
aa(lp1755
Vchest_ik_anim_space_switcher
p1756
a(lp1757
Vvisibility
p1758
aVtranslateX
p1759
aVtranslateY
p1760
aVtranslateZ
p1761
aVrotateX
p1762
aVrotateY
p1763
aVrotateZ
p1764
aVscaleX
p1765
aVscaleY
p1766
aVscaleZ
p1767
aVspace_world
p1768
aVspace_chest_ik_world_aligned
p1769
aaI01
aF0
aF0
aF0
aF0
aF0
aF0
aF1
aF1
aF1
aF0
aF0
aa(lp1770
Vgun_anim_space_switcher
p1771
a(lp1772
Vvisibility
p1773
aVtranslateX
p1774
aVtranslateY
p1775
aVtranslateZ
p1776
aVrotateX
p1777
aVrotateY
p1778
aVrotateZ
p1779
aVscaleX
p1780
aVscaleY
p1781
aVscaleZ
p1782
aVspace_world
p1783
aaI01
aF0
aF0
aF0
aF0
aF0
aF0
aF1
aF1
aF1
aF0
aa(lp1784
Vgun_barrel_anim_space_switcher
p1785
a(lp1786
Vvisibility
p1787
aVtranslateX
p1788
aVtranslateY
p1789
aVtranslateZ
p1790
aVrotateX
p1791
aVrotateY
p1792
aVrotateZ
p1793
aVscaleX
p1794
aVscaleY
p1795
aVscaleZ
p1796
aVspace_world
p1797
aaI01
aF0
aF0
aF0
aF0
aF0
aF0
aF1
aF1
aF1
aF0
aa(lp1798
Vgun_scope_anim_space_switcher
p1799
a(lp1800
Vvisibility
p1801
aVtranslateX
p1802
aVtranslateY
p1803
aVtranslateZ
p1804
aVrotateX
p1805
aVrotateY
p1806
aVrotateZ
p1807
aVscaleX
p1808
aVscaleY
p1809
aVscaleZ
p1810
aVspace_world
p1811
aaI01
aF0
aF0
aF0
aF0
aF0
aF0
aF1
aF1
aF1
aF0
aa(lp1812
Vgun_stock_bott_anim_space_switcher
p1813
a(lp1814
Vvisibility
p1815
aVtranslateX
p1816
aVtranslateY
p1817
aVtranslateZ
p1818
aVrotateX
p1819
aVrotateY
p1820
aVrotateZ
p1821
aVscaleX
p1822
aVscaleY
p1823
aVscaleZ
p1824
aVspace_world
p1825
aaI01
aF0
aF0
aF0
aF0
aF0
aF0
aF1
aF1
aF1
aF0
aa(lp1826
Vgun_stock_bott_in_anim_space_switcher
p1827
a(lp1828
Vvisibility
p1829
aVtranslateX
p1830
aVtranslateY
p1831
aVtranslateZ
p1832
aVrotateX
p1833
aVrotateY
p1834
aVrotateZ
p1835
aVscaleX
p1836
aVscaleY
p1837
aVscaleZ
p1838
aVspace_world
p1839
aaI01
aF0
aF0
aF0
aF0
aF0
aF0
aF1
aF1
aF1
aF0
aa(lp1840
Vgun_stock_panel_l_anim_space_switcher
p1841
a(lp1842
Vvisibility
p1843
aVtranslateX
p1844
aVtranslateY
p1845
aVtranslateZ
p1846
aVrotateX
p1847
aVrotateY
p1848
aVrotateZ
p1849
aVscaleX
p1850
aVscaleY
p1851
aVscaleZ
p1852
aVspace_world
p1853
aaI01
aF0
aF0
aF0
aF0
aF0
aF0
aF1
aF1
aF1
aF0
aa(lp1854
Vgun_stock_panel_r_anim_space_switcher
p1855
a(lp1856
Vvisibility
p1857
aVtranslateX
p1858
aVtranslateY
p1859
aVtranslateZ
p1860
aVrotateX
p1861
aVrotateY
p1862
aVrotateZ
p1863
aVscaleX
p1864
aVscaleY
p1865
aVscaleZ
p1866
aVspace_world
p1867
aaI01
aF0
aF0
aF0
aF0
aF0
aF0
aF1
aF1
aF1
aF0
aa(lp1868
Vgun_stock_top_anim_space_switcher
p1869
a(lp1870
Vvisibility
p1871
aVtranslateX
p1872
aVtranslateY
p1873
aVtranslateZ
p1874
aVrotateX
p1875
aVrotateY
p1876
aVrotateZ
p1877
aVscaleX
p1878
aVscaleY
p1879
aVscaleZ
p1880
aVspace_world
p1881
aaI01
aF0
aF0
aF0
aF0
aF0
aF0
aF1
aF1
aF1
aF0
aa(lp1882
Vik_elbow_l_anim_space_switcher
p1883
a(lp1884
Vvisibility
p1885
aVtranslateX
p1886
aVtranslateY
p1887
aVtranslateZ
p1888
aVrotateX
p1889
aVrotateY
p1890
aVrotateZ
p1891
aVscaleX
p1892
aVscaleY
p1893
aVscaleZ
p1894
aVspace_world
p1895
aVspace_body_anim
p1896
aVspace_chest_ik_anim
p1897
aaI01
aF0
aF0
aF0
aF0
aF0
aF0
aF1
aF1
aF1
aF0
aF0
aF0
aa(lp1898
Vik_elbow_r_anim_space_switcher
p1899
a(lp1900
Vvisibility
p1901
aVtranslateX
p1902
aVtranslateY
p1903
aVtranslateZ
p1904
aVrotateX
p1905
aVrotateY
p1906
aVrotateZ
p1907
aVscaleX
p1908
aVscaleY
p1909
aVscaleZ
p1910
aVspace_world
p1911
aVspace_body_anim
p1912
aVspace_chest_ik_anim
p1913
aaI01
aF0
aF0
aF0
aF0
aF0
aF0
aF1
aF1
aF1
aF0
aF0
aF0
aa(lp1914
Vik_foot_anim_l_space_switcher
p1915
a(lp1916
Vvisibility
p1917
aVtranslateX
p1918
aVtranslateY
p1919
aVtranslateZ
p1920
aVrotateX
p1921
aVrotateY
p1922
aVrotateZ
p1923
aVscaleX
p1924
aVscaleY
p1925
aVscaleZ
p1926
aVspace_world
p1927
aVspace_body_anim
p1928
aaI01
aF0
aF0
aF0
aF0
aF0
aF0
aF1
aF1
aF1
aF0
aF0
aa(lp1929
Vik_foot_anim_r_space_switcher
p1930
a(lp1931
Vvisibility
p1932
aVtranslateX
p1933
aVtranslateY
p1934
aVtranslateZ
p1935
aVrotateX
p1936
aVrotateY
p1937
aVrotateZ
p1938
aVscaleX
p1939
aVscaleY
p1940
aVscaleZ
p1941
aVspace_world
p1942
aVspace_body_anim
p1943
aaI01
aF0
aF0
aF0
aF0
aF0
aF0
aF1
aF1
aF1
aF0
aF0
aa(lp1944
Vik_wrist_l_anim_space_switcher
p1945
a(lp1946
Vvisibility
p1947
aVtranslateX
p1948
aVtranslateY
p1949
aVtranslateZ
p1950
aVrotateX
p1951
aVrotateY
p1952
aVrotateZ
p1953
aVscaleX
p1954
aVscaleY
p1955
aVscaleZ
p1956
aVspace_world
p1957
aVspace_body_anim
p1958
aVspace_head_fk_anim
p1959
aVspace_chest_ik_anim
p1960
aVspace_driver_gun_stock_bott
p1961
aaI01
aF0
aF0
aF0
aF0
aF0
aF0
aF1
aF1
aF1
aF0
aF0
aF0
aF0
aF0
aa(lp1962
Vik_wrist_r_anim_space_switcher
p1963
a(lp1964
Vvisibility
p1965
aVtranslateX
p1966
aVtranslateY
p1967
aVtranslateZ
p1968
aVrotateX
p1969
aVrotateY
p1970
aVrotateZ
p1971
aVscaleX
p1972
aVscaleY
p1973
aVscaleZ
p1974
aVspace_world
p1975
aVspace_body_anim
p1976
aVspace_head_fk_anim
p1977
aVspace_chest_ik_anim
p1978
aaI01
aF0
aF0
aF0
aF0
aF0
aF0
aF1
aF1
aF1
aF0
aF0
aF0
aF0
aa(lp1979
Vjaw_anim_space_switcher
p1980
a(lp1981
Vvisibility
p1982
aVtranslateX
p1983
aVtranslateY
p1984
aVtranslateZ
p1985
aVrotateX
p1986
aVrotateY
p1987
aVrotateZ
p1988
aVscaleX
p1989
aVscaleY
p1990
aVscaleZ
p1991
aVspace_world
p1992
aaI01
aF0
aF0
aF0
aF0
aF0
aF0
aF1
aF1
aF1
aF0
aa(lp1993
Vl_global_ik_anim_space_switcher
p1994
a(lp1995
Vvisibility
p1996
aVtranslateX
p1997
aVtranslateY
p1998
aVtranslateZ
p1999
aVrotateX
p2000
aVrotateY
p2001
aVrotateZ
p2002
aVscaleX
p2003
aVscaleY
p2004
aVscaleZ
p2005
aVspace_world
p2006
aaI01
aF0
aF0
aF0
aF0
aF0
aF0
aF1
aF1
aF1
aF0
aa(lp2007
Vmaster_anim_space_switcher
p2008
a(lp2009
Vvisibility
p2010
aVtranslateX
p2011
aVtranslateY
p2012
aVtranslateZ
p2013
aVrotateX
p2014
aVrotateY
p2015
aVrotateZ
p2016
aVscaleX
p2017
aVscaleY
p2018
aVscaleZ
p2019
aVspace_world
p2020
aaI01
aF0
aF0
aF0
aF0
aF0
aF0
aF1
aF1
aF1
aF0
aa(lp2021
Vr_global_ik_anim_space_switcher
p2022
a(lp2023
Vvisibility
p2024
aVtranslateX
p2025
aVtranslateY
p2026
aVtranslateZ
p2027
aVrotateX
p2028
aVrotateY
p2029
aVrotateZ
p2030
aVscaleX
p2031
aVscaleY
p2032
aVscaleZ
p2033
aVspace_world
p2034
aaI01
aF0
aF0
aF0
aF0
aF0
aF0
aF1
aF1
aF1
aF0
aa(lp2035
Vshotgun_anim_space_switcher
p2036
a(lp2037
Vvisibility
p2038
aVtranslateX
p2039
aVtranslateY
p2040
aVtranslateZ
p2041
aVrotateX
p2042
aVrotateY
p2043
aVrotateZ
p2044
aVscaleX
p2045
aVscaleY
p2046
aVscaleZ
p2047
aVspace_world
p2048
aVspace_driver_hand_l
p2049
aaI01
aF0
aF0
aF0
aF0
aF0
aF0
aF1
aF1
aF1
aF0
aF0
aa(lp2050
Vshotgun_base_anim_space_switcher
p2051
a(lp2052
Vvisibility
p2053
aVtranslateX
p2054
aVtranslateY
p2055
aVtranslateZ
p2056
aVrotateX
p2057
aVrotateY
p2058
aVrotateZ
p2059
aVscaleX
p2060
aVscaleY
p2061
aVscaleZ
p2062
aVspace_world
p2063
aaI01
aF0
aF0
aF0
aF0
aF0
aF0
aF1
aF1
aF1
aF0
aa(lp2064
Vshotgun_clip_anim_space_switcher
p2065
a(lp2066
Vvisibility
p2067
aVtranslateX
p2068
aVtranslateY
p2069
aVtranslateZ
p2070
aVrotateX
p2071
aVrotateY
p2072
aVrotateZ
p2073
aVscaleX
p2074
aVscaleY
p2075
aVscaleZ
p2076
aVspace_world
p2077
aaI01
aF0
aF0
aF0
aF0
aF0
aF0
aF1
aF1
aF1
aF0
aa(lp2078
Vsniper_can_arm_01_anim_space_switcher
p2079
a(lp2080
Vvisibility
p2081
aVtranslateX
p2082
aVtranslateY
p2083
aVtranslateZ
p2084
aVrotateX
p2085
aVrotateY
p2086
aVrotateZ
p2087
aVscaleX
p2088
aVscaleY
p2089
aVscaleZ
p2090
aVspace_world
p2091
aaI01
aF0
aF0
aF0
aF0
aF0
aF0
aF1
aF1
aF1
aF0
aa(lp2092
Vsniper_can_arm_02_anim_space_switcher
p2093
a(lp2094
Vvisibility
p2095
aVtranslateX
p2096
aVtranslateY
p2097
aVtranslateZ
p2098
aVrotateX
p2099
aVrotateY
p2100
aVrotateZ
p2101
aVscaleX
p2102
aVscaleY
p2103
aVscaleZ
p2104
aVspace_world
p2105
aaI01
aF0
aF0
aF0
aF0
aF0
aF0
aF1
aF1
aF1
aF0
aa(lp2106
Vsniper_can_arm_03_anim_space_switcher
p2107
a(lp2108
Vvisibility
p2109
aVtranslateX
p2110
aVtranslateY
p2111
aVtranslateZ
p2112
aVrotateX
p2113
aVrotateY
p2114
aVrotateZ
p2115
aVscaleX
p2116
aVscaleY
p2117
aVscaleZ
p2118
aVspace_world
p2119
aVspace_driver_hand_l
p2120
aVspace_driver_gun
p2121
aaI01
aF0
aF0
aF0
aF0
aF0
aF0
aF1
aF1
aF1
aF0
aF0
aF0
aa(lp2122
Vspine_01_space_switcher
p2123
a(lp2124
Vvisibility
p2125
aVtranslateX
p2126
aVtranslateY
p2127
aVtranslateZ
p2128
aVrotateX
p2129
aVrotateY
p2130
aVrotateZ
p2131
aVscaleX
p2132
aVscaleY
p2133
aVscaleZ
p2134
aVspace_world
p2135
aaI01
aF0
aF0
aF0
aF0
aF0
aF0
aF1
aF1
aF1
aF0
aa(lp2136
Vtrap_handle_anim_space_switcher
p2137
a(lp2138
Vvisibility
p2139
aVtranslateX
p2140
aVtranslateY
p2141
aVtranslateZ
p2142
aVrotateX
p2143
aVrotateY
p2144
aVrotateZ
p2145
aVscaleX
p2146
aVscaleY
p2147
aVscaleZ
p2148
aVspace_world
p2149
aVspace_driver_hand_l
p2150
aaI01
aF0
aF0
aF0
aF0
aF0
aF0
aF1
aF1
aF1
aF0
aF0
aa(lp2151
Vtrap_ring_anim_space_switcher
p2152
a(lp2153
Vvisibility
p2154
aVtranslateX
p2155
aVtranslateY
p2156
aVtranslateZ
p2157
aVrotateX
p2158
aVrotateY
p2159
aVrotateZ
p2160
aVscaleX
p2161
aVscaleY
p2162
aVscaleZ
p2163
aVspace_world
p2164
aaI01
aF0
aF0
aF0
aF0
aF0
aF0
aF1
aF1
aF1
aF0
aa(lp2165
Vwrist_cover_anim_space_switcher
p2166
a(lp2167
Vvisibility
p2168
aVtranslateX
p2169
aVtranslateY
p2170
aVtranslateZ
p2171
aVrotateX
p2172
aVrotateY
p2173
aVrotateZ
p2174
aVscaleX
p2175
aVscaleY
p2176
aVscaleZ
p2177
aVspace_world
p2178
aaI01
aF0
aF0
aF0
aF0
aF0
aF0
aF1
aF1
aF1
aF0
aa.