(lp1
(lp2
Vhip_anim
p3
a(lp4
VtranslateX
p5
aVtranslateY
p6
aVtranslateZ
p7
aVrotateX
p8
aVrotateY
p9
aVrotateZ
p10
aVlCalfTwistCtrlVis
p11
aVrCalfTwistCtrlVis
p12
aVautoHips
p13
aaF0
aF0
aF0
aF10.111861000552251
aF0.31494013773428192
aF-1.5247186571503963
aI00
aI00
aF0
aa(lp14
Vbody_anim
p15
a(lp16
VtranslateX
p17
aVtranslateY
p18
aVtranslateZ
p19
aVrotateX
p20
aVrotateY
p21
aVrotateZ
p22
aaF-9.6619923210355765
aF0.59355874889218163
aF-11.488242073611305
aF-72.184846647289135
aF-0.35100795253061867
aF-2.8869990789416677
aa(lp23
Vspine_01_anim
p24
a(lp25
Vlength
p26
aVtranslateY
p27
aVtranslateZ
p28
aVrotateX
p29
aVrotateY
p30
aVrotateZ
p31
aaF0
aF0
aF0
aF-0.80729857741568123
aF4.014931848024677
aF-4.4492748312540682
aa(lp32
Vspine_02_anim
p33
a(lp34
Vlength
p35
aVtranslateY
p36
aVtranslateZ
p37
aVrotateX
p38
aVrotateY
p39
aVrotateZ
p40
aaF0
aF0
aF0
aF-1.7202305694266224
aF2.8825462346390243
aF-2.1994407702534908
aa(lp41
Vspine_03_anim
p42
a(lp43
Vlength
p44
aVtranslateY
p45
aVtranslateZ
p46
aVrotateX
p47
aVrotateY
p48
aVrotateZ
p49
aaF0
aF0
aF0
aF-1.8913355725519578
aF2.7274995321075335
aF-2.2453236169062185
aa(lp50
Vmid_ik_anim
p51
a(lp52
VtranslateX
p53
aVtranslateY
p54
aVtranslateZ
p55
aVrotateX
p56
aVrotateY
p57
aVrotateZ
p58
aaF-0.1398386699280684
aF-2.2134809721379454
aF-0.86288893532318101
aF-3.075025683333664
aF6.5812809237858687
aF6.4410261788639493
aa(lp59
Vchest_ik_anim
p60
a(lp61
VtranslateX
p62
aVtranslateY
p63
aVtranslateZ
p64
aVrotateX
p65
aVrotateY
p66
aVrotateZ
p67
aVstretch
p68
aVsquash
p69
aVtwist_amount
p70
aVautoSpine
p71
aVrotationInfluence
p72
aaF0.082139305380065544
aF-2.499442692789323
aF-2.4256924542094969
aF-5.1193721628343676
aF9.2062728494138266
aF0.99574479876267175
aF0
aF0
aF1
aF0
aF0.25
aa(lp73
Vhead_fk_anim
p74
a(lp75
VtranslateX
p76
aVtranslateY
p77
aVtranslateZ
p78
aVrotateX
p79
aVrotateY
p80
aVrotateZ
p81
aVscaleX
p82
aVscaleY
p83
aVscaleZ
p84
aVfkOrientation
p85
aaF0
aF0
aF0
aF44.818320928273685
aF-1.0390288974407571
aF-8.8264013893651274
aF1
aF1
aF1
aI0
aa(lp86
Vneck_01_fk_anim
p87
a(lp88
VtranslateX
p89
aVtranslateY
p90
aVtranslateZ
p91
aVrotateX
p92
aVrotateY
p93
aVrotateZ
p94
aVscaleX
p95
aVscaleY
p96
aVscaleZ
p97
aVfkOrientation
p98
aaF0
aF0
aF0
aF30.30178951364087
aF-6.9156679668389787
aF-1.9022262626640507
aF0.99999999999999989
aF1
aF1
aI0
aa(lp99
Vik_wrist_r_anim
p100
a(lp101
VtranslateX
p102
aVtranslateY
p103
aVtranslateZ
p104
aVrotateX
p105
aVrotateY
p106
aVrotateZ
p107
aVstretch
p108
aVsquash
p109
aVstretchBias
p110
aVside
p111
aVmid_bend
p112
aVmid_swivel
p113
aVtip_pivot
p114
aVtip_swivel
p115
aaF71.593274450630986
aF31.478494786239949
aF-34.812197594956316
aF-11.083274466083829
aF-13.038917403979619
aF-2.4395485665945951
aF0
aF0
aF0
aF0
aF0
aF0
aF0
aF0
aa(lp116
Vik_elbow_r_anim
p117
a(lp118
VtranslateX
p119
aVtranslateY
p120
aVtranslateZ
p121
aaF66.395947271292528
aF17.217047360529008
aF-17.472412216141088
aa(lp122
Vfk_arm_r_anim
p123
a(lp124
VtranslateX
p125
aVtranslateY
p126
aVtranslateZ
p127
aVrotateX
p128
aVrotateY
p129
aVrotateZ
p130
aaF0
aF0
aF0
aF57.471020436198216
aF39.842357980044653
aF36.700640155486902
aa(lp131
Vfk_elbow_r_anim
p132
a(lp133
VtranslateX
p134
aVtranslateY
p135
aVtranslateZ
p136
aVrotateX
p137
aVrotateY
p138
aVrotateZ
p139
aaF0
aF0
aF0
aF16.48609830354118
aF-14.649861708733345
aF-87.004826462733973
aa(lp140
Vfk_wrist_r_anim
p141
a(lp142
VtranslateX
p143
aVtranslateY
p144
aVtranslateZ
p145
aVrotateX
p146
aVrotateY
p147
aVrotateZ
p148
aaF0
aF0
aF0
aF5.7138070627156523
aF6.4634239697844862
aF-20.0493818168075
aa(lp149
Vclavicle_r_anim
p150
a(lp151
VtranslateX
p152
aVtranslateY
p153
aVtranslateZ
p154
aVautoShoulders
p155
aaF0.096257478531349125
aF-0.93876939802322557
aF2.5852238339954825
aF0
aa(lp156
Vik_wrist_l_anim
p157
a(lp158
VtranslateX
p159
aVtranslateY
p160
aVtranslateZ
p161
aVrotateX
p162
aVrotateY
p163
aVrotateZ
p164
aVstretch
p165
aVsquash
p166
aVstretchBias
p167
aVside
p168
aVmid_bend
p169
aVmid_swivel
p170
aVtip_pivot
p171
aVtip_swivel
p172
aaF-87.420113002906703
aF-65.0238262857184
aF-16.503032448452871
aF99.453810178555401
aF187.71184464304523
aF11.514351841573195
aF0
aF0
aF0
aF0
aF0
aF0
aF0
aF0
aa(lp173
Vik_elbow_l_anim
p174
a(lp175
VtranslateX
p176
aVtranslateY
p177
aVtranslateZ
p178
aaF-28.208229342383287
aF-73.303456773097693
aF-13.095080365369315
aa(lp179
Vfk_arm_l_anim
p180
a(lp181
VtranslateX
p182
aVtranslateY
p183
aVtranslateZ
p184
aVrotateX
p185
aVrotateY
p186
aVrotateZ
p187
aaF0
aF0
aF0
aF22.343247813467521
aF-12.388290763669291
aF-7.347392469240047
aa(lp188
Vfk_elbow_l_anim
p189
a(lp190
VtranslateX
p191
aVtranslateY
p192
aVtranslateZ
p193
aVrotateX
p194
aVrotateY
p195
aVrotateZ
p196
aaF0
aF0
aF0
aF23.212350153141713
aF-20.839185150595238
aF-85.12487341793036
aa(lp197
Vfk_wrist_l_anim
p198
a(lp199
VtranslateX
p200
aVtranslateY
p201
aVtranslateZ
p202
aVrotateX
p203
aVrotateY
p204
aVrotateZ
p205
aaF0
aF0
aF0
aF-63.329839732009717
aF6.6951732566965356
aF-15.538186681083969
aa(lp206
Vclavicle_l_anim
p207
a(lp208
VtranslateX
p209
aVtranslateY
p210
aVtranslateZ
p211
aVautoShoulders
p212
aaF0.31144410300095354
aF-0.47718405823514565
aF12.031803473100171
aF0
aa(lp213
Vindex_finger_fk_ctrl_1_r
p214
a(lp215
VtranslateX
p216
aVtranslateY
p217
aVtranslateZ
p218
aVrotateX
p219
aVrotateY
p220
aVrotateZ
p221
aVsticky
p222
aaF0
aF0
aF0
aF-3.3387655848653872
aF-6.0928954074903556
aF28.807340222052282
aF0
aa(lp223
Vmiddle_finger_fk_ctrl_1_r
p224
a(lp225
VtranslateX
p226
aVtranslateY
p227
aVtranslateZ
p228
aVrotateX
p229
aVrotateY
p230
aVrotateZ
p231
aVsticky
p232
aaF0
aF0
aF0
aF-1.5576726256467806
aF-7.490555539641055
aF71.02870484263309
aF0
aa(lp233
Vring_finger_fk_ctrl_1_r
p234
a(lp235
VtranslateX
p236
aVtranslateY
p237
aVtranslateZ
p238
aVrotateX
p239
aVrotateY
p240
aVrotateZ
p241
aVsticky
p242
aaF0
aF0
aF0
aF-1.8761689618070569
aF-7.6148050121739663
aF58.806392729110243
aF0
aa(lp243
Vpinky_finger_fk_ctrl_1_r
p244
a(lp245
VtranslateX
p246
aVtranslateY
p247
aVtranslateZ
p248
aVrotateX
p249
aVrotateY
p250
aVrotateZ
p251
aVsticky
p252
aaF0
aF0
aF0
aF-12.038537149107768
aF-15.346512905441466
aF61.069669371678827
aF0
aa(lp253
Vthumb_finger_fk_ctrl_1_r
p254
a(lp255
VtranslateX
p256
aVtranslateY
p257
aVtranslateZ
p258
aVrotateX
p259
aVrotateY
p260
aVrotateZ
p261
aVsticky
p262
aaF0
aF0
aF0
aF13.842244727365063
aF26.503604187545172
aF43.077083507749407
aF0
aa(lp263
Vindex_finger_fk_ctrl_2_r
p264
a(lp265
VtranslateX
p266
aVtranslateY
p267
aVtranslateZ
p268
aVrotateX
p269
aVrotateY
p270
aVrotateZ
p271
aaF0
aF0
aF0
aF11.878195406430864
aF10.67039299033722
aF79.2649151528354
aa(lp272
Vmiddle_finger_fk_ctrl_2_r
p273
a(lp274
VtranslateX
p275
aVtranslateY
p276
aVtranslateZ
p277
aVrotateX
p278
aVrotateY
p279
aVrotateZ
p280
aaF0
aF0
aF0
aF3.1205578674787855
aF-6.3745989768269888
aF87.623761326050996
aa(lp281
Vring_finger_fk_ctrl_2_r
p282
a(lp283
VtranslateX
p284
aVtranslateY
p285
aVtranslateZ
p286
aVrotateX
p287
aVrotateY
p288
aVrotateZ
p289
aaF0
aF0
aF0
aF1.2678331474032762
aF0.84626236834742452
aF58.15179294196863
aa(lp290
Vpinky_finger_fk_ctrl_2_r
p291
a(lp292
VtranslateX
p293
aVtranslateY
p294
aVtranslateZ
p295
aVrotateX
p296
aVrotateY
p297
aVrotateZ
p298
aaF0
aF0
aF0
aF4.092621231082858
aF-10.906328913024248
aF36.685285091803429
aa(lp299
Vthumb_finger_fk_ctrl_2_r
p300
a(lp301
VtranslateX
p302
aVtranslateY
p303
aVtranslateZ
p304
aVrotateX
p305
aVrotateY
p306
aVrotateZ
p307
aaF0
aF0
aF0
aF-1.7716493101714721
aF4.5295816409483507
aF-4.4364118677265898
aa(lp308
Vindex_finger_fk_ctrl_3_r
p309
a(lp310
VtranslateX
p311
aVtranslateY
p312
aVtranslateZ
p313
aVrotateX
p314
aVrotateY
p315
aVrotateZ
p316
aaF0
aF0
aF0
aF3.8930346965788409
aF12.801635742187861
aF55.805820465087841
aa(lp317
Vmiddle_finger_fk_ctrl_3_r
p318
a(lp319
VtranslateX
p320
aVtranslateY
p321
aVtranslateZ
p322
aVrotateX
p323
aVrotateY
p324
aVrotateZ
p325
aaF0
aF0
aF0
aF3.4957659244537962
aF-2.3556907176972617
aF56.616756439208757
aa(lp326
Vring_finger_fk_ctrl_3_r
p327
a(lp328
VtranslateX
p329
aVtranslateY
p330
aVtranslateZ
p331
aVrotateX
p332
aVrotateY
p333
aVrotateZ
p334
aaF0
aF0
aF0
aF4.968184787457993
aF1.9827603811766792
aF51.810856189638557
aa(lp335
Vpinky_finger_fk_ctrl_3_r
p336
a(lp337
VtranslateX
p338
aVtranslateY
p339
aVtranslateZ
p340
aVrotateX
p341
aVrotateY
p342
aVrotateZ
p343
aaF0
aF0
aF0
aF4.0918183326721964
aF-10.422439575195218
aF70.588310241699233
aa(lp344
Vthumb_finger_fk_ctrl_3_r
p345
a(lp346
VtranslateX
p347
aVtranslateY
p348
aVtranslateZ
p349
aVrotateX
p350
aVrotateY
p351
aVrotateZ
p352
aaF0
aF0
aF0
aF9.609117225714669e-06
aF-4.3910623032875192e-08
aF55.176322325550096
aa(lp353
Vindex_finger_fk_ctrl_1_l
p354
a(lp355
VtranslateX
p356
aVtranslateY
p357
aVtranslateZ
p358
aVrotateX
p359
aVrotateY
p360
aVrotateZ
p361
aVsticky
p362
aaF0
aF0
aF0
aF0.65589538759292298
aF3.8953527218998092
aF79.904713886064116
aF0
aa(lp363
Vmiddle_finger_fk_ctrl_1_l
p364
a(lp365
VtranslateX
p366
aVtranslateY
p367
aVtranslateZ
p368
aVrotateX
p369
aVrotateY
p370
aVrotateZ
p371
aVsticky
p372
aaF0
aF0
aF0
aF1.6189555889853902
aF-8.8843967466319018
aF92.993719249273539
aF0
aa(lp373
Vring_finger_fk_ctrl_1_l
p374
a(lp375
VtranslateX
p376
aVtranslateY
p377
aVtranslateZ
p378
aVrotateX
p379
aVrotateY
p380
aVrotateZ
p381
aVsticky
p382
aaF0
aF0
aF0
aF5.5620129772915474
aF-5.6554425604257723
aF79.666403139687588
aF0
aa(lp383
Vpinky_finger_fk_ctrl_1_l
p384
a(lp385
VtranslateX
p386
aVtranslateY
p387
aVtranslateZ
p388
aVrotateX
p389
aVrotateY
p390
aVrotateZ
p391
aVsticky
p392
aaF0
aF0
aF0
aF2.0198179390692967
aF-18.982563255293027
aF77.804748516516071
aF0
aa(lp393
Vthumb_finger_fk_ctrl_1_l
p394
a(lp395
VtranslateX
p396
aVtranslateY
p397
aVtranslateZ
p398
aVrotateX
p399
aVrotateY
p400
aVrotateZ
p401
aVsticky
p402
aaF0
aF0
aF0
aF2.4748841644478206
aF28.755180996954302
aF4.8611530164655194
aF0
aa(lp403
Vindex_finger_fk_ctrl_2_l
p404
a(lp405
VtranslateX
p406
aVtranslateY
p407
aVtranslateZ
p408
aVrotateX
p409
aVrotateY
p410
aVrotateZ
p411
aaF0
aF0
aF0
aF-1.920540338196492e-08
aF-2.4560175993320781e-07
aF94.066239701684097
aa(lp412
Vmiddle_finger_fk_ctrl_2_l
p413
a(lp414
VtranslateX
p415
aVtranslateY
p416
aVtranslateZ
p417
aVrotateX
p418
aVrotateY
p419
aVrotateZ
p420
aaF0
aF0
aF0
aF7.543989340561904e-08
aF-6.4831147693892831e-07
aF85.915623606606843
aa(lp421
Vring_finger_fk_ctrl_2_l
p422
a(lp423
VtranslateX
p424
aVtranslateY
p425
aVtranslateZ
p426
aVrotateX
p427
aVrotateY
p428
aVrotateZ
p429
aaF0
aF0
aF0
aF-1.8927782507570914e-08
aF0
aF74.746051862228597
aa(lp430
Vpinky_finger_fk_ctrl_2_l
p431
a(lp432
VtranslateX
p433
aVtranslateY
p434
aVtranslateZ
p435
aVrotateX
p436
aVrotateY
p437
aVrotateZ
p438
aaF0
aF0
aF0
aF-4.9055836413473178e-06
aF-2.590698356851647e-08
aF89.013138545932478
aa(lp439
Vthumb_finger_fk_ctrl_2_l
p440
a(lp441
VtranslateX
p442
aVtranslateY
p443
aVtranslateZ
p444
aVrotateX
p445
aVrotateY
p446
aVrotateZ
p447
aaF0
aF0
aF0
aF-27.178208590250083
aF11.04800572779939
aF31.664668711386643
aa(lp448
Vindex_finger_fk_ctrl_3_l
p449
a(lp450
VtranslateX
p451
aVtranslateY
p452
aVtranslateZ
p453
aVrotateX
p454
aVrotateY
p455
aVrotateZ
p456
aaF0
aF0
aF0
aF-3.4279962024515927e-08
aF-2.4395538816105571e-07
aF103.26916326159578
aa(lp457
Vmiddle_finger_fk_ctrl_3_l
p458
a(lp459
VtranslateX
p460
aVtranslateY
p461
aVtranslateZ
p462
aVrotateX
p463
aVrotateY
p464
aVrotateZ
p465
aaF0
aF0
aF0
aF2.3632528320790391e-06
aF-2.6765024642911302e-07
aF85.915623614278928
aa(lp466
Vring_finger_fk_ctrl_3_l
p467
a(lp468
VtranslateX
p469
aVtranslateY
p470
aVtranslateZ
p471
aVrotateX
p472
aVrotateY
p473
aVrotateZ
p474
aaF0
aF0
aF0
aF-1.8926309013888312e-08
aF0
aF102.06616169092722
aa(lp475
Vpinky_finger_fk_ctrl_3_l
p476
a(lp477
VtranslateX
p478
aVtranslateY
p479
aVtranslateZ
p480
aVrotateX
p481
aVrotateY
p482
aVrotateZ
p483
aaF0
aF0
aF0
aF2.8995702174602167e-06
aF1.4797727769431538e-08
aF89.013138545935817
aa(lp484
Vthumb_finger_fk_ctrl_3_l
p485
a(lp486
VtranslateX
p487
aVtranslateY
p488
aVtranslateZ
p489
aVrotateX
p490
aVrotateY
p491
aVrotateZ
p492
aaF0
aF0
aF0
aF5.726813078153242
aF-6.7710847787464186
aF76.900397853960669
aa.