(lp1
(lp2
S'fk_clavicle_r_anim'
p3
a(lp4
VtranslateX
p5
aVtranslateY
p6
aVtranslateZ
p7
aVrotateX
p8
aVrotateY
p9
aVrotateZ
p10
aaF0
aF0
aF0
aF0
aF0
aF0
aa(lp11
S'fk_clavicle_l_anim'
p12
a(lp13
VtranslateX
p14
aVtranslateY
p15
aVtranslateZ
p16
aVrotateX
p17
aVrotateY
p18
aVrotateZ
p19
aaF0
aF0
aF0
aF0
aF0
aF0
aa(lp20
S'head_fk_anim'
p21
a(lp22
VtranslateX
p23
aVtranslateY
p24
aVtranslateZ
p25
aVrotateX
p26
aVrotateY
p27
aVrotateZ
p28
aVscaleX
p29
aVscaleY
p30
aVscaleZ
p31
aVfkOrientation
p32
aVblendOrient1
p33
aaF0
aF0
aF0
aF48.578889959417602
aF-2.0411353211931549
aF13.591941124727919
aF1
aF1
aF1
aI0
aF0
aa(lp34
S'neck_01_fk_anim'
p35
a(lp36
VtranslateX
p37
aVtranslateY
p38
aVtranslateZ
p39
aVrotateX
p40
aVrotateY
p41
aVrotateZ
p42
aVscaleX
p43
aVscaleY
p44
aVscaleZ
p45
aVfkOrientation
p46
aVblendOrient1
p47
aaF0.83196707947648307
aF0.24739916330348841
aF0.12792530361007903
aF12.728049181840925
aF-2.5756785390520229
aF-9.1175184323117193
aF1
aF1
aF1
aI0
aF0
aa(lp48
S'spine_01_anim'
p49
a(lp50
Vlength
p51
aVtranslateY
p52
aVtranslateZ
p53
aVrotateX
p54
aVrotateY
p55
aVrotateZ
p56
aVblendOrient1
p57
aaF0
aF0
aF0
aF-35.115433022420675
aF6.0212694455997129
aF-3.0266365765254775
aF0
aa(lp58
S'spine_02_anim'
p59
a(lp60
Vlength
p61
aVtranslateY
p62
aVtranslateZ
p63
aVrotateX
p64
aVrotateY
p65
aVrotateZ
p66
aVblendOrient1
p67
aaF0
aF0
aF0
aF-0.90406541774672478
aF4.4607603557402991
aF4.9133933237615297
aF0
aa(lp68
S'spine_03_anim'
p69
a(lp70
Vlength
p71
aVtranslateY
p72
aVtranslateZ
p73
aVrotateX
p74
aVrotateY
p75
aVrotateZ
p76
aVblendOrient1
p77
aaF0
aF0
aF0
aF-1.2448649134141814
aF3.0281381857088907
aF-0.16256663828499984
aF0
aa(lp78
S'mid_ik_anim'
p79
a(lp80
VtranslateX
p81
aVtranslateY
p82
aVtranslateZ
p83
aVrotateX
p84
aVrotateY
p85
aVrotateZ
p86
aVblendParent1
p87
aaF-0.12646476307627524
aF-2.3971804292812844
aF-0.70578691765898949
aF-36.923603362643718
aF9.2149992443302011
aF14.663186971036954
aF0
aa(lp88
S'chest_ik_anim'
p89
a(lp90
VtranslateX
p91
aVtranslateY
p92
aVtranslateZ
p93
aVrotateX
p94
aVrotateY
p95
aVrotateZ
p96
aVstretch
p97
aVsquash
p98
aVtwist_amount
p99
aVautoSpine
p100
aVrotationInfluence
p101
aVblendParent1
p102
aaF-0.28971278235067077
aF-2.4710703507500562
aF-4.2801537223902972
aF-31.303035211031535
aF16.883707761259988
aF9.5862086741302051
aF0
aF0
aF1
aF0
aF0.25
aF0
aa(lp103
S'body_anim'
p104
a(lp105
VtranslateX
p106
aVtranslateY
p107
aVtranslateZ
p108
aVrotateX
p109
aVrotateY
p110
aVrotateZ
p111
aVblendParent1
p112
aaF-7.115114215022535
aF1.4332111930001787
aF-7.1776376724243054
aF-45.328815195709595
aF-7.0196554407941658
aF-0.64216166811716702
aF0
aa(lp113
S'hip_anim'
p114
a(lp115
VtranslateX
p116
aVtranslateY
p117
aVtranslateZ
p118
aVrotateX
p119
aVrotateY
p120
aVrotateZ
p121
aVlCalfTwistCtrlVis
p122
aVrCalfTwistCtrlVis
p123
aVautoHips
p124
aaF0
aF0
aF1.2621774483536189e-29
aF3.7272125173400562e-17
aF-2.5444437451708134e-14
aF4.9696166897867437e-17
aI00
aI00
aF0
aa(lp125
S'clavicle_l_anim'
p126
a(lp127
VtranslateX
p128
aVtranslateY
p129
aVtranslateZ
p130
aVautoShoulders
p131
aVblendPoint1
p132
aaF0.080001116018370899
aF-5.760503647015299
aF10.088393743151546
aF0
aF0
aa(lp133
S'clavicle_r_anim'
p134
a(lp135
VtranslateX
p136
aVtranslateY
p137
aVtranslateZ
p138
aVautoShoulders
p139
aVblendPoint1
p140
aaF0.20073343773429553
aF-1.5866506046291047
aF4.7363150053900132
aF0
aF0
aa(lp141
S'fk_arm_l_anim'
p142
a(lp143
VtranslateX
p144
aVtranslateY
p145
aVtranslateZ
p146
aVrotateX
p147
aVrotateY
p148
aVrotateZ
p149
aVblendOrient1
p150
aaF0
aF0
aF0
aF-26.439749438750066
aF-1.0733713073900337
aF1.3875471723657322
aF0
aa(lp151
S'fk_arm_r_anim'
p152
a(lp153
VtranslateX
p154
aVtranslateY
p155
aVtranslateZ
p156
aVrotateX
p157
aVrotateY
p158
aVrotateZ
p159
aVblendOrient1
p160
aaF0
aF0
aF0
aF59.096294923947525
aF41.969136931645572
aF29.445734497411731
aF0
aa(lp161
S'fk_elbow_l_anim'
p162
a(lp163
VtranslateX
p164
aVtranslateY
p165
aVtranslateZ
p166
aVrotateX
p167
aVrotateY
p168
aVrotateZ
p169
aVblendOrient1
p170
aaF0
aF0
aF0
aF-1.4730099022388456
aF0.7192031621932975
aF-24.886102294921884
aF0
aa(lp171
S'fk_elbow_r_anim'
p172
a(lp173
VtranslateX
p174
aVtranslateY
p175
aVtranslateZ
p176
aVrotateX
p177
aVrotateY
p178
aVrotateZ
p179
aVblendOrient1
p180
aaF0
aF0
aF0
aF0.028041437268256406
aF0.047309599816795819
aF-78.903740692138669
aF0
aa(lp181
S'fk_wrist_l_anim'
p182
a(lp183
VtranslateX
p184
aVtranslateY
p185
aVtranslateZ
p186
aVrotateX
p187
aVrotateY
p188
aVrotateZ
p189
aVblendOrient1
p190
aaF0
aF0
aF0
aF-37.064841461181658
aF-6.6132983207702658
aF-12.456842231750485
aF0
aa(lp191
S'fk_wrist_r_anim'
p192
a(lp193
VtranslateX
p194
aVtranslateY
p195
aVtranslateZ
p196
aVrotateX
p197
aVrotateY
p198
aVrotateZ
p199
aVblendOrient1
p200
aaF0
aF0
aF0
aF-2.1292213916779148
aF20.952780199050896
aF-4.2964613914489904
aF0
aa(lp201
S'ik_elbow_l_anim'
p202
a(lp203
VtranslateX
p204
aVtranslateY
p205
aVtranslateZ
p206
aVblendPoint1
p207
aaF-32.397644905935032
aF-70.050104328541863
aF-6.4031449227365638
aF0
aa(lp208
S'ik_elbow_r_anim'
p209
a(lp210
VtranslateX
p211
aVtranslateY
p212
aVtranslateZ
p213
aVblendPoint1
p214
aaF60.572463348442113
aF20.53728995012704
aF-16.051952817999727
aF0
aa(lp215
S'ik_wrist_l_anim'
p216
a(lp217
VtranslateX
p218
aVtranslateY
p219
aVtranslateZ
p220
aVrotateX
p221
aVrotateY
p222
aVrotateZ
p223
aVstretch
p224
aVsquash
p225
aVstretchBias
p226
aVside
p227
aVmid_bend
p228
aVmid_swivel
p229
aVtip_pivot
p230
aVtip_swivel
p231
aVblendParent1
p232
aaF-68.956917335234493
aF-85.150456318647457
aF-7.602137373004493
aF-72.110660875885685
aF-8.8805355423061307
aF-87.937952975246716
aF0
aF0
aF0
aF0
aF0
aF0
aF0
aF0
aF0
aa(lp233
S'ik_wrist_r_anim'
p234
a(lp235
VtranslateX
p236
aVtranslateY
p237
aVtranslateZ
p238
aVrotateX
p239
aVrotateY
p240
aVrotateZ
p241
aVstretch
p242
aVsquash
p243
aVstretchBias
p244
aVside
p245
aVmid_bend
p246
aVmid_swivel
p247
aVtip_pivot
p248
aVtip_swivel
p249
aVblendParent1
p250
aaF68.804352130055136
aF30.379110391171103
aF-36.628373826727447
aF-43.546628498871719
aF-40.171819703914892
aF8.4671347348277841
aF0
aF0
aF0
aF0
aF0
aF0
aF0
aF0
aF0
aa(lp251
S'fk_thigh_l_anim'
p252
a(lp253
VrotateX
p254
aVrotateY
p255
aVrotateZ
p256
aVblendOrient1
p257
aaF19.212767410978643
aF-11.731857321323393
aF12.467399016275598
aF0
aa(lp258
S'fk_thigh_r_anim'
p259
a(lp260
VrotateX
p261
aVrotateY
p262
aVrotateZ
p263
aVblendOrient1
p264
aaF25.722803144154469
aF-29.32782196476753
aF6.1040907066217223
aF0
aa(lp265
S'fk_calf_l_anim'
p266
a(lp267
VrotateX
p268
aVrotateY
p269
aVrotateZ
p270
aVblendOrient1
p271
aaF-0.2024555982714438
aF0.68067638866606772
aF-19.258422542488841
aF0
aa(lp272
S'fk_calf_r_anim'
p273
a(lp274
VrotateX
p275
aVrotateY
p276
aVrotateZ
p277
aVblendOrient1
p278
aaF-0.40841292045070143
aF0.92730519606874406
aF-27.717196649234815
aF0
aa(lp279
S'fk_foot_l_anim'
p280
a(lp281
VrotateX
p282
aVrotateY
p283
aVrotateZ
p284
aVblendOrient1
p285
aaF4.3906042123620344
aF12.820132680098773
aF-0.55432623607868547
aF0
aa(lp286
S'fk_foot_r_anim'
p287
a(lp288
VrotateX
p289
aVrotateY
p290
aVrotateZ
p291
aVblendOrient1
p292
aaF3.2777335161343344
aF13.89959698358469
aF9.3168303187008856
aF0
aa(lp293
S'fk_ball_l_anim'
p294
a(lp295
VrotateX
p296
aVrotateY
p297
aVrotateZ
p298
aVblendOrient1
p299
aaF-3.9274353184847705e-05
aF-6.773604399690855e-05
aF-0.00015857216200628412
aF0
aa(lp300
S'fk_ball_r_anim'
p301
a(lp302
VrotateX
p303
aVrotateY
p304
aVrotateZ
p305
aVblendOrient1
p306
aaF4.5906817831491057e-05
aF5.6828790586805608e-05
aF-0.00033393056947152204
aF0
aa(lp307
S'ik_foot_anim_l'
p308
a(lp309
VtranslateX
p310
aVtranslateY
p311
aVtranslateZ
p312
aVrotateX
p313
aVrotateY
p314
aVrotateZ
p315
aVknee_twist
p316
aVstretch
p317
aVsquash
p318
aVtoeCtrlVis
p319
aVstretchBias
p320
aVblendPoint1
p321
aVblendOrient1
p322
aaF16.409888813821709
aF-32.609563978122594
aF0.604116554380284
aF0.35347077651456288
aF-0.072935559847360928
aF-18.930216110094189
aF-22
aF0
aF0
aI00
aF0
aF0
aF0
aa(lp323
S'ik_foot_anim_r'
p324
a(lp325
VtranslateX
p326
aVtranslateY
p327
aVtranslateZ
p328
aVrotateX
p329
aVrotateY
p330
aVrotateZ
p331
aVknee_twist
p332
aVstretch
p333
aVsquash
p334
aVtoeCtrlVis
p335
aVstretchBias
p336
aVblendPoint1
p337
aVblendOrient1
p338
aaF5.7660205904976554
aF33.48502441797261
aF0.037119867354173407
aF180.03046561793712
aF177.84933671686329
aF100.40474468183466
aF73
aF0
aF0
aI00
aF0
aF0
aF0
aa(lp339
S'heel_ctrl_l'
p340
a(lp341
VrotateX
p342
aVrotateY
p343
aVrotateZ
p344
aVheelPivot
p345
aVballPivot
p346
aaF-7.3624871259190632e-14
aF-2.5842006786891074e-14
aF0
aF0
aF0
aa(lp347
S'heel_ctrl_r'
p348
a(lp349
VrotateX
p350
aVrotateY
p351
aVrotateZ
p352
aVheelPivot
p353
aVballPivot
p354
aaF2.3369622483722168e-14
aF6.3611093629270335e-15
aF0
aF0
aF0
aa(lp355
S'toe_wiggle_ctrl_l'
p356
a(lp357
VrotateX
p358
aVrotateY
p359
aVrotateZ
p360
aaF-3.178382456695932e-15
aF-6.3657683785737075e-15
aF-3.1805546814635183e-15
aa(lp361
S'toe_wiggle_ctrl_r'
p362
a(lp363
VrotateX
p364
aVrotateY
p365
aVrotateZ
p366
aaF-3.1794685459000318e-15
aF6.361109362927032e-15
aF-3.1805546814635187e-15
aa(lp367
S'toe_tip_ctrl_l'
p368
a(lp369
VrotateX
p370
aVrotateY
p371
aVrotateZ
p372
aaF0
aF1.5530052155555332e-18
aF6.3611093629270335e-15
aa(lp373
S'toe_tip_ctrl_r'
p374
a(lp375
VrotateX
p376
aVrotateY
p377
aVrotateZ
p378
aaF0
aF-6.361109362927032e-15
aF3.1805546814635195e-15
aa(lp379
S'master_anim'
p380
a(lp381
VtranslateX
p382
aVtranslateY
p383
aVtranslateZ
p384
aVrotateX
p385
aVrotateY
p386
aVrotateZ
p387
aaF0
aF0
aF0
aF0
aF0
aF0
aa(lp388
S'offset_anim'
p389
a(lp390
VtranslateX
p391
aVtranslateY
p392
aVtranslateZ
p393
aVrotateX
p394
aVrotateY
p395
aVrotateZ
p396
aaF0
aF0
aF0
aF0
aF0
aF0
aa(lp397
S'root_anim'
p398
a(lp399
VtranslateX
p400
aVtranslateY
p401
aVtranslateZ
p402
aVrotateX
p403
aVrotateY
p404
aVrotateZ
p405
aaF0
aF0
aF0
aF0
aF0
aF0
aa(lp406
S'upperarm_l_twist_anim'
p407
a(lp408
VtranslateX
p409
aVtranslateY
p410
aVtranslateZ
p411
aVrotateX
p412
aVrotateY
p413
aVrotateZ
p414
aVscaleX
p415
aVscaleY
p416
aVscaleZ
p417
aaF0
aF0
aF-2.8421709430404007e-14
aF-3.9756933518293969e-16
aF-2.4848083448933725e-17
aF-1.5530052155583578e-18
aF1
aF1
aF1
aa(lp418
S'upperarm_l_twist_2_anim'
p419
a(lp420
VtranslateX
p421
aVtranslateY
p422
aVtranslateZ
p423
aVrotateX
p424
aVrotateY
p425
aVrotateZ
p426
aVscaleX
p427
aVscaleY
p428
aVscaleZ
p429
aaF7.1054273576010019e-15
aF-1.7763568394002505e-15
aF0
aF-3.9756933518293969e-16
aF-2.4848083448933725e-17
aF-1.5530052155583578e-18
aF1
aF1
aF1
aa(lp430
S'upperarm_r_twist_anim'
p431
a(lp432
VtranslateX
p433
aVtranslateY
p434
aVtranslateZ
p435
aVrotateX
p436
aVrotateY
p437
aVrotateZ
p438
aVscaleX
p439
aVscaleY
p440
aVscaleZ
p441
aaF-3.5527136788005009e-15
aF0
aF-5.6843418860808015e-14
aF0
aF2.4848083448933719e-17
aF6.2120208622334296e-18
aF1
aF1
aF1
aa(lp442
S'upperarm_r_twist_2_anim'
p443
a(lp444
VtranslateX
p445
aVtranslateY
p446
aVtranslateZ
p447
aVrotateX
p448
aVrotateY
p449
aVrotateZ
p450
aVscaleX
p451
aVscaleY
p452
aVscaleZ
p453
aaF0
aF3.5527136788005009e-15
aF-5.6843418860808015e-14
aF0
aF2.4848083448933719e-17
aF6.2120208622334296e-18
aF1
aF1
aF1
aa(lp454
S'lowerarm_l_twist_anim'
p455
a(lp456
VtranslateX
p457
aVtranslateY
p458
aVtranslateZ
p459
aVrotateX
p460
aVrotateY
p461
aVrotateZ
p462
aaF0
aF0
aF0
aF0
aF0
aF0
aa(lp463
S'lowerarm_r_twist_anim'
p464
a(lp465
VtranslateX
p466
aVtranslateY
p467
aVtranslateZ
p468
aVrotateX
p469
aVrotateY
p470
aVrotateZ
p471
aaF0
aF0
aF0
aF0
aF0
aF0
aa(lp472
S'l_thigh_twist_01_anim'
p473
a(lp474
VtranslateX
p475
aVtranslateY
p476
aVtranslateZ
p477
aVrotateX
p478
aVrotateY
p479
aVrotateZ
p480
aVscaleX
p481
aVscaleY
p482
aVscaleZ
p483
aaF-1.4210854715202004e-14
aF-4.4408920985006262e-16
aF0
aF-1.1181637552020177e-16
aF0
aF0
aF1
aF1
aF1
aa(lp484
S'r_thigh_twist_01_anim'
p485
a(lp486
VtranslateX
p487
aVtranslateY
p488
aVtranslateZ
p489
aVrotateX
p490
aVrotateY
p491
aVrotateZ
p492
aVscaleX
p493
aVscaleY
p494
aVscaleZ
p495
aaF2.8421709430404007e-14
aF4.4408920985006262e-16
aF-3.5527136788005009e-15
aF1.5579748322481447e-14
aF-1.3517357396219947e-14
aF-9.9392333795734899e-16
aF1
aF1
aF1
aa(lp496
S'pinky_finger_fk_ctrl_1_l'
p497
a(lp498
VtranslateX
p499
aVtranslateY
p500
aVtranslateZ
p501
aVrotateX
p502
aVrotateY
p503
aVrotateZ
p504
aVsticky
p505
aVblendOrient1
p506
aaF0
aF0
aF0
aF3.0803163967153844
aF-12.384110606960276
aF49.044504646708305
aF0
aF0
aa(lp507
S'pinky_finger_fk_ctrl_1_r'
p508
a(lp509
VtranslateX
p510
aVtranslateY
p511
aVtranslateZ
p512
aVrotateX
p513
aVrotateY
p514
aVrotateZ
p515
aVsticky
p516
aVblendOrient1
p517
aaF0
aF0
aF0
aF-12.038355295026516
aF-15.347816147888098
aF61.069912803997369
aF0
aF0
aa(lp518
S'pinky_finger_fk_ctrl_2_l'
p519
a(lp520
VtranslateX
p521
aVtranslateY
p522
aVtranslateZ
p523
aVrotateX
p524
aVrotateY
p525
aVrotateZ
p526
aVblendOrient1
p527
aaF0
aF0
aF0
aF0.75901561118882754
aF-0.28269353460554625
aF56.910148722824943
aF0
aa(lp528
S'pinky_finger_fk_ctrl_2_r'
p529
a(lp530
VtranslateX
p531
aVtranslateY
p532
aVtranslateZ
p533
aVrotateX
p534
aVrotateY
p535
aVrotateZ
p536
aVblendOrient1
p537
aaF0
aF0
aF0
aF4.092621326446519
aF-10.906329154968246
aF36.685283660888665
aF0
aa(lp538
S'pinky_finger_fk_ctrl_3_l'
p539
a(lp540
VtranslateX
p541
aVtranslateY
p542
aVtranslateZ
p543
aVrotateX
p544
aVrotateY
p545
aVrotateZ
p546
aVblendOrient1
p547
aaF0
aF0
aF0
aF1.3902902189138604e-06
aF1.5732977316301895e-17
aF63.407196044921832
aF0
aa(lp548
S'pinky_finger_fk_ctrl_3_r'
p549
a(lp550
VtranslateX
p551
aVtranslateY
p552
aVtranslateZ
p553
aVrotateX
p554
aVrotateY
p555
aVrotateZ
p556
aVblendOrient1
p557
aaF0
aF0
aF0
aF4.0918183326721085
aF-10.422439575195309
aF70.588310241699219
aF0
aa(lp558
S'ring_finger_fk_ctrl_1_l'
p559
a(lp560
VtranslateX
p561
aVtranslateY
p562
aVtranslateZ
p563
aVrotateX
p564
aVrotateY
p565
aVrotateZ
p566
aVsticky
p567
aVblendOrient1
p568
aaF0
aF0
aF0
aF-4.0407343230845516
aF-5.1348634769764105
aF61.569726558404042
aF0
aF0
aa(lp569
S'ring_finger_fk_ctrl_1_r'
p570
a(lp571
VtranslateX
p572
aVtranslateY
p573
aVtranslateZ
p574
aVrotateX
p575
aVrotateY
p576
aVrotateZ
p577
aVsticky
p578
aVblendOrient1
p579
aaF0
aF0
aF0
aF-1.8759560193388207
aF-7.6159862407060537
aF58.806971644880754
aF0
aF0
aa(lp580
S'ring_finger_fk_ctrl_2_l'
p581
a(lp582
VtranslateX
p583
aVtranslateY
p584
aVtranslateZ
p585
aVrotateX
p586
aVrotateY
p587
aVrotateZ
p588
aVblendOrient1
p589
aaF0
aF0
aF0
aF-2.5813267608000139
aF-0.031350727358717516
aF56.303666136072273
aF0
aa(lp590
S'ring_finger_fk_ctrl_2_r'
p591
a(lp592
VtranslateX
p593
aVtranslateY
p594
aVtranslateZ
p595
aVrotateX
p596
aVrotateY
p597
aVrotateZ
p598
aVblendOrient1
p599
aaF0
aF0
aF0
aF1.2678331136703489
aF0.84626239538191605
aF58.151794433593764
aF0
aa(lp600
S'ring_finger_fk_ctrl_3_l'
p601
a(lp602
VtranslateX
p603
aVtranslateY
p604
aVtranslateZ
p605
aVrotateX
p606
aVrotateY
p607
aVrotateZ
p608
aVblendOrient1
p609
aaF0
aF0
aF0
aF4.0935724499247546e-06
aF-3.6768369106603844e-16
aF63.407192230224581
aF0
aa(lp610
S'ring_finger_fk_ctrl_3_r'
p611
a(lp612
VtranslateX
p613
aVtranslateY
p614
aVtranslateZ
p615
aVrotateX
p616
aVrotateY
p617
aVrotateZ
p618
aVblendOrient1
p619
aaF0
aF0
aF0
aF4.9681849479675089
aF1.9827604293823382
aF51.810855865478487
aF0
aa(lp620
S'middle_finger_fk_ctrl_1_l'
p621
a(lp622
VtranslateX
p623
aVtranslateY
p624
aVtranslateZ
p625
aVrotateX
p626
aVrotateY
p627
aVrotateZ
p628
aVsticky
p629
aVblendOrient1
p630
aaF0
aF0
aF0
aF1.3150703590957802
aF-9.0150929897279291
aF63.699056140442231
aF0
aF0
aa(lp631
S'middle_finger_fk_ctrl_1_r'
p632
a(lp633
VtranslateX
p634
aVtranslateY
p635
aVtranslateZ
p636
aVrotateX
p637
aVrotateY
p638
aVrotateZ
p639
aVsticky
p640
aVblendOrient1
p641
aaF0
aF0
aF0
aF-1.5574061403249269
aF-7.49167775145514
aF71.029380020176291
aF0
aF0
aa(lp642
S'middle_finger_fk_ctrl_2_l'
p643
a(lp644
VtranslateX
p645
aVtranslateY
p646
aVtranslateZ
p647
aVrotateX
p648
aVrotateY
p649
aVrotateZ
p650
aVblendOrient1
p651
aaF0
aF0
aF0
aF-1.774321861546427e-06
aF2.0602167189597173e-15
aF63.407192230224645
aF0
aa(lp652
S'middle_finger_fk_ctrl_2_r'
p653
a(lp654
VtranslateX
p655
aVtranslateY
p656
aVtranslateZ
p657
aVrotateX
p658
aVrotateY
p659
aVrotateZ
p660
aVblendOrient1
p661
aaF0
aF0
aF0
aF3.1205577850341952
aF-6.3745989799499414
aF87.623764038085895
aF0
aa(lp662
S'middle_finger_fk_ctrl_3_l'
p663
a(lp664
VtranslateX
p665
aVtranslateY
p666
aVtranslateZ
p667
aVrotateX
p668
aVrotateY
p669
aVrotateZ
p670
aVblendOrient1
p671
aaF0
aF0
aF0
aF-9.0515356100487243e-15
aF1.7328784392659501e-06
aF63.407192230224567
aF0
aa(lp672
S'middle_finger_fk_ctrl_3_r'
p673
a(lp674
VtranslateX
p675
aVtranslateY
p676
aVtranslateZ
p677
aVrotateX
p678
aVrotateY
p679
aVrotateZ
p680
aVblendOrient1
p681
aaF0
aF0
aF0
aF3.4957659244537482
aF-2.3556907176971706
aF56.616756439209034
aF0
aa(lp682
S'index_finger_fk_ctrl_1_l'
p683
a(lp684
VtranslateX
p685
aVtranslateY
p686
aVtranslateZ
p687
aVrotateX
p688
aVrotateY
p689
aVrotateZ
p690
aVsticky
p691
aVblendOrient1
p692
aaF0
aF0
aF0
aF-19.037241857280716
aF-1.2102462835621943
aF10.335389434082467
aF0
aF0
aa(lp693
S'index_finger_fk_ctrl_1_r'
p694
a(lp695
VtranslateX
p696
aVtranslateY
p697
aVtranslateZ
p698
aVrotateX
p699
aVrotateY
p700
aVrotateZ
p701
aVsticky
p702
aVblendOrient1
p703
aaF0
aF0
aF0
aF-3.3387349213291211
aF-6.0937714187452805
aF28.808318813498261
aF0
aF0
aa(lp704
S'index_finger_fk_ctrl_2_l'
p705
a(lp706
VtranslateX
p707
aVtranslateY
p708
aVtranslateZ
p709
aVrotateX
p710
aVrotateY
p711
aVrotateZ
p712
aVblendOrient1
p713
aaF0
aF0
aF0
aF1.2872567944035884
aF6.3900807389472938
aF70.350286466074053
aF0
aa(lp714
S'index_finger_fk_ctrl_2_r'
p715
a(lp716
VtranslateX
p717
aVtranslateY
p718
aVtranslateZ
p719
aVrotateX
p720
aVrotateY
p721
aVrotateZ
p722
aVblendOrient1
p723
aaF0
aF0
aF0
aF11.878195762634283
aF10.670392990112301
aF79.264915466308622
aF0
aa(lp724
S'index_finger_fk_ctrl_3_l'
p725
a(lp726
VtranslateX
p727
aVtranslateY
p728
aVtranslateZ
p729
aVrotateX
p730
aVrotateY
p731
aVrotateZ
p732
aVblendOrient1
p733
aaF0
aF0
aF0
aF-2.8483720313635062e-07
aF1.4977543719975791e-06
aF63.407192235891145
aF0
aa(lp734
S'index_finger_fk_ctrl_3_r'
p735
a(lp736
VtranslateX
p737
aVtranslateY
p738
aVtranslateZ
p739
aVrotateX
p740
aVrotateY
p741
aVrotateZ
p742
aVblendOrient1
p743
aaF0
aF0
aF0
aF3.8930346965789555
aF12.8016357421875
aF55.805820465087841
aF0
aa(lp744
S'thumb_finger_fk_ctrl_1_l'
p745
a(lp746
VtranslateX
p747
aVtranslateY
p748
aVtranslateZ
p749
aVrotateX
p750
aVrotateY
p751
aVrotateZ
p752
aVsticky
p753
aVblendOrient1
p754
aaF0
aF0
aF0
aF42.616749997247496
aF29.609766139429887
aF27.505984460121752
aF0
aF0
aa(lp755
S'thumb_finger_fk_ctrl_1_r'
p756
a(lp757
VtranslateX
p758
aVtranslateY
p759
aVtranslateZ
p760
aVrotateX
p761
aVrotateY
p762
aVrotateZ
p763
aVsticky
p764
aVblendOrient1
p765
aaF0
aF0
aF0
aF13.841428104493485
aF26.504059759007347
aF43.078016619863
aF0
aF0
aa(lp766
S'thumb_finger_fk_ctrl_2_l'
p767
a(lp768
VtranslateX
p769
aVtranslateY
p770
aVtranslateZ
p771
aVrotateX
p772
aVrotateY
p773
aVrotateZ
p774
aVblendOrient1
p775
aaF0
aF0
aF0
aF5.1306196524582557
aF1.000169600038376
aF16.985605590904434
aF0
aa(lp776
S'thumb_finger_fk_ctrl_2_r'
p777
a(lp778
VtranslateX
p779
aVtranslateY
p780
aVtranslateZ
p781
aVrotateX
p782
aVrotateY
p783
aVrotateZ
p784
aVblendOrient1
p785
aaF0
aF0
aF0
aF-1.7716493606567387
aF4.5295815467834659
aF-4.4364118576049822
aF0
aa(lp786
S'thumb_finger_fk_ctrl_3_l'
p787
a(lp788
VtranslateX
p789
aVtranslateY
p790
aVtranslateZ
p791
aVrotateX
p792
aVrotateY
p793
aVrotateZ
p794
aVblendOrient1
p795
aaF0
aF0
aF0
aF1.1488552621041335
aF3.368777168338414
aF55.334770366735626
aF0
aa(lp796
S'thumb_finger_fk_ctrl_3_r'
p797
a(lp798
VtranslateX
p799
aVtranslateY
p800
aVtranslateZ
p801
aVrotateX
p802
aVrotateY
p803
aVrotateZ
p804
aVblendOrient1
p805
aaF0
aF0
aF0
aF9.609117110421191e-06
aF6.4965312444527061e-15
aF55.176322937011697
aF0
aa(lp806
S'index_l_ik_anim'
p807
a(lp808
VtranslateX
p809
aVtranslateY
p810
aVtranslateZ
p811
aVrotateX
p812
aVrotateY
p813
aVrotateZ
p814
aVpoleVectorVis
p815
aaF0
aF0
aF0
aF0
aF0
aF0
aF0
aa(lp816
S'index_r_ik_anim'
p817
a(lp818
VtranslateX
p819
aVtranslateY
p820
aVtranslateZ
p821
aVrotateX
p822
aVrotateY
p823
aVrotateZ
p824
aVpoleVectorVis
p825
aaF0
aF0
aF0
aF0
aF0
aF0
aF0
aa(lp826
S'middle_l_ik_anim'
p827
a(lp828
VtranslateX
p829
aVtranslateY
p830
aVtranslateZ
p831
aVrotateX
p832
aVrotateY
p833
aVrotateZ
p834
aVpoleVectorVis
p835
aaF0
aF0
aF0
aF0
aF0
aF0
aF0
aa(lp836
S'middle_r_ik_anim'
p837
a(lp838
VtranslateX
p839
aVtranslateY
p840
aVtranslateZ
p841
aVrotateX
p842
aVrotateY
p843
aVrotateZ
p844
aVpoleVectorVis
p845
aaF0
aF0
aF0
aF0
aF0
aF0
aF0
aa(lp846
S'ring_l_ik_anim'
p847
a(lp848
VtranslateX
p849
aVtranslateY
p850
aVtranslateZ
p851
aVrotateX
p852
aVrotateY
p853
aVrotateZ
p854
aVpoleVectorVis
p855
aaF0
aF0
aF0
aF0
aF0
aF0
aF0
aa(lp856
S'ring_r_ik_anim'
p857
a(lp858
VtranslateX
p859
aVtranslateY
p860
aVtranslateZ
p861
aVrotateX
p862
aVrotateY
p863
aVrotateZ
p864
aVpoleVectorVis
p865
aaF0
aF0
aF0
aF0
aF0
aF0
aF0
aa(lp866
S'pinky_l_ik_anim'
p867
a(lp868
VtranslateX
p869
aVtranslateY
p870
aVtranslateZ
p871
aVrotateX
p872
aVrotateY
p873
aVrotateZ
p874
aVpoleVectorVis
p875
aaF0
aF0
aF0
aF0
aF0
aF0
aF0
aa(lp876
S'pinky_r_ik_anim'
p877
a(lp878
VtranslateX
p879
aVtranslateY
p880
aVtranslateZ
p881
aVrotateX
p882
aVrotateY
p883
aVrotateZ
p884
aVpoleVectorVis
p885
aaF0
aF0
aF0
aF0
aF0
aF0
aF0
aa(lp886
S'thumb_l_ik_anim'
p887
a(lp888
VtranslateX
p889
aVtranslateY
p890
aVtranslateZ
p891
aVrotateX
p892
aVrotateY
p893
aVrotateZ
p894
aVpoleVectorVis
p895
aaF0
aF0
aF0
aF0
aF0
aF0
aF0
aa(lp896
S'thumb_r_ik_anim'
p897
a(lp898
VtranslateX
p899
aVtranslateY
p900
aVtranslateZ
p901
aVrotateX
p902
aVrotateY
p903
aVrotateZ
p904
aVpoleVectorVis
p905
aaF0
aF0
aF0
aF0
aF0
aF0
aF0
aa(lp906
S'index_l_poleVector'
p907
a(lp908
VtranslateX
p909
aVtranslateY
p910
aVtranslateZ
p911
aVrotateX
p912
aVrotateY
p913
aVrotateZ
p914
aaF0
aF0
aF0
aF0
aF0
aF0
aa(lp915
S'index_r_poleVector'
p916
a(lp917
VtranslateX
p918
aVtranslateY
p919
aVtranslateZ
p920
aVrotateX
p921
aVrotateY
p922
aVrotateZ
p923
aaF0
aF0
aF0
aF0
aF0
aF0
aa(lp924
S'middle_l_poleVector'
p925
a(lp926
VtranslateX
p927
aVtranslateY
p928
aVtranslateZ
p929
aVrotateX
p930
aVrotateY
p931
aVrotateZ
p932
aaF0
aF0
aF0
aF0
aF0
aF0
aa(lp933
S'middle_r_poleVector'
p934
a(lp935
VtranslateX
p936
aVtranslateY
p937
aVtranslateZ
p938
aVrotateX
p939
aVrotateY
p940
aVrotateZ
p941
aaF0
aF0
aF0
aF0
aF0
aF0
aa(lp942
S'ring_l_poleVector'
p943
a(lp944
VtranslateX
p945
aVtranslateY
p946
aVtranslateZ
p947
aVrotateX
p948
aVrotateY
p949
aVrotateZ
p950
aaF0
aF0
aF0
aF0
aF0
aF0
aa(lp951
S'ring_r_poleVector'
p952
a(lp953
VtranslateX
p954
aVtranslateY
p955
aVtranslateZ
p956
aVrotateX
p957
aVrotateY
p958
aVrotateZ
p959
aaF0
aF0
aF0
aF0
aF0
aF0
aa(lp960
S'pinky_l_poleVector'
p961
a(lp962
VtranslateX
p963
aVtranslateY
p964
aVtranslateZ
p965
aVrotateX
p966
aVrotateY
p967
aVrotateZ
p968
aaF0
aF0
aF0
aF0
aF0
aF0
aa(lp969
S'pinky_r_poleVector'
p970
a(lp971
VtranslateX
p972
aVtranslateY
p973
aVtranslateZ
p974
aVrotateX
p975
aVrotateY
p976
aVrotateZ
p977
aaF0
aF0
aF0
aF0
aF0
aF0
aa(lp978
S'thumb_l_poleVector'
p979
a(lp980
VtranslateX
p981
aVtranslateY
p982
aVtranslateZ
p983
aVrotateX
p984
aVrotateY
p985
aVrotateZ
p986
aaF0
aF0
aF0
aF0
aF0
aF0
aa(lp987
S'thumb_r_poleVector'
p988
a(lp989
VtranslateX
p990
aVtranslateY
p991
aVtranslateZ
p992
aVrotateX
p993
aVrotateY
p994
aVrotateZ
p995
aaF0
aF0
aF0
aF0
aF0
aF0
aa(lp996
S'l_global_ik_anim'
p997
a(lp998
VtranslateX
p999
aVtranslateY
p1000
aVtranslateZ
p1001
aVrotateX
p1002
aVrotateY
p1003
aVrotateZ
p1004
aaF0
aF0
aF0
aF0
aF0
aF0
aa(lp1005
S'r_global_ik_anim'
p1006
a(lp1007
VtranslateX
p1008
aVtranslateY
p1009
aVtranslateZ
p1010
aVrotateX
p1011
aVrotateY
p1012
aVrotateZ
p1013
aaF0
aF0
aF0
aF0
aF0
aF0
aa(lp1014
S'Rig_Settings'
p1015
a(lp1016
Vspine_ik
p1017
aVspine_fk
p1018
aVlLegMode
p1019
aVlThighTwistAmount
p1020
aVlThighTwist2Amount
p1021
aVllegTwistCtrlVis
p1022
aVlCalfTwistAmount
p1023
aVrLegMode
p1024
aVrThighTwistAmount
p1025
aVrThighTwist2Amount
p1026
aVrlegTwistCtrlVis
p1027
aVrCalfTwistAmount
p1028
aVlFkArmOrient
p1029
aVlArmMode
p1030
aVlClavMode
p1031
aVlUpperarmTwistAmount
p1032
aVlUpperarmTwist2Amount
p1033
aVltwistCtrlVis
p1034
aVltwistCtrlVisLower
p1035
aVlForearmTwistAmount
p1036
aVlForearmTwist2Amount
p1037
aVrFkArmOrient
p1038
aVrArmMode
p1039
aVrClavMode
p1040
aVrUpperarmTwistAmount
p1041
aVrUpperarmTwist2Amount
p1042
aVrtwistCtrlVis
p1043
aVrtwistCtrlVisLower
p1044
aVrForearmTwistAmount
p1045
aaF1
aF0
aI1
aF1
aF0.59999999999999998
aI00
aF0.5
aI1
aF1
aF0.59999999999999998
aI00
aF0.5
aI0
aI1
aI1
aF0.90000000000000002
aF0.59999999999999998
aI00
aI00
aF0.90000000000000002
aF0.59999999999999998
aI0
aI1
aI1
aF0.90000000000000002
aF0.59999999999999998
aI00
aI00
aF0.5
aa(lp1046
S'calf_l_twist_anim'
p1047
a(lp1048
VtranslateX
p1049
aVtranslateY
p1050
aVtranslateZ
p1051
aVrotateX
p1052
aVrotateY
p1053
aVrotateZ
p1054
aaF0
aF0
aF0
aF0
aF0
aF0
aa(lp1055
S'calf_r_twist_anim'
p1056
a(lp1057
VtranslateX
p1058
aVtranslateY
p1059
aVtranslateZ
p1060
aVrotateX
p1061
aVrotateY
p1062
aVrotateZ
p1063
aaF0
aF0
aF0
aF0
aF0
aF0
aa(lp1064
S'lowerarm_l_twist2_anim'
p1065
a(lp1066
VtranslateX
p1067
aVtranslateY
p1068
aVtranslateZ
p1069
aVrotateX
p1070
aVrotateY
p1071
aVrotateZ
p1072
aaF0
aF0
aF0
aF0
aF0
aF0
aa(lp1073
Vankle_plate_in_l_anim
p1074
a(lp1075
VtranslateX
p1076
aVtranslateY
p1077
aVtranslateZ
p1078
aVrotateX
p1079
aVrotateY
p1080
aVrotateZ
p1081
aVscaleX
p1082
aVscaleY
p1083
aVscaleZ
p1084
aVblendParent1
p1085
aaF-0.044457619579683437
aF0.092559555718747077
aF0.023282706112127016
aF-1.1657300507078752
aF-0.4555423309025462
aF-0.36215599244521551
aF1
aF1
aF1
aF0
aa(lp1086
Vankle_plate_in_r_anim
p1087
a(lp1088
VtranslateX
p1089
aVtranslateY
p1090
aVtranslateZ
p1091
aVrotateX
p1092
aVrotateY
p1093
aVrotateZ
p1094
aVscaleX
p1095
aVscaleY
p1096
aVscaleZ
p1097
aVblendParent1
p1098
aaF-0.0089617064749976556
aF0.012289526574934229
aF0.0013856738653529987
aF0.14758409991658739
aF0.10468160429028939
aF0.026901853572600078
aF1
aF1
aF1
aF0
aa(lp1099
Vankle_plate_out_l_anim
p1100
a(lp1101
VtranslateX
p1102
aVtranslateY
p1103
aVtranslateZ
p1104
aVrotateX
p1105
aVrotateY
p1106
aVrotateZ
p1107
aVscaleX
p1108
aVscaleY
p1109
aVscaleZ
p1110
aVblendParent1
p1111
aaF0.029604548430670972
aF-0.13378727530742723
aF0.043268545801203116
aF-1.2636816266310513
aF-0.55011112650037963
aF-0.063493580464406743
aF1
aF1
aF1
aF0
aa(lp1112
Vankle_plate_out_r_anim
p1113
a(lp1114
VtranslateX
p1115
aVtranslateY
p1116
aVtranslateZ
p1117
aVrotateX
p1118
aVrotateY
p1119
aVrotateZ
p1120
aVscaleX
p1121
aVscaleY
p1122
aVscaleZ
p1123
aVblendParent1
p1124
aaF0.0074656120036155297
aF-0.015193015255166743
aF0.0098854464576248798
aF0.15634627249780572
aF0.11126902072223879
aF-0.0075377322006083903
aF1
aF1
aF1
aF0
aa(lp1125
Varm_hose_bott_anim
p1126
a(lp1127
VtranslateX
p1128
aVtranslateY
p1129
aVtranslateZ
p1130
aVrotateX
p1131
aVrotateY
p1132
aVrotateZ
p1133
aVscaleX
p1134
aVscaleY
p1135
aVscaleZ
p1136
aVblendParent1
p1137
aaF0.091892295312209174
aF0.07352229814545197
aF-0.091807956713780919
aF-0.43549703417409796
aF-0.10154883657137306
aF-0.59936810697556808
aF1
aF1
aF1
aF0
aa(lp1138
Varm_hose_top_anim
p1139
a(lp1140
VtranslateX
p1141
aVtranslateY
p1142
aVtranslateZ
p1143
aVrotateX
p1144
aVrotateY
p1145
aVrotateZ
p1146
aVscaleX
p1147
aVscaleY
p1148
aVscaleZ
p1149
aVblendParent1
p1150
aaF-0.014219405354411662
aF0.031428890388856698
aF0.017199955395786049
aF0.020537582450509809
aF-0.029118071912886002
aF0.069031731230463522
aF1
aF1
aF1
aF0
aa(lp1151
Varm_pouch_l_anim
p1152
a(lp1153
VtranslateX
p1154
aVtranslateY
p1155
aVtranslateZ
p1156
aVrotateX
p1157
aVrotateY
p1158
aVrotateZ
p1159
aVscaleX
p1160
aVscaleY
p1161
aVscaleZ
p1162
aVblendParent1
p1163
aaF0.0040722690443942607
aF-0.097603212862366465
aF0.0056778728452552942
aF-0.16896316522970084
aF0.013850035194125393
aF-0.75512437782829489
aF1
aF1
aF1
aF0
aa(lp1164
Vbot_hand_anim
p1165
a(lp1166
VtranslateX
p1167
aVtranslateY
p1168
aVtranslateZ
p1169
aVrotateX
p1170
aVrotateY
p1171
aVrotateZ
p1172
aVscaleX
p1173
aVscaleY
p1174
aVscaleZ
p1175
aVblendParent1
p1176
aaF-1.8499188152532041e-05
aF0.00013187261425571251
aF-0.00010215496141317005
aF-0.0012448364117575758
aF-0.00042154778880336478
aF-0.00048789270601462
aF1
aF1
aF1
aF0
aa(lp1177
Vbot_loarm_anim
p1178
a(lp1179
VtranslateX
p1180
aVtranslateY
p1181
aVtranslateZ
p1182
aVrotateX
p1183
aVrotateY
p1184
aVrotateZ
p1185
aVscaleX
p1186
aVscaleY
p1187
aVscaleZ
p1188
aVblendParent1
p1189
aaF0.00012425358534073894
aF-0.035056527128423554
aF-0.00060459564136579043
aF0.039851522365765814
aF0.0011713198873688129
aF-0.067549701238733578
aF1
aF1
aF1
aF0
aa(lp1190
Vbot_loarm_pistonB_bot_anim
p1191
a(lp1192
VtranslateX
p1193
aVtranslateY
p1194
aVtranslateZ
p1195
aVrotateX
p1196
aVrotateY
p1197
aVrotateZ
p1198
aVscaleX
p1199
aVscaleY
p1200
aVscaleZ
p1201
aVblendParent1
p1202
aaF-5.391612834912962e-05
aF4.3014819175368758e-05
aF-5.2957341069159726e-05
aF-4.9844375638211853e-05
aF0.0010715708388682197
aF0.00084553698910227169
aF1
aF1
aF1
aF0
aa(lp1203
Vbot_loarm_pistonB_top_anim
p1204
a(lp1205
VtranslateX
p1206
aVtranslateY
p1207
aVtranslateZ
p1208
aVrotateX
p1209
aVrotateY
p1210
aVrotateZ
p1211
aVscaleX
p1212
aVscaleY
p1213
aVscaleZ
p1214
aVblendParent1
p1215
aaF-1.2789769243681804e-14
aF1.2789769243681804e-14
aF0
aF3.2918740953147398e-14
aF-4.946756453013726e-14
aF-3.5781240166464566e-16
aF1
aF1
aF1
aF0
aa(lp1216
Vbot_loarm_pistonC_bot_anim
p1217
a(lp1218
VtranslateX
p1219
aVtranslateY
p1220
aVtranslateZ
p1221
aVrotateX
p1222
aVrotateY
p1223
aVrotateZ
p1224
aVscaleX
p1225
aVscaleY
p1226
aVscaleZ
p1227
aVblendParent1
p1228
aaF-1.2789769243681804e-14
aF-1.9184653865522706e-14
aF3.8369307731045413e-14
aF-2.3257806108201967e-14
aF-2.8356632831923168e-14
aF-2.0618939645925203e-14
aF1
aF1
aF1
aF0
aa(lp1229
Vbot_loarm_pistonC_top_anim
p1230
a(lp1231
VtranslateX
p1232
aVtranslateY
p1233
aVtranslateZ
p1234
aVrotateX
p1235
aVrotateY
p1236
aVrotateZ
p1237
aVscaleX
p1238
aVscaleY
p1239
aVscaleZ
p1240
aVblendParent1
p1241
aaF0
aF-6.3948846218409018e-15
aF-1.2789769243681804e-14
aF1.6101558074909054e-14
aF4.6515612216403928e-15
aF-6.391424024734732e-14
aF1
aF1
aF1
aF0
aa(lp1242
Vbot_loarm_pistonD_bot_anim
p1243
a(lp1244
VtranslateX
p1245
aVtranslateY
p1246
aVtranslateZ
p1247
aVrotateX
p1248
aVrotateY
p1249
aVrotateZ
p1250
aVscaleX
p1251
aVscaleY
p1252
aVscaleZ
p1253
aVblendParent1
p1254
aaF1.9184653865522706e-14
aF1.9184653865522706e-14
aF2.5579538487363607e-14
aF2.1468744099878741e-15
aF2.8177726631090846e-15
aF1.5095210695227238e-16
aF1
aF1
aF1
aF0
aa(lp1255
Vbot_loarm_pistonD_top_anim
p1256
a(lp1257
VtranslateX
p1258
aVtranslateY
p1259
aVtranslateZ
p1260
aVrotateX
p1261
aVrotateY
p1262
aVrotateZ
p1263
aVscaleX
p1264
aVscaleY
p1265
aVscaleZ
p1266
aVblendParent1
p1267
aaF0
aF1.2789769243681804e-14
aF0
aF-1.2523434058262597e-14
aF5.1167173438044321e-14
aF3.5065615363135271e-14
aF1
aF1
aF1
aF0
aa(lp1268
Vbot_loarm_twist_anim
p1269
a(lp1270
VtranslateX
p1271
aVtranslateY
p1272
aVtranslateZ
p1273
aVrotateX
p1274
aVrotateY
p1275
aVrotateZ
p1276
aVscaleX
p1277
aVscaleY
p1278
aVscaleZ
p1279
aVblendParent1
p1280
aaF-0.00043858147137711969
aF-0.0064700031654603141
aF-0.0048586445533345566
aF-0.71364108735763609
aF-0.0049591539500772131
aF0.054081168810113669
aF1
aF1
aF1
aF0
aa(lp1281
Vbot_uparm_anim
p1282
a(lp1283
VtranslateX
p1284
aVtranslateY
p1285
aVtranslateZ
p1286
aVrotateX
p1287
aVrotateY
p1288
aVrotateZ
p1289
aVscaleX
p1290
aVscaleY
p1291
aVscaleZ
p1292
aVblendParent1
p1293
aaF0.030871070078977426
aF-0.01028812536077801
aF-0.0144798778937826
aF0.074005661094705924
aF-0.39974224554426763
aF0.16086570513813264
aF1
aF1
aF1
aF0
aa(lp1294
Vbot_uparm_pistonC_bot_anim
p1295
a(lp1296
VtranslateX
p1297
aVtranslateY
p1298
aVtranslateZ
p1299
aVrotateX
p1300
aVrotateY
p1301
aVrotateZ
p1302
aVscaleX
p1303
aVscaleY
p1304
aVscaleZ
p1305
aVblendParent1
p1306
aaF1.9184653865522706e-14
aF0
aF0
aF5.6534359463014005e-14
aF-9.4462474039466451e-14
aF3.4349990559805986e-14
aF1
aF1
aF1
aF0
aa(lp1307
Vbot_uparm_pistonC_top_anim
p1308
a(lp1309
VtranslateX
p1310
aVtranslateY
p1311
aVtranslateZ
p1312
aVrotateX
p1313
aVrotateY
p1314
aVrotateZ
p1315
aVscaleX
p1316
aVscaleY
p1317
aVscaleZ
p1318
aVblendParent1
p1319
aaF-6.3948846218409017e-14
aF-2.5579538487363607e-14
aF0
aF1.0823825150355531e-14
aF1.0734372049939369e-14
aF0
aF1
aF1
aF1
aF0
aa(lp1320
Veyeball_l_anim
p1321
a(lp1322
VtranslateX
p1323
aVtranslateY
p1324
aVtranslateZ
p1325
aVrotateX
p1326
aVrotateY
p1327
aVrotateZ
p1328
aVscaleX
p1329
aVscaleY
p1330
aVscaleZ
p1331
aVblendParent1
p1332
aaF0.060097055706899917
aF-0.11639204281061097
aF0.0094018987637582534
aF3.6496864969793839e-14
aF4.3359595017346289e-14
aF7.8092556663308906e-13
aF1
aF1
aF1
aF0
aa(lp1333
Veyeball_r_anim
p1334
a(lp1335
VtranslateX
p1336
aVtranslateY
p1337
aVtranslateZ
p1338
aVrotateX
p1339
aVrotateY
p1340
aVrotateZ
p1341
aVscaleX
p1342
aVscaleY
p1343
aVscaleZ
p1344
aVblendParent1
p1345
aaF0.060097055706897121
aF-0.11639204281061097
aF0.0094018987637582534
aF2.2899993706537322e-14
aF3.4349990559805929e-14
aF6.5139747723048746e-13
aF1
aF1
aF1
aF0
aa(lp1346
Veyebrow_in_l_anim
p1347
a(lp1348
VtranslateX
p1349
aVtranslateY
p1350
aVtranslateZ
p1351
aVrotateX
p1352
aVrotateY
p1353
aVrotateZ
p1354
aVscaleX
p1355
aVscaleY
p1356
aVscaleZ
p1357
aVblendParent1
p1358
aaF0.022507193956846548
aF-0.12925741492883916
aF0.005753810974528051
aF2.3615618509866603e-14
aF2.8624992133171802e-15
aF8.5874976399514997e-15
aF1
aF1
aF1
aF0
aa(lp1359
Veyebrow_in_r_anim
p1360
a(lp1361
VtranslateX
p1362
aVtranslateY
p1363
aVtranslateZ
p1364
aVrotateX
p1365
aVrotateY
p1366
aVrotateZ
p1367
aVscaleX
p1368
aVscaleY
p1369
aVscaleZ
p1370
aVblendParent1
p1371
aaF0.090241141625254789
aF0.09216392540026988
aF-0.024688188423115775
aF4.293748819975753e-15
aF-2.8624992133171679e-14
aF-7.7287478759563436e-14
aF1
aF1
aF1
aF0
aa(lp1372
Veyebrow_out_l_anim
p1373
a(lp1374
VtranslateX
p1375
aVtranslateY
p1376
aVtranslateZ
p1377
aVrotateX
p1378
aVrotateY
p1379
aVrotateZ
p1380
aVscaleX
p1381
aVscaleY
p1382
aVscaleZ
p1383
aVblendParent1
p1384
aaF-0.038701427052127001
aF-0.12546660295990542
aF0.0027368815209030117
aF2.8624992133171376e-14
aF3.0056241739830128e-14
aF-3.5494990245132845e-13
aF1
aF1
aF1
aF0
aa(lp1385
Veyebrow_out_r_anim
p1386
a(lp1387
VtranslateX
p1388
aVtranslateY
p1389
aVtranslateZ
p1390
aVrotateX
p1391
aVrotateY
p1392
aVrotateZ
p1393
aVscaleX
p1394
aVscaleY
p1395
aVscaleZ
p1396
aVblendParent1
p1397
aaF0.12443974752214046
aF0.041350500477988564
aF-0.0072142069194001124
aF2.0037494493220298e-14
aF-2.2899993706537199e-14
aF2.2327493863873893e-13
aF1
aF1
aF1
aF0
aa(lp1398
Veyelid_bott_l_anim
p1399
a(lp1400
VtranslateX
p1401
aVtranslateY
p1402
aVtranslateZ
p1403
aVrotateX
p1404
aVrotateY
p1405
aVrotateZ
p1406
aVscaleX
p1407
aVscaleY
p1408
aVscaleZ
p1409
aVblendParent1
p1410
aaF-0.060097055706903116
aF-0.11639204281059819
aF-0.0094018987637582534
aF4.5799987413074644e-14
aF-323.99999999999994
aF-8.0149977972880621e-13
aF1
aF1
aF1
aF0
aa(lp1411
Veyelid_bott_r_anim
p1412
a(lp1413
VtranslateX
p1414
aVtranslateY
p1415
aVtranslateZ
p1416
aVrotateX
p1417
aVrotateY
p1418
aVrotateZ
p1419
aVscaleX
p1420
aVscaleY
p1421
aVscaleZ
p1422
aVblendParent1
p1423
aaF-0.060097055706895518
aF0.11639204281061097
aF0.0094018987637326749
aF2.2899993706537322e-14
aF323.99999999999994
aF6.869998111961196e-13
aF1
aF1
aF1
aF0
aa(lp1424
Veyelid_top_l_anim
p1425
a(lp1426
VtranslateX
p1427
aVtranslateY
p1428
aVtranslateZ
p1429
aVrotateX
p1430
aVrotateY
p1431
aVrotateZ
p1432
aVscaleX
p1433
aVscaleY
p1434
aVscaleZ
p1435
aVblendParent1
p1436
aaF0.060097055706898314
aF-0.11639204281061097
aF0.0094018987637582534
aF3.6496864969793839e-14
aF4.3359595017346289e-14
aF7.8092556663308906e-13
aF1
aF1
aF1
aF0
aa(lp1437
Veyelid_top_r_anim
p1438
a(lp1439
VtranslateX
p1440
aVtranslateY
p1441
aVtranslateZ
p1442
aVrotateX
p1443
aVrotateY
p1444
aVrotateZ
p1445
aVscaleX
p1446
aVscaleY
p1447
aVscaleZ
p1448
aVblendParent1
p1449
aaF0.060097055706897516
aF0.11639204281063656
aF-0.0094018987637070946
aF4.8573033525975626e-14
aF-4.0074988986440325e-14
aF-6.3914240247347341e-13
aF1
aF1
aF1
aF0
aa(lp1450
Vgun_anim
p1451
a(lp1452
VtranslateX
p1453
aVtranslateY
p1454
aVtranslateZ
p1455
aVrotateX
p1456
aVrotateY
p1457
aVrotateZ
p1458
aVscaleX
p1459
aVscaleY
p1460
aVscaleZ
p1461
aVblendParent1
p1462
aaF2.2945805263477199
aF0.081511521584440597
aF0.10571993383448249
aF31.434007644653246
aF-0.43412181735043265
aF0.231665909290309
aF1
aF1
aF1
aF0
aa(lp1463
Vgun_barrel_anim
p1464
a(lp1465
VtranslateX
p1466
aVtranslateY
p1467
aVtranslateZ
p1468
aVrotateX
p1469
aVrotateY
p1470
aVrotateZ
p1471
aVscaleX
p1472
aVscaleY
p1473
aVscaleZ
p1474
aVblendParent1
p1475
aaF-3.8369307731045413e-14
aF1.9784174298820288e-14
aF3.1974423109204508e-14
aF0
aF0
aF0
aF1
aF1
aF1
aF0
aa(lp1476
Vgun_barrel_inner_anim
p1477
a(lp1478
VtranslateX
p1479
aVtranslateY
p1480
aVtranslateZ
p1481
aVrotateX
p1482
aVrotateY
p1483
aVrotateZ
p1484
aVscaleX
p1485
aVscaleY
p1486
aVscaleZ
p1487
aVblendParent1
p1488
aaF1.2789769243681804e-14
aF-3.1974423109204508e-14
aF-6.3948846218409018e-15
aF0
aF0
aF0
aF1
aF1
aF1
aF0
aa(lp1489
Vgun_body_panel_l_anim
p1490
a(lp1491
VtranslateX
p1492
aVtranslateY
p1493
aVtranslateZ
p1494
aVrotateX
p1495
aVrotateY
p1496
aVrotateZ
p1497
aVscaleX
p1498
aVscaleY
p1499
aVscaleZ
p1500
aVblendParent1
p1501
aaF-2.5579538487363607e-14
aF9.5923269327613531e-15
aF1.5987211554602254e-14
aF0
aF0
aF0
aF1
aF1
aF1
aF0
aa(lp1502
Vgun_body_panel_r_anim
p1503
a(lp1504
VtranslateX
p1505
aVtranslateY
p1506
aVtranslateZ
p1507
aVrotateX
p1508
aVrotateY
p1509
aVrotateZ
p1510
aVscaleX
p1511
aVscaleY
p1512
aVscaleZ
p1513
aVblendParent1
p1514
aaF-5.1159076974727215e-14
aF3.9968028886505635e-14
aF-2.5579538487363607e-14
aF4.5799987413074619e-14
aF0
aF0
aF1
aF1
aF1
aF0
aa(lp1515
Vgun_scope_anim
p1516
a(lp1517
VtranslateX
p1518
aVtranslateY
p1519
aVtranslateZ
p1520
aVrotateX
p1521
aVrotateY
p1522
aVrotateZ
p1523
aVscaleX
p1524
aVscaleY
p1525
aVscaleZ
p1526
aVblendParent1
p1527
aaF0
aF3.0375701953744285e-14
aF7.9936057773011271e-15
aF0
aF0
aF0
aF1
aF1
aF1
aF0
aa(lp1528
Vgun_stock_base_anim
p1529
a(lp1530
VtranslateX
p1531
aVtranslateY
p1532
aVtranslateZ
p1533
aVrotateX
p1534
aVrotateY
p1535
aVrotateZ
p1536
aVscaleX
p1537
aVscaleY
p1538
aVscaleZ
p1539
aVblendParent1
p1540
aaF-1.2789769243681804e-14
aF-5.7953641885433175e-15
aF1.9184653865522706e-14
aF0
aF0
aF0
aF1
aF1
aF1
aF0
aa(lp1541
Vgun_stock_base_in_bott_anim
p1542
a(lp1543
VtranslateX
p1544
aVtranslateY
p1545
aVtranslateZ
p1546
aVrotateX
p1547
aVrotateY
p1548
aVrotateZ
p1549
aVscaleX
p1550
aVscaleY
p1551
aVscaleZ
p1552
aVblendParent1
p1553
aaF5.1159076974727215e-14
aF-2.3980817331903381e-14
aF-3.1974423109204509e-15
aF0
aF0
aF0
aF1
aF1
aF1
aF0
aa(lp1554
Vgun_stock_base_in_top_anim
p1555
a(lp1556
VtranslateX
p1557
aVtranslateY
p1558
aVtranslateZ
p1559
aVrotateX
p1560
aVrotateY
p1561
aVrotateZ
p1562
aVscaleX
p1563
aVscaleY
p1564
aVscaleZ
p1565
aVblendParent1
p1566
aaF5.1159076974727215e-14
aF-2.5579538487363607e-14
aF0
aF0
aF0
aF0
aF1
aF1
aF1
aF0
aa(lp1567
Vgun_stock_base_out_bott_anim
p1568
a(lp1569
VtranslateX
p1570
aVtranslateY
p1571
aVtranslateZ
p1572
aVrotateX
p1573
aVrotateY
p1574
aVrotateZ
p1575
aVscaleX
p1576
aVscaleY
p1577
aVscaleZ
p1578
aVblendParent1
p1579
aaF1.2789769243681804e-14
aF3.9968028886505635e-14
aF-6.3948846218409018e-15
aF0
aF0
aF0
aF1
aF1
aF1
aF0
aa(lp1580
Vgun_stock_base_out_top_anim
p1581
a(lp1582
VtranslateX
p1583
aVtranslateY
p1584
aVtranslateZ
p1585
aVrotateX
p1586
aVrotateY
p1587
aVrotateZ
p1588
aVscaleX
p1589
aVscaleY
p1590
aVscaleZ
p1591
aVblendParent1
p1592
aaF-2.5579538487363607e-14
aF-1.5987211554602255e-15
aF1.5987211554602254e-14
aF0
aF0
aF0
aF1
aF1
aF1
aF0
aa(lp1593
Vgun_stock_bott_anim
p1594
a(lp1595
VtranslateX
p1596
aVtranslateY
p1597
aVtranslateZ
p1598
aVrotateX
p1599
aVrotateY
p1600
aVrotateZ
p1601
aVscaleX
p1602
aVscaleY
p1603
aVscaleZ
p1604
aVblendParent1
p1605
aaF0
aF-1.5187850976872143e-14
aF3.1974423109204508e-14
aF0
aF0
aF0
aF1
aF1
aF1
aF0
aa(lp1606
Vgun_stock_in_bott_anim
p1607
a(lp1608
VtranslateX
p1609
aVtranslateY
p1610
aVtranslateZ
p1611
aVrotateX
p1612
aVrotateY
p1613
aVrotateZ
p1614
aVscaleX
p1615
aVscaleY
p1616
aVscaleZ
p1617
aVblendParent1
p1618
aaF5.1159076974727215e-14
aF-3.6770586575585183e-14
aF-6.3948846218409018e-15
aF0
aF0
aF0
aF1
aF1
aF1
aF0
aa(lp1619
Vgun_stock_in_top_anim
p1620
a(lp1621
VtranslateX
p1622
aVtranslateY
p1623
aVtranslateZ
p1624
aVrotateX
p1625
aVrotateY
p1626
aVrotateZ
p1627
aVscaleX
p1628
aVscaleY
p1629
aVscaleZ
p1630
aVblendParent1
p1631
aaF0
aF-1.9584334154387762e-14
aF0
aF0
aF0
aF0
aF1
aF1
aF1
aF0
aa(lp1632
Vgun_stock_panel_l_anim
p1633
a(lp1634
VtranslateX
p1635
aVtranslateY
p1636
aVtranslateZ
p1637
aVrotateX
p1638
aVrotateY
p1639
aVrotateZ
p1640
aVscaleX
p1641
aVscaleY
p1642
aVscaleZ
p1643
aVblendParent1
p1644
aaF-3.8369307731045413e-14
aF9.5923269327613531e-15
aF4.476419235288631e-14
aF0
aF0
aF0
aF1
aF1
aF1
aF0
aa(lp1645
Vgun_stock_panel_r_anim
p1646
a(lp1647
VtranslateX
p1648
aVtranslateY
p1649
aVtranslateZ
p1650
aVrotateX
p1651
aVrotateY
p1652
aVrotateZ
p1653
aVscaleX
p1654
aVscaleY
p1655
aVscaleZ
p1656
aVblendParent1
p1657
aaF-3.8369307731045413e-14
aF-2.3980817331903381e-14
aF6.3948846218409018e-15
aF4.5799987413074619e-14
aF0
aF0
aF1
aF1
aF1
aF0
aa(lp1658
Vheel_plate_l_anim
p1659
a(lp1660
VtranslateX
p1661
aVtranslateY
p1662
aVtranslateZ
p1663
aVrotateX
p1664
aVrotateY
p1665
aVrotateZ
p1666
aVscaleX
p1667
aVscaleY
p1668
aVscaleZ
p1669
aVblendParent1
p1670
aaF-3.6757324288316793e-06
aF7.554493996764222e-06
aF1.6367594478161607e-05
aF-0.13716647324327863
aF-1.178007713237534e-05
aF1.2801396197137227e-05
aF1
aF1
aF1
aF0
aa(lp1671
Vheel_plate_r_anim
p1672
a(lp1673
VtranslateX
p1674
aVtranslateY
p1675
aVtranslateZ
p1676
aVrotateX
p1677
aVrotateY
p1678
aVrotateZ
p1679
aVscaleX
p1680
aVscaleY
p1681
aVscaleZ
p1682
aVblendParent1
p1683
aaF-7.6568262514342684e-06
aF1.2001408094519661e-05
aF3.1201998592056411e-05
aF-7.6589892476299387e-05
aF2.3078701262785551e-05
aF-2.8877197333484393e-05
aF1
aF1
aF1
aF0
aa(lp1684
Vhelmet_sight_anim
p1685
a(lp1686
VtranslateX
p1687
aVtranslateY
p1688
aVtranslateZ
p1689
aVrotateX
p1690
aVrotateY
p1691
aVrotateZ
p1692
aVscaleX
p1693
aVscaleY
p1694
aVscaleZ
p1695
aVblendParent1
p1696
aaF0.060097055706898314
aF-0.11639204281061097
aF0.0094018987637326749
aF3.6586318070209913e-14
aF4.3359595017346251e-14
aF7.8092556663308906e-13
aF1
aF1
aF1
aF0
aa(lp1697
Vhip_pack_a_anim
p1698
a(lp1699
VtranslateX
p1700
aVtranslateY
p1701
aVtranslateZ
p1702
aVrotateX
p1703
aVrotateY
p1704
aVrotateZ
p1705
aVchainAttach
p1706
aVchainStartEnvelope
p1707
aVchainStartFrame
p1708
aVchainStiffness
p1709
aVchainDamping
p1710
aVchainGravity
p1711
aVchainIteration
p1712
aVchainCollide
p1713
aVchainWidthBase
p1714
aVchainWidthExtremity
p1715
aVchainCollideGround
p1716
aVchainCollideGroundHeight
p1717
aVblendParent1
p1718
aaF-4.7961634663806766e-15
aF1.9184653865522706e-14
aF1.2789769243681804e-14
aF-1.1718356154517146e-14
aF2.3951067636427216e-14
aF2.3756646913491469e-13
aI1
aF0
aF1
aF0.10000000000000001
aF0.20000000000000001
aF1
aI1
aI00
aF1
aF1
aI00
aF0
aF0
aa(lp1719
Vhip_pack_b_anim
p1720
a(lp1721
VtranslateX
p1722
aVtranslateY
p1723
aVtranslateZ
p1724
aVrotateX
p1725
aVrotateY
p1726
aVrotateZ
p1727
aVchainAttach
p1728
aVchainStartEnvelope
p1729
aVchainStartFrame
p1730
aVchainStiffness
p1731
aVchainDamping
p1732
aVchainGravity
p1733
aVchainIteration
p1734
aVchainCollide
p1735
aVchainWidthBase
p1736
aVchainWidthExtremity
p1737
aVchainCollideGround
p1738
aVchainCollideGroundHeight
p1739
aVblendParent1
p1740
aaF-6.3948846218409018e-15
aF1.9184653865522706e-14
aF1.2789769243681804e-14
aF1.6839546153342387e-14
aF-1.1621565104457469e-14
aF9.6231968182073637e-14
aI1
aF0
aF1
aF0.10000000000000001
aF0.20000000000000001
aF1
aI1
aI00
aF1
aF1
aI00
aF0
aF0
aa(lp1741
Vhip_pack_c_anim
p1742
a(lp1743
VtranslateX
p1744
aVtranslateY
p1745
aVtranslateZ
p1746
aVrotateX
p1747
aVrotateY
p1748
aVrotateZ
p1749
aVchainAttach
p1750
aVchainStartEnvelope
p1751
aVchainStartFrame
p1752
aVchainStiffness
p1753
aVchainDamping
p1754
aVchainGravity
p1755
aVchainIteration
p1756
aVchainCollide
p1757
aVchainWidthBase
p1758
aVchainWidthExtremity
p1759
aVchainCollideGround
p1760
aVchainCollideGroundHeight
p1761
aVblendParent1
p1762
aaF-9.5923269327613531e-15
aF1.9184653865522706e-14
aF0
aF2.1468744099878741e-15
aF-1.1519882087968787e-14
aF4.7253600294837264e-14
aI1
aF0
aF1
aF0.10000000000000001
aF0.20000000000000001
aF1
aI1
aI00
aF1
aF1
aI00
aF0
aF0
aa(lp1763
Vhip_pack_d_anim
p1764
a(lp1765
VtranslateX
p1766
aVtranslateY
p1767
aVtranslateZ
p1768
aVrotateX
p1769
aVrotateY
p1770
aVrotateZ
p1771
aVchainAttach
p1772
aVchainStartEnvelope
p1773
aVchainStartFrame
p1774
aVchainStiffness
p1775
aVchainDamping
p1776
aVchainGravity
p1777
aVchainIteration
p1778
aVchainCollide
p1779
aVchainWidthBase
p1780
aVchainWidthExtremity
p1781
aVchainCollideGround
p1782
aVchainCollideGroundHeight
p1783
aVblendParent1
p1784
aaF-6.3948846218409018e-15
aF1.5987211554602254e-14
aF1.2789769243681804e-14
aF8.6769507403676571e-15
aF-1.8404975410625211e-14
aF1.1453910426411868e-13
aI1
aF0
aF1
aF0.10000000000000001
aF0.20000000000000001
aF1
aI1
aI00
aF1
aF1
aI00
aF0
aF0
aa(lp1785
Vjaw_anim
p1786
a(lp1787
VtranslateX
p1788
aVtranslateY
p1789
aVtranslateZ
p1790
aVrotateX
p1791
aVrotateY
p1792
aVrotateZ
p1793
aVscaleX
p1794
aVscaleY
p1795
aVscaleZ
p1796
aVblendParent1
p1797
aaF0.060097055706899119
aF-0.11639204281061097
aF0.0094018987637326749
aF3.6586318070209913e-14
aF4.3359595017346251e-14
aF7.8092556663308906e-13
aF1
aF1
aF1
aF0
aa(lp1798
Vmask_anim
p1799
a(lp1800
VtranslateX
p1801
aVtranslateY
p1802
aVtranslateZ
p1803
aVrotateX
p1804
aVrotateY
p1805
aVrotateZ
p1806
aVscaleX
p1807
aVscaleY
p1808
aVscaleZ
p1809
aVblendParent1
p1810
aaF0.060097055706899917
aF-0.11639204281062376
aF0.0094018987637326749
aF3.6586318070209913e-14
aF4.3359595017346251e-14
aF7.8092556663308906e-13
aF1
aF1
aF1
aF0
aa(lp1811
Vpack_hose_in_anim
p1812
a(lp1813
VtranslateX
p1814
aVtranslateY
p1815
aVtranslateZ
p1816
aVrotateX
p1817
aVrotateY
p1818
aVrotateZ
p1819
aVscaleX
p1820
aVscaleY
p1821
aVscaleZ
p1822
aVblendParent1
p1823
aaF-0.00084591995091898298
aF-0.00092698363087762026
aF0.0049047683666856301
aF6.4406232299636212e-15
aF3.4349990559805986e-14
aF5.2061704442205936e-14
aF1
aF1
aF1
aF0
aa(lp1824
Vpack_hose_out_anim
p1825
a(lp1826
VtranslateX
p1827
aVtranslateY
p1828
aVtranslateZ
p1829
aVrotateX
p1830
aVrotateY
p1831
aVrotateZ
p1832
aVscaleX
p1833
aVscaleY
p1834
aVscaleZ
p1835
aVblendParent1
p1836
aaF-0.0015350259797472176
aF-0.00013000393889486261
aF0.0048226990537273192
aF-4.2937488199757475e-14
aF1.6459370476573699e-14
aF1.0805934530272298e-13
aF1
aF1
aF1
aF0
aa(lp1837
Vshotgun_anim
p1838
a(lp1839
VtranslateX
p1840
aVtranslateY
p1841
aVtranslateZ
p1842
aVrotateX
p1843
aVrotateY
p1844
aVrotateZ
p1845
aVscaleX
p1846
aVscaleY
p1847
aVscaleZ
p1848
aVshotgun_rotate
p1849
aVshotgun_rail
p1850
aaF83.586642256111503
aF-32.096866210618742
aF-4.5885126375004859
aF-37.598664370996651
aF-108.37524859452537
aF39.29027133608723
aF1
aF1.0000000000000002
aF1.0000000000000002
aF0
aF0
aa(lp1851
Vshotgun_base_anim
p1852
a(lp1853
VtranslateX
p1854
aVtranslateY
p1855
aVtranslateZ
p1856
aVrotateX
p1857
aVrotateY
p1858
aVrotateZ
p1859
aVscaleX
p1860
aVscaleY
p1861
aVscaleZ
p1862
aVblendParent1
p1863
aaF-0.0002668186337697165
aF0.00062352912829126699
aF0.0050171357554233964
aF-1.1449996853268661e-14
aF3.5943901161699901e-14
aF1.3557941030597722e-12
aF1
aF1
aF1
aF0
aa(lp1864
Vshotgun_clip_anim
p1865
a(lp1866
VtranslateX
p1867
aVtranslateY
p1868
aVtranslateZ
p1869
aVrotateX
p1870
aVrotateY
p1871
aVrotateZ
p1872
aVscaleX
p1873
aVscaleY
p1874
aVscaleZ
p1875
aVblendParent1
p1876
aaF-1.2789769243681804e-14
aF0
aF0
aF0
aF0
aF0
aF1
aF1
aF1
aF0
aa(lp1877
Vsniper_can_arm_01_anim
p1878
a(lp1879
VtranslateX
p1880
aVtranslateY
p1881
aVtranslateZ
p1882
aVrotateX
p1883
aVrotateY
p1884
aVrotateZ
p1885
aVscaleX
p1886
aVscaleY
p1887
aVscaleZ
p1888
aVblendParent1
p1889
aaF0.028230908185277671
aF0.0016985090141659498
aF-0.00068819676434372923
aF-0.018372676694867817
aF-0.018507687538198776
aF-0.11517873429648384
aF1
aF1
aF1
aF0
aa(lp1890
Vsniper_can_arm_02_anim
p1891
a(lp1892
VtranslateX
p1893
aVtranslateY
p1894
aVtranslateZ
p1895
aVrotateX
p1896
aVrotateY
p1897
aVrotateZ
p1898
aVscaleX
p1899
aVscaleY
p1900
aVscaleZ
p1901
aVblendParent1
p1902
aaF-5.1159076974727215e-14
aF6.3948846218409018e-15
aF3.8369307731045413e-14
aF0
aF0
aF0
aF1
aF1
aF1
aF0
aa(lp1903
Vsniper_can_arm_03_anim
p1904
a(lp1905
VtranslateX
p1906
aVtranslateY
p1907
aVtranslateZ
p1908
aVrotateX
p1909
aVrotateY
p1910
aVrotateZ
p1911
aVscaleX
p1912
aVscaleY
p1913
aVscaleZ
p1914
aVblendParent1
p1915
aaF3.517186542012496e-14
aF3.1974423109204508e-14
aF0
aF0
aF0
aF0
aF1
aF1
aF1
aF0
aa(lp1916
Vtrap_handle_anim
p1917
a(lp1918
VtranslateX
p1919
aVtranslateY
p1920
aVtranslateZ
p1921
aVrotateX
p1922
aVrotateY
p1923
aVrotateZ
p1924
aVscaleX
p1925
aVscaleY
p1926
aVscaleZ
p1927
aVblendParent1
p1928
aaF0.068358584061347469
aF-0.036113922057060675
aF-0.017185891111239471
aF-0.04785728810855501
aF-0.13732663020397573
aF0.11192955122710996
aF1
aF1
aF1
aF0
aa(lp1929
Vwrist_cover_anim
p1930
a(lp1931
VtranslateX
p1932
aVtranslateY
p1933
aVtranslateZ
p1934
aVrotateX
p1935
aVrotateY
p1936
aVrotateZ
p1937
aVscaleX
p1938
aVscaleY
p1939
aVscaleZ
p1940
aVblendParent1
p1941
aaF0.019568540908924348
aF0.10634838967655469
aF-0.095061609865964597
aF-1.6872334258502435
aF-0.12074493708215665
aF-0.37747126283847049
aF1
aF1
aF1
aF0
aa(lp1942
Vankle_plate_in_l_anim_space_switcher
p1943
a(lp1944
Vvisibility
p1945
aVtranslateX
p1946
aVtranslateY
p1947
aVtranslateZ
p1948
aVrotateX
p1949
aVrotateY
p1950
aVrotateZ
p1951
aVscaleX
p1952
aVscaleY
p1953
aVscaleZ
p1954
aVspace_world
p1955
aaI01
aF0
aF0
aF0
aF-9.9392333795734874e-17
aF1.5902773407317584e-15
aF-3.975693351829396e-16
aF1
aF1.0000000000000002
aF1.0000000000000002
aF0
aa(lp1956
Vankle_plate_in_r_anim_space_switcher
p1957
a(lp1958
Vvisibility
p1959
aVtranslateX
p1960
aVtranslateY
p1961
aVtranslateZ
p1962
aVrotateX
p1963
aVrotateY
p1964
aVrotateZ
p1965
aVscaleX
p1966
aVscaleY
p1967
aVscaleZ
p1968
aVspace_world
p1969
aaI01
aF-3.5527136788005009e-15
aF0
aF-1.7763568394002505e-15
aF0
aF-1.590277340731758e-15
aF3.975693351829395e-16
aF1.0000000000000002
aF1.0000000000000002
aF1
aF0
aa(lp1970
Vankle_plate_out_l_anim_space_switcher
p1971
a(lp1972
Vvisibility
p1973
aVtranslateX
p1974
aVtranslateY
p1975
aVtranslateZ
p1976
aVrotateX
p1977
aVrotateY
p1978
aVrotateZ
p1979
aVscaleX
p1980
aVscaleY
p1981
aVscaleZ
p1982
aVspace_world
p1983
aaI01
aF-1.7763568394002505e-15
aF-8.8817841970012523e-16
aF7.1054273576010019e-15
aF-9.9392333795734874e-17
aF-0
aF7.9513867036587899e-16
aF1.0000000000000002
aF1.0000000000000002
aF1.0000000000000002
aF0
aa(lp1984
Vankle_plate_out_r_anim_space_switcher
p1985
a(lp1986
Vvisibility
p1987
aVtranslateX
p1988
aVtranslateY
p1989
aVtranslateZ
p1990
aVrotateX
p1991
aVrotateY
p1992
aVrotateZ
p1993
aVscaleX
p1994
aVscaleY
p1995
aVscaleZ
p1996
aVspace_world
p1997
aaI01
aF0
aF-8.8817841970012523e-16
aF0
aF-2.981770013872047e-16
aF1.5902773407317584e-15
aF7.9513867036587919e-16
aF1
aF1
aF0.99999999999999978
aF0
aa(lp1998
Varm_hose_bott_anim_space_switcher
p1999
a(lp2000
Vvisibility
p2001
aVtranslateX
p2002
aVtranslateY
p2003
aVtranslateZ
p2004
aVrotateX
p2005
aVrotateY
p2006
aVrotateZ
p2007
aVscaleX
p2008
aVscaleY
p2009
aVscaleZ
p2010
aVspace_world
p2011
aaI01
aF0
aF1.7763568394002505e-15
aF0
aF-1.1927080055488192e-15
aF-0
aF-7.9513867036587919e-16
aF1
aF0.99999999999999989
aF0.99999999999999989
aF0
aa(lp2012
Varm_hose_top_anim_space_switcher
p2013
a(lp2014
Vvisibility
p2015
aVtranslateX
p2016
aVtranslateY
p2017
aVtranslateZ
p2018
aVrotateX
p2019
aVrotateY
p2020
aVrotateZ
p2021
aVscaleX
p2022
aVscaleY
p2023
aVscaleZ
p2024
aVspace_world
p2025
aaI01
aF0
aF1.4210854715202004e-14
aF0
aF0
aF-1.5902773407317584e-15
aF-7.9513867036587919e-16
aF1
aF1
aF1
aF0
aa(lp2026
Varm_pouch_l_anim_space_switcher
p2027
a(lp2028
Vvisibility
p2029
aVtranslateX
p2030
aVtranslateY
p2031
aVtranslateZ
p2032
aVrotateX
p2033
aVrotateY
p2034
aVrotateZ
p2035
aVscaleX
p2036
aVscaleY
p2037
aVscaleZ
p2038
aVspace_world
p2039
aaI01
aF-5.6843418860808015e-14
aF-7.1054273576010019e-15
aF-1.0658141036401503e-14
aF0
aF-1.5902773407317584e-15
aF0
aF1
aF1
aF1
aF0
aa(lp2040
Vbody_anim_space_switcher
p2041
a(lp2042
Vvisibility
p2043
aVtranslateX
p2044
aVtranslateY
p2045
aVtranslateZ
p2046
aVrotateX
p2047
aVrotateY
p2048
aVrotateZ
p2049
aVscaleX
p2050
aVscaleY
p2051
aVscaleZ
p2052
aVspace_world
p2053
aaI01
aF0
aF0
aF0
aF0
aF0
aF0
aF1
aF1
aF1
aF0
aa(lp2054
Vbot_hand_anim_space_switcher
p2055
a(lp2056
Vvisibility
p2057
aVtranslateX
p2058
aVtranslateY
p2059
aVtranslateZ
p2060
aVrotateX
p2061
aVrotateY
p2062
aVrotateZ
p2063
aVscaleX
p2064
aVscaleY
p2065
aVscaleZ
p2066
aVspace_world
p2067
aaI01
aF-2.8421709430404007e-14
aF0
aF-1.4210854715202004e-14
aF1.987846675914698e-15
aF-7.9513867036587919e-16
aF7.9513867036587919e-16
aF1
aF1
aF1
aF0
aa(lp2068
Vbot_loarm_anim_space_switcher
p2069
a(lp2070
Vvisibility
p2071
aVtranslateX
p2072
aVtranslateY
p2073
aVtranslateZ
p2074
aVrotateX
p2075
aVrotateY
p2076
aVrotateZ
p2077
aVscaleX
p2078
aVscaleY
p2079
aVscaleZ
p2080
aVspace_world
p2081
aaI01
aF-7.1054273576010019e-15
aF8.8817841970012523e-16
aF0
aF0
aF-0
aF1.2812293028356452e-17
aF1
aF1
aF1
aF0
aa(lp2082
Vbot_loarm_pistonB_bot_anim_space_switcher
p2083
a(lp2084
Vvisibility
p2085
aVtranslateX
p2086
aVtranslateY
p2087
aVtranslateZ
p2088
aVrotateX
p2089
aVrotateY
p2090
aVrotateZ
p2091
aVscaleX
p2092
aVscaleY
p2093
aVscaleZ
p2094
aVspace_world
p2095
aaI01
aF0
aF5.6843418860808015e-14
aF0
aF-1.5902773407317584e-15
aF4.9696166897867449e-17
aF3.975693351829396e-16
aF1
aF1
aF1
aF0
aa(lp2096
Vbot_loarm_pistonB_top_anim_space_switcher
p2097
a(lp2098
Vvisibility
p2099
aVtranslateX
p2100
aVtranslateY
p2101
aVtranslateZ
p2102
aVrotateX
p2103
aVrotateY
p2104
aVrotateZ
p2105
aVscaleX
p2106
aVscaleY
p2107
aVscaleZ
p2108
aVspace_world
p2109
aaI01
aF7.1054273576010019e-15
aF5.6843418860808015e-14
aF0
aF0
aF-3.975693351829396e-16
aF0
aF1
aF0.99999999999999989
aF1
aF0
aa(lp2110
Vbot_loarm_pistonC_bot_anim_space_switcher
p2111
a(lp2112
Vvisibility
p2113
aVtranslateX
p2114
aVtranslateY
p2115
aVtranslateZ
p2116
aVrotateX
p2117
aVrotateY
p2118
aVrotateZ
p2119
aVscaleX
p2120
aVscaleY
p2121
aVscaleZ
p2122
aVspace_world
p2123
aaI01
aF0
aF-8.8817841970012523e-16
aF0
aF7.9513867036587939e-16
aF-0
aF0
aF1
aF0.99999999999999989
aF1
aF0
aa(lp2124
Vbot_loarm_pistonC_top_anim_space_switcher
p2125
a(lp2126
Vvisibility
p2127
aVtranslateX
p2128
aVtranslateY
p2129
aVtranslateZ
p2130
aVrotateX
p2131
aVrotateY
p2132
aVrotateZ
p2133
aVscaleX
p2134
aVscaleY
p2135
aVscaleZ
p2136
aVspace_world
p2137
aaI01
aF-1.4210854715202004e-14
aF8.8817841970012523e-16
aF2.8421709430404007e-14
aF3.975693351829396e-16
aF-0
aF0
aF1.0000000000000002
aF1
aF1
aF0
aa(lp2138
Vbot_loarm_pistonD_bot_anim_space_switcher
p2139
a(lp2140
Vvisibility
p2141
aVtranslateX
p2142
aVtranslateY
p2143
aVtranslateZ
p2144
aVrotateX
p2145
aVrotateY
p2146
aVrotateZ
p2147
aVscaleX
p2148
aVscaleY
p2149
aVscaleZ
p2150
aVspace_world
p2151
aaI01
aF0
aF3.5527136788005009e-15
aF0
aF0
aF-0
aF9.9392333795734899e-16
aF1
aF0.99999999999999989
aF0.99999999999999989
aF0
aa(lp2152
Vbot_loarm_pistonD_top_anim_space_switcher
p2153
a(lp2154
Vvisibility
p2155
aVtranslateX
p2156
aVtranslateY
p2157
aVtranslateZ
p2158
aVrotateX
p2159
aVrotateY
p2160
aVrotateZ
p2161
aVscaleX
p2162
aVscaleY
p2163
aVscaleZ
p2164
aVspace_world
p2165
aaI01
aF-1.4210854715202004e-14
aF0
aF1.9984014443252818e-15
aF7.9513867036587899e-16
aF-1.3914926731402886e-15
aF-1.5902773407317584e-15
aF1
aF1.0000000000000002
aF1.0000000000000002
aF0
aa(lp2166
Vbot_loarm_twist_anim_space_switcher
p2167
a(lp2168
Vvisibility
p2169
aVtranslateX
p2170
aVtranslateY
p2171
aVtranslateZ
p2172
aVrotateX
p2173
aVrotateY
p2174
aVrotateZ
p2175
aVscaleX
p2176
aVscaleY
p2177
aVscaleZ
p2178
aVspace_world
p2179
aVblendOrient1
p2180
aaI01
aF0
aF0
aF2.8421709430404007e-14
aF0.024116174291016111
aF0.00015973862477773731
aF0.0003385574708318232
aF0.99999999999999989
aF0.99999999999999989
aF0.99999999999999989
aF0
aF0
aa(lp2181
Vbot_uparm_anim_space_switcher
p2182
a(lp2183
Vvisibility
p2184
aVtranslateX
p2185
aVtranslateY
p2186
aVtranslateZ
p2187
aVrotateX
p2188
aVrotateY
p2189
aVrotateZ
p2190
aVscaleX
p2191
aVscaleY
p2192
aVscaleZ
p2193
aVspace_world
p2194
aaI01
aF0
aF3.5527136788005009e-15
aF-2.8421709430404007e-14
aF7.9513867036587919e-16
aF-0
aF-1.9878466759146985e-16
aF0.99999999999999989
aF1
aF1
aF0
aa(lp2195
Vbot_uparm_pistonC_bot_anim_space_switcher
p2196
a(lp2197
Vvisibility
p2198
aVtranslateX
p2199
aVtranslateY
p2200
aVtranslateZ
p2201
aVrotateX
p2202
aVrotateY
p2203
aVrotateZ
p2204
aVscaleX
p2205
aVscaleY
p2206
aVscaleZ
p2207
aVspace_world
p2208
aaI01
aF0
aF-2.8421709430404007e-14
aF0
aF0
aF1.5902773407317584e-15
aF-3.1805546814635168e-15
aF1
aF1
aF1.0000000000000002
aF0
aa(lp2209
Vbot_uparm_pistonC_top_anim_space_switcher
p2210
a(lp2211
Vvisibility
p2212
aVtranslateX
p2213
aVtranslateY
p2214
aVtranslateZ
p2215
aVrotateX
p2216
aVrotateY
p2217
aVrotateZ
p2218
aVscaleX
p2219
aVscaleY
p2220
aVscaleZ
p2221
aVspace_world
p2222
aaI01
aF0
aF-3.5527136788005009e-15
aF-2.8421709430404007e-14
aF-1.5902773407317584e-15
aF-3.1805546814635168e-15
aF2.5842006786891076e-15
aF1
aF1
aF1
aF0
aa(lp2223
Vchest_ik_anim_space_switcher
p2224
a(lp2225
Vvisibility
p2226
aVtranslateX
p2227
aVtranslateY
p2228
aVtranslateZ
p2229
aVrotateX
p2230
aVrotateY
p2231
aVrotateZ
p2232
aVscaleX
p2233
aVscaleY
p2234
aVscaleZ
p2235
aVspace_world
p2236
aVspace_chest_ik_world_aligned
p2237
aaI01
aF0
aF0
aF2.0194839173657902e-28
aF-3.5311250384401269e-31
aF-1.4124500153760508e-30
aF0
aF1
aF1
aF1
aF0
aF0
aa(lp2238
Veyeball_l_anim_space_switcher
p2239
a(lp2240
Vvisibility
p2241
aVtranslateX
p2242
aVtranslateY
p2243
aVtranslateZ
p2244
aVrotateX
p2245
aVrotateY
p2246
aVrotateZ
p2247
aVscaleX
p2248
aVscaleY
p2249
aVscaleZ
p2250
aVspace_world
p2251
aaI01
aF4.4408920985006262e-16
aF0
aF-2.8421709430404007e-14
aF0
aF0
aF0
aF1
aF0.99999999999999989
aF0.99999999999999989
aF0
aa(lp2252
Veyeball_r_anim_space_switcher
p2253
a(lp2254
Vvisibility
p2255
aVtranslateX
p2256
aVtranslateY
p2257
aVtranslateZ
p2258
aVrotateX
p2259
aVrotateY
p2260
aVrotateZ
p2261
aVscaleX
p2262
aVscaleY
p2263
aVscaleZ
p2264
aVspace_world
p2265
aaI01
aF4.4408920985006262e-16
aF-8.8817841970012523e-16
aF0
aF0
aF0
aF0
aF1
aF1
aF1
aF0
aa(lp2266
Veyebrow_in_l_anim_space_switcher
p2267
a(lp2268
Vvisibility
p2269
aVtranslateX
p2270
aVtranslateY
p2271
aVtranslateZ
p2272
aVrotateX
p2273
aVrotateY
p2274
aVrotateZ
p2275
aVscaleX
p2276
aVscaleY
p2277
aVscaleZ
p2278
aVspace_world
p2279
aaI01
aF0
aF8.8817841970012523e-16
aF0
aF4.9696166897867449e-16
aF-1.5902773407317584e-15
aF2.8575295966273782e-16
aF1
aF1
aF1
aF0
aa(lp2280
Veyebrow_in_r_anim_space_switcher
p2281
a(lp2282
Vvisibility
p2283
aVtranslateX
p2284
aVtranslateY
p2285
aVtranslateZ
p2286
aVrotateX
p2287
aVrotateY
p2288
aVrotateZ
p2289
aVscaleX
p2290
aVscaleY
p2291
aVscaleZ
p2292
aVspace_world
p2293
aaI01
aF0
aF-1.7763568394002505e-15
aF0
aF1.9878466759146975e-16
aF-0
aF2.820257471453977e-15
aF1.0000000000000002
aF1.0000000000000002
aF1
aF0
aa(lp2294
Veyebrow_out_l_anim_space_switcher
p2295
a(lp2296
Vvisibility
p2297
aVtranslateX
p2298
aVtranslateY
p2299
aVtranslateZ
p2300
aVrotateX
p2301
aVrotateY
p2302
aVrotateZ
p2303
aVscaleX
p2304
aVscaleY
p2305
aVscaleZ
p2306
aVspace_world
p2307
aaI01
aF2.0539125955565396e-15
aF-1.7763568394002505e-15
aF-2.8421709430404007e-14
aF3.975693351829396e-16
aF-9.9392333795734899e-17
aF-2.0499668845370324e-15
aF1
aF1
aF1
aF0
aa(lp2308
Veyebrow_out_r_anim_space_switcher
p2309
a(lp2310
Vvisibility
p2311
aVtranslateX
p2312
aVtranslateY
p2313
aVtranslateZ
p2314
aVrotateX
p2315
aVrotateY
p2316
aVrotateZ
p2317
aVscaleX
p2318
aVscaleY
p2319
aVscaleZ
p2320
aVspace_world
p2321
aaI01
aF1.1102230246251565e-15
aF0
aF0
aF0
aF1.9878466759146985e-16
aF4.1309938733852324e-16
aF0.99999999999999989
aF0.99999999999999989
aF0.99999999999999989
aF0
aa(lp2322
Veyelid_bott_l_anim_space_switcher
p2323
a(lp2324
Vvisibility
p2325
aVtranslateX
p2326
aVtranslateY
p2327
aVtranslateZ
p2328
aVrotateX
p2329
aVrotateY
p2330
aVrotateZ
p2331
aVscaleX
p2332
aVscaleY
p2333
aVscaleZ
p2334
aVspace_world
p2335
aaI01
aF0
aF8.8817841970012523e-16
aF0
aF0
aF0
aF0
aF1
aF0.99999999999999989
aF0.99999999999999989
aF0
aa(lp2336
Veyelid_bott_r_anim_space_switcher
p2337
a(lp2338
Vvisibility
p2339
aVtranslateX
p2340
aVtranslateY
p2341
aVtranslateZ
p2342
aVrotateX
p2343
aVrotateY
p2344
aVrotateZ
p2345
aVscaleX
p2346
aVscaleY
p2347
aVscaleZ
p2348
aVspace_world
p2349
aaI01
aF4.4408920985006262e-16
aF0
aF2.8421709430404007e-14
aF0
aF0
aF0
aF1
aF1
aF1
aF0
aa(lp2350
Veyelid_top_l_anim_space_switcher
p2351
a(lp2352
Vvisibility
p2353
aVtranslateX
p2354
aVtranslateY
p2355
aVtranslateZ
p2356
aVrotateX
p2357
aVrotateY
p2358
aVrotateZ
p2359
aVscaleX
p2360
aVscaleY
p2361
aVscaleZ
p2362
aVspace_world
p2363
aaI01
aF0
aF4.4408920985006262e-16
aF0
aF0
aF0
aF0
aF1
aF0.99999999999999989
aF0.99999999999999989
aF0
aa(lp2364
Veyelid_top_r_anim_space_switcher
p2365
a(lp2366
Vvisibility
p2367
aVtranslateX
p2368
aVtranslateY
p2369
aVtranslateZ
p2370
aVrotateX
p2371
aVrotateY
p2372
aVrotateZ
p2373
aVscaleX
p2374
aVscaleY
p2375
aVscaleZ
p2376
aVspace_world
p2377
aaI01
aF4.4408920985006262e-16
aF-4.4408920985006262e-16
aF0
aF0
aF0
aF0
aF1
aF1
aF1
aF0
aa(lp2378
Vgun_anim_space_switcher
p2379
a(lp2380
Vvisibility
p2381
aVtranslateX
p2382
aVtranslateY
p2383
aVtranslateZ
p2384
aVrotateX
p2385
aVrotateY
p2386
aVrotateZ
p2387
aVscaleX
p2388
aVscaleY
p2389
aVscaleZ
p2390
aVspace_world
p2391
aaI01
aF2.8421709430404007e-14
aF3.5527136788005009e-15
aF-1.4210854715202004e-14
aF2.4848083448933731e-17
aF-1.987846675914698e-16
aF1.5902773407317584e-15
aF1
aF0.99999999999999989
aF1.0000000000000002
aF0
aa(lp2392
Vgun_barrel_anim_space_switcher
p2393
a(lp2394
Vvisibility
p2395
aVtranslateX
p2396
aVtranslateY
p2397
aVtranslateZ
p2398
aVrotateX
p2399
aVrotateY
p2400
aVrotateZ
p2401
aVscaleX
p2402
aVscaleY
p2403
aVscaleZ
p2404
aVspace_world
p2405
aaI01
aF-2.8421709430404007e-14
aF-8.8817841970012523e-16
aF0
aF-4.9696166897867462e-17
aF-0
aF0
aF0.99999999999999989
aF0.99999999999999978
aF1
aF0
aa(lp2406
Vgun_barrel_inner_anim_space_switcher
p2407
a(lp2408
Vvisibility
p2409
aVtranslateX
p2410
aVtranslateY
p2411
aVtranslateZ
p2412
aVrotateX
p2413
aVrotateY
p2414
aVrotateZ
p2415
aVscaleX
p2416
aVscaleY
p2417
aVscaleZ
p2418
aVspace_world
p2419
aaI01
aF0
aF0
aF2.8421709430404007e-14
aF-4.9696166897867462e-17
aF-0
aF0
aF0.99999999999999989
aF0.99999999999999978
aF1
aF0
aa(lp2420
Vgun_body_panel_l_anim_space_switcher
p2421
a(lp2422
Vvisibility
p2423
aVtranslateX
p2424
aVtranslateY
p2425
aVtranslateZ
p2426
aVrotateX
p2427
aVrotateY
p2428
aVrotateZ
p2429
aVscaleX
p2430
aVscaleY
p2431
aVscaleZ
p2432
aVspace_world
p2433
aaI01
aF0
aF-3.5527136788005009e-15
aF0
aF-4.9696166897867462e-17
aF-0
aF0
aF0.99999999999999989
aF0.99999999999999978
aF1
aF0
aa(lp2434
Vgun_body_panel_r_anim_space_switcher
p2435
a(lp2436
Vvisibility
p2437
aVtranslateX
p2438
aVtranslateY
p2439
aVtranslateZ
p2440
aVrotateX
p2441
aVrotateY
p2442
aVrotateZ
p2443
aVscaleX
p2444
aVscaleY
p2445
aVscaleZ
p2446
aVspace_world
p2447
aaI01
aF2.8421709430404007e-14
aF-1.7763568394002505e-15
aF1.4210854715202004e-14
aF-4.9696166897867462e-17
aF-0
aF0
aF1
aF0.99999999999999989
aF1.0000000000000002
aF0
aa(lp2448
Vgun_scope_anim_space_switcher
p2449
a(lp2450
Vvisibility
p2451
aVtranslateX
p2452
aVtranslateY
p2453
aVtranslateZ
p2454
aVrotateX
p2455
aVrotateY
p2456
aVrotateZ
p2457
aVscaleX
p2458
aVscaleY
p2459
aVscaleZ
p2460
aVspace_world
p2461
aaI01
aF0
aF-3.5527136788005009e-15
aF0
aF-4.9696166897867462e-17
aF-0
aF0
aF0.99999999999999989
aF0.99999999999999978
aF1
aF0
aa(lp2462
Vgun_stock_base_anim_space_switcher
p2463
a(lp2464
Vvisibility
p2465
aVtranslateX
p2466
aVtranslateY
p2467
aVtranslateZ
p2468
aVrotateX
p2469
aVrotateY
p2470
aVrotateZ
p2471
aVscaleX
p2472
aVscaleY
p2473
aVscaleZ
p2474
aVspace_world
p2475
aaI01
aF2.8421709430404007e-14
aF-2.6645352591003757e-15
aF-1.4210854715202004e-14
aF-4.9696166897867462e-17
aF-0
aF0
aF0.99999999999999989
aF0.99999999999999978
aF1
aF0
aa(lp2476
Vgun_stock_base_in_bott_anim_space_switcher
p2477
a(lp2478
Vvisibility
p2479
aVtranslateX
p2480
aVtranslateY
p2481
aVtranslateZ
p2482
aVrotateX
p2483
aVrotateY
p2484
aVrotateZ
p2485
aVscaleX
p2486
aVscaleY
p2487
aVscaleZ
p2488
aVspace_world
p2489
aaI01
aF-2.8421709430404007e-14
aF4.4408920985006262e-16
aF0
aF-4.9696166897867462e-17
aF-0
aF0
aF0.99999999999999989
aF0.99999999999999978
aF1
aF0
aa(lp2490
Vgun_stock_base_in_top_anim_space_switcher
p2491
a(lp2492
Vvisibility
p2493
aVtranslateX
p2494
aVtranslateY
p2495
aVtranslateZ
p2496
aVrotateX
p2497
aVrotateY
p2498
aVrotateZ
p2499
aVscaleX
p2500
aVscaleY
p2501
aVscaleZ
p2502
aVspace_world
p2503
aaI01
aF0
aF1.7763568394002505e-15
aF-5.6843418860808015e-14
aF-4.9696166897867462e-17
aF-0
aF0
aF0.99999999999999989
aF0.99999999999999978
aF1
aF0
aa(lp2504
Vgun_stock_base_out_bott_anim_space_switcher
p2505
a(lp2506
Vvisibility
p2507
aVtranslateX
p2508
aVtranslateY
p2509
aVtranslateZ
p2510
aVrotateX
p2511
aVrotateY
p2512
aVrotateZ
p2513
aVscaleX
p2514
aVscaleY
p2515
aVscaleZ
p2516
aVspace_world
p2517
aaI01
aF0
aF1.3322676295501878e-15
aF2.8421709430404007e-14
aF-4.9696166897867462e-17
aF-0
aF0
aF0.99999999999999989
aF0.99999999999999978
aF1
aF0
aa(lp2518
Vgun_stock_base_out_top_anim_space_switcher
p2519
a(lp2520
Vvisibility
p2521
aVtranslateX
p2522
aVtranslateY
p2523
aVtranslateZ
p2524
aVrotateX
p2525
aVrotateY
p2526
aVrotateZ
p2527
aVscaleX
p2528
aVscaleY
p2529
aVscaleZ
p2530
aVspace_world
p2531
aaI01
aF2.8421709430404007e-14
aF0
aF-2.8421709430404007e-14
aF-4.9696166897867462e-17
aF-0
aF0
aF0.99999999999999989
aF0.99999999999999978
aF1
aF0
aa(lp2532
Vgun_stock_bott_anim_space_switcher
p2533
a(lp2534
Vvisibility
p2535
aVtranslateX
p2536
aVtranslateY
p2537
aVtranslateZ
p2538
aVrotateX
p2539
aVrotateY
p2540
aVrotateZ
p2541
aVscaleX
p2542
aVscaleY
p2543
aVscaleZ
p2544
aVspace_world
p2545
aaI01
aF-2.8421709430404007e-14
aF6.9388939039072284e-18
aF0
aF-4.9696166897867462e-17
aF-0
aF0
aF0.99999999999999989
aF0.99999999999999978
aF1
aF0
aa(lp2546
Vgun_stock_in_bott_anim_space_switcher
p2547
a(lp2548
Vvisibility
p2549
aVtranslateX
p2550
aVtranslateY
p2551
aVtranslateZ
p2552
aVrotateX
p2553
aVrotateY
p2554
aVrotateZ
p2555
aVscaleX
p2556
aVscaleY
p2557
aVscaleZ
p2558
aVspace_world
p2559
aaI01
aF0
aF-4.4408920985006262e-16
aF0
aF-4.9696166897867462e-17
aF-0
aF0
aF0.99999999999999989
aF0.99999999999999978
aF1
aF0
aa(lp2560
Vgun_stock_in_top_anim_space_switcher
p2561
a(lp2562
Vvisibility
p2563
aVtranslateX
p2564
aVtranslateY
p2565
aVtranslateZ
p2566
aVrotateX
p2567
aVrotateY
p2568
aVrotateZ
p2569
aVscaleX
p2570
aVscaleY
p2571
aVscaleZ
p2572
aVspace_world
p2573
aaI01
aF0
aF-1.7763568394002505e-15
aF0
aF-4.9696166897867462e-17
aF-0
aF0
aF0.99999999999999989
aF0.99999999999999978
aF1
aF0
aa(lp2574
Vgun_stock_panel_l_anim_space_switcher
p2575
a(lp2576
Vvisibility
p2577
aVtranslateX
p2578
aVtranslateY
p2579
aVtranslateZ
p2580
aVrotateX
p2581
aVrotateY
p2582
aVrotateZ
p2583
aVscaleX
p2584
aVscaleY
p2585
aVscaleZ
p2586
aVspace_world
p2587
aaI01
aF0
aF-1.7763568394002505e-15
aF0
aF-4.9696166897867462e-17
aF-0
aF0
aF0.99999999999999989
aF0.99999999999999978
aF1
aF0
aa(lp2588
Vgun_stock_panel_r_anim_space_switcher
p2589
a(lp2590
Vvisibility
p2591
aVtranslateX
p2592
aVtranslateY
p2593
aVtranslateZ
p2594
aVrotateX
p2595
aVrotateY
p2596
aVrotateZ
p2597
aVscaleX
p2598
aVscaleY
p2599
aVscaleZ
p2600
aVspace_world
p2601
aaI01
aF2.8421709430404007e-14
aF-1.7763568394002505e-15
aF0
aF-4.9696166897867462e-17
aF-0
aF0
aF1
aF0.99999999999999989
aF1.0000000000000002
aF0
aa(lp2602
Vheel_plate_l_anim_space_switcher
p2603
a(lp2604
Vvisibility
p2605
aVtranslateX
p2606
aVtranslateY
p2607
aVtranslateZ
p2608
aVrotateX
p2609
aVrotateY
p2610
aVrotateZ
p2611
aVscaleX
p2612
aVscaleY
p2613
aVscaleZ
p2614
aVspace_world
p2615
aaI01
aF-3.5527136788005009e-15
aF-1.7763568394002505e-15
aF-8.8817841970012523e-16
aF7.765026077791789e-19
aF1.2424041724466862e-17
aF-2.1953942967634883e-16
aF1
aF1
aF1
aF0
aa(lp2616
Vheel_plate_r_anim_space_switcher
p2617
a(lp2618
Vvisibility
p2619
aVtranslateX
p2620
aVtranslateY
p2621
aVtranslateZ
p2622
aVrotateX
p2623
aVrotateY
p2624
aVrotateZ
p2625
aVscaleX
p2626
aVscaleY
p2627
aVscaleZ
p2628
aVspace_world
p2629
aaI01
aF7.1054273576010019e-15
aF0
aF8.8817841970012523e-16
aF-1.5530052155583582e-18
aF-0
aF5.5143818005568262e-17
aF0.99999999999999989
aF0.99999999999999989
aF0.99999999999999978
aF0
aa(lp2630
Vhelmet_sight_anim_space_switcher
p2631
a(lp2632
Vvisibility
p2633
aVtranslateX
p2634
aVtranslateY
p2635
aVtranslateZ
p2636
aVrotateX
p2637
aVrotateY
p2638
aVrotateZ
p2639
aVscaleX
p2640
aVscaleY
p2641
aVscaleZ
p2642
aVspace_world
p2643
aaI01
aF1.7763568394002505e-15
aF-4.4408920985006262e-16
aF0
aF0
aF0
aF0
aF1
aF0.99999999999999989
aF0.99999999999999989
aF0
aa(lp2644
Vik_elbow_l_anim_space_switcher
p2645
a(lp2646
Vvisibility
p2647
aVtranslateX
p2648
aVtranslateY
p2649
aVtranslateZ
p2650
aVrotateX
p2651
aVrotateY
p2652
aVrotateZ
p2653
aVscaleX
p2654
aVscaleY
p2655
aVscaleZ
p2656
aVspace_world
p2657
aVspace_body_anim
p2658
aVspace_chest_ik_anim
p2659
aaI01
aF0
aF0
aF0
aF0
aF0
aF0
aF1
aF1
aF1
aF0
aF0
aF0
aa(lp2660
Vik_elbow_r_anim_space_switcher
p2661
a(lp2662
Vvisibility
p2663
aVtranslateX
p2664
aVtranslateY
p2665
aVtranslateZ
p2666
aVrotateX
p2667
aVrotateY
p2668
aVrotateZ
p2669
aVscaleX
p2670
aVscaleY
p2671
aVscaleZ
p2672
aVspace_world
p2673
aVspace_body_anim
p2674
aVspace_chest_ik_anim
p2675
aaI01
aF0
aF0
aF0
aF0
aF0
aF0
aF1
aF1
aF1
aF0
aF0
aF0
aa(lp2676
Vik_foot_anim_l_space_switcher
p2677
a(lp2678
Vvisibility
p2679
aVtranslateX
p2680
aVtranslateY
p2681
aVtranslateZ
p2682
aVrotateX
p2683
aVrotateY
p2684
aVrotateZ
p2685
aVscaleX
p2686
aVscaleY
p2687
aVscaleZ
p2688
aVspace_world
p2689
aVspace_body_anim
p2690
aaI01
aF0
aF0
aF0
aF0
aF0
aF0
aF1
aF1
aF1
aF0
aF0
aa(lp2691
Vik_foot_anim_r_space_switcher
p2692
a(lp2693
Vvisibility
p2694
aVtranslateX
p2695
aVtranslateY
p2696
aVtranslateZ
p2697
aVrotateX
p2698
aVrotateY
p2699
aVrotateZ
p2700
aVscaleX
p2701
aVscaleY
p2702
aVscaleZ
p2703
aVspace_world
p2704
aVspace_body_anim
p2705
aaI01
aF0
aF0
aF0
aF0
aF0
aF0
aF1
aF1
aF1
aF0
aF0
aa(lp2706
Vik_wrist_l_anim_space_switcher
p2707
a(lp2708
Vvisibility
p2709
aVtranslateX
p2710
aVtranslateY
p2711
aVtranslateZ
p2712
aVrotateX
p2713
aVrotateY
p2714
aVrotateZ
p2715
aVscaleX
p2716
aVscaleY
p2717
aVscaleZ
p2718
aVspace_world
p2719
aVspace_body_anim
p2720
aVspace_head_fk_anim
p2721
aVspace_chest_ik_anim
p2722
aVspace_driver_gun_stock_bott
p2723
aaI01
aF0
aF0
aF0
aF0
aF0
aF0
aF1
aF1
aF1
aF0
aF0
aF0
aF0
aF0
aa(lp2724
Vik_wrist_r_anim_space_switcher
p2725
a(lp2726
Vvisibility
p2727
aVtranslateX
p2728
aVtranslateY
p2729
aVtranslateZ
p2730
aVrotateX
p2731
aVrotateY
p2732
aVrotateZ
p2733
aVscaleX
p2734
aVscaleY
p2735
aVscaleZ
p2736
aVspace_world
p2737
aVspace_body_anim
p2738
aVspace_head_fk_anim
p2739
aVspace_chest_ik_anim
p2740
aaI01
aF0
aF0
aF0
aF0
aF0
aF0
aF1
aF1
aF1
aF0
aF0
aF0
aF0
aa(lp2741
Vjaw_anim_space_switcher
p2742
a(lp2743
Vvisibility
p2744
aVtranslateX
p2745
aVtranslateY
p2746
aVtranslateZ
p2747
aVrotateX
p2748
aVrotateY
p2749
aVrotateZ
p2750
aVscaleX
p2751
aVscaleY
p2752
aVscaleZ
p2753
aVspace_world
p2754
aaI01
aF-3.1554436208840472e-30
aF0
aF0
aF0
aF0
aF0
aF1
aF0.99999999999999989
aF0.99999999999999989
aF0
aa(lp2755
Vl_global_ik_anim_space_switcher
p2756
a(lp2757
Vvisibility
p2758
aVtranslateX
p2759
aVtranslateY
p2760
aVtranslateZ
p2761
aVrotateX
p2762
aVrotateY
p2763
aVrotateZ
p2764
aVscaleX
p2765
aVscaleY
p2766
aVscaleZ
p2767
aVspace_world
p2768
aaI01
aF0
aF0
aF0
aF0
aF0
aF0
aF1
aF1
aF1
aF0
aa(lp2769
Vmask_anim_space_switcher
p2770
a(lp2771
Vvisibility
p2772
aVtranslateX
p2773
aVtranslateY
p2774
aVtranslateZ
p2775
aVrotateX
p2776
aVrotateY
p2777
aVrotateZ
p2778
aVscaleX
p2779
aVscaleY
p2780
aVscaleZ
p2781
aVspace_world
p2782
aVspace_driver_hand_l
p2783
aVspace_driver_hand_r
p2784
aaI01
aF-3.1554436208840472e-30
aF0
aF0
aF0
aF0
aF0
aF1
aF0.99999999999999989
aF0.99999999999999989
aF0
aF0
aF0
aa(lp2785
Vmaster_anim_space_switcher
p2786
a(lp2787
Vvisibility
p2788
aVtranslateX
p2789
aVtranslateY
p2790
aVtranslateZ
p2791
aVrotateX
p2792
aVrotateY
p2793
aVrotateZ
p2794
aVscaleX
p2795
aVscaleY
p2796
aVscaleZ
p2797
aVspace_world
p2798
aaI01
aF0
aF0
aF0
aF0
aF0
aF0
aF1
aF1
aF1
aF0
aa(lp2799
Vpack_hose_in_anim_space_switcher
p2800
a(lp2801
Vvisibility
p2802
aVtranslateX
p2803
aVtranslateY
p2804
aVtranslateZ
p2805
aVrotateX
p2806
aVrotateY
p2807
aVrotateZ
p2808
aVscaleX
p2809
aVscaleY
p2810
aVscaleZ
p2811
aVspace_world
p2812
aaI01
aF0
aF0
aF2.8421709430404007e-14
aF0
aF-0
aF7.9513867036587919e-16
aF1
aF1
aF1
aF0
aa(lp2813
Vpack_hose_out_anim_space_switcher
p2814
a(lp2815
Vvisibility
p2816
aVtranslateX
p2817
aVtranslateY
p2818
aVtranslateZ
p2819
aVrotateX
p2820
aVrotateY
p2821
aVrotateZ
p2822
aVscaleX
p2823
aVscaleY
p2824
aVscaleZ
p2825
aVspace_world
p2826
aaI01
aF7.1054273576010019e-15
aF-8.8817841970012523e-16
aF0
aF0
aF-1.5902773407317584e-15
aF1.987846675914698e-15
aF1
aF1
aF1.0000000000000002
aF0
aa(lp2827
Vr_global_ik_anim_space_switcher
p2828
a(lp2829
Vvisibility
p2830
aVtranslateX
p2831
aVtranslateY
p2832
aVtranslateZ
p2833
aVrotateX
p2834
aVrotateY
p2835
aVrotateZ
p2836
aVscaleX
p2837
aVscaleY
p2838
aVscaleZ
p2839
aVspace_world
p2840
aaI01
aF0
aF0
aF0
aF0
aF0
aF0
aF1
aF1
aF1
aF0
aa(lp2841
Vshotgun_anim_space_switcher
p2842
a(lp2843
Vvisibility
p2844
aVtranslateX
p2845
aVtranslateY
p2846
aVtranslateZ
p2847
aVrotateX
p2848
aVrotateY
p2849
aVrotateZ
p2850
aVscaleX
p2851
aVscaleY
p2852
aVscaleZ
p2853
aVspace_world
p2854
aVspace_driver_hand_l
p2855
aaI01
aF0
aF0
aF0
aF0
aF0
aF0
aF1
aF1
aF1
aF0
aF0
aa(lp2856
Vshotgun_base_anim_space_switcher
p2857
a(lp2858
Vvisibility
p2859
aVtranslateX
p2860
aVtranslateY
p2861
aVtranslateZ
p2862
aVrotateX
p2863
aVrotateY
p2864
aVrotateZ
p2865
aVscaleX
p2866
aVscaleY
p2867
aVscaleZ
p2868
aVspace_world
p2869
aaI01
aF-3.5527136788005009e-15
aF0
aF0
aF0
aF0
aF0
aF1
aF1
aF1
aF0
aa(lp2870
Vshotgun_clip_anim_space_switcher
p2871
a(lp2872
Vvisibility
p2873
aVtranslateX
p2874
aVtranslateY
p2875
aVtranslateZ
p2876
aVrotateX
p2877
aVrotateY
p2878
aVrotateZ
p2879
aVscaleX
p2880
aVscaleY
p2881
aVscaleZ
p2882
aVspace_world
p2883
aaI01
aF-1.3322676295501878e-15
aF-7.1054273576010019e-15
aF0
aF0
aF-0
aF-3.7961271237804606e-15
aF1
aF1
aF1
aF0
aa(lp2884
Vsniper_can_arm_01_anim_space_switcher
p2885
a(lp2886
Vvisibility
p2887
aVtranslateX
p2888
aVtranslateY
p2889
aVtranslateZ
p2890
aVrotateX
p2891
aVrotateY
p2892
aVrotateZ
p2893
aVscaleX
p2894
aVscaleY
p2895
aVscaleZ
p2896
aVspace_world
p2897
aaI01
aF0
aF0
aF0
aF0
aF0
aF0
aF1
aF1
aF1
aF0
aa(lp2898
Vsniper_can_arm_02_anim_space_switcher
p2899
a(lp2900
Vvisibility
p2901
aVtranslateX
p2902
aVtranslateY
p2903
aVtranslateZ
p2904
aVrotateX
p2905
aVrotateY
p2906
aVrotateZ
p2907
aVscaleX
p2908
aVscaleY
p2909
aVscaleZ
p2910
aVspace_world
p2911
aaI01
aF2.5243548967072378e-29
aF0
aF0
aF0
aF0
aF0
aF1
aF1
aF1
aF0
aa(lp2912
Vsniper_can_arm_03_anim_space_switcher
p2913
a(lp2914
Vvisibility
p2915
aVtranslateX
p2916
aVtranslateY
p2917
aVtranslateZ
p2918
aVrotateX
p2919
aVrotateY
p2920
aVrotateZ
p2921
aVscaleX
p2922
aVscaleY
p2923
aVscaleZ
p2924
aVspace_world
p2925
aVspace_driver_hand_l
p2926
aVspace_driver_gun
p2927
aaI01
aF0
aF0
aF0
aF0
aF0
aF0
aF1
aF1
aF1
aF0
aF0
aF0
aa(lp2928
Vspine_01_space_switcher
p2929
a(lp2930
Vvisibility
p2931
aVtranslateX
p2932
aVtranslateY
p2933
aVtranslateZ
p2934
aVrotateX
p2935
aVrotateY
p2936
aVrotateZ
p2937
aVscaleX
p2938
aVscaleY
p2939
aVscaleZ
p2940
aVspace_world
p2941
aaI01
aF0
aF0
aF-3.1554436208840472e-30
aF7.9450313364902864e-31
aF-1.4124500153760508e-30
aF0
aF1
aF1
aF1
aF0
aa(lp2942
Vtrap_handle_anim_space_switcher
p2943
a(lp2944
Vvisibility
p2945
aVtranslateX
p2946
aVtranslateY
p2947
aVtranslateZ
p2948
aVrotateX
p2949
aVrotateY
p2950
aVrotateZ
p2951
aVscaleX
p2952
aVscaleY
p2953
aVscaleZ
p2954
aVspace_world
p2955
aVspace_driver_hand_l
p2956
aaI01
aF7.1054273576010019e-15
aF-1.4210854715202004e-14
aF1.4210854715202004e-14
aF0
aF-7.9513867036587939e-16
aF-2.3854160110976384e-15
aF0.99999999999999989
aF0.99999999999999989
aF0.99999999999999989
aF0
aF0
aa(lp2957
Vwrist_cover_anim_space_switcher
p2958
a(lp2959
Vvisibility
p2960
aVtranslateX
p2961
aVtranslateY
p2962
aVtranslateZ
p2963
aVrotateX
p2964
aVrotateY
p2965
aVrotateZ
p2966
aVscaleX
p2967
aVscaleY
p2968
aVscaleZ
p2969
aVspace_world
p2970
aaI01
aF7.1054273576010019e-15
aF2.8421709430404007e-14
aF-3.5527136788005009e-15
aF0
aF-0
aF7.9513867036587919e-16
aF1
aF1.0000000000000002
aF1.0000000000000002
aF0
aa.