(lp1
(lp2
S'fk_clavicle_r_anim'
p3
a(lp4
VtranslateX
p5
aVtranslateY
p6
aVtranslateZ
p7
aVrotateX
p8
aVrotateY
p9
aVrotateZ
p10
aaF0
aF0
aF0
aF0
aF0
aF0
aa(lp11
S'fk_clavicle_l_anim'
p12
a(lp13
VtranslateX
p14
aVtranslateY
p15
aVtranslateZ
p16
aVrotateX
p17
aVrotateY
p18
aVrotateZ
p19
aaF0
aF0
aF0
aF0
aF0
aF0
aa(lp20
S'head_fk_anim'
p21
a(lp22
VtranslateX
p23
aVtranslateY
p24
aVtranslateZ
p25
aVrotateX
p26
aVrotateY
p27
aVrotateZ
p28
aVscaleX
p29
aVscaleY
p30
aVscaleZ
p31
aVfkOrientation
p32
aaF0
aF0
aF0
aF19.510831975222469
aF-4.6621941803590881
aF-7.9995683490405716
aF1
aF1
aF1
aI0
aa(lp33
S'neck_01_fk_anim'
p34
a(lp35
VtranslateX
p36
aVtranslateY
p37
aVtranslateZ
p38
aVrotateX
p39
aVrotateY
p40
aVrotateZ
p41
aVscaleX
p42
aVscaleY
p43
aVscaleZ
p44
aVfkOrientation
p45
aaF0
aF0
aF0
aF14.949891467045433
aF7.9849601102178038
aF-7.4470217673786507
aF0.99999999999999978
aF1
aF1
aI0
aa(lp46
S'spine_01_anim'
p47
a(lp48
Vlength
p49
aVtranslateY
p50
aVtranslateZ
p51
aVrotateX
p52
aVrotateY
p53
aVrotateZ
p54
aaF0
aF0
aF0
aF0.028011810522349901
aF3.2674018283120962
aF-13.444770804427968
aa(lp55
S'spine_02_anim'
p56
a(lp57
Vlength
p58
aVtranslateY
p59
aVtranslateZ
p60
aVrotateX
p61
aVrotateY
p62
aVrotateZ
p63
aaF0
aF0
aF0
aF0.98483622687515016
aF4.5864963930277085
aF-7.4291429724291245
aa(lp64
S'spine_03_anim'
p65
a(lp66
Vlength
p67
aVtranslateY
p68
aVtranslateZ
p69
aVrotateX
p70
aVrotateY
p71
aVrotateZ
p72
aaF0
aF0
aF0
aF0.55050575853855088
aF4.6279184969347327
aF-7.4292234124668601
aa(lp73
S'mid_ik_anim'
p74
a(lp75
VtranslateX
p76
aVtranslateY
p77
aVtranslateZ
p78
aVrotateX
p79
aVrotateY
p80
aVrotateZ
p81
aaF-0.37298005180295812
aF-4.155212396365795
aF-0.69763434257937584
aF0.95652073157520079
aF7.8436155669891141
aF-7.9998446706717061
aa(lp82
S'chest_ik_anim'
p83
a(lp84
VtranslateX
p85
aVtranslateY
p86
aVtranslateZ
p87
aVrotateX
p88
aVrotateY
p89
aVrotateZ
p90
aVstretch
p91
aVsquash
p92
aVtwist_amount
p93
aVautoSpine
p94
aVrotationInfluence
p95
aaF-0.23108187576557424
aF-7.6100763125918283
aF-2.4910347459371343
aF2.44521560243252
aF12.26716916402218
aF-19.118169306707617
aF0
aF0
aF1
aF0
aF0.25
aa(lp96
S'body_anim'
p97
a(lp98
VtranslateX
p99
aVtranslateY
p100
aVtranslateZ
p101
aVrotateX
p102
aVrotateY
p103
aVrotateZ
p104
aaF-63.258396981992981
aF16.899737668699125
aF-23.8294907337498
aF-61.068116669741066
aF-14.251632473652981
aF0.82046202173658145
aa(lp105
S'hip_anim'
p106
a(lp107
VtranslateX
p108
aVtranslateY
p109
aVtranslateZ
p110
aVrotateX
p111
aVrotateY
p112
aVrotateZ
p113
aVlCalfTwistCtrlVis
p114
aVrCalfTwistCtrlVis
p115
aVautoHips
p116
aaF0
aF0
aF0
aF0
aF0
aF0
aI00
aI00
aF0
aa(lp117
S'clavicle_l_anim'
p118
a(lp119
VtranslateX
p120
aVtranslateY
p121
aVtranslateZ
p122
aVautoShoulders
p123
aaF0.43046865141565249
aF2.8819704487522788
aF9.8049780915898683
aF0
aa(lp124
S'clavicle_r_anim'
p125
a(lp126
VtranslateX
p127
aVtranslateY
p128
aVtranslateZ
p129
aVautoShoulders
p130
aaF-0.49925448443459997
aF-5.093912153792524
aF7.1785021976282293
aF0
aa(lp131
S'fk_arm_l_anim'
p132
a(lp133
VtranslateX
p134
aVtranslateY
p135
aVtranslateZ
p136
aVrotateX
p137
aVrotateY
p138
aVrotateZ
p139
aaF0
aF0
aF0
aF-39.007552939926612
aF30.975085890438915
aF-43.616762537882273
aa(lp140
S'fk_arm_r_anim'
p141
a(lp142
VtranslateX
p143
aVtranslateY
p144
aVtranslateZ
p145
aVrotateX
p146
aVrotateY
p147
aVrotateZ
p148
aaF0
aF0
aF0
aF-5.9510661411793118
aF-4.5739484071771095
aF-97.374602051346059
aa(lp149
S'fk_elbow_l_anim'
p150
a(lp151
VtranslateX
p152
aVtranslateY
p153
aVtranslateZ
p154
aVrotateX
p155
aVrotateY
p156
aVrotateZ
p157
aaF0
aF0
aF0
aF20.281683772275109
aF-20.411025600446582
aF-78.450021585309329
aa(lp158
S'fk_elbow_r_anim'
p159
a(lp160
VtranslateX
p161
aVtranslateY
p162
aVtranslateZ
p163
aVrotateX
p164
aVrotateY
p165
aVrotateZ
p166
aaF0
aF0
aF0
aF12.242458950724133
aF-14.425354393604717
aF-72.338562493710072
aa(lp167
S'fk_wrist_l_anim'
p168
a(lp169
VtranslateX
p170
aVtranslateY
p171
aVtranslateZ
p172
aVrotateX
p173
aVrotateY
p174
aVrotateZ
p175
aaF0
aF0
aF0
aF-64.116750157449388
aF-16.575302428491316
aF-13.203663802677021
aa(lp176
S'fk_wrist_r_anim'
p177
a(lp178
VtranslateX
p179
aVtranslateY
p180
aVtranslateZ
p181
aVrotateX
p182
aVrotateY
p183
aVrotateZ
p184
aaF0
aF0
aF0
aF-39.780162040992543
aF-26.284117143129016
aF-6.6418443902811939
aa(lp185
S'ik_elbow_l_anim'
p186
a(lp187
VtranslateX
p188
aVtranslateY
p189
aVtranslateZ
p190
aaF40.465186794893107
aF-7.0967461629926483
aF-82.000057108489145
aa(lp191
S'ik_elbow_r_anim'
p192
a(lp193
VtranslateX
p194
aVtranslateY
p195
aVtranslateZ
p196
aaF28.887112441212171
aF0.18842379078230914
aF-67.558508981744907
aa(lp197
S'ik_wrist_l_anim'
p198
a(lp199
VtranslateX
p200
aVtranslateY
p201
aVtranslateZ
p202
aVrotateX
p203
aVrotateY
p204
aVrotateZ
p205
aVstretch
p206
aVsquash
p207
aVstretchBias
p208
aVside
p209
aVmid_bend
p210
aVmid_swivel
p211
aVtip_pivot
p212
aVtip_swivel
p213
aaF-67.305944995994423
aF-45.582592896802097
aF-81.158080330904824
aF4.3298888988253381
aF176.5725518443557
aF40.057260348950521
aF0
aF0
aF0
aF0
aF-10
aF0
aF0
aF0
aa(lp214
S'ik_wrist_r_anim'
p215
a(lp216
VtranslateX
p217
aVtranslateY
p218
aVtranslateZ
p219
aVrotateX
p220
aVrotateY
p221
aVrotateZ
p222
aVstretch
p223
aVsquash
p224
aVstretchBias
p225
aVside
p226
aVmid_bend
p227
aVmid_swivel
p228
aVtip_pivot
p229
aVtip_swivel
p230
aaF58.732371675764384
aF-13.651631455877943
aF-68.338887300244551
aF-88.378223079873806
aF1.2329357758708233
aF93.595272534979159
aF0
aF0
aF0
aF0
aF0
aF0
aF0
aF0
aa(lp231
S'fk_thigh_l_anim'
p232
a(lp233
VrotateX
p234
aVrotateY
p235
aVrotateZ
p236
aaF3.9608100251372411
aF-41.681481887509456
aF94.932535422685277
aa(lp237
S'fk_thigh_r_anim'
p238
a(lp239
VrotateX
p240
aVrotateY
p241
aVrotateZ
p242
aaF-45.546266620749869
aF-34.610385967089961
aF34.125341288680431
aa(lp243
S'fk_calf_l_anim'
p244
a(lp245
VrotateX
p246
aVrotateY
p247
aVrotateZ
p248
aaF11.785593056626174
aF-7.8337659012791994
aF-109.45367544012421
aa(lp249
S'fk_calf_r_anim'
p250
a(lp251
VrotateX
p252
aVrotateY
p253
aVrotateZ
p254
aaF-9.6348847489255753
aF7.6060208326666086
aF-142.93202066646052
aa(lp255
S'fk_foot_l_anim'
p256
a(lp257
VrotateX
p258
aVrotateY
p259
aVrotateZ
p260
aaF-25.04972185668445
aF13.124430684433035
aF-0.86481723088236773
aa(lp261
S'fk_foot_r_anim'
p262
a(lp263
VrotateX
p264
aVrotateY
p265
aVrotateZ
p266
aaF-16.344346645703482
aF10.992327127380349
aF12.919328007350483
aa(lp267
S'fk_ball_l_anim'
p268
a(lp269
VrotateX
p270
aVrotateY
p271
aVrotateZ
p272
aaF0.0019855489954352249
aF-0.002318834885916003
aF-0.014054783619932057
aa(lp273
S'fk_ball_r_anim'
p274
a(lp275
VrotateX
p276
aVrotateY
p277
aVrotateZ
p278
aaF0.063914984464645511
aF0.0035275309346415522
aF-0.42253622412682457
aa(lp279
S'ik_foot_anim_l'
p280
a(lp281
VtranslateX
p282
aVtranslateY
p283
aVtranslateZ
p284
aVrotateX
p285
aVrotateY
p286
aVrotateZ
p287
aVknee_twist
p288
aVstretch
p289
aVsquash
p290
aVtoeCtrlVis
p291
aVstretchBias
p292
aaF12.257607782785795
aF-34.873089169196099
aF0.94427929159938417
aF-0.24546217534651546
aF2.057770247103456
aF-26.451138658675909
aF-28.047050005754926
aF0
aF0
aI00
aF0
aa(lp293
S'ik_foot_anim_r'
p294
a(lp295
VtranslateX
p296
aVtranslateY
p297
aVtranslateZ
p298
aVrotateX
p299
aVrotateY
p300
aVrotateZ
p301
aVknee_twist
p302
aVstretch
p303
aVsquash
p304
aVtoeCtrlVis
p305
aVstretchBias
p306
aaF41.924300200876452
aF43.173558526893416
aF6.7998956067569498
aF94.882777919228388
aF25.297762734227579
aF-66.058070382367504
aF60.154567846053631
aF0
aF0
aI00
aF0
aa(lp307
S'heel_ctrl_l'
p308
a(lp309
VrotateX
p310
aVrotateY
p311
aVrotateZ
p312
aVheelPivot
p313
aVballPivot
p314
aaF0
aF0
aF0
aF0
aF0
aa(lp315
S'heel_ctrl_r'
p316
a(lp317
VrotateX
p318
aVrotateY
p319
aVrotateZ
p320
aVheelPivot
p321
aVballPivot
p322
aaF0
aF0
aF0
aF0
aF0
aa(lp323
S'toe_wiggle_ctrl_l'
p324
a(lp325
VrotateX
p326
aVrotateY
p327
aVrotateZ
p328
aaF0
aF0
aF0
aa(lp329
S'toe_wiggle_ctrl_r'
p330
a(lp331
VrotateX
p332
aVrotateY
p333
aVrotateZ
p334
aaF0
aF0
aF0
aa(lp335
S'toe_tip_ctrl_l'
p336
a(lp337
VrotateX
p338
aVrotateY
p339
aVrotateZ
p340
aaF0
aF0
aF0
aa(lp341
S'toe_tip_ctrl_r'
p342
a(lp343
VrotateX
p344
aVrotateY
p345
aVrotateZ
p346
aaF0
aF0
aF0
aa(lp347
S'master_anim'
p348
a(lp349
VtranslateX
p350
aVtranslateY
p351
aVtranslateZ
p352
aVrotateX
p353
aVrotateY
p354
aVrotateZ
p355
aaF0
aF0
aF0
aF0
aF0
aF0
aa(lp356
S'offset_anim'
p357
a(lp358
VtranslateX
p359
aVtranslateY
p360
aVtranslateZ
p361
aVrotateX
p362
aVrotateY
p363
aVrotateZ
p364
aaF0
aF0
aF0
aF0
aF0
aF0
aa(lp365
S'root_anim'
p366
a(lp367
VtranslateX
p368
aVtranslateY
p369
aVtranslateZ
p370
aVrotateX
p371
aVrotateY
p372
aVrotateZ
p373
aaF0
aF0
aF0
aF0
aF0
aF0
aa(lp374
S'upperarm_l_twist_anim'
p375
a(lp376
VtranslateX
p377
aVtranslateY
p378
aVtranslateZ
p379
aVrotateX
p380
aVrotateY
p381
aVrotateZ
p382
aVscaleX
p383
aVscaleY
p384
aVscaleZ
p385
aaF0
aF0
aF0
aF0
aF0
aF0
aF1
aF1
aF1
aa(lp386
S'upperarm_l_twist_2_anim'
p387
a(lp388
VtranslateX
p389
aVtranslateY
p390
aVtranslateZ
p391
aVrotateX
p392
aVrotateY
p393
aVrotateZ
p394
aVscaleX
p395
aVscaleY
p396
aVscaleZ
p397
aaF0
aF0
aF0
aF0
aF0
aF0
aF1
aF1
aF1
aa(lp398
S'upperarm_r_twist_anim'
p399
a(lp400
VtranslateX
p401
aVtranslateY
p402
aVtranslateZ
p403
aVrotateX
p404
aVrotateY
p405
aVrotateZ
p406
aVscaleX
p407
aVscaleY
p408
aVscaleZ
p409
aaF0
aF0
aF0
aF0
aF0
aF0
aF1
aF1
aF1
aa(lp410
S'upperarm_r_twist_2_anim'
p411
a(lp412
VtranslateX
p413
aVtranslateY
p414
aVtranslateZ
p415
aVrotateX
p416
aVrotateY
p417
aVrotateZ
p418
aVscaleX
p419
aVscaleY
p420
aVscaleZ
p421
aaF0
aF0
aF0
aF0
aF0
aF0
aF1
aF1
aF1
aa(lp422
S'lowerarm_l_twist_anim'
p423
a(lp424
VtranslateX
p425
aVtranslateY
p426
aVtranslateZ
p427
aVrotateX
p428
aVrotateY
p429
aVrotateZ
p430
aaF0
aF0
aF0
aF0
aF0
aF0
aa(lp431
S'lowerarm_r_twist_anim'
p432
a(lp433
VtranslateX
p434
aVtranslateY
p435
aVtranslateZ
p436
aVrotateX
p437
aVrotateY
p438
aVrotateZ
p439
aaF0
aF0
aF0
aF0
aF0
aF0
aa(lp440
S'l_thigh_twist_01_anim'
p441
a(lp442
VtranslateX
p443
aVtranslateY
p444
aVtranslateZ
p445
aVrotateX
p446
aVrotateY
p447
aVrotateZ
p448
aVscaleX
p449
aVscaleY
p450
aVscaleZ
p451
aaF0
aF0
aF0
aF0
aF0
aF0
aF1
aF1
aF1
aa(lp452
S'r_thigh_twist_01_anim'
p453
a(lp454
VtranslateX
p455
aVtranslateY
p456
aVtranslateZ
p457
aVrotateX
p458
aVrotateY
p459
aVrotateZ
p460
aVscaleX
p461
aVscaleY
p462
aVscaleZ
p463
aaF0
aF0
aF0
aF0
aF0
aF0
aF1
aF1
aF1
aa(lp464
S'pinky_finger_fk_ctrl_1_l'
p465
a(lp466
VtranslateX
p467
aVtranslateY
p468
aVtranslateZ
p469
aVrotateX
p470
aVrotateY
p471
aVrotateZ
p472
aVsticky
p473
aaF0.018985361485557108
aF0.55953758114327656
aF-0.012137379825408105
aF6.2024083076130454
aF5.7348778602160539
aF32.995071917172986
aF0
aa(lp474
S'pinky_finger_fk_ctrl_1_r'
p475
a(lp476
VtranslateX
p477
aVtranslateY
p478
aVtranslateZ
p479
aVrotateX
p480
aVrotateY
p481
aVrotateZ
p482
aVsticky
p483
aaF0
aF0
aF0
aF-12.038538141806205
aF-15.346504366670302
aF61.069667305842337
aF0
aa(lp484
S'pinky_finger_fk_ctrl_2_l'
p485
a(lp486
VtranslateX
p487
aVtranslateY
p488
aVtranslateZ
p489
aVrotateX
p490
aVrotateY
p491
aVrotateZ
p492
aaF0
aF0
aF0
aF-5.6963063379022918
aF4.5301915887940218
aF-11.536165649278512
aa(lp493
S'pinky_finger_fk_ctrl_2_r'
p494
a(lp495
VtranslateX
p496
aVtranslateY
p497
aVtranslateZ
p498
aVrotateX
p499
aVrotateY
p500
aVrotateZ
p501
aaF0
aF0
aF0
aF4.0926212310828545
aF-10.906328913024261
aF36.685285091803479
aa(lp502
S'pinky_finger_fk_ctrl_3_l'
p503
a(lp504
VtranslateX
p505
aVtranslateY
p506
aVtranslateZ
p507
aVrotateX
p508
aVrotateY
p509
aVrotateZ
p510
aaF0
aF0
aF0
aF-20.220908784121892
aF1.7723555516560197
aF9.6041508833168727
aa(lp511
S'pinky_finger_fk_ctrl_3_r'
p512
a(lp513
VtranslateX
p514
aVtranslateY
p515
aVtranslateZ
p516
aVrotateX
p517
aVrotateY
p518
aVrotateZ
p519
aaF0
aF0
aF0
aF4.0918183326721893
aF-10.422439575195225
aF70.588310241699247
aa(lp520
S'ring_finger_fk_ctrl_1_l'
p521
a(lp522
VtranslateX
p523
aVtranslateY
p524
aVtranslateZ
p525
aVrotateX
p526
aVrotateY
p527
aVrotateZ
p528
aVsticky
p529
aaF-0.008125374766838004
aF0.53894446334364976
aF-0.1518647710575276
aF-5.4369624353429007
aF7.5838684169415176
aF29.837291041539981
aF0
aa(lp530
S'ring_finger_fk_ctrl_1_r'
p531
a(lp532
VtranslateX
p533
aVtranslateY
p534
aVtranslateZ
p535
aVrotateX
p536
aVrotateY
p537
aVrotateZ
p538
aVsticky
p539
aaF0
aF0
aF0
aF-1.8761701565667934
aF-7.6147973500044221
aF58.806388483235409
aF0
aa(lp540
S'ring_finger_fk_ctrl_2_l'
p541
a(lp542
VtranslateX
p543
aVtranslateY
p544
aVtranslateZ
p545
aVrotateX
p546
aVrotateY
p547
aVrotateZ
p548
aaF0
aF0
aF0
aF-5.9267211980561729
aF-2.7585024234166222
aF7.0979856427888794
aa(lp549
S'ring_finger_fk_ctrl_2_r'
p550
a(lp551
VtranslateX
p552
aVtranslateY
p553
aVtranslateZ
p554
aVrotateX
p555
aVrotateY
p556
aVrotateZ
p557
aaF0
aF0
aF0
aF1.2678331474032734
aF0.84626236834742419
aF58.151792941968679
aa(lp558
S'ring_finger_fk_ctrl_3_l'
p559
a(lp560
VtranslateX
p561
aVtranslateY
p562
aVtranslateZ
p563
aVrotateX
p564
aVrotateY
p565
aVrotateZ
p566
aaF0
aF0
aF0
aF0
aF0
aF12.107872881706106
aa(lp567
S'ring_finger_fk_ctrl_3_r'
p568
a(lp569
VtranslateX
p570
aVtranslateY
p571
aVtranslateZ
p572
aVrotateX
p573
aVrotateY
p574
aVrotateZ
p575
aaF0
aF0
aF0
aF4.968184787457993
aF1.9827603811766783
aF51.810856189638592
aa(lp576
S'middle_finger_fk_ctrl_1_l'
p577
a(lp578
VtranslateX
p579
aVtranslateY
p580
aVtranslateZ
p581
aVrotateX
p582
aVrotateY
p583
aVrotateZ
p584
aVsticky
p585
aaF-0.045910316467175201
aF0.52433788910717216
aF-0.1911859986738435
aF-10.482350651733622
aF-0.44505271840447386
aF34.004600530899182
aF0
aa(lp586
S'middle_finger_fk_ctrl_1_r'
p587
a(lp588
VtranslateX
p589
aVtranslateY
p590
aVtranslateZ
p591
aVrotateX
p592
aVrotateY
p593
aVrotateZ
p594
aVsticky
p595
aaF0
aF0
aF0
aF-1.5576740895818002
aF-7.4905483338488921
aF71.028699933743113
aF0
aa(lp596
S'middle_finger_fk_ctrl_2_l'
p597
a(lp598
VtranslateX
p599
aVtranslateY
p600
aVtranslateZ
p601
aVrotateX
p602
aVrotateY
p603
aVrotateZ
p604
aaF0
aF0
aF0
aF18.085615312361973
aF7.7967094170347169
aF16.613872560353489
aa(lp605
S'middle_finger_fk_ctrl_2_r'
p606
a(lp607
VtranslateX
p608
aVtranslateY
p609
aVtranslateZ
p610
aVrotateX
p611
aVrotateY
p612
aVrotateZ
p613
aaF0
aF0
aF0
aF3.1205578674787864
aF-6.3745989768269933
aF87.62376132605101
aa(lp614
S'middle_finger_fk_ctrl_3_l'
p615
a(lp616
VtranslateX
p617
aVtranslateY
p618
aVtranslateZ
p619
aVrotateX
p620
aVrotateY
p621
aVrotateZ
p622
aaF0
aF0
aF0
aF-33.563446602437295
aF-1.3221794419416362
aF11.19909397510132
aa(lp623
S'middle_finger_fk_ctrl_3_r'
p624
a(lp625
VtranslateX
p626
aVtranslateY
p627
aVtranslateZ
p628
aVrotateX
p629
aVrotateY
p630
aVrotateZ
p631
aaF0
aF0
aF0
aF3.4957659244537989
aF-2.3556907176972635
aF56.616756439208757
aa(lp632
S'index_finger_fk_ctrl_1_l'
p633
a(lp634
VtranslateX
p635
aVtranslateY
p636
aVtranslateZ
p637
aVrotateX
p638
aVrotateY
p639
aVrotateZ
p640
aVsticky
p641
aaF0
aF0
aF0
aF-23.800407484292606
aF1.8081479414134385
aF14.702739011098611
aF0
aa(lp642
S'index_finger_fk_ctrl_1_r'
p643
a(lp644
VtranslateX
p645
aVtranslateY
p646
aVtranslateZ
p647
aVrotateX
p648
aVrotateY
p649
aVrotateZ
p650
aVsticky
p651
aaF0
aF0
aF0
aF-3.3387656585303285
aF-6.0928898066748376
aF28.807333381790563
aF0
aa(lp652
S'index_finger_fk_ctrl_2_l'
p653
a(lp654
VtranslateX
p655
aVtranslateY
p656
aVtranslateZ
p657
aVrotateX
p658
aVrotateY
p659
aVrotateZ
p660
aaF0
aF0
aF0
aF-14.315638405998182
aF-9.6918183195663552
aF13.214014116150075
aa(lp661
S'index_finger_fk_ctrl_2_r'
p662
a(lp663
VtranslateX
p664
aVtranslateY
p665
aVtranslateZ
p666
aVrotateX
p667
aVrotateY
p668
aVrotateZ
p669
aaF0
aF0
aF0
aF11.878195332921202
aF10.670392994601432
aF79.264915156386706
aa(lp670
S'index_finger_fk_ctrl_3_l'
p671
a(lp672
VtranslateX
p673
aVtranslateY
p674
aVtranslateZ
p675
aVrotateX
p676
aVrotateY
p677
aVrotateZ
p678
aaF0
aF0
aF0
aF0
aF0
aF17.201391376567692
aa(lp679
S'index_finger_fk_ctrl_3_r'
p680
a(lp681
VtranslateX
p682
aVtranslateY
p683
aVtranslateZ
p684
aVrotateX
p685
aVrotateY
p686
aVrotateZ
p687
aaF0
aF0
aF0
aF3.8930346235005775
aF12.801635750962941
aF55.805820462985508
aa(lp688
S'thumb_finger_fk_ctrl_1_l'
p689
a(lp690
VtranslateX
p691
aVtranslateY
p692
aVtranslateZ
p693
aVrotateX
p694
aVrotateY
p695
aVrotateZ
p696
aVsticky
p697
aaF0
aF0
aF0
aF12.312200033907862
aF22.228849693129678
aF-30.010971221510541
aF0
aa(lp698
S'thumb_finger_fk_ctrl_1_r'
p699
a(lp700
VtranslateX
p701
aVtranslateY
p702
aVtranslateZ
p703
aVrotateX
p704
aVrotateY
p705
aVrotateZ
p706
aVsticky
p707
aaF0
aF0
aF0
aF13.842250255417815
aF26.503600791604462
aF43.077077501753934
aF0
aa(lp708
S'thumb_finger_fk_ctrl_2_l'
p709
a(lp710
VtranslateX
p711
aVtranslateY
p712
aVtranslateZ
p713
aVrotateX
p714
aVrotateY
p715
aVrotateZ
p716
aaF0
aF0
aF0
aF0
aF0
aF0
aa(lp717
S'thumb_finger_fk_ctrl_2_r'
p718
a(lp719
VtranslateX
p720
aVtranslateY
p721
aVtranslateZ
p722
aVrotateX
p723
aVrotateY
p724
aVrotateZ
p725
aaF0
aF0
aF0
aF-1.7716493101714732
aF4.5295816409483569
aF-4.4364118677265791
aa(lp726
S'thumb_finger_fk_ctrl_3_l'
p727
a(lp728
VtranslateX
p729
aVtranslateY
p730
aVtranslateZ
p731
aVrotateX
p732
aVrotateY
p733
aVrotateZ
p734
aaF0
aF0
aF0
aF-7.3924909368947223
aF-0.2719821338023316
aF19.07744759183068
aa(lp735
S'thumb_finger_fk_ctrl_3_r'
p736
a(lp737
VtranslateX
p738
aVtranslateY
p739
aVtranslateZ
p740
aVrotateX
p741
aVrotateY
p742
aVrotateZ
p743
aaF0
aF0
aF0
aF9.6091172278943253e-06
aF0
aF55.176322325550075
aa(lp744
S'index_l_ik_anim'
p745
a(lp746
VtranslateX
p747
aVtranslateY
p748
aVtranslateZ
p749
aVrotateX
p750
aVrotateY
p751
aVrotateZ
p752
aVpoleVectorVis
p753
aaF0
aF0
aF0
aF0
aF0
aF0
aF0
aa(lp754
S'index_r_ik_anim'
p755
a(lp756
VtranslateX
p757
aVtranslateY
p758
aVtranslateZ
p759
aVrotateX
p760
aVrotateY
p761
aVrotateZ
p762
aVpoleVectorVis
p763
aaF0
aF0
aF0
aF0
aF0
aF0
aF0
aa(lp764
S'middle_l_ik_anim'
p765
a(lp766
VtranslateX
p767
aVtranslateY
p768
aVtranslateZ
p769
aVrotateX
p770
aVrotateY
p771
aVrotateZ
p772
aVpoleVectorVis
p773
aaF0
aF0
aF0
aF0
aF0
aF0
aF0
aa(lp774
S'middle_r_ik_anim'
p775
a(lp776
VtranslateX
p777
aVtranslateY
p778
aVtranslateZ
p779
aVrotateX
p780
aVrotateY
p781
aVrotateZ
p782
aVpoleVectorVis
p783
aaF0
aF0
aF0
aF0
aF0
aF0
aF0
aa(lp784
S'ring_l_ik_anim'
p785
a(lp786
VtranslateX
p787
aVtranslateY
p788
aVtranslateZ
p789
aVrotateX
p790
aVrotateY
p791
aVrotateZ
p792
aVpoleVectorVis
p793
aaF0
aF0
aF0
aF0
aF0
aF0
aF0
aa(lp794
S'ring_r_ik_anim'
p795
a(lp796
VtranslateX
p797
aVtranslateY
p798
aVtranslateZ
p799
aVrotateX
p800
aVrotateY
p801
aVrotateZ
p802
aVpoleVectorVis
p803
aaF0
aF0
aF0
aF0
aF0
aF0
aF0
aa(lp804
S'pinky_l_ik_anim'
p805
a(lp806
VtranslateX
p807
aVtranslateY
p808
aVtranslateZ
p809
aVrotateX
p810
aVrotateY
p811
aVrotateZ
p812
aVpoleVectorVis
p813
aaF0
aF0
aF0
aF0
aF0
aF0
aF0
aa(lp814
S'pinky_r_ik_anim'
p815
a(lp816
VtranslateX
p817
aVtranslateY
p818
aVtranslateZ
p819
aVrotateX
p820
aVrotateY
p821
aVrotateZ
p822
aVpoleVectorVis
p823
aaF0
aF0
aF0
aF0
aF0
aF0
aF0
aa(lp824
S'thumb_l_ik_anim'
p825
a(lp826
VtranslateX
p827
aVtranslateY
p828
aVtranslateZ
p829
aVrotateX
p830
aVrotateY
p831
aVrotateZ
p832
aVpoleVectorVis
p833
aaF0
aF0
aF0
aF0
aF0
aF0
aF0
aa(lp834
S'thumb_r_ik_anim'
p835
a(lp836
VtranslateX
p837
aVtranslateY
p838
aVtranslateZ
p839
aVrotateX
p840
aVrotateY
p841
aVrotateZ
p842
aVpoleVectorVis
p843
aaF0
aF0
aF0
aF0
aF0
aF0
aF0
aa(lp844
S'index_l_poleVector'
p845
a(lp846
VtranslateX
p847
aVtranslateY
p848
aVtranslateZ
p849
aVrotateX
p850
aVrotateY
p851
aVrotateZ
p852
aaF0
aF0
aF0
aF0
aF0
aF0
aa(lp853
S'index_r_poleVector'
p854
a(lp855
VtranslateX
p856
aVtranslateY
p857
aVtranslateZ
p858
aVrotateX
p859
aVrotateY
p860
aVrotateZ
p861
aaF0
aF0
aF0
aF0
aF0
aF0
aa(lp862
S'middle_l_poleVector'
p863
a(lp864
VtranslateX
p865
aVtranslateY
p866
aVtranslateZ
p867
aVrotateX
p868
aVrotateY
p869
aVrotateZ
p870
aaF0
aF0
aF0
aF0
aF0
aF0
aa(lp871
S'middle_r_poleVector'
p872
a(lp873
VtranslateX
p874
aVtranslateY
p875
aVtranslateZ
p876
aVrotateX
p877
aVrotateY
p878
aVrotateZ
p879
aaF0
aF0
aF0
aF0
aF0
aF0
aa(lp880
S'ring_l_poleVector'
p881
a(lp882
VtranslateX
p883
aVtranslateY
p884
aVtranslateZ
p885
aVrotateX
p886
aVrotateY
p887
aVrotateZ
p888
aaF0
aF0
aF0
aF0
aF0
aF0
aa(lp889
S'ring_r_poleVector'
p890
a(lp891
VtranslateX
p892
aVtranslateY
p893
aVtranslateZ
p894
aVrotateX
p895
aVrotateY
p896
aVrotateZ
p897
aaF0
aF0
aF0
aF0
aF0
aF0
aa(lp898
S'pinky_l_poleVector'
p899
a(lp900
VtranslateX
p901
aVtranslateY
p902
aVtranslateZ
p903
aVrotateX
p904
aVrotateY
p905
aVrotateZ
p906
aaF0
aF0
aF0
aF0
aF0
aF0
aa(lp907
S'pinky_r_poleVector'
p908
a(lp909
VtranslateX
p910
aVtranslateY
p911
aVtranslateZ
p912
aVrotateX
p913
aVrotateY
p914
aVrotateZ
p915
aaF0
aF0
aF0
aF0
aF0
aF0
aa(lp916
S'thumb_l_poleVector'
p917
a(lp918
VtranslateX
p919
aVtranslateY
p920
aVtranslateZ
p921
aVrotateX
p922
aVrotateY
p923
aVrotateZ
p924
aaF0
aF0
aF0
aF0
aF0
aF0
aa(lp925
S'thumb_r_poleVector'
p926
a(lp927
VtranslateX
p928
aVtranslateY
p929
aVtranslateZ
p930
aVrotateX
p931
aVrotateY
p932
aVrotateZ
p933
aaF0
aF0
aF0
aF0
aF0
aF0
aa(lp934
S'l_global_ik_anim'
p935
a(lp936
VtranslateX
p937
aVtranslateY
p938
aVtranslateZ
p939
aVrotateX
p940
aVrotateY
p941
aVrotateZ
p942
aaF0
aF0
aF0
aF0
aF0
aF0
aa(lp943
S'r_global_ik_anim'
p944
a(lp945
VtranslateX
p946
aVtranslateY
p947
aVtranslateZ
p948
aVrotateX
p949
aVrotateY
p950
aVrotateZ
p951
aaF0
aF0
aF0
aF0
aF0
aF0
aa(lp952
S'Rig_Settings'
p953
a(lp954
Vspine_ik
p955
aVspine_fk
p956
aVlLegMode
p957
aVlThighTwistAmount
p958
aVlThighTwist2Amount
p959
aVllegTwistCtrlVis
p960
aVlCalfTwistAmount
p961
aVrLegMode
p962
aVrThighTwistAmount
p963
aVrThighTwist2Amount
p964
aVrlegTwistCtrlVis
p965
aVrCalfTwistAmount
p966
aVlFkArmOrient
p967
aVlArmMode
p968
aVlClavMode
p969
aVlUpperarmTwistAmount
p970
aVlUpperarmTwist2Amount
p971
aVltwistCtrlVis
p972
aVltwistCtrlVisLower
p973
aVlForearmTwistAmount
p974
aVrFkArmOrient
p975
aVrArmMode
p976
aVrClavMode
p977
aVrUpperarmTwistAmount
p978
aVrUpperarmTwist2Amount
p979
aVrtwistCtrlVis
p980
aVrtwistCtrlVisLower
p981
aVrForearmTwistAmount
p982
aaF1
aF0
aI1
aF1
aF0.59999999999999998
aI00
aF0.5
aI1
aF1
aF0.59999999999999998
aI00
aF0.5
aI0
aI1
aI1
aF0.90000000000000002
aF0.59999999999999998
aI00
aI00
aF0.5
aI0
aI1
aI1
aF0.90000000000000002
aF0.59999999999999998
aI00
aI00
aF0.5
aa(lp983
S'calf_l_twist_anim'
p984
a(lp985
VtranslateX
p986
aVtranslateY
p987
aVtranslateZ
p988
aVrotateX
p989
aVrotateY
p990
aVrotateZ
p991
aaF0
aF0
aF0
aF0
aF0
aF0
aa(lp992
S'calf_r_twist_anim'
p993
a(lp994
VtranslateX
p995
aVtranslateY
p996
aVtranslateZ
p997
aVrotateX
p998
aVrotateY
p999
aVrotateZ
p1000
aaF0
aF0
aF0
aF0
aF0
aF0
aa(lp1001
Vankle_plate_in_l_anim
p1002
a(lp1003
VtranslateX
p1004
aVtranslateY
p1005
aVtranslateZ
p1006
aVrotateX
p1007
aVrotateY
p1008
aVrotateZ
p1009
aVscaleX
p1010
aVscaleY
p1011
aVscaleZ
p1012
aaF0
aF0
aF0
aF0
aF0
aF0
aF1
aF1
aF1
aa(lp1013
Vankle_plate_in_r_anim
p1014
a(lp1015
VtranslateX
p1016
aVtranslateY
p1017
aVtranslateZ
p1018
aVrotateX
p1019
aVrotateY
p1020
aVrotateZ
p1021
aVscaleX
p1022
aVscaleY
p1023
aVscaleZ
p1024
aaF0
aF0
aF0
aF0
aF0
aF0
aF1
aF1
aF1
aa(lp1025
Vankle_plate_out_l_anim
p1026
a(lp1027
VtranslateX
p1028
aVtranslateY
p1029
aVtranslateZ
p1030
aVrotateX
p1031
aVrotateY
p1032
aVrotateZ
p1033
aVscaleX
p1034
aVscaleY
p1035
aVscaleZ
p1036
aaF0
aF0
aF0
aF0
aF0
aF0
aF1
aF1
aF1
aa(lp1037
Vankle_plate_out_r_anim
p1038
a(lp1039
VtranslateX
p1040
aVtranslateY
p1041
aVtranslateZ
p1042
aVrotateX
p1043
aVrotateY
p1044
aVrotateZ
p1045
aVscaleX
p1046
aVscaleY
p1047
aVscaleZ
p1048
aaF0
aF0
aF0
aF0
aF0
aF0
aF1
aF1
aF1
aa(lp1049
Varm_hose_bott_anim
p1050
a(lp1051
VtranslateX
p1052
aVtranslateY
p1053
aVtranslateZ
p1054
aVrotateX
p1055
aVrotateY
p1056
aVrotateZ
p1057
aVscaleX
p1058
aVscaleY
p1059
aVscaleZ
p1060
aaF0
aF0
aF0
aF0
aF0
aF0
aF1
aF1
aF1
aa(lp1061
Varm_hose_top_anim
p1062
a(lp1063
VtranslateX
p1064
aVtranslateY
p1065
aVtranslateZ
p1066
aVrotateX
p1067
aVrotateY
p1068
aVrotateZ
p1069
aVscaleX
p1070
aVscaleY
p1071
aVscaleZ
p1072
aaF0
aF0
aF0
aF0
aF0
aF0
aF1
aF1
aF1
aa(lp1073
Varm_pouch_l_anim
p1074
a(lp1075
VtranslateX
p1076
aVtranslateY
p1077
aVtranslateZ
p1078
aVrotateX
p1079
aVrotateY
p1080
aVrotateZ
p1081
aVscaleX
p1082
aVscaleY
p1083
aVscaleZ
p1084
aaF0
aF0
aF0
aF0
aF0
aF0
aF1
aF1
aF1
aa(lp1085
Vbot_hand_anim
p1086
a(lp1087
VtranslateX
p1088
aVtranslateY
p1089
aVtranslateZ
p1090
aVrotateX
p1091
aVrotateY
p1092
aVrotateZ
p1093
aVscaleX
p1094
aVscaleY
p1095
aVscaleZ
p1096
aaF0
aF0
aF0
aF0
aF0
aF0
aF1
aF1
aF1
aa(lp1097
Vbot_loarm_anim
p1098
a(lp1099
VtranslateX
p1100
aVtranslateY
p1101
aVtranslateZ
p1102
aVrotateX
p1103
aVrotateY
p1104
aVrotateZ
p1105
aVscaleX
p1106
aVscaleY
p1107
aVscaleZ
p1108
aaF0
aF0
aF0
aF0
aF0
aF0
aF1
aF1
aF1
aa(lp1109
Vbot_loarm_pistonB_bot_anim
p1110
a(lp1111
VtranslateX
p1112
aVtranslateY
p1113
aVtranslateZ
p1114
aVrotateX
p1115
aVrotateY
p1116
aVrotateZ
p1117
aVscaleX
p1118
aVscaleY
p1119
aVscaleZ
p1120
aaF0
aF0
aF0
aF0
aF0
aF0
aF1
aF1
aF1
aa(lp1121
Vbot_loarm_pistonB_top_anim
p1122
a(lp1123
VtranslateX
p1124
aVtranslateY
p1125
aVtranslateZ
p1126
aVrotateX
p1127
aVrotateY
p1128
aVrotateZ
p1129
aVscaleX
p1130
aVscaleY
p1131
aVscaleZ
p1132
aaF0
aF0
aF0
aF0
aF0
aF0
aF1
aF1
aF1
aa(lp1133
Vbot_loarm_pistonC_bot_anim
p1134
a(lp1135
VtranslateX
p1136
aVtranslateY
p1137
aVtranslateZ
p1138
aVrotateX
p1139
aVrotateY
p1140
aVrotateZ
p1141
aVscaleX
p1142
aVscaleY
p1143
aVscaleZ
p1144
aaF0
aF0
aF0
aF0
aF0
aF0
aF1
aF1
aF1
aa(lp1145
Vbot_loarm_pistonC_top_anim
p1146
a(lp1147
VtranslateX
p1148
aVtranslateY
p1149
aVtranslateZ
p1150
aVrotateX
p1151
aVrotateY
p1152
aVrotateZ
p1153
aVscaleX
p1154
aVscaleY
p1155
aVscaleZ
p1156
aaF0
aF0
aF0
aF0
aF0
aF0
aF1
aF1
aF1
aa(lp1157
Vbot_loarm_pistonD_bot_anim
p1158
a(lp1159
VtranslateX
p1160
aVtranslateY
p1161
aVtranslateZ
p1162
aVrotateX
p1163
aVrotateY
p1164
aVrotateZ
p1165
aVscaleX
p1166
aVscaleY
p1167
aVscaleZ
p1168
aaF0
aF0
aF0
aF0
aF0
aF0
aF1
aF1
aF1
aa(lp1169
Vbot_loarm_pistonD_top_anim
p1170
a(lp1171
VtranslateX
p1172
aVtranslateY
p1173
aVtranslateZ
p1174
aVrotateX
p1175
aVrotateY
p1176
aVrotateZ
p1177
aVscaleX
p1178
aVscaleY
p1179
aVscaleZ
p1180
aaF0
aF0
aF0
aF0
aF0
aF0
aF1
aF1
aF1
aa(lp1181
Vbot_loarm_twist_anim
p1182
a(lp1183
VtranslateX
p1184
aVtranslateY
p1185
aVtranslateZ
p1186
aVrotateX
p1187
aVrotateY
p1188
aVrotateZ
p1189
aVscaleX
p1190
aVscaleY
p1191
aVscaleZ
p1192
aaF0
aF0
aF0
aF0
aF0
aF0
aF1
aF1
aF1
aa(lp1193
Vbot_uparm_anim
p1194
a(lp1195
VtranslateX
p1196
aVtranslateY
p1197
aVtranslateZ
p1198
aVrotateX
p1199
aVrotateY
p1200
aVrotateZ
p1201
aVscaleX
p1202
aVscaleY
p1203
aVscaleZ
p1204
aaF0
aF0
aF0
aF0
aF0
aF0
aF1
aF1
aF1
aa(lp1205
Vbot_uparm_pistonC_bot_anim
p1206
a(lp1207
VtranslateX
p1208
aVtranslateY
p1209
aVtranslateZ
p1210
aVrotateX
p1211
aVrotateY
p1212
aVrotateZ
p1213
aVscaleX
p1214
aVscaleY
p1215
aVscaleZ
p1216
aaF0
aF0
aF0
aF0
aF0
aF0
aF1
aF1
aF1
aa(lp1217
Vbot_uparm_pistonC_top_anim
p1218
a(lp1219
VtranslateX
p1220
aVtranslateY
p1221
aVtranslateZ
p1222
aVrotateX
p1223
aVrotateY
p1224
aVrotateZ
p1225
aVscaleX
p1226
aVscaleY
p1227
aVscaleZ
p1228
aaF0
aF0
aF0
aF0
aF0
aF0
aF1
aF1
aF1
aa(lp1229
Veyeball_l_anim
p1230
a(lp1231
VtranslateX
p1232
aVtranslateY
p1233
aVtranslateZ
p1234
aVrotateX
p1235
aVrotateY
p1236
aVrotateZ
p1237
aVscaleX
p1238
aVscaleY
p1239
aVscaleZ
p1240
aaF0
aF0
aF0
aF0
aF0
aF0
aF1
aF1
aF1
aa(lp1241
Veyeball_r_anim
p1242
a(lp1243
VtranslateX
p1244
aVtranslateY
p1245
aVtranslateZ
p1246
aVrotateX
p1247
aVrotateY
p1248
aVrotateZ
p1249
aVscaleX
p1250
aVscaleY
p1251
aVscaleZ
p1252
aaF0
aF0
aF0
aF0
aF0
aF0
aF1
aF1
aF1
aa(lp1253
Veyebrow_in_l_anim
p1254
a(lp1255
VtranslateX
p1256
aVtranslateY
p1257
aVtranslateZ
p1258
aVrotateX
p1259
aVrotateY
p1260
aVrotateZ
p1261
aVscaleX
p1262
aVscaleY
p1263
aVscaleZ
p1264
aaF0
aF0
aF0
aF0
aF0
aF0
aF1
aF1
aF1
aa(lp1265
Veyebrow_in_r_anim
p1266
a(lp1267
VtranslateX
p1268
aVtranslateY
p1269
aVtranslateZ
p1270
aVrotateX
p1271
aVrotateY
p1272
aVrotateZ
p1273
aVscaleX
p1274
aVscaleY
p1275
aVscaleZ
p1276
aaF0
aF0
aF0
aF0
aF0
aF0
aF1
aF1
aF1
aa(lp1277
Veyebrow_out_l_anim
p1278
a(lp1279
VtranslateX
p1280
aVtranslateY
p1281
aVtranslateZ
p1282
aVrotateX
p1283
aVrotateY
p1284
aVrotateZ
p1285
aVscaleX
p1286
aVscaleY
p1287
aVscaleZ
p1288
aaF0
aF0
aF0
aF0
aF0
aF0
aF1
aF1
aF1
aa(lp1289
Veyebrow_out_r_anim
p1290
a(lp1291
VtranslateX
p1292
aVtranslateY
p1293
aVtranslateZ
p1294
aVrotateX
p1295
aVrotateY
p1296
aVrotateZ
p1297
aVscaleX
p1298
aVscaleY
p1299
aVscaleZ
p1300
aaF0
aF0
aF0
aF0
aF0
aF0
aF1
aF1
aF1
aa(lp1301
Veyelid_bott_l_anim
p1302
a(lp1303
VtranslateX
p1304
aVtranslateY
p1305
aVtranslateZ
p1306
aVrotateX
p1307
aVrotateY
p1308
aVrotateZ
p1309
aVscaleX
p1310
aVscaleY
p1311
aVscaleZ
p1312
aaF0
aF0
aF0
aF0
aF0
aF0
aF1
aF1
aF1
aa(lp1313
Veyelid_bott_r_anim
p1314
a(lp1315
VtranslateX
p1316
aVtranslateY
p1317
aVtranslateZ
p1318
aVrotateX
p1319
aVrotateY
p1320
aVrotateZ
p1321
aVscaleX
p1322
aVscaleY
p1323
aVscaleZ
p1324
aaF0
aF0
aF0
aF0
aF0
aF0
aF1
aF1
aF1
aa(lp1325
Veyelid_top_l_anim
p1326
a(lp1327
VtranslateX
p1328
aVtranslateY
p1329
aVtranslateZ
p1330
aVrotateX
p1331
aVrotateY
p1332
aVrotateZ
p1333
aVscaleX
p1334
aVscaleY
p1335
aVscaleZ
p1336
aaF0
aF0
aF0
aF0
aF0
aF0
aF1
aF1
aF1
aa(lp1337
Veyelid_top_r_anim
p1338
a(lp1339
VtranslateX
p1340
aVtranslateY
p1341
aVtranslateZ
p1342
aVrotateX
p1343
aVrotateY
p1344
aVrotateZ
p1345
aVscaleX
p1346
aVscaleY
p1347
aVscaleZ
p1348
aaF0
aF0
aF0
aF0
aF0
aF0
aF1
aF1
aF1
aa(lp1349
Vgun_anim
p1350
a(lp1351
VtranslateX
p1352
aVtranslateY
p1353
aVtranslateZ
p1354
aVrotateX
p1355
aVrotateY
p1356
aVrotateZ
p1357
aVscaleX
p1358
aVscaleY
p1359
aVscaleZ
p1360
aaF0
aF0
aF0
aF0
aF0
aF0
aF1
aF1
aF1
aa(lp1361
Vgun_barrel_anim
p1362
a(lp1363
VtranslateX
p1364
aVtranslateY
p1365
aVtranslateZ
p1366
aVrotateX
p1367
aVrotateY
p1368
aVrotateZ
p1369
aVscaleX
p1370
aVscaleY
p1371
aVscaleZ
p1372
aaF8.8817841970013056e-16
aF-4.2632564145606289e-14
aF-11.733166555046214
aF0
aF0
aF0
aF1
aF1
aF1
aa(lp1373
Vgun_barrel_inner_anim
p1374
a(lp1375
VtranslateX
p1376
aVtranslateY
p1377
aVtranslateZ
p1378
aVrotateX
p1379
aVrotateY
p1380
aVrotateZ
p1381
aVscaleX
p1382
aVscaleY
p1383
aVscaleZ
p1384
aaF0
aF0
aF0.20834489219198904
aF0
aF0
aF0
aF1
aF1
aF1.2
aa(lp1385
Vgun_body_panel_l_anim
p1386
a(lp1387
VtranslateX
p1388
aVtranslateY
p1389
aVtranslateZ
p1390
aVrotateX
p1391
aVrotateY
p1392
aVrotateZ
p1393
aVscaleX
p1394
aVscaleY
p1395
aVscaleZ
p1396
aaF0
aF0
aF0
aF0
aF0
aF0
aF1
aF1
aF1
aa(lp1397
Vgun_body_panel_r_anim
p1398
a(lp1399
VtranslateX
p1400
aVtranslateY
p1401
aVtranslateZ
p1402
aVrotateX
p1403
aVrotateY
p1404
aVrotateZ
p1405
aVscaleX
p1406
aVscaleY
p1407
aVscaleZ
p1408
aaF0
aF0
aF0
aF0
aF0
aF0
aF1
aF1
aF1
aa(lp1409
Vgun_scope_anim
p1410
a(lp1411
VtranslateX
p1412
aVtranslateY
p1413
aVtranslateZ
p1414
aVrotateX
p1415
aVrotateY
p1416
aVrotateZ
p1417
aVscaleX
p1418
aVscaleY
p1419
aVscaleZ
p1420
aaF0
aF3.8614966637333867
aF1.9892208065457133
aF0
aF0
aF0
aF1
aF1
aF1
aa(lp1421
Vgun_stock_base_anim
p1422
a(lp1423
VtranslateX
p1424
aVtranslateY
p1425
aVtranslateZ
p1426
aVrotateX
p1427
aVrotateY
p1428
aVrotateZ
p1429
aVscaleX
p1430
aVscaleY
p1431
aVscaleZ
p1432
aaF0
aF0
aF0
aF0
aF0
aF0
aF1
aF1
aF1
aa(lp1433
Vgun_stock_base_in_bott_anim
p1434
a(lp1435
VtranslateX
p1436
aVtranslateY
p1437
aVtranslateZ
p1438
aVrotateX
p1439
aVrotateY
p1440
aVrotateZ
p1441
aVscaleX
p1442
aVscaleY
p1443
aVscaleZ
p1444
aaF0
aF-1.8403271988837049
aF4.8196681978104428
aF0
aF0
aF0
aF1
aF1
aF1
aa(lp1445
Vgun_stock_base_in_top_anim
p1446
a(lp1447
VtranslateX
p1448
aVtranslateY
p1449
aVtranslateZ
p1450
aVrotateX
p1451
aVrotateY
p1452
aVrotateZ
p1453
aVscaleX
p1454
aVscaleY
p1455
aVscaleZ
p1456
aaF1.3322676295501884e-15
aF-4.2632564145606024e-14
aF0
aF0
aF0
aF0
aF1
aF1
aF1
aa(lp1457
Vgun_stock_base_out_bott_anim
p1458
a(lp1459
VtranslateX
p1460
aVtranslateY
p1461
aVtranslateZ
p1462
aVrotateX
p1463
aVrotateY
p1464
aVrotateZ
p1465
aVscaleX
p1466
aVscaleY
p1467
aVscaleZ
p1468
aaF-1.3322676295501875e-15
aF1.7946718916772553
aF-20.551993518771557
aF0
aF0
aF0
aF1
aF1
aF1
aa(lp1469
Vgun_stock_base_out_top_anim
p1470
a(lp1471
VtranslateX
p1472
aVtranslateY
p1473
aVtranslateZ
p1474
aVrotateX
p1475
aVrotateY
p1476
aVrotateZ
p1477
aVscaleX
p1478
aVscaleY
p1479
aVscaleZ
p1480
aaF-8.8817841970013647e-16
aF0.59336312149619586
aF-11.049148285866693
aF0
aF0
aF0
aF1
aF1
aF1
aa(lp1481
Vgun_stock_bott_anim
p1482
a(lp1483
VtranslateX
p1484
aVtranslateY
p1485
aVtranslateZ
p1486
aVrotateX
p1487
aVrotateY
p1488
aVrotateZ
p1489
aVscaleX
p1490
aVscaleY
p1491
aVscaleZ
p1492
aaF-2.6645352591003761e-15
aF-2.4680687703261697
aF-3.9559428696088039
aF0
aF0
aF0
aF1
aF1
aF1
aa(lp1493
Vgun_stock_in_bott_anim
p1494
a(lp1495
VtranslateX
p1496
aVtranslateY
p1497
aVtranslateZ
p1498
aVrotateX
p1499
aVrotateY
p1500
aVrotateZ
p1501
aVscaleX
p1502
aVscaleY
p1503
aVscaleZ
p1504
aaF0
aF0
aF0.18674027541677152
aF0
aF0
aF0
aF1
aF1
aF1
aa(lp1505
Vgun_stock_in_top_anim
p1506
a(lp1507
VtranslateX
p1508
aVtranslateY
p1509
aVtranslateZ
p1510
aVrotateX
p1511
aVrotateY
p1512
aVrotateZ
p1513
aVscaleX
p1514
aVscaleY
p1515
aVscaleZ
p1516
aaF-3.5498740734945531e-30
aF-0.4881660300523003
aF0.58417683308986756
aF0
aF0
aF0
aF1
aF1
aF1
aa(lp1517
Vgun_stock_panel_l_anim
p1518
a(lp1519
VtranslateX
p1520
aVtranslateY
p1521
aVtranslateZ
p1522
aVrotateX
p1523
aVrotateY
p1524
aVrotateZ
p1525
aVscaleX
p1526
aVscaleY
p1527
aVscaleZ
p1528
aaF0
aF1.9223251723865333
aF1.5493042163351061
aF0
aF0
aF0
aF1
aF1
aF1
aa(lp1529
Vgun_stock_panel_r_anim
p1530
a(lp1531
VtranslateX
p1532
aVtranslateY
p1533
aVtranslateZ
p1534
aVrotateX
p1535
aVrotateY
p1536
aVrotateZ
p1537
aVscaleX
p1538
aVscaleY
p1539
aVscaleZ
p1540
aaF0
aF-1.8805941418070735
aF-1.5685670200314261
aF0
aF0
aF0
aF1
aF1
aF1
aa(lp1541
Vheel_plate_l_anim
p1542
a(lp1543
VtranslateX
p1544
aVtranslateY
p1545
aVtranslateZ
p1546
aVrotateX
p1547
aVrotateY
p1548
aVrotateZ
p1549
aVscaleX
p1550
aVscaleY
p1551
aVscaleZ
p1552
aaF0
aF0
aF0
aF0
aF0
aF0
aF1
aF1
aF1
aa(lp1553
Vheel_plate_r_anim
p1554
a(lp1555
VtranslateX
p1556
aVtranslateY
p1557
aVtranslateZ
p1558
aVrotateX
p1559
aVrotateY
p1560
aVrotateZ
p1561
aVscaleX
p1562
aVscaleY
p1563
aVscaleZ
p1564
aaF0
aF0
aF0
aF0
aF0
aF0
aF1
aF1
aF1
aa(lp1565
Vhelmet_sight_anim
p1566
a(lp1567
VtranslateX
p1568
aVtranslateY
p1569
aVtranslateZ
p1570
aVrotateX
p1571
aVrotateY
p1572
aVrotateZ
p1573
aVscaleX
p1574
aVscaleY
p1575
aVscaleZ
p1576
aaF0
aF0
aF0
aF0
aF0
aF0
aF1
aF1
aF1
aa(lp1577
Vhip_pack_a_anim
p1578
a(lp1579
VtranslateX
p1580
aVtranslateY
p1581
aVtranslateZ
p1582
aVrotateX
p1583
aVrotateY
p1584
aVrotateZ
p1585
aVchainAttach
p1586
aVchainStartEnvelope
p1587
aVchainStartFrame
p1588
aVchainStiffness
p1589
aVchainDamping
p1590
aVchainGravity
p1591
aVchainIteration
p1592
aVchainCollide
p1593
aVchainWidthBase
p1594
aVchainWidthExtremity
p1595
aVchainCollideGround
p1596
aVchainCollideGroundHeight
p1597
aaF0
aF0
aF0
aF0
aF0
aF0
aI1
aF0
aF1
aF0.10000000000000001
aF0.20000000000000001
aF1
aI1
aI00
aF1
aF1
aI00
aF0
aa(lp1598
Vhip_pack_b_anim
p1599
a(lp1600
VtranslateX
p1601
aVtranslateY
p1602
aVtranslateZ
p1603
aVrotateX
p1604
aVrotateY
p1605
aVrotateZ
p1606
aVchainAttach
p1607
aVchainStartEnvelope
p1608
aVchainStartFrame
p1609
aVchainStiffness
p1610
aVchainDamping
p1611
aVchainGravity
p1612
aVchainIteration
p1613
aVchainCollide
p1614
aVchainWidthBase
p1615
aVchainWidthExtremity
p1616
aVchainCollideGround
p1617
aVchainCollideGroundHeight
p1618
aaF0
aF0
aF0
aF0
aF0
aF0
aI1
aF0
aF1
aF0.10000000000000001
aF0.20000000000000001
aF1
aI1
aI00
aF1
aF1
aI00
aF0
aa(lp1619
Vhip_pack_c_anim
p1620
a(lp1621
VtranslateX
p1622
aVtranslateY
p1623
aVtranslateZ
p1624
aVrotateX
p1625
aVrotateY
p1626
aVrotateZ
p1627
aVchainAttach
p1628
aVchainStartEnvelope
p1629
aVchainStartFrame
p1630
aVchainStiffness
p1631
aVchainDamping
p1632
aVchainGravity
p1633
aVchainIteration
p1634
aVchainCollide
p1635
aVchainWidthBase
p1636
aVchainWidthExtremity
p1637
aVchainCollideGround
p1638
aVchainCollideGroundHeight
p1639
aaF0
aF0
aF0
aF0
aF0
aF0
aI1
aF0
aF1
aF0.10000000000000001
aF0.20000000000000001
aF1
aI1
aI00
aF1
aF1
aI00
aF0
aa(lp1640
Vhip_pack_d_anim
p1641
a(lp1642
VtranslateX
p1643
aVtranslateY
p1644
aVtranslateZ
p1645
aVrotateX
p1646
aVrotateY
p1647
aVrotateZ
p1648
aVchainAttach
p1649
aVchainStartEnvelope
p1650
aVchainStartFrame
p1651
aVchainStiffness
p1652
aVchainDamping
p1653
aVchainGravity
p1654
aVchainIteration
p1655
aVchainCollide
p1656
aVchainWidthBase
p1657
aVchainWidthExtremity
p1658
aVchainCollideGround
p1659
aVchainCollideGroundHeight
p1660
aaF0
aF0
aF0
aF0
aF0
aF0
aI1
aF0
aF1
aF0.10000000000000001
aF0.20000000000000001
aF1
aI1
aI00
aF1
aF1
aI00
aF0
aa(lp1661
Vjaw_anim
p1662
a(lp1663
VtranslateX
p1664
aVtranslateY
p1665
aVtranslateZ
p1666
aVrotateX
p1667
aVrotateY
p1668
aVrotateZ
p1669
aVscaleX
p1670
aVscaleY
p1671
aVscaleZ
p1672
aaF0
aF0
aF0
aF0
aF0
aF0
aF1
aF1
aF1
aa(lp1673
Vmask_anim
p1674
a(lp1675
VtranslateX
p1676
aVtranslateY
p1677
aVtranslateZ
p1678
aVrotateX
p1679
aVrotateY
p1680
aVrotateZ
p1681
aVscaleX
p1682
aVscaleY
p1683
aVscaleZ
p1684
aaF0
aF0
aF0
aF0
aF0
aF0
aF1
aF1
aF1
aa(lp1685
Vpack_hose_in_anim
p1686
a(lp1687
VtranslateX
p1688
aVtranslateY
p1689
aVtranslateZ
p1690
aVrotateX
p1691
aVrotateY
p1692
aVrotateZ
p1693
aVscaleX
p1694
aVscaleY
p1695
aVscaleZ
p1696
aaF0
aF0
aF0
aF0
aF0
aF0
aF1
aF1
aF1
aa(lp1697
Vpack_hose_out_anim
p1698
a(lp1699
VtranslateX
p1700
aVtranslateY
p1701
aVtranslateZ
p1702
aVrotateX
p1703
aVrotateY
p1704
aVrotateZ
p1705
aVscaleX
p1706
aVscaleY
p1707
aVscaleZ
p1708
aaF0
aF0
aF0
aF0
aF0
aF0
aF1
aF1
aF1
aa(lp1709
Vshotgun_anim
p1710
a(lp1711
VtranslateX
p1712
aVtranslateY
p1713
aVtranslateZ
p1714
aVrotateX
p1715
aVrotateY
p1716
aVrotateZ
p1717
aVscaleX
p1718
aVscaleY
p1719
aVscaleZ
p1720
aVshotgun_rotate
p1721
aVshotgun_rail
p1722
aaF0
aF0
aF0
aF0
aF0
aF0
aF1
aF1
aF1
aF0
aF0
aa(lp1723
Vshotgun_base_anim
p1724
a(lp1725
VtranslateX
p1726
aVtranslateY
p1727
aVtranslateZ
p1728
aVrotateX
p1729
aVrotateY
p1730
aVrotateZ
p1731
aVscaleX
p1732
aVscaleY
p1733
aVscaleZ
p1734
aaF0
aF0
aF0
aF0
aF0
aF0
aF1
aF1
aF1
aa(lp1735
Vshotgun_clip_anim
p1736
a(lp1737
VtranslateX
p1738
aVtranslateY
p1739
aVtranslateZ
p1740
aVrotateX
p1741
aVrotateY
p1742
aVrotateZ
p1743
aVscaleX
p1744
aVscaleY
p1745
aVscaleZ
p1746
aaF0
aF0
aF0
aF0
aF0
aF0
aF1
aF1
aF1
aa(lp1747
Vsniper_can_arm_01_anim
p1748
a(lp1749
VtranslateX
p1750
aVtranslateY
p1751
aVtranslateZ
p1752
aVrotateX
p1753
aVrotateY
p1754
aVrotateZ
p1755
aVscaleX
p1756
aVscaleY
p1757
aVscaleZ
p1758
aaF0
aF0
aF0
aF-0.39290959417736226
aF-0.069021140657744826
aF0.025286724721471962
aF1
aF1
aF1
aa(lp1759
Vsniper_can_arm_02_anim
p1760
a(lp1761
VtranslateX
p1762
aVtranslateY
p1763
aVtranslateZ
p1764
aVrotateX
p1765
aVrotateY
p1766
aVrotateZ
p1767
aVscaleX
p1768
aVscaleY
p1769
aVscaleZ
p1770
aaF0
aF0
aF0
aF-0.70556619980041868
aF0
aF0
aF1
aF1
aF1
aa(lp1771
Vsniper_can_arm_03_anim
p1772
a(lp1773
VtranslateX
p1774
aVtranslateY
p1775
aVtranslateZ
p1776
aVrotateX
p1777
aVrotateY
p1778
aVrotateZ
p1779
aVscaleX
p1780
aVscaleY
p1781
aVscaleZ
p1782
aaF45.769641904925962
aF-60.882791640507122
aF-34.377328642686919
aF-318.48476540477554
aF197.37672249162108
aF-17.593879875207957
aF1
aF1
aF1
aa(lp1783
Vtrap_handle_anim
p1784
a(lp1785
VtranslateX
p1786
aVtranslateY
p1787
aVtranslateZ
p1788
aVrotateX
p1789
aVrotateY
p1790
aVrotateZ
p1791
aVscaleX
p1792
aVscaleY
p1793
aVscaleZ
p1794
aaF0
aF0
aF0
aF0
aF0
aF0
aF1
aF1
aF1
aa(lp1795
Vwrist_cover_anim
p1796
a(lp1797
VtranslateX
p1798
aVtranslateY
p1799
aVtranslateZ
p1800
aVrotateX
p1801
aVrotateY
p1802
aVrotateZ
p1803
aVscaleX
p1804
aVscaleY
p1805
aVscaleZ
p1806
aaF0
aF0
aF0
aF0
aF0
aF0
aF1
aF1
aF1
aa(lp1807
Vankle_plate_in_l_anim_space_switcher
p1808
a(lp1809
Vvisibility
p1810
aVtranslateX
p1811
aVtranslateY
p1812
aVtranslateZ
p1813
aVrotateX
p1814
aVrotateY
p1815
aVrotateZ
p1816
aVscaleX
p1817
aVscaleY
p1818
aVscaleZ
p1819
aVspace_world
p1820
aaI01
aF0
aF0
aF0
aF0
aF0
aF0
aF1
aF1
aF0.99999999999999989
aF0
aa(lp1821
Vankle_plate_in_r_anim_space_switcher
p1822
a(lp1823
Vvisibility
p1824
aVtranslateX
p1825
aVtranslateY
p1826
aVtranslateZ
p1827
aVrotateX
p1828
aVrotateY
p1829
aVrotateZ
p1830
aVscaleX
p1831
aVscaleY
p1832
aVscaleZ
p1833
aVspace_world
p1834
aaI01
aF0
aF0
aF0
aF0
aF0
aF0
aF0.99999999999999989
aF0.99999999999999989
aF1
aF0
aa(lp1835
Vankle_plate_out_l_anim_space_switcher
p1836
a(lp1837
Vvisibility
p1838
aVtranslateX
p1839
aVtranslateY
p1840
aVtranslateZ
p1841
aVrotateX
p1842
aVrotateY
p1843
aVrotateZ
p1844
aVscaleX
p1845
aVscaleY
p1846
aVscaleZ
p1847
aVspace_world
p1848
aaI01
aF0
aF0
aF0
aF0
aF0
aF0
aF1
aF1
aF1
aF0
aa(lp1849
Vankle_plate_out_r_anim_space_switcher
p1850
a(lp1851
Vvisibility
p1852
aVtranslateX
p1853
aVtranslateY
p1854
aVtranslateZ
p1855
aVrotateX
p1856
aVrotateY
p1857
aVrotateZ
p1858
aVscaleX
p1859
aVscaleY
p1860
aVscaleZ
p1861
aVspace_world
p1862
aaI01
aF0
aF0
aF0
aF0
aF0
aF0
aF0.99999999999999989
aF1
aF0.99999999999999989
aF0
aa(lp1863
Varm_hose_bott_anim_space_switcher
p1864
a(lp1865
Vvisibility
p1866
aVtranslateX
p1867
aVtranslateY
p1868
aVtranslateZ
p1869
aVrotateX
p1870
aVrotateY
p1871
aVrotateZ
p1872
aVscaleX
p1873
aVscaleY
p1874
aVscaleZ
p1875
aVspace_world
p1876
aaI01
aF0
aF0
aF0
aF0
aF0
aF0
aF1
aF1.0000000000000002
aF1
aF0
aa(lp1877
Varm_hose_top_anim_space_switcher
p1878
a(lp1879
Vvisibility
p1880
aVtranslateX
p1881
aVtranslateY
p1882
aVtranslateZ
p1883
aVrotateX
p1884
aVrotateY
p1885
aVrotateZ
p1886
aVscaleX
p1887
aVscaleY
p1888
aVscaleZ
p1889
aVspace_world
p1890
aaI01
aF0
aF0
aF0
aF0
aF0
aF0
aF1
aF1
aF1
aF0
aa(lp1891
Varm_pouch_l_anim_space_switcher
p1892
a(lp1893
Vvisibility
p1894
aVtranslateX
p1895
aVtranslateY
p1896
aVtranslateZ
p1897
aVrotateX
p1898
aVrotateY
p1899
aVrotateZ
p1900
aVscaleX
p1901
aVscaleY
p1902
aVscaleZ
p1903
aVspace_world
p1904
aaI01
aF0
aF0
aF0
aF0
aF0
aF0
aF1
aF1
aF1
aF0
aa(lp1905
Vbody_anim_space_switcher
p1906
a(lp1907
Vvisibility
p1908
aVtranslateX
p1909
aVtranslateY
p1910
aVtranslateZ
p1911
aVrotateX
p1912
aVrotateY
p1913
aVrotateZ
p1914
aVscaleX
p1915
aVscaleY
p1916
aVscaleZ
p1917
aVspace_world
p1918
aaI01
aF0
aF0
aF0
aF0
aF0
aF0
aF1
aF1
aF1
aF0
aa(lp1919
Vbot_hand_anim_space_switcher
p1920
a(lp1921
Vvisibility
p1922
aVtranslateX
p1923
aVtranslateY
p1924
aVtranslateZ
p1925
aVrotateX
p1926
aVrotateY
p1927
aVrotateZ
p1928
aVscaleX
p1929
aVscaleY
p1930
aVscaleZ
p1931
aVspace_world
p1932
aaI01
aF2.8421709430404007e-14
aF7.1054273576010019e-15
aF1.4210854715202004e-14
aF-1.5902773407317584e-15
aF-0
aF0
aF1
aF1
aF1
aF0
aa(lp1933
Vbot_loarm_anim_space_switcher
p1934
a(lp1935
Vvisibility
p1936
aVtranslateX
p1937
aVtranslateY
p1938
aVtranslateZ
p1939
aVrotateX
p1940
aVrotateY
p1941
aVrotateZ
p1942
aVscaleX
p1943
aVscaleY
p1944
aVscaleZ
p1945
aVspace_world
p1946
aaI01
aF0
aF-7.1054273576010019e-15
aF-2.8421709430404007e-14
aF0
aF-0
aF6.2120208622334312e-18
aF1
aF1
aF1
aF0
aa(lp1947
Vbot_loarm_pistonB_bot_anim_space_switcher
p1948
a(lp1949
Vvisibility
p1950
aVtranslateX
p1951
aVtranslateY
p1952
aVtranslateZ
p1953
aVrotateX
p1954
aVrotateY
p1955
aVrotateZ
p1956
aVscaleX
p1957
aVscaleY
p1958
aVscaleZ
p1959
aVspace_world
p1960
aaI01
aF0
aF0
aF0
aF0
aF1.490885006936023e-16
aF3.975693351829395e-16
aF1.0000000000000002
aF1.0000000000000002
aF1.0000000000000002
aF0
aa(lp1961
Vbot_loarm_pistonB_top_anim_space_switcher
p1962
a(lp1963
Vvisibility
p1964
aVtranslateX
p1965
aVtranslateY
p1966
aVtranslateZ
p1967
aVrotateX
p1968
aVrotateY
p1969
aVrotateZ
p1970
aVscaleX
p1971
aVscaleY
p1972
aVscaleZ
p1973
aVspace_world
p1974
aaI01
aF0
aF0
aF0
aF-3.1805546814635168e-15
aF9.9392333795734899e-17
aF0
aF1
aF1
aF1
aF0
aa(lp1975
Vbot_loarm_pistonC_bot_anim_space_switcher
p1976
a(lp1977
Vvisibility
p1978
aVtranslateX
p1979
aVtranslateY
p1980
aVtranslateZ
p1981
aVrotateX
p1982
aVrotateY
p1983
aVrotateZ
p1984
aVscaleX
p1985
aVscaleY
p1986
aVscaleZ
p1987
aVspace_world
p1988
aaI01
aF-7.1054273576010019e-15
aF3.5527136788005009e-15
aF2.8421709430404007e-14
aF0
aF-1.5902773407317588e-15
aF-1.9878466759146985e-16
aF0.99999999999999989
aF0.99999999999999989
aF1
aF0
aa(lp1989
Vbot_loarm_pistonC_top_anim_space_switcher
p1990
a(lp1991
Vvisibility
p1992
aVtranslateX
p1993
aVtranslateY
p1994
aVtranslateZ
p1995
aVrotateX
p1996
aVrotateY
p1997
aVrotateZ
p1998
aVscaleX
p1999
aVscaleY
p2000
aVscaleZ
p2001
aVspace_world
p2002
aaI01
aF0
aF0
aF-2.8421709430404007e-14
aF0
aF-0
aF9.9392333795734899e-16
aF1
aF1
aF1
aF0
aa(lp2003
Vbot_loarm_pistonD_bot_anim_space_switcher
p2004
a(lp2005
Vvisibility
p2006
aVtranslateX
p2007
aVtranslateY
p2008
aVtranslateZ
p2009
aVrotateX
p2010
aVrotateY
p2011
aVrotateZ
p2012
aVscaleX
p2013
aVscaleY
p2014
aVscaleZ
p2015
aVspace_world
p2016
aaI01
aF0
aF-2.2204460492503131e-16
aF0
aF7.9513867036587919e-16
aF-0
aF4.7708320221952752e-15
aF1
aF1
aF1
aF0
aa(lp2017
Vbot_loarm_pistonD_top_anim_space_switcher
p2018
a(lp2019
Vvisibility
p2020
aVtranslateX
p2021
aVtranslateY
p2022
aVtranslateZ
p2023
aVrotateX
p2024
aVrotateY
p2025
aVrotateZ
p2026
aVscaleX
p2027
aVscaleY
p2028
aVscaleZ
p2029
aVspace_world
p2030
aaI01
aF-1.4210854715202004e-14
aF0
aF0
aF0
aF2.3854160110976376e-15
aF1.5902773407317584e-15
aF1
aF1
aF0.99999999999999978
aF0
aa(lp2031
Vbot_loarm_twist_anim_space_switcher
p2032
a(lp2033
Vvisibility
p2034
aVtranslateX
p2035
aVtranslateY
p2036
aVtranslateZ
p2037
aVrotateX
p2038
aVrotateY
p2039
aVrotateZ
p2040
aVscaleX
p2041
aVscaleY
p2042
aVscaleZ
p2043
aVspace_world
p2044
aVblendOrient1
p2045
aaI01
aF0
aF0
aF0
aF-19.437961411603769
aF-0.1723525927723594
aF-0.24586642937897435
aF1
aF1
aF1
aF0
aF0
aa(lp2046
Vbot_uparm_anim_space_switcher
p2047
a(lp2048
Vvisibility
p2049
aVtranslateX
p2050
aVtranslateY
p2051
aVtranslateZ
p2052
aVrotateX
p2053
aVrotateY
p2054
aVrotateZ
p2055
aVscaleX
p2056
aVscaleY
p2057
aVscaleZ
p2058
aVspace_world
p2059
aaI01
aF3.5527136788005009e-15
aF0
aF0
aF-7.9513867036587939e-16
aF-0
aF5.9635400277440959e-16
aF0.99999999999999989
aF0.99999999999999978
aF0.99999999999999989
aF0
aa(lp2060
Vbot_uparm_pistonC_bot_anim_space_switcher
p2061
a(lp2062
Vvisibility
p2063
aVtranslateX
p2064
aVtranslateY
p2065
aVtranslateZ
p2066
aVrotateX
p2067
aVrotateY
p2068
aVrotateZ
p2069
aVscaleX
p2070
aVscaleY
p2071
aVscaleZ
p2072
aVspace_world
p2073
aaI01
aF-1.4210854715202004e-14
aF2.8421709430404007e-14
aF-7.1054273576010019e-15
aF3.1805546814635168e-15
aF7.9513867036587919e-16
aF-1.5902773407317584e-15
aF1
aF1
aF1
aF0
aa(lp2074
Vbot_uparm_pistonC_top_anim_space_switcher
p2075
a(lp2076
Vvisibility
p2077
aVtranslateX
p2078
aVtranslateY
p2079
aVtranslateZ
p2080
aVrotateX
p2081
aVrotateY
p2082
aVrotateZ
p2083
aVscaleX
p2084
aVscaleY
p2085
aVscaleZ
p2086
aVspace_world
p2087
aaI01
aF-1.4210854715202004e-14
aF1.7763568394002505e-15
aF0
aF0
aF1.5902773407317584e-15
aF7.9513867036587919e-16
aF1
aF1
aF1
aF0
aa(lp2088
Vchest_ik_anim_space_switcher
p2089
a(lp2090
Vvisibility
p2091
aVtranslateX
p2092
aVtranslateY
p2093
aVtranslateZ
p2094
aVrotateX
p2095
aVrotateY
p2096
aVrotateZ
p2097
aVscaleX
p2098
aVscaleY
p2099
aVscaleZ
p2100
aVspace_world
p2101
aVspace_chest_ik_world_aligned
p2102
aaI01
aF0
aF-3.5527136788005009e-15
aF2.0194839173657902e-28
aF7.0622500768802538e-31
aF-0
aF0
aF1
aF1
aF1
aF0
aF0
aa(lp2103
Veyeball_l_anim_space_switcher
p2104
a(lp2105
Vvisibility
p2106
aVtranslateX
p2107
aVtranslateY
p2108
aVtranslateZ
p2109
aVrotateX
p2110
aVrotateY
p2111
aVrotateZ
p2112
aVscaleX
p2113
aVscaleY
p2114
aVscaleZ
p2115
aVspace_world
p2116
aaI01
aF0
aF0
aF0
aF0
aF0
aF0
aF1
aF1
aF1
aF0
aa(lp2117
Veyeball_r_anim_space_switcher
p2118
a(lp2119
Vvisibility
p2120
aVtranslateX
p2121
aVtranslateY
p2122
aVtranslateZ
p2123
aVrotateX
p2124
aVrotateY
p2125
aVrotateZ
p2126
aVscaleX
p2127
aVscaleY
p2128
aVscaleZ
p2129
aVspace_world
p2130
aaI01
aF0
aF0
aF0
aF0
aF0
aF0
aF1
aF1
aF1
aF0
aa(lp2131
Veyebrow_in_l_anim_space_switcher
p2132
a(lp2133
Vvisibility
p2134
aVtranslateX
p2135
aVtranslateY
p2136
aVtranslateZ
p2137
aVrotateX
p2138
aVrotateY
p2139
aVrotateZ
p2140
aVscaleX
p2141
aVscaleY
p2142
aVscaleZ
p2143
aVspace_world
p2144
aaI01
aF0
aF0
aF0
aF0
aF0
aF0
aF1
aF1.0000000000000002
aF1
aF0
aa(lp2145
Veyebrow_in_r_anim_space_switcher
p2146
a(lp2147
Vvisibility
p2148
aVtranslateX
p2149
aVtranslateY
p2150
aVtranslateZ
p2151
aVrotateX
p2152
aVrotateY
p2153
aVrotateZ
p2154
aVscaleX
p2155
aVscaleY
p2156
aVscaleZ
p2157
aVspace_world
p2158
aaI01
aF0
aF0
aF0
aF0
aF0
aF0
aF1.0000000000000002
aF1.0000000000000002
aF1.0000000000000002
aF0
aa(lp2159
Veyebrow_out_l_anim_space_switcher
p2160
a(lp2161
Vvisibility
p2162
aVtranslateX
p2163
aVtranslateY
p2164
aVtranslateZ
p2165
aVrotateX
p2166
aVrotateY
p2167
aVrotateZ
p2168
aVscaleX
p2169
aVscaleY
p2170
aVscaleZ
p2171
aVspace_world
p2172
aaI01
aF0
aF0
aF0
aF0
aF0
aF0
aF1
aF1
aF1.0000000000000002
aF0
aa(lp2173
Veyebrow_out_r_anim_space_switcher
p2174
a(lp2175
Vvisibility
p2176
aVtranslateX
p2177
aVtranslateY
p2178
aVtranslateZ
p2179
aVrotateX
p2180
aVrotateY
p2181
aVrotateZ
p2182
aVscaleX
p2183
aVscaleY
p2184
aVscaleZ
p2185
aVspace_world
p2186
aaI01
aF0
aF0
aF0
aF0
aF0
aF0
aF1
aF0.99999999999999989
aF0.99999999999999989
aF0
aa(lp2187
Veyelid_bott_l_anim_space_switcher
p2188
a(lp2189
Vvisibility
p2190
aVtranslateX
p2191
aVtranslateY
p2192
aVtranslateZ
p2193
aVrotateX
p2194
aVrotateY
p2195
aVrotateZ
p2196
aVscaleX
p2197
aVscaleY
p2198
aVscaleZ
p2199
aVspace_world
p2200
aaI01
aF0
aF0
aF0
aF0
aF0
aF0
aF1
aF1
aF1
aF0
aa(lp2201
Veyelid_bott_r_anim_space_switcher
p2202
a(lp2203
Vvisibility
p2204
aVtranslateX
p2205
aVtranslateY
p2206
aVtranslateZ
p2207
aVrotateX
p2208
aVrotateY
p2209
aVrotateZ
p2210
aVscaleX
p2211
aVscaleY
p2212
aVscaleZ
p2213
aVspace_world
p2214
aaI01
aF0
aF0
aF0
aF0
aF0
aF0
aF1
aF1
aF1
aF0
aa(lp2215
Veyelid_top_l_anim_space_switcher
p2216
a(lp2217
Vvisibility
p2218
aVtranslateX
p2219
aVtranslateY
p2220
aVtranslateZ
p2221
aVrotateX
p2222
aVrotateY
p2223
aVrotateZ
p2224
aVscaleX
p2225
aVscaleY
p2226
aVscaleZ
p2227
aVspace_world
p2228
aaI01
aF0
aF0
aF0
aF0
aF0
aF0
aF1
aF1
aF1
aF0
aa(lp2229
Veyelid_top_r_anim_space_switcher
p2230
a(lp2231
Vvisibility
p2232
aVtranslateX
p2233
aVtranslateY
p2234
aVtranslateZ
p2235
aVrotateX
p2236
aVrotateY
p2237
aVrotateZ
p2238
aVscaleX
p2239
aVscaleY
p2240
aVscaleZ
p2241
aVspace_world
p2242
aaI01
aF0
aF0
aF0
aF0
aF0
aF0
aF1
aF1
aF1
aF0
aa(lp2243
Vgun_anim_space_switcher
p2244
a(lp2245
Vvisibility
p2246
aVtranslateX
p2247
aVtranslateY
p2248
aVtranslateZ
p2249
aVrotateX
p2250
aVrotateY
p2251
aVrotateZ
p2252
aVscaleX
p2253
aVscaleY
p2254
aVscaleZ
p2255
aVspace_world
p2256
aaI01
aF2.8421709430404007e-14
aF4.4408920985006262e-16
aF0
aF3.7272125173400599e-17
aF-0
aF0
aF0.99999999999999989
aF0.99999999999999989
aF0.99999999999999989
aF0
aa(lp2257
Vgun_barrel_anim_space_switcher
p2258
a(lp2259
Vvisibility
p2260
aVtranslateX
p2261
aVtranslateY
p2262
aVtranslateZ
p2263
aVrotateX
p2264
aVrotateY
p2265
aVrotateZ
p2266
aVscaleX
p2267
aVscaleY
p2268
aVscaleZ
p2269
aVspace_world
p2270
aaI01
aF0
aF-1.7763568394002505e-15
aF-2.8421709430404007e-14
aF-1.1181637552020177e-16
aF1.9878466759146975e-16
aF-7.9513867036587899e-16
aF1.0000000000000002
aF1
aF1.0000000000000002
aF0
aa(lp2271
Vgun_barrel_inner_anim_space_switcher
p2272
a(lp2273
Vvisibility
p2274
aVtranslateX
p2275
aVtranslateY
p2276
aVtranslateZ
p2277
aVrotateX
p2278
aVrotateY
p2279
aVrotateZ
p2280
aVscaleX
p2281
aVscaleY
p2282
aVscaleZ
p2283
aVspace_world
p2284
aaI01
aF0
aF0
aF0
aF0
aF0
aF0
aF1
aF1
aF1.0000000000000002
aF0
aa(lp2285
Vgun_body_panel_l_anim_space_switcher
p2286
a(lp2287
Vvisibility
p2288
aVtranslateX
p2289
aVtranslateY
p2290
aVtranslateZ
p2291
aVrotateX
p2292
aVrotateY
p2293
aVrotateZ
p2294
aVscaleX
p2295
aVscaleY
p2296
aVscaleZ
p2297
aVspace_world
p2298
aaI01
aF0
aF0
aF0
aF0
aF0
aF0
aF1
aF1
aF1.0000000000000002
aF0
aa(lp2299
Vgun_body_panel_r_anim_space_switcher
p2300
a(lp2301
Vvisibility
p2302
aVtranslateX
p2303
aVtranslateY
p2304
aVtranslateZ
p2305
aVrotateX
p2306
aVrotateY
p2307
aVrotateZ
p2308
aVscaleX
p2309
aVscaleY
p2310
aVscaleZ
p2311
aVspace_world
p2312
aaI01
aF0
aF0
aF0
aF0
aF0
aF0
aF1
aF1
aF1.0000000000000002
aF0
aa(lp2313
Vgun_scope_anim_space_switcher
p2314
a(lp2315
Vvisibility
p2316
aVtranslateX
p2317
aVtranslateY
p2318
aVtranslateZ
p2319
aVrotateX
p2320
aVrotateY
p2321
aVrotateZ
p2322
aVscaleX
p2323
aVscaleY
p2324
aVscaleZ
p2325
aVspace_world
p2326
aaI01
aF2.8421709430404007e-14
aF0
aF-2.8421709430404007e-14
aF-1.1181637552020177e-16
aF1.9878466759146975e-16
aF-7.9513867036587899e-16
aF1.0000000000000002
aF1
aF1.0000000000000002
aF0
aa(lp2327
Vgun_stock_base_anim_space_switcher
p2328
a(lp2329
Vvisibility
p2330
aVtranslateX
p2331
aVtranslateY
p2332
aVtranslateZ
p2333
aVrotateX
p2334
aVrotateY
p2335
aVrotateZ
p2336
aVscaleX
p2337
aVscaleY
p2338
aVscaleZ
p2339
aVspace_world
p2340
aaI01
aF0
aF0
aF0
aF0
aF0
aF0
aF1
aF1
aF1.0000000000000002
aF0
aa(lp2341
Vgun_stock_base_in_bott_anim_space_switcher
p2342
a(lp2343
Vvisibility
p2344
aVtranslateX
p2345
aVtranslateY
p2346
aVtranslateZ
p2347
aVrotateX
p2348
aVrotateY
p2349
aVrotateZ
p2350
aVscaleX
p2351
aVscaleY
p2352
aVscaleZ
p2353
aVspace_world
p2354
aaI01
aF0
aF0
aF0
aF0
aF0
aF0
aF1
aF1
aF1.0000000000000002
aF0
aa(lp2355
Vgun_stock_base_in_top_anim_space_switcher
p2356
a(lp2357
Vvisibility
p2358
aVtranslateX
p2359
aVtranslateY
p2360
aVtranslateZ
p2361
aVrotateX
p2362
aVrotateY
p2363
aVrotateZ
p2364
aVscaleX
p2365
aVscaleY
p2366
aVscaleZ
p2367
aVspace_world
p2368
aaI01
aF0
aF0
aF0
aF0
aF0
aF0
aF1
aF1
aF1.0000000000000002
aF0
aa(lp2369
Vgun_stock_base_out_bott_anim_space_switcher
p2370
a(lp2371
Vvisibility
p2372
aVtranslateX
p2373
aVtranslateY
p2374
aVtranslateZ
p2375
aVrotateX
p2376
aVrotateY
p2377
aVrotateZ
p2378
aVscaleX
p2379
aVscaleY
p2380
aVscaleZ
p2381
aVspace_world
p2382
aaI01
aF0
aF0
aF0
aF0
aF0
aF0
aF1
aF1
aF1.0000000000000002
aF0
aa(lp2383
Vgun_stock_base_out_top_anim_space_switcher
p2384
a(lp2385
Vvisibility
p2386
aVtranslateX
p2387
aVtranslateY
p2388
aVtranslateZ
p2389
aVrotateX
p2390
aVrotateY
p2391
aVrotateZ
p2392
aVscaleX
p2393
aVscaleY
p2394
aVscaleZ
p2395
aVspace_world
p2396
aaI01
aF0
aF0
aF0
aF0
aF0
aF0
aF1
aF1
aF1.0000000000000002
aF0
aa(lp2397
Vgun_stock_bott_anim_space_switcher
p2398
a(lp2399
Vvisibility
p2400
aVtranslateX
p2401
aVtranslateY
p2402
aVtranslateZ
p2403
aVrotateX
p2404
aVrotateY
p2405
aVrotateZ
p2406
aVscaleX
p2407
aVscaleY
p2408
aVscaleZ
p2409
aVspace_world
p2410
aaI01
aF0
aF1.7798262863522041e-15
aF0
aF-6.2120208622334324e-17
aF-0
aF7.9513867036587939e-16
aF0.99999999999999989
aF0.99999999999999989
aF0.99999999999999989
aF0
aa(lp2411
Vgun_stock_in_bott_anim_space_switcher
p2412
a(lp2413
Vvisibility
p2414
aVtranslateX
p2415
aVtranslateY
p2416
aVtranslateZ
p2417
aVrotateX
p2418
aVrotateY
p2419
aVrotateZ
p2420
aVscaleX
p2421
aVscaleY
p2422
aVscaleZ
p2423
aVspace_world
p2424
aaI01
aF0
aF0
aF0
aF0
aF0
aF0
aF1
aF1
aF1.0000000000000002
aF0
aa(lp2425
Vgun_stock_in_top_anim_space_switcher
p2426
a(lp2427
Vvisibility
p2428
aVtranslateX
p2429
aVtranslateY
p2430
aVtranslateZ
p2431
aVrotateX
p2432
aVrotateY
p2433
aVrotateZ
p2434
aVscaleX
p2435
aVscaleY
p2436
aVscaleZ
p2437
aVspace_world
p2438
aaI01
aF0
aF0
aF0
aF0
aF0
aF0
aF1
aF1
aF1.0000000000000002
aF0
aa(lp2439
Vgun_stock_panel_l_anim_space_switcher
p2440
a(lp2441
Vvisibility
p2442
aVtranslateX
p2443
aVtranslateY
p2444
aVtranslateZ
p2445
aVrotateX
p2446
aVrotateY
p2447
aVrotateZ
p2448
aVscaleX
p2449
aVscaleY
p2450
aVscaleZ
p2451
aVspace_world
p2452
aaI01
aF2.8421709430404007e-14
aF0
aF-2.8421709430404007e-14
aF-6.2120208622334324e-17
aF-0
aF7.9513867036587939e-16
aF0.99999999999999989
aF0.99999999999999989
aF0.99999999999999989
aF0
aa(lp2453
Vgun_stock_panel_r_anim_space_switcher
p2454
a(lp2455
Vvisibility
p2456
aVtranslateX
p2457
aVtranslateY
p2458
aVtranslateZ
p2459
aVrotateX
p2460
aVrotateY
p2461
aVrotateZ
p2462
aVscaleX
p2463
aVscaleY
p2464
aVscaleZ
p2465
aVspace_world
p2466
aaI01
aF2.8421709430404007e-14
aF0
aF2.8421709430404007e-14
aF0
aF1.9878466759146985e-16
aF7.9513867036587939e-16
aF0.99999999999999989
aF0.99999999999999989
aF0.99999999999999989
aF0
aa(lp2467
Vheel_plate_l_anim_space_switcher
p2468
a(lp2469
Vvisibility
p2470
aVtranslateX
p2471
aVtranslateY
p2472
aVtranslateZ
p2473
aVrotateX
p2474
aVrotateY
p2475
aVrotateZ
p2476
aVscaleX
p2477
aVscaleY
p2478
aVscaleZ
p2479
aVspace_world
p2480
aaI01
aF0
aF0
aF0
aF0
aF0
aF0
aF1
aF1
aF1
aF0
aa(lp2481
Vheel_plate_r_anim_space_switcher
p2482
a(lp2483
Vvisibility
p2484
aVtranslateX
p2485
aVtranslateY
p2486
aVtranslateZ
p2487
aVrotateX
p2488
aVrotateY
p2489
aVrotateZ
p2490
aVscaleX
p2491
aVscaleY
p2492
aVscaleZ
p2493
aVspace_world
p2494
aaI01
aF0
aF0
aF0
aF0
aF0
aF0
aF0.99999999999999989
aF0.99999999999999989
aF0.99999999999999978
aF0
aa(lp2495
Vhelmet_sight_anim_space_switcher
p2496
a(lp2497
Vvisibility
p2498
aVtranslateX
p2499
aVtranslateY
p2500
aVtranslateZ
p2501
aVrotateX
p2502
aVrotateY
p2503
aVrotateZ
p2504
aVscaleX
p2505
aVscaleY
p2506
aVscaleZ
p2507
aVspace_world
p2508
aaI01
aF0
aF0
aF0
aF0
aF0
aF0
aF1
aF1
aF1
aF0
aa(lp2509
Vik_elbow_l_anim_space_switcher
p2510
a(lp2511
Vvisibility
p2512
aVtranslateX
p2513
aVtranslateY
p2514
aVtranslateZ
p2515
aVrotateX
p2516
aVrotateY
p2517
aVrotateZ
p2518
aVscaleX
p2519
aVscaleY
p2520
aVscaleZ
p2521
aVspace_world
p2522
aVspace_body_anim
p2523
aVspace_chest_ik_anim
p2524
aaI01
aF0
aF0
aF0
aF0
aF0
aF0
aF1
aF1
aF1
aF0
aF0
aF0
aa(lp2525
Vik_elbow_r_anim_space_switcher
p2526
a(lp2527
Vvisibility
p2528
aVtranslateX
p2529
aVtranslateY
p2530
aVtranslateZ
p2531
aVrotateX
p2532
aVrotateY
p2533
aVrotateZ
p2534
aVscaleX
p2535
aVscaleY
p2536
aVscaleZ
p2537
aVspace_world
p2538
aVspace_body_anim
p2539
aVspace_chest_ik_anim
p2540
aaI01
aF0
aF0
aF0
aF0
aF0
aF0
aF1
aF1
aF1
aF0
aF0
aF0
aa(lp2541
Vik_foot_anim_l_space_switcher
p2542
a(lp2543
Vvisibility
p2544
aVtranslateX
p2545
aVtranslateY
p2546
aVtranslateZ
p2547
aVrotateX
p2548
aVrotateY
p2549
aVrotateZ
p2550
aVscaleX
p2551
aVscaleY
p2552
aVscaleZ
p2553
aVspace_world
p2554
aVspace_body_anim
p2555
aaI01
aF0
aF0
aF0
aF0
aF0
aF0
aF1
aF1
aF1
aF0
aF0
aa(lp2556
Vik_foot_anim_r_space_switcher
p2557
a(lp2558
Vvisibility
p2559
aVtranslateX
p2560
aVtranslateY
p2561
aVtranslateZ
p2562
aVrotateX
p2563
aVrotateY
p2564
aVrotateZ
p2565
aVscaleX
p2566
aVscaleY
p2567
aVscaleZ
p2568
aVspace_world
p2569
aVspace_body_anim
p2570
aaI01
aF0
aF0
aF0
aF0
aF0
aF0
aF1
aF1
aF1
aF0
aF0
aa(lp2571
Vik_wrist_l_anim_space_switcher
p2572
a(lp2573
Vvisibility
p2574
aVtranslateX
p2575
aVtranslateY
p2576
aVtranslateZ
p2577
aVrotateX
p2578
aVrotateY
p2579
aVrotateZ
p2580
aVscaleX
p2581
aVscaleY
p2582
aVscaleZ
p2583
aVspace_world
p2584
aVspace_body_anim
p2585
aVspace_head_fk_anim
p2586
aVspace_chest_ik_anim
p2587
aVspace_driver_gun_stock_bott
p2588
aaI01
aF0
aF0
aF0
aF0
aF0
aF0
aF1
aF1
aF1
aF0
aF0
aF0
aF0
aF0
aa(lp2589
Vik_wrist_r_anim_space_switcher
p2590
a(lp2591
Vvisibility
p2592
aVtranslateX
p2593
aVtranslateY
p2594
aVtranslateZ
p2595
aVrotateX
p2596
aVrotateY
p2597
aVrotateZ
p2598
aVscaleX
p2599
aVscaleY
p2600
aVscaleZ
p2601
aVspace_world
p2602
aVspace_body_anim
p2603
aVspace_head_fk_anim
p2604
aVspace_chest_ik_anim
p2605
aaI01
aF0
aF0
aF0
aF0
aF0
aF0
aF1
aF1
aF1
aF0
aF0
aF0
aF0
aa(lp2606
Vjaw_anim_space_switcher
p2607
a(lp2608
Vvisibility
p2609
aVtranslateX
p2610
aVtranslateY
p2611
aVtranslateZ
p2612
aVrotateX
p2613
aVrotateY
p2614
aVrotateZ
p2615
aVscaleX
p2616
aVscaleY
p2617
aVscaleZ
p2618
aVspace_world
p2619
aaI01
aF0
aF0
aF0
aF0
aF0
aF0
aF1
aF1
aF1
aF0
aa(lp2620
Vl_global_ik_anim_space_switcher
p2621
a(lp2622
Vvisibility
p2623
aVtranslateX
p2624
aVtranslateY
p2625
aVtranslateZ
p2626
aVrotateX
p2627
aVrotateY
p2628
aVrotateZ
p2629
aVscaleX
p2630
aVscaleY
p2631
aVscaleZ
p2632
aVspace_world
p2633
aaI01
aF0
aF0
aF0
aF0
aF0
aF0
aF1
aF1
aF1
aF0
aa(lp2634
Vmask_anim_space_switcher
p2635
a(lp2636
Vvisibility
p2637
aVtranslateX
p2638
aVtranslateY
p2639
aVtranslateZ
p2640
aVrotateX
p2641
aVrotateY
p2642
aVrotateZ
p2643
aVscaleX
p2644
aVscaleY
p2645
aVscaleZ
p2646
aVspace_world
p2647
aVspace_driver_hand_l
p2648
aVspace_driver_hand_r
p2649
aaI01
aF0
aF0
aF0
aF0
aF0
aF0
aF1
aF1
aF1
aF0
aF0
aF0
aa(lp2650
Vmaster_anim_space_switcher
p2651
a(lp2652
Vvisibility
p2653
aVtranslateX
p2654
aVtranslateY
p2655
aVtranslateZ
p2656
aVrotateX
p2657
aVrotateY
p2658
aVrotateZ
p2659
aVscaleX
p2660
aVscaleY
p2661
aVscaleZ
p2662
aVspace_world
p2663
aaI01
aF0
aF0
aF0
aF0
aF0
aF0
aF1
aF1
aF1
aF0
aa(lp2664
Vpack_hose_in_anim_space_switcher
p2665
a(lp2666
Vvisibility
p2667
aVtranslateX
p2668
aVtranslateY
p2669
aVtranslateZ
p2670
aVrotateX
p2671
aVrotateY
p2672
aVrotateZ
p2673
aVscaleX
p2674
aVscaleY
p2675
aVscaleZ
p2676
aVspace_world
p2677
aaI01
aF0
aF0
aF0
aF0
aF0
aF0
aF0.99999999999999989
aF0.99999999999999989
aF0.99999999999999989
aF0
aa(lp2678
Vpack_hose_out_anim_space_switcher
p2679
a(lp2680
Vvisibility
p2681
aVtranslateX
p2682
aVtranslateY
p2683
aVtranslateZ
p2684
aVrotateX
p2685
aVrotateY
p2686
aVrotateZ
p2687
aVscaleX
p2688
aVscaleY
p2689
aVscaleZ
p2690
aVspace_world
p2691
aaI01
aF0
aF0
aF0
aF0
aF0
aF0
aF1.0000000000000002
aF1.0000000000000002
aF1.0000000000000002
aF0
aa(lp2692
Vr_global_ik_anim_space_switcher
p2693
a(lp2694
Vvisibility
p2695
aVtranslateX
p2696
aVtranslateY
p2697
aVtranslateZ
p2698
aVrotateX
p2699
aVrotateY
p2700
aVrotateZ
p2701
aVscaleX
p2702
aVscaleY
p2703
aVscaleZ
p2704
aVspace_world
p2705
aaI01
aF0
aF0
aF0
aF0
aF0
aF0
aF1
aF1
aF1
aF0
aa(lp2706
Vshotgun_anim_space_switcher
p2707
a(lp2708
Vvisibility
p2709
aVtranslateX
p2710
aVtranslateY
p2711
aVtranslateZ
p2712
aVrotateX
p2713
aVrotateY
p2714
aVrotateZ
p2715
aVscaleX
p2716
aVscaleY
p2717
aVscaleZ
p2718
aVspace_world
p2719
aVspace_driver_hand_l
p2720
aaI01
aF4.9960036108132044e-16
aF0
aF-2.8421709430404007e-14
aF0
aF-2.4848083448933725e-17
aF-1.4334238139603642e-15
aF1
aF1
aF1
aF0
aF0
aa(lp2721
Vshotgun_base_anim_space_switcher
p2722
a(lp2723
Vvisibility
p2724
aVtranslateX
p2725
aVtranslateY
p2726
aVtranslateZ
p2727
aVrotateX
p2728
aVrotateY
p2729
aVrotateZ
p2730
aVscaleX
p2731
aVscaleY
p2732
aVscaleZ
p2733
aVspace_world
p2734
aaI01
aF0
aF0
aF0
aF0
aF0
aF0
aF1
aF1
aF1
aF0
aa(lp2735
Vshotgun_clip_anim_space_switcher
p2736
a(lp2737
Vvisibility
p2738
aVtranslateX
p2739
aVtranslateY
p2740
aVtranslateZ
p2741
aVrotateX
p2742
aVrotateY
p2743
aVrotateZ
p2744
aVscaleX
p2745
aVscaleY
p2746
aVscaleZ
p2747
aVspace_world
p2748
aaI01
aF8.8817841970012523e-16
aF-3.5527136788005009e-15
aF0
aF-9.9392333795734924e-17
aF-0
aF-1.2045496703174517e-15
aF0.99999999999999989
aF0.99999999999999989
aF0.99999999999999989
aF0
aa(lp2749
Vsniper_can_arm_01_anim_space_switcher
p2750
a(lp2751
Vvisibility
p2752
aVtranslateX
p2753
aVtranslateY
p2754
aVtranslateZ
p2755
aVrotateX
p2756
aVrotateY
p2757
aVrotateZ
p2758
aVscaleX
p2759
aVscaleY
p2760
aVscaleZ
p2761
aVspace_world
p2762
aaI01
aF2.5243548967072378e-29
aF0
aF0
aF0
aF0
aF0
aF1
aF1
aF1
aF0
aa(lp2763
Vsniper_can_arm_02_anim_space_switcher
p2764
a(lp2765
Vvisibility
p2766
aVtranslateX
p2767
aVtranslateY
p2768
aVtranslateZ
p2769
aVrotateX
p2770
aVrotateY
p2771
aVrotateZ
p2772
aVscaleX
p2773
aVscaleY
p2774
aVscaleZ
p2775
aVspace_world
p2776
aaI01
aF0
aF0
aF7.1054273576010019e-15
aF-3.180554681463516e-15
aF-0
aF0
aF1
aF1.0000000000000002
aF1.0000000000000002
aF0
aa(lp2777
Vsniper_can_arm_03_anim_space_switcher
p2778
a(lp2779
Vvisibility
p2780
aVtranslateX
p2781
aVtranslateY
p2782
aVtranslateZ
p2783
aVrotateX
p2784
aVrotateY
p2785
aVrotateZ
p2786
aVscaleX
p2787
aVscaleY
p2788
aVscaleZ
p2789
aVspace_world
p2790
aVspace_driver_hand_l
p2791
aVspace_driver_gun
p2792
aaI01
aF0
aF-3.5527136788005009e-15
aF0
aF0
aF0
aF0
aF1
aF1
aF1
aF0
aF0
aF0
aa(lp2793
Vspine_01_space_switcher
p2794
a(lp2795
Vvisibility
p2796
aVtranslateX
p2797
aVtranslateY
p2798
aVtranslateZ
p2799
aVrotateX
p2800
aVrotateY
p2801
aVrotateZ
p2802
aVscaleX
p2803
aVscaleY
p2804
aVscaleZ
p2805
aVspace_world
p2806
aaI01
aF-1.4210854715202004e-14
aF-4.4408920985006262e-16
aF1.2621774483536189e-29
aF-1.7655625192200634e-31
aF-0
aF0
aF1
aF1
aF1
aF0
aa(lp2807
Vtrap_handle_anim_space_switcher
p2808
a(lp2809
Vvisibility
p2810
aVtranslateX
p2811
aVtranslateY
p2812
aVtranslateZ
p2813
aVrotateX
p2814
aVrotateY
p2815
aVrotateZ
p2816
aVscaleX
p2817
aVscaleY
p2818
aVscaleZ
p2819
aVspace_world
p2820
aVspace_driver_hand_l
p2821
aaI01
aF-7.1054273576010019e-15
aF1.4210854715202004e-14
aF0
aF0
aF-7.9513867036587919e-16
aF-2.3854160110976376e-15
aF1
aF1
aF1
aF0
aF0
aa(lp2822
Vwrist_cover_anim_space_switcher
p2823
a(lp2824
Vvisibility
p2825
aVtranslateX
p2826
aVtranslateY
p2827
aVtranslateZ
p2828
aVrotateX
p2829
aVrotateY
p2830
aVrotateZ
p2831
aVscaleX
p2832
aVscaleY
p2833
aVscaleZ
p2834
aVspace_world
p2835
aaI01
aF-2.1316282072803006e-14
aF2.8421709430404007e-14
aF0
aF7.9513867036587939e-16
aF-9.9392333795734899e-17
aF0
aF1
aF0.99999999999999989
aF1
aF0
aa.