(lp1
(lp2
S'fk_clavicle_r_anim'
p3
a(lp4
VtranslateX
p5
aVtranslateY
p6
aVtranslateZ
p7
aVrotateX
p8
aVrotateY
p9
aVrotateZ
p10
aaF0
aF0
aF0
aF0
aF-0
aF0
aa(lp11
S'fk_clavicle_l_anim'
p12
a(lp13
VtranslateX
p14
aVtranslateY
p15
aVtranslateZ
p16
aVrotateX
p17
aVrotateY
p18
aVrotateZ
p19
aaF0
aF0
aF0
aF0
aF-0
aF0
aa(lp20
S'head_fk_anim'
p21
a(lp22
VtranslateX
p23
aVtranslateY
p24
aVtranslateZ
p25
aVrotateX
p26
aVrotateY
p27
aVrotateZ
p28
aVscaleX
p29
aVscaleY
p30
aVscaleZ
p31
aVfkOrientation
p32
aaF0
aF0
aF0
aF21.32049824843401
aF-3.3936434923000522
aF-7.5094399547719926
aF1
aF1
aF1
aI0
aa(lp33
S'neck_01_fk_anim'
p34
a(lp35
VtranslateX
p36
aVtranslateY
p37
aVtranslateZ
p38
aVrotateX
p39
aVrotateY
p40
aVrotateZ
p41
aVscaleX
p42
aVscaleY
p43
aVscaleZ
p44
aVfkOrientation
p45
aaF0
aF0
aF0
aF13.131275249505769
aF7.8708253494551927
aF-7.103483179734666
aF0.99999999999999978
aF1
aF1
aI0
aa(lp46
S'spine_01_anim'
p47
a(lp48
Vlength
p49
aVtranslateY
p50
aVtranslateZ
p51
aVrotateX
p52
aVrotateY
p53
aVrotateZ
p54
aVlength
p55
aaF0
aF0
aF0
aF0.35498344112450103
aF2.2692956044011092
aF-12.948408581868605
aF0
aa(lp56
S'spine_02_anim'
p57
a(lp58
Vlength
p59
aVtranslateY
p60
aVtranslateZ
p61
aVrotateX
p62
aVrotateY
p63
aVrotateZ
p64
aVlength
p65
aaF0
aF0
aF0
aF1.2795136017011592
aF3.9900346983825243
aF-6.9705552135700977
aF0
aa(lp66
S'spine_03_anim'
p67
a(lp68
Vlength
p69
aVtranslateY
p70
aVtranslateZ
p71
aVrotateX
p72
aVrotateY
p73
aVrotateZ
p74
aVlength
p75
aaF0
aF0
aF0
aF0.8750047915441953
aF4.0648260912107528
aF-6.9747141573018556
aF0
aa(lp76
S'mid_ik_anim'
p77
a(lp78
VtranslateX
p79
aVtranslateY
p80
aVtranslateZ
p81
aVrotateX
p82
aVrotateY
p83
aVrotateZ
p84
aaF-0.34151297637958472
aF-4.045570893930984
aF-0.50199337465221339
aF1.5673738714196332
aF6.2688309639452067
aF-7.0369242422473368
aa(lp85
S'chest_ik_anim'
p86
a(lp87
VtranslateX
p88
aVtranslateY
p89
aVtranslateZ
p90
aVrotateX
p91
aVrotateY
p92
aVrotateZ
p93
aVstretch
p94
aVsquash
p95
aVtwist_amount
p96
aVautoSpine
p97
aVrotationInfluence
p98
aaF-0.12785434415667796
aF-7.2736545913176807
aF-1.9590086728924281
aF3.1909411393493858
aF10.104090385135747
aF-17.662639914596308
aF0
aF0
aF1
aF0
aF0.25
aa(lp99
S'body_anim'
p100
a(lp101
VtranslateX
p102
aVtranslateY
p103
aVtranslateZ
p104
aVrotateX
p105
aVrotateY
p106
aVrotateZ
p107
aaF-63.302845302978163
aF16.64240447816076
aF-23.216535622962237
aF-62.29252220567674
aF-12.70428734795018
aF0.12409988068100249
aa(lp108
S'hip_anim'
p109
a(lp110
VtranslateX
p111
aVtranslateY
p112
aVtranslateZ
p113
aVrotateX
p114
aVrotateY
p115
aVrotateZ
p116
aVlCalfTwistCtrlVis
p117
aVrCalfTwistCtrlVis
p118
aVautoHips
p119
aaF0
aF0
aF0
aF-0
aF0
aF-0
aI00
aI00
aF0
aa(lp120
S'clavicle_l_anim'
p121
a(lp122
VtranslateX
p123
aVtranslateY
p124
aVtranslateZ
p125
aVautoShoulders
p126
aaF0.1251595330058862
aF1.6228704042913467
aF2.1150758343761913
aF-0.077739770112311271
aa(lp127
S'clavicle_r_anim'
p128
a(lp129
VtranslateX
p130
aVtranslateY
p131
aVtranslateZ
p132
aVautoShoulders
p133
aaF-0.50101567204649744
aF-4.8016648174326297
aF6.9804725063007522
aF0
aa(lp134
S'fk_arm_l_anim'
p135
a(lp136
VtranslateX
p137
aVtranslateY
p138
aVtranslateZ
p139
aVrotateX
p140
aVrotateY
p141
aVrotateZ
p142
aaF0
aF0
aF0
aF-40.865845528897218
aF30.961596394345406
aF-44.647848795721785
aa(lp143
S'fk_arm_r_anim'
p144
a(lp145
VtranslateX
p146
aVtranslateY
p147
aVtranslateZ
p148
aVrotateX
p149
aVrotateY
p150
aVrotateZ
p151
aaF0
aF0
aF0
aF-7.3441996086219872
aF-4.211003694340631
aF-97.409244945406201
aa(lp152
S'fk_elbow_l_anim'
p153
a(lp154
VtranslateX
p155
aVtranslateY
p156
aVtranslateZ
p157
aVrotateX
p158
aVrotateY
p159
aVrotateZ
p160
aaF0
aF0
aF0
aF20.406248424431396
aF-20.434330077603633
aF-78.737168884759882
aa(lp161
S'fk_elbow_r_anim'
p162
a(lp163
VtranslateX
p164
aVtranslateY
p165
aVtranslateZ
p166
aVrotateX
p167
aVrotateY
p168
aVrotateZ
p169
aaF0
aF0
aF0
aF12.291115507574672
aF-14.43659508609027
aF-72.502994167086925
aa(lp170
S'fk_wrist_l_anim'
p171
a(lp172
VtranslateX
p173
aVtranslateY
p174
aVtranslateZ
p175
aVrotateX
p176
aVrotateY
p177
aVrotateZ
p178
aaF0
aF0
aF0
aF-60.042452890478707
aF-14.695606986687105
aF-13.403240582178649
aa(lp179
S'fk_wrist_r_anim'
p180
a(lp181
VtranslateX
p182
aVtranslateY
p183
aVtranslateZ
p184
aVrotateX
p185
aVrotateY
p186
aVrotateZ
p187
aaF0
aF0
aF0
aF-35.98253119490289
aF-24.026781064148512
aF-6.8014392975927196
aa(lp188
S'ik_elbow_l_anim'
p189
a(lp190
VtranslateX
p191
aVtranslateY
p192
aVtranslateZ
p193
aaF27.001538109641817
aF13.554903733173223
aF-105.56763431862812
aa(lp194
S'ik_elbow_r_anim'
p195
a(lp196
VtranslateX
p197
aVtranslateY
p198
aVtranslateZ
p199
aaF28.891229769297368
aF0.24085566086058607
aF-67.552625229295103
aa(lp200
S'ik_wrist_l_anim'
p201
a(lp202
VtranslateX
p203
aVtranslateY
p204
aVtranslateZ
p205
aVrotateX
p206
aVrotateY
p207
aVrotateZ
p208
aVstretch
p209
aVsquash
p210
aVstretchBias
p211
aVside
p212
aVmid_bend
p213
aVmid_swivel
p214
aVtip_pivot
p215
aVtip_swivel
p216
aaF-67.576098350498
aF-45.183650774200643
aF-81.236395382644943
aF184.43182437319865
aF3.3082519415687535
aF219.98065589252411
aF0
aF0
aF0
aF0
aF-10
aF0
aF0
aF0
aa(lp217
S'ik_wrist_r_anim'
p218
a(lp219
VtranslateX
p220
aVtranslateY
p221
aVtranslateZ
p222
aVrotateX
p223
aVrotateY
p224
aVrotateZ
p225
aVstretch
p226
aVsquash
p227
aVstretchBias
p228
aVside
p229
aVmid_bend
p230
aVmid_swivel
p231
aVtip_pivot
p232
aVtip_swivel
p233
aaF58.514070533137698
aF-13.175509361442533
aF-68.490085598245344
aF-88.342831633807648
aF1.3856142594243706
aF93.513487817277039
aF0
aF0
aF0
aF0
aF0
aF0
aF0
aF0
aa(lp234
S'fk_thigh_l_anim'
p235
a(lp236
VrotateX
p237
aVrotateY
p238
aVrotateZ
p239
aaF0.48539298103412459
aF-42.559852405084825
aF96.940596075219077
aa(lp240
S'fk_thigh_r_anim'
p241
a(lp242
VrotateX
p243
aVrotateY
p244
aVrotateZ
p245
aaF-44.861708680716589
aF-32.452237544703799
aF34.090940233765672
aa(lp246
S'fk_calf_l_anim'
p247
a(lp248
VrotateX
p249
aVrotateY
p250
aVrotateZ
p251
aaF11.792003935526555
aF-7.7734474411714247
aF-110.40791790448512
aa(lp252
S'fk_calf_r_anim'
p253
a(lp254
VrotateX
p255
aVrotateY
p256
aVrotateZ
p257
aaF-9.5021993703680359
aF7.6110666249935166
aF-142.51690054919666
aa(lp258
S'fk_foot_l_anim'
p259
a(lp260
VrotateX
p261
aVrotateY
p262
aVrotateZ
p263
aaF-25.037114857847602
aF14.25644723038862
aF-0.53874183642041484
aa(lp264
S'fk_foot_r_anim'
p265
a(lp266
VrotateX
p267
aVrotateY
p268
aVrotateZ
p269
aaF-16.290413549944564
aF10.917359480136783
aF12.614601433156635
aa(lp270
S'fk_ball_l_anim'
p271
a(lp272
VrotateX
p273
aVrotateY
p274
aVrotateZ
p275
aaF0.0019855489954352301
aF-0.0023188348859302672
aF-0.014054783619932308
aa(lp276
S'fk_ball_r_anim'
p277
a(lp278
VrotateX
p279
aVrotateY
p280
aVrotateZ
p281
aaF0.063914984464645483
aF0.0035275309346337706
aF-0.4225362241268128
aa(lp282
S'ik_foot_anim_l'
p283
a(lp284
VtranslateX
p285
aVtranslateY
p286
aVtranslateZ
p287
aVrotateX
p288
aVrotateY
p289
aVrotateZ
p290
aVknee_twist
p291
aVstretch
p292
aVsquash
p293
aVtoeCtrlVis
p294
aVstretchBias
p295
aaF12.164949188667554
aF-34.885159649467113
aF0.97591859978314122
aF-0.065749730926264432
aF2.0735938715997579
aF-26.173774367586976
aF-28.153436466272449
aF0
aF0
aI00
aF0
aa(lp296
S'ik_foot_anim_r'
p297
a(lp298
VtranslateX
p299
aVtranslateY
p300
aVtranslateZ
p301
aVrotateX
p302
aVrotateY
p303
aVrotateZ
p304
aVknee_twist
p305
aVstretch
p306
aVsquash
p307
aVtoeCtrlVis
p308
aVstretchBias
p309
aaF41.777794686902936
aF43.224749244175904
aF6.7875835183841389
aF95.262650046507758
aF24.798176425927071
aF-66.093837751611673
aF60.163488743062608
aF0
aF0
aI00
aF0
aa(lp310
S'heel_ctrl_l'
p311
a(lp312
VrotateX
p313
aVrotateY
p314
aVrotateZ
p315
aVheelPivot
p316
aVballPivot
p317
aaF0
aF-0
aF0
aF0
aF0
aa(lp318
S'heel_ctrl_r'
p319
a(lp320
VrotateX
p321
aVrotateY
p322
aVrotateZ
p323
aVheelPivot
p324
aVballPivot
p325
aaF0
aF-0
aF0
aF0
aF0
aa(lp326
S'toe_wiggle_ctrl_l'
p327
a(lp328
VrotateX
p329
aVrotateY
p330
aVrotateZ
p331
aaF0
aF-0
aF0
aa(lp332
S'toe_wiggle_ctrl_r'
p333
a(lp334
VrotateX
p335
aVrotateY
p336
aVrotateZ
p337
aaF0
aF-0
aF0
aa(lp338
S'toe_tip_ctrl_l'
p339
a(lp340
VrotateX
p341
aVrotateY
p342
aVrotateZ
p343
aaF0
aF-0
aF0
aa(lp344
S'toe_tip_ctrl_r'
p345
a(lp346
VrotateX
p347
aVrotateY
p348
aVrotateZ
p349
aaF0
aF-0
aF0
aa(lp350
S'master_anim'
p351
a(lp352
VtranslateX
p353
aVtranslateY
p354
aVtranslateZ
p355
aVrotateX
p356
aVrotateY
p357
aVrotateZ
p358
aaF0
aF0
aF0
aF0
aF-0
aF0
aa(lp359
S'offset_anim'
p360
a(lp361
VtranslateX
p362
aVtranslateY
p363
aVtranslateZ
p364
aVrotateX
p365
aVrotateY
p366
aVrotateZ
p367
aaF0
aF0
aF0
aF0
aF-0
aF0
aa(lp368
S'root_anim'
p369
a(lp370
VtranslateX
p371
aVtranslateY
p372
aVtranslateZ
p373
aVrotateX
p374
aVrotateY
p375
aVrotateZ
p376
aaF0
aF0
aF0
aF0
aF-0
aF0
aa(lp377
S'upperarm_l_twist_anim'
p378
a(lp379
VtranslateX
p380
aVtranslateY
p381
aVtranslateZ
p382
aVrotateX
p383
aVrotateY
p384
aVrotateZ
p385
aVscaleX
p386
aVscaleY
p387
aVscaleZ
p388
aaF0
aF0
aF0
aF0
aF-0
aF0
aF1
aF1
aF1
aa(lp389
S'upperarm_l_twist_2_anim'
p390
a(lp391
VtranslateX
p392
aVtranslateY
p393
aVtranslateZ
p394
aVrotateX
p395
aVrotateY
p396
aVrotateZ
p397
aVscaleX
p398
aVscaleY
p399
aVscaleZ
p400
aaF0
aF0
aF0
aF0
aF-0
aF0
aF1
aF1
aF1
aa(lp401
S'upperarm_r_twist_anim'
p402
a(lp403
VtranslateX
p404
aVtranslateY
p405
aVtranslateZ
p406
aVrotateX
p407
aVrotateY
p408
aVrotateZ
p409
aVscaleX
p410
aVscaleY
p411
aVscaleZ
p412
aaF0
aF0
aF0
aF0
aF-0
aF0
aF1
aF1
aF1
aa(lp413
S'upperarm_r_twist_2_anim'
p414
a(lp415
VtranslateX
p416
aVtranslateY
p417
aVtranslateZ
p418
aVrotateX
p419
aVrotateY
p420
aVrotateZ
p421
aVscaleX
p422
aVscaleY
p423
aVscaleZ
p424
aaF0
aF0
aF0
aF0
aF-0
aF0
aF1
aF1
aF1
aa(lp425
S'lowerarm_l_twist_anim'
p426
a(lp427
VtranslateX
p428
aVtranslateY
p429
aVtranslateZ
p430
aVrotateX
p431
aVrotateY
p432
aVrotateZ
p433
aaF0
aF0
aF0
aF-36.263802150639862
aF-0
aF0
aa(lp434
S'lowerarm_r_twist_anim'
p435
a(lp436
VtranslateX
p437
aVtranslateY
p438
aVtranslateZ
p439
aVrotateX
p440
aVrotateY
p441
aVrotateZ
p442
aaF0
aF0
aF0
aF0
aF-0
aF0
aa(lp443
S'l_thigh_twist_01_anim'
p444
a(lp445
VtranslateX
p446
aVtranslateY
p447
aVtranslateZ
p448
aVrotateX
p449
aVrotateY
p450
aVrotateZ
p451
aVscaleX
p452
aVscaleY
p453
aVscaleZ
p454
aaF0
aF0
aF0
aF0
aF-0
aF0
aF1
aF1
aF1
aa(lp455
S'r_thigh_twist_01_anim'
p456
a(lp457
VtranslateX
p458
aVtranslateY
p459
aVtranslateZ
p460
aVrotateX
p461
aVrotateY
p462
aVrotateZ
p463
aVscaleX
p464
aVscaleY
p465
aVscaleZ
p466
aaF0
aF0
aF0
aF0
aF-0
aF0
aF1
aF1
aF1
aa(lp467
S'pinky_finger_fk_ctrl_1_l'
p468
a(lp469
VtranslateX
p470
aVtranslateY
p471
aVtranslateZ
p472
aVrotateX
p473
aVrotateY
p474
aVrotateZ
p475
aVsticky
p476
aaF0.018919892879092487
aF0.55760808680475793
aF-0.012095525612126226
aF6.2022500489095096
aF5.7351225640898349
aF32.993087364347552
aF0
aa(lp477
S'pinky_finger_fk_ctrl_1_r'
p478
a(lp479
VtranslateX
p480
aVtranslateY
p481
aVtranslateZ
p482
aVrotateX
p483
aVrotateY
p484
aVrotateZ
p485
aVsticky
p486
aaF0
aF0
aF0
aF-12.038538634804246
aF-15.346503167899431
aF61.069666973751374
aF0
aa(lp487
S'pinky_finger_fk_ctrl_2_l'
p488
a(lp489
VtranslateX
p490
aVtranslateY
p491
aVtranslateZ
p492
aVrotateX
p493
aVrotateY
p494
aVrotateZ
p495
aaF0
aF0
aF0
aF-5.696329146084552
aF4.5301649898819516
aF-11.536451226470412
aa(lp496
S'pinky_finger_fk_ctrl_2_r'
p497
a(lp498
VtranslateX
p499
aVtranslateY
p500
aVtranslateZ
p501
aVrotateX
p502
aVrotateY
p503
aVrotateZ
p504
aaF0
aF0
aF0
aF4.0926212310828536
aF-10.90632891302428
aF36.685285091803479
aa(lp505
S'pinky_finger_fk_ctrl_3_l'
p506
a(lp507
VtranslateX
p508
aVtranslateY
p509
aVtranslateZ
p510
aVrotateX
p511
aVrotateY
p512
aVrotateZ
p513
aaF0
aF0
aF0
aF-20.220955716913682
aF1.7720462272342572
aF9.6033002735716657
aa(lp514
S'pinky_finger_fk_ctrl_3_r'
p515
a(lp516
VtranslateX
p517
aVtranslateY
p518
aVtranslateZ
p519
aVrotateX
p520
aVrotateY
p521
aVrotateZ
p522
aaF0
aF0
aF0
aF4.0918183326721831
aF-10.422439575195227
aF70.588310241699247
aa(lp523
S'ring_finger_fk_ctrl_1_l'
p524
a(lp525
VtranslateX
p526
aVtranslateY
p527
aVtranslateZ
p528
aVrotateX
p529
aVrotateY
p530
aVrotateZ
p531
aVsticky
p532
aaF-0.0080973554435279701
aF0.53708598178998457
aF-0.15134108469428592
aF-5.4372545509901293
aF7.583728148605771
aF29.83528157925684
aF0
aa(lp533
S'ring_finger_fk_ctrl_1_r'
p534
a(lp535
VtranslateX
p536
aVtranslateY
p537
aVtranslateZ
p538
aVrotateX
p539
aVrotateY
p540
aVrotateZ
p541
aVsticky
p542
aaF0
aF0
aF0
aF-1.876170615447976
aF-7.6147962974646362
aF58.8063869418691
aF0
aa(lp543
S'ring_finger_fk_ctrl_2_l'
p544
a(lp545
VtranslateX
p546
aVtranslateY
p547
aVtranslateZ
p548
aVrotateX
p549
aVrotateY
p550
aVrotateZ
p551
aaF0
aF0
aF0
aF-5.9267090280944359
aF-2.7585314365894371
aF7.0977009715939925
aa(lp552
S'ring_finger_fk_ctrl_2_r'
p553
a(lp554
VtranslateX
p555
aVtranslateY
p556
aVtranslateZ
p557
aVrotateX
p558
aVrotateY
p559
aVrotateZ
p560
aaF0
aF0
aF0
aF1.2678331474032729
aF0.84626236834742308
aF58.151792941968694
aa(lp561
S'ring_finger_fk_ctrl_3_l'
p562
a(lp563
VtranslateX
p564
aVtranslateY
p565
aVtranslateZ
p566
aVrotateX
p567
aVrotateY
p568
aVrotateZ
p569
aaF0
aF0
aF0
aF0
aF-0
aF12.106969195596514
aa(lp570
S'ring_finger_fk_ctrl_3_r'
p571
a(lp572
VtranslateX
p573
aVtranslateY
p574
aVtranslateZ
p575
aVrotateX
p576
aVrotateY
p577
aVrotateZ
p578
aaF0
aF0
aF0
aF4.9681847874579974
aF1.9827603811766763
aF51.81085618963867
aa(lp579
S'middle_finger_fk_ctrl_1_l'
p580
a(lp581
VtranslateX
p582
aVtranslateY
p583
aVtranslateZ
p584
aVrotateX
p585
aVrotateY
p586
aVrotateZ
p587
aVsticky
p588
aaF-0.045752000560038614
aF0.5225297764957787
aF-0.19052671804328622
aF-10.48239439290729
aF-0.44541105491345589
aF34.002638941776361
aF0
aa(lp589
S'middle_finger_fk_ctrl_1_r'
p590
a(lp591
VtranslateX
p592
aVtranslateY
p593
aVtranslateZ
p594
aVrotateX
p595
aVrotateY
p596
aVrotateZ
p597
aVsticky
p598
aaF0
aF0
aF0
aF-1.5576746481679484
aF-7.4905473452150595
aF71.028698128889502
aF0
aa(lp599
S'middle_finger_fk_ctrl_2_l'
p600
a(lp601
VtranslateX
p602
aVtranslateY
p603
aVtranslateZ
p604
aVrotateX
p605
aVrotateY
p606
aVrotateZ
p607
aaF0
aF0
aF0
aF18.085582459037969
aF7.7967965830161612
aF16.613598586382569
aa(lp608
S'middle_finger_fk_ctrl_2_r'
p609
a(lp610
VtranslateX
p611
aVtranslateY
p612
aVtranslateZ
p613
aVrotateX
p614
aVrotateY
p615
aVrotateZ
p616
aaF0
aF0
aF0
aF3.1205578674787828
aF-6.3745989768270013
aF87.623761326050996
aa(lp617
S'middle_finger_fk_ctrl_3_l'
p618
a(lp619
VtranslateX
p620
aVtranslateY
p621
aVtranslateZ
p622
aVrotateX
p623
aVrotateY
p624
aVrotateZ
p625
aaF0
aF0
aF0
aF-33.563460978241295
aF-1.3226786012898746
aF11.198340275056017
aa(lp626
S'middle_finger_fk_ctrl_3_r'
p627
a(lp628
VtranslateX
p629
aVtranslateY
p630
aVtranslateZ
p631
aVrotateX
p632
aVrotateY
p633
aVrotateZ
p634
aaF0
aF0
aF0
aF3.4957659244538029
aF-2.3556907176972652
aF56.616756439208764
aa(lp635
S'index_finger_fk_ctrl_1_l'
p636
a(lp637
VtranslateX
p638
aVtranslateY
p639
aVtranslateZ
p640
aVrotateX
p641
aVrotateY
p642
aVrotateZ
p643
aVsticky
p644
aaF0
aF0
aF0
aF-23.800035296418901
aF1.8079139078460014
aF14.70207404549098
aF0
aa(lp645
S'index_finger_fk_ctrl_1_r'
p646
a(lp647
VtranslateX
p648
aVtranslateY
p649
aVtranslateZ
p650
aVrotateX
p651
aVrotateY
p652
aVrotateZ
p653
aVsticky
p654
aaF0
aF0
aF0
aF-3.3387658576568833
aF-6.092889014962541
aF28.807332414874388
aF0
aa(lp655
S'index_finger_fk_ctrl_2_l'
p656
a(lp657
VtranslateX
p658
aVtranslateY
p659
aVtranslateZ
p660
aVrotateX
p661
aVrotateY
p662
aVrotateZ
p663
aaF0
aF0
aF0
aF-14.31542770853142
aF-9.6922554370732161
aF13.212418823236698
aa(lp664
S'index_finger_fk_ctrl_2_r'
p665
a(lp666
VtranslateX
p667
aVtranslateY
p668
aVtranslateZ
p669
aVrotateX
p670
aVrotateY
p671
aVrotateZ
p672
aaF0
aF0
aF0
aF11.87819530518318
aF10.670392996210483
aF79.264915157726776
aa(lp673
S'index_finger_fk_ctrl_3_l'
p674
a(lp675
VtranslateX
p676
aVtranslateY
p677
aVtranslateZ
p678
aVrotateX
p679
aVrotateY
p680
aVrotateZ
p681
aaF0
aF0
aF0
aF0
aF-0
aF17.200898700729287
aa(lp682
S'index_finger_fk_ctrl_3_r'
p683
a(lp684
VtranslateX
p685
aVtranslateY
p686
aVtranslateZ
p687
aVrotateX
p688
aVrotateY
p689
aVrotateZ
p690
aaF0
aF0
aF0
aF3.8930345959253243
aF12.801635754274121
aF55.805820462192209
aa(lp691
S'thumb_finger_fk_ctrl_1_l'
p692
a(lp693
VtranslateX
p694
aVtranslateY
p695
aVtranslateZ
p696
aVrotateX
p697
aVrotateY
p698
aVrotateZ
p699
aVsticky
p700
aaF0
aF0
aF0
aF12.311901644861429
aF22.230901877679134
aF-30.011818001885455
aF0
aa(lp701
S'thumb_finger_fk_ctrl_1_r'
p702
a(lp703
VtranslateX
p704
aVtranslateY
p705
aVtranslateZ
p706
aVrotateX
p707
aVrotateY
p708
aVrotateZ
p709
aVsticky
p710
aaF0
aF0
aF0
aF13.842250404365828
aF26.503599510185033
aF43.077075235460178
aF0
aa(lp711
S'thumb_finger_fk_ctrl_2_l'
p712
a(lp713
VtranslateX
p714
aVtranslateY
p715
aVtranslateZ
p716
aVrotateX
p717
aVrotateY
p718
aVrotateZ
p719
aaF0
aF0
aF0
aF0
aF-0
aF0
aa(lp720
S'thumb_finger_fk_ctrl_2_r'
p721
a(lp722
VtranslateX
p723
aVtranslateY
p724
aVtranslateZ
p725
aVrotateX
p726
aVrotateY
p727
aVrotateZ
p728
aaF0
aF0
aF0
aF-1.7716493101714745
aF4.5295816409483596
aF-4.436411867726572
aa(lp729
S'thumb_finger_fk_ctrl_3_l'
p730
a(lp731
VtranslateX
p732
aVtranslateY
p733
aVtranslateZ
p734
aVrotateX
p735
aVrotateY
p736
aVrotateZ
p737
aaF0
aF0
aF0
aF-7.3925292404922356
aF-0.27176588581453365
aF19.079148627998524
aa(lp738
S'thumb_finger_fk_ctrl_3_r'
p739
a(lp740
VtranslateX
p741
aVtranslateY
p742
aVtranslateZ
p743
aVrotateX
p744
aVrotateY
p745
aVrotateZ
p746
aaF0
aF0
aF0
aF9.6091172287167943e-06
aF-7.5830332790935439e-22
aF55.176322325550011
aa(lp747
S'index_l_ik_anim'
p748
a(lp749
VtranslateX
p750
aVtranslateY
p751
aVtranslateZ
p752
aVrotateX
p753
aVrotateY
p754
aVrotateZ
p755
aVpoleVectorVis
p756
aaF0
aF0
aF0
aF0
aF-0
aF0
aF0
aa(lp757
S'index_r_ik_anim'
p758
a(lp759
VtranslateX
p760
aVtranslateY
p761
aVtranslateZ
p762
aVrotateX
p763
aVrotateY
p764
aVrotateZ
p765
aVpoleVectorVis
p766
aaF0
aF0
aF0
aF0
aF-0
aF0
aF0
aa(lp767
S'middle_l_ik_anim'
p768
a(lp769
VtranslateX
p770
aVtranslateY
p771
aVtranslateZ
p772
aVrotateX
p773
aVrotateY
p774
aVrotateZ
p775
aVpoleVectorVis
p776
aaF0
aF0
aF0
aF0
aF-0
aF0
aF0
aa(lp777
S'middle_r_ik_anim'
p778
a(lp779
VtranslateX
p780
aVtranslateY
p781
aVtranslateZ
p782
aVrotateX
p783
aVrotateY
p784
aVrotateZ
p785
aVpoleVectorVis
p786
aaF0
aF0
aF0
aF0
aF-0
aF0
aF0
aa(lp787
S'ring_l_ik_anim'
p788
a(lp789
VtranslateX
p790
aVtranslateY
p791
aVtranslateZ
p792
aVrotateX
p793
aVrotateY
p794
aVrotateZ
p795
aVpoleVectorVis
p796
aaF0
aF0
aF0
aF0
aF-0
aF0
aF0
aa(lp797
S'ring_r_ik_anim'
p798
a(lp799
VtranslateX
p800
aVtranslateY
p801
aVtranslateZ
p802
aVrotateX
p803
aVrotateY
p804
aVrotateZ
p805
aVpoleVectorVis
p806
aaF0
aF0
aF0
aF0
aF-0
aF0
aF0
aa(lp807
S'pinky_l_ik_anim'
p808
a(lp809
VtranslateX
p810
aVtranslateY
p811
aVtranslateZ
p812
aVrotateX
p813
aVrotateY
p814
aVrotateZ
p815
aVpoleVectorVis
p816
aaF0
aF0
aF0
aF0
aF-0
aF0
aF0
aa(lp817
S'pinky_r_ik_anim'
p818
a(lp819
VtranslateX
p820
aVtranslateY
p821
aVtranslateZ
p822
aVrotateX
p823
aVrotateY
p824
aVrotateZ
p825
aVpoleVectorVis
p826
aaF0
aF0
aF0
aF0
aF-0
aF0
aF0
aa(lp827
S'thumb_l_ik_anim'
p828
a(lp829
VtranslateX
p830
aVtranslateY
p831
aVtranslateZ
p832
aVrotateX
p833
aVrotateY
p834
aVrotateZ
p835
aVpoleVectorVis
p836
aaF0
aF0
aF0
aF0
aF-0
aF0
aF0
aa(lp837
S'thumb_r_ik_anim'
p838
a(lp839
VtranslateX
p840
aVtranslateY
p841
aVtranslateZ
p842
aVrotateX
p843
aVrotateY
p844
aVrotateZ
p845
aVpoleVectorVis
p846
aaF0
aF0
aF0
aF0
aF-0
aF0
aF0
aa(lp847
S'index_l_poleVector'
p848
a(lp849
VtranslateX
p850
aVtranslateY
p851
aVtranslateZ
p852
aVrotateX
p853
aVrotateY
p854
aVrotateZ
p855
aaF0
aF0
aF0
aF0
aF-0
aF0
aa(lp856
S'index_r_poleVector'
p857
a(lp858
VtranslateX
p859
aVtranslateY
p860
aVtranslateZ
p861
aVrotateX
p862
aVrotateY
p863
aVrotateZ
p864
aaF0
aF0
aF0
aF0
aF-0
aF0
aa(lp865
S'middle_l_poleVector'
p866
a(lp867
VtranslateX
p868
aVtranslateY
p869
aVtranslateZ
p870
aVrotateX
p871
aVrotateY
p872
aVrotateZ
p873
aaF0
aF0
aF0
aF0
aF-0
aF0
aa(lp874
S'middle_r_poleVector'
p875
a(lp876
VtranslateX
p877
aVtranslateY
p878
aVtranslateZ
p879
aVrotateX
p880
aVrotateY
p881
aVrotateZ
p882
aaF0
aF0
aF0
aF0
aF-0
aF0
aa(lp883
S'ring_l_poleVector'
p884
a(lp885
VtranslateX
p886
aVtranslateY
p887
aVtranslateZ
p888
aVrotateX
p889
aVrotateY
p890
aVrotateZ
p891
aaF0
aF0
aF0
aF0
aF-0
aF0
aa(lp892
S'ring_r_poleVector'
p893
a(lp894
VtranslateX
p895
aVtranslateY
p896
aVtranslateZ
p897
aVrotateX
p898
aVrotateY
p899
aVrotateZ
p900
aaF0
aF0
aF0
aF0
aF-0
aF0
aa(lp901
S'pinky_l_poleVector'
p902
a(lp903
VtranslateX
p904
aVtranslateY
p905
aVtranslateZ
p906
aVrotateX
p907
aVrotateY
p908
aVrotateZ
p909
aaF0
aF0
aF0
aF0
aF-0
aF0
aa(lp910
S'pinky_r_poleVector'
p911
a(lp912
VtranslateX
p913
aVtranslateY
p914
aVtranslateZ
p915
aVrotateX
p916
aVrotateY
p917
aVrotateZ
p918
aaF0
aF0
aF0
aF0
aF-0
aF0
aa(lp919
S'thumb_l_poleVector'
p920
a(lp921
VtranslateX
p922
aVtranslateY
p923
aVtranslateZ
p924
aVrotateX
p925
aVrotateY
p926
aVrotateZ
p927
aaF0
aF0
aF0
aF0
aF-0
aF0
aa(lp928
S'thumb_r_poleVector'
p929
a(lp930
VtranslateX
p931
aVtranslateY
p932
aVtranslateZ
p933
aVrotateX
p934
aVrotateY
p935
aVrotateZ
p936
aaF0
aF0
aF0
aF0
aF-0
aF0
aa(lp937
S'l_global_ik_anim'
p938
a(lp939
VtranslateX
p940
aVtranslateY
p941
aVtranslateZ
p942
aVrotateX
p943
aVrotateY
p944
aVrotateZ
p945
aaF0
aF0
aF0
aF0
aF-0
aF0
aa(lp946
S'r_global_ik_anim'
p947
a(lp948
VtranslateX
p949
aVtranslateY
p950
aVtranslateZ
p951
aVrotateX
p952
aVrotateY
p953
aVrotateZ
p954
aaF0
aF0
aF0
aF0
aF-0
aF0
aa(lp955
S'Rig_Settings'
p956
a(lp957
Vspine_ik
p958
aVspine_fk
p959
aVlLegMode
p960
aVlThighTwistAmount
p961
aVlThighTwist2Amount
p962
aVllegTwistCtrlVis
p963
aVlCalfTwistAmount
p964
aVrLegMode
p965
aVrThighTwistAmount
p966
aVrThighTwist2Amount
p967
aVrlegTwistCtrlVis
p968
aVrCalfTwistAmount
p969
aVlFkArmOrient
p970
aVlArmMode
p971
aVlClavMode
p972
aVlUpperarmTwistAmount
p973
aVlUpperarmTwist2Amount
p974
aVltwistCtrlVis
p975
aVltwistCtrlVisLower
p976
aVlForearmTwistAmount
p977
aVlForearmTwist2Amount
p978
aVrFkArmOrient
p979
aVrArmMode
p980
aVrClavMode
p981
aVrUpperarmTwistAmount
p982
aVrUpperarmTwist2Amount
p983
aVrtwistCtrlVis
p984
aVrtwistCtrlVisLower
p985
aVrForearmTwistAmount
p986
aaF1
aF0
aI1
aF1
aF0.59999999999999998
aI00
aF0.5
aI1
aF1
aF0.59999999999999998
aI00
aF0.5
aI0
aI1
aI1
aF0.90000000000000002
aF0.59999999999999998
aI00
aI00
aF0.5
aF0.59999999999999998
aI0
aI1
aI1
aF0.90000000000000002
aF0.59999999999999998
aI00
aI00
aF0.5
aa(lp987
S'calf_l_twist_anim'
p988
a(lp989
VtranslateX
p990
aVtranslateY
p991
aVtranslateZ
p992
aVrotateX
p993
aVrotateY
p994
aVrotateZ
p995
aaF0
aF0
aF0
aF0
aF-0
aF0
aa(lp996
S'calf_r_twist_anim'
p997
a(lp998
VtranslateX
p999
aVtranslateY
p1000
aVtranslateZ
p1001
aVrotateX
p1002
aVrotateY
p1003
aVrotateZ
p1004
aaF0
aF0
aF0
aF0
aF-0
aF0
aa(lp1005
S'lowerarm_l_twist2_anim'
p1006
a(lp1007
VtranslateX
p1008
aVtranslateY
p1009
aVtranslateZ
p1010
aVrotateX
p1011
aVrotateY
p1012
aVrotateZ
p1013
aaF0
aF0
aF0
aF0
aF-0
aF0
aa(lp1014
Vankle_plate_in_l_anim
p1015
a(lp1016
VtranslateX
p1017
aVtranslateY
p1018
aVtranslateZ
p1019
aVrotateX
p1020
aVrotateY
p1021
aVrotateZ
p1022
aVscaleX
p1023
aVscaleY
p1024
aVscaleZ
p1025
aaF0
aF0
aF0
aF0
aF-0
aF0
aF1
aF1
aF1
aa(lp1026
Vankle_plate_in_r_anim
p1027
a(lp1028
VtranslateX
p1029
aVtranslateY
p1030
aVtranslateZ
p1031
aVrotateX
p1032
aVrotateY
p1033
aVrotateZ
p1034
aVscaleX
p1035
aVscaleY
p1036
aVscaleZ
p1037
aaF0
aF0
aF0
aF0
aF-0
aF0
aF1
aF1
aF1
aa(lp1038
Vankle_plate_out_l_anim
p1039
a(lp1040
VtranslateX
p1041
aVtranslateY
p1042
aVtranslateZ
p1043
aVrotateX
p1044
aVrotateY
p1045
aVrotateZ
p1046
aVscaleX
p1047
aVscaleY
p1048
aVscaleZ
p1049
aaF0
aF0
aF0
aF0
aF-0
aF0
aF1
aF1
aF1
aa(lp1050
Vankle_plate_out_r_anim
p1051
a(lp1052
VtranslateX
p1053
aVtranslateY
p1054
aVtranslateZ
p1055
aVrotateX
p1056
aVrotateY
p1057
aVrotateZ
p1058
aVscaleX
p1059
aVscaleY
p1060
aVscaleZ
p1061
aaF0
aF0
aF0
aF0
aF-0
aF0
aF1
aF1
aF1
aa(lp1062
Varm_hose_bott_anim
p1063
a(lp1064
VtranslateX
p1065
aVtranslateY
p1066
aVtranslateZ
p1067
aVrotateX
p1068
aVrotateY
p1069
aVrotateZ
p1070
aVscaleX
p1071
aVscaleY
p1072
aVscaleZ
p1073
aaF0
aF0
aF0
aF0
aF-0
aF0
aF1
aF1
aF1
aa(lp1074
Varm_hose_top_anim
p1075
a(lp1076
VtranslateX
p1077
aVtranslateY
p1078
aVtranslateZ
p1079
aVrotateX
p1080
aVrotateY
p1081
aVrotateZ
p1082
aVscaleX
p1083
aVscaleY
p1084
aVscaleZ
p1085
aaF0
aF0
aF0
aF0
aF-0
aF0
aF1
aF1
aF1
aa(lp1086
Varm_pouch_l_anim
p1087
a(lp1088
VtranslateX
p1089
aVtranslateY
p1090
aVtranslateZ
p1091
aVrotateX
p1092
aVrotateY
p1093
aVrotateZ
p1094
aVscaleX
p1095
aVscaleY
p1096
aVscaleZ
p1097
aaF0
aF0
aF0
aF0
aF-0
aF0
aF1
aF1
aF1
aa(lp1098
Vbot_hand_anim
p1099
a(lp1100
VtranslateX
p1101
aVtranslateY
p1102
aVtranslateZ
p1103
aVrotateX
p1104
aVrotateY
p1105
aVrotateZ
p1106
aVscaleX
p1107
aVscaleY
p1108
aVscaleZ
p1109
aaF0
aF0
aF0
aF0
aF-0
aF0
aF1
aF1
aF1
aa(lp1110
Vbot_loarm_anim
p1111
a(lp1112
VtranslateX
p1113
aVtranslateY
p1114
aVtranslateZ
p1115
aVrotateX
p1116
aVrotateY
p1117
aVrotateZ
p1118
aVscaleX
p1119
aVscaleY
p1120
aVscaleZ
p1121
aaF0
aF0
aF0
aF0
aF-0
aF0
aF1
aF1
aF1
aa(lp1122
Vbot_loarm_pistonB_bot_anim
p1123
a(lp1124
VtranslateX
p1125
aVtranslateY
p1126
aVtranslateZ
p1127
aVrotateX
p1128
aVrotateY
p1129
aVrotateZ
p1130
aVscaleX
p1131
aVscaleY
p1132
aVscaleZ
p1133
aaF0
aF0
aF0
aF0
aF-0
aF0
aF1
aF1
aF1
aa(lp1134
Vbot_loarm_pistonB_top_anim
p1135
a(lp1136
VtranslateX
p1137
aVtranslateY
p1138
aVtranslateZ
p1139
aVrotateX
p1140
aVrotateY
p1141
aVrotateZ
p1142
aVscaleX
p1143
aVscaleY
p1144
aVscaleZ
p1145
aaF0
aF0
aF0
aF0
aF-0
aF0
aF1
aF1
aF1
aa(lp1146
Vbot_loarm_pistonC_bot_anim
p1147
a(lp1148
VtranslateX
p1149
aVtranslateY
p1150
aVtranslateZ
p1151
aVrotateX
p1152
aVrotateY
p1153
aVrotateZ
p1154
aVscaleX
p1155
aVscaleY
p1156
aVscaleZ
p1157
aaF0
aF0
aF0
aF0
aF-0
aF0
aF1
aF1
aF1
aa(lp1158
Vbot_loarm_pistonC_top_anim
p1159
a(lp1160
VtranslateX
p1161
aVtranslateY
p1162
aVtranslateZ
p1163
aVrotateX
p1164
aVrotateY
p1165
aVrotateZ
p1166
aVscaleX
p1167
aVscaleY
p1168
aVscaleZ
p1169
aaF0
aF0
aF0
aF0
aF-0
aF0
aF1
aF1
aF1
aa(lp1170
Vbot_loarm_pistonD_bot_anim
p1171
a(lp1172
VtranslateX
p1173
aVtranslateY
p1174
aVtranslateZ
p1175
aVrotateX
p1176
aVrotateY
p1177
aVrotateZ
p1178
aVscaleX
p1179
aVscaleY
p1180
aVscaleZ
p1181
aaF0
aF0
aF0
aF0
aF-0
aF0
aF1
aF1
aF1
aa(lp1182
Vbot_loarm_pistonD_top_anim
p1183
a(lp1184
VtranslateX
p1185
aVtranslateY
p1186
aVtranslateZ
p1187
aVrotateX
p1188
aVrotateY
p1189
aVrotateZ
p1190
aVscaleX
p1191
aVscaleY
p1192
aVscaleZ
p1193
aaF0
aF0
aF0
aF0
aF-0
aF0
aF1
aF1
aF1
aa(lp1194
Vbot_loarm_twist_anim
p1195
a(lp1196
VtranslateX
p1197
aVtranslateY
p1198
aVtranslateZ
p1199
aVrotateX
p1200
aVrotateY
p1201
aVrotateZ
p1202
aVscaleX
p1203
aVscaleY
p1204
aVscaleZ
p1205
aaF0
aF0
aF0
aF0
aF-0
aF0
aF1
aF1
aF1
aa(lp1206
Vbot_uparm_anim
p1207
a(lp1208
VtranslateX
p1209
aVtranslateY
p1210
aVtranslateZ
p1211
aVrotateX
p1212
aVrotateY
p1213
aVrotateZ
p1214
aVscaleX
p1215
aVscaleY
p1216
aVscaleZ
p1217
aaF0
aF0
aF0
aF0
aF-0
aF0
aF1
aF1
aF1
aa(lp1218
Vbot_uparm_pistonC_bot_anim
p1219
a(lp1220
VtranslateX
p1221
aVtranslateY
p1222
aVtranslateZ
p1223
aVrotateX
p1224
aVrotateY
p1225
aVrotateZ
p1226
aVscaleX
p1227
aVscaleY
p1228
aVscaleZ
p1229
aaF0
aF0
aF0
aF0
aF-0
aF0
aF1
aF1
aF1
aa(lp1230
Vbot_uparm_pistonC_top_anim
p1231
a(lp1232
VtranslateX
p1233
aVtranslateY
p1234
aVtranslateZ
p1235
aVrotateX
p1236
aVrotateY
p1237
aVrotateZ
p1238
aVscaleX
p1239
aVscaleY
p1240
aVscaleZ
p1241
aaF0
aF0
aF0
aF0
aF-0
aF0
aF1
aF1
aF1
aa(lp1242
Veyeball_l_anim
p1243
a(lp1244
VtranslateX
p1245
aVtranslateY
p1246
aVtranslateZ
p1247
aVrotateX
p1248
aVrotateY
p1249
aVrotateZ
p1250
aVscaleX
p1251
aVscaleY
p1252
aVscaleZ
p1253
aaF0
aF0
aF0
aF0
aF-0
aF0
aF1
aF1
aF1
aa(lp1254
Veyeball_r_anim
p1255
a(lp1256
VtranslateX
p1257
aVtranslateY
p1258
aVtranslateZ
p1259
aVrotateX
p1260
aVrotateY
p1261
aVrotateZ
p1262
aVscaleX
p1263
aVscaleY
p1264
aVscaleZ
p1265
aaF0
aF0
aF0
aF0
aF-0
aF0
aF1
aF1
aF1
aa(lp1266
Veyebrow_in_l_anim
p1267
a(lp1268
VtranslateX
p1269
aVtranslateY
p1270
aVtranslateZ
p1271
aVrotateX
p1272
aVrotateY
p1273
aVrotateZ
p1274
aVscaleX
p1275
aVscaleY
p1276
aVscaleZ
p1277
aaF0
aF0
aF0
aF0
aF-0
aF0
aF1
aF1
aF1
aa(lp1278
Veyebrow_in_r_anim
p1279
a(lp1280
VtranslateX
p1281
aVtranslateY
p1282
aVtranslateZ
p1283
aVrotateX
p1284
aVrotateY
p1285
aVrotateZ
p1286
aVscaleX
p1287
aVscaleY
p1288
aVscaleZ
p1289
aaF0
aF0
aF0
aF0
aF-0
aF0
aF1
aF1
aF1
aa(lp1290
Veyebrow_out_l_anim
p1291
a(lp1292
VtranslateX
p1293
aVtranslateY
p1294
aVtranslateZ
p1295
aVrotateX
p1296
aVrotateY
p1297
aVrotateZ
p1298
aVscaleX
p1299
aVscaleY
p1300
aVscaleZ
p1301
aaF0
aF0
aF0
aF0
aF-0
aF0
aF1
aF1
aF1
aa(lp1302
Veyebrow_out_r_anim
p1303
a(lp1304
VtranslateX
p1305
aVtranslateY
p1306
aVtranslateZ
p1307
aVrotateX
p1308
aVrotateY
p1309
aVrotateZ
p1310
aVscaleX
p1311
aVscaleY
p1312
aVscaleZ
p1313
aaF0
aF0
aF0
aF0
aF-0
aF0
aF1
aF1
aF1
aa(lp1314
Veyelid_bott_l_anim
p1315
a(lp1316
VtranslateX
p1317
aVtranslateY
p1318
aVtranslateZ
p1319
aVrotateX
p1320
aVrotateY
p1321
aVrotateZ
p1322
aVscaleX
p1323
aVscaleY
p1324
aVscaleZ
p1325
aaF0
aF0
aF0
aF0
aF-0
aF0
aF1
aF1
aF1
aa(lp1326
Veyelid_bott_r_anim
p1327
a(lp1328
VtranslateX
p1329
aVtranslateY
p1330
aVtranslateZ
p1331
aVrotateX
p1332
aVrotateY
p1333
aVrotateZ
p1334
aVscaleX
p1335
aVscaleY
p1336
aVscaleZ
p1337
aaF0
aF0
aF0
aF0
aF-0
aF0
aF1
aF1
aF1
aa(lp1338
Veyelid_top_l_anim
p1339
a(lp1340
VtranslateX
p1341
aVtranslateY
p1342
aVtranslateZ
p1343
aVrotateX
p1344
aVrotateY
p1345
aVrotateZ
p1346
aVscaleX
p1347
aVscaleY
p1348
aVscaleZ
p1349
aaF0
aF0
aF0
aF0
aF-0
aF0
aF1
aF1
aF1
aa(lp1350
Veyelid_top_r_anim
p1351
a(lp1352
VtranslateX
p1353
aVtranslateY
p1354
aVtranslateZ
p1355
aVrotateX
p1356
aVrotateY
p1357
aVrotateZ
p1358
aVscaleX
p1359
aVscaleY
p1360
aVscaleZ
p1361
aaF0
aF0
aF0
aF0
aF-0
aF0
aF1
aF1
aF1
aa(lp1362
Vgun_anim
p1363
a(lp1364
VtranslateX
p1365
aVtranslateY
p1366
aVtranslateZ
p1367
aVrotateX
p1368
aVrotateY
p1369
aVrotateZ
p1370
aVscaleX
p1371
aVscaleY
p1372
aVscaleZ
p1373
aaF0
aF0
aF0
aF0
aF-0
aF0
aF1
aF1
aF1
aa(lp1374
Vgun_barrel_anim
p1375
a(lp1376
VtranslateX
p1377
aVtranslateY
p1378
aVtranslateZ
p1379
aVrotateX
p1380
aVrotateY
p1381
aVrotateZ
p1382
aVscaleX
p1383
aVscaleY
p1384
aVscaleZ
p1385
aaF0
aF0
aF-11.733166555046214
aF0
aF-0
aF0
aF1
aF1
aF1
aa(lp1386
Vgun_barrel_inner_anim
p1387
a(lp1388
VtranslateX
p1389
aVtranslateY
p1390
aVtranslateZ
p1391
aVrotateX
p1392
aVrotateY
p1393
aVrotateZ
p1394
aVscaleX
p1395
aVscaleY
p1396
aVscaleZ
p1397
aaF0
aF0
aF0.20834489219198904
aF0
aF-0
aF0
aF1
aF1
aF1.2
aa(lp1398
Vgun_body_panel_l_anim
p1399
a(lp1400
VtranslateX
p1401
aVtranslateY
p1402
aVtranslateZ
p1403
aVrotateX
p1404
aVrotateY
p1405
aVrotateZ
p1406
aVscaleX
p1407
aVscaleY
p1408
aVscaleZ
p1409
aaF0
aF0
aF0
aF0
aF-0
aF0
aF1
aF1
aF1
aa(lp1410
Vgun_body_panel_r_anim
p1411
a(lp1412
VtranslateX
p1413
aVtranslateY
p1414
aVtranslateZ
p1415
aVrotateX
p1416
aVrotateY
p1417
aVrotateZ
p1418
aVscaleX
p1419
aVscaleY
p1420
aVscaleZ
p1421
aaF0
aF0
aF0
aF0
aF-0
aF0
aF1
aF1
aF1
aa(lp1422
Vgun_scope_anim
p1423
a(lp1424
VtranslateX
p1425
aVtranslateY
p1426
aVtranslateZ
p1427
aVrotateX
p1428
aVrotateY
p1429
aVrotateZ
p1430
aVscaleX
p1431
aVscaleY
p1432
aVscaleZ
p1433
aaF0
aF3.8614966637333867
aF1.9892208065457133
aF0
aF-0
aF0
aF1
aF1
aF1
aa(lp1434
Vgun_stock_base_anim
p1435
a(lp1436
VtranslateX
p1437
aVtranslateY
p1438
aVtranslateZ
p1439
aVrotateX
p1440
aVrotateY
p1441
aVrotateZ
p1442
aVscaleX
p1443
aVscaleY
p1444
aVscaleZ
p1445
aaF0
aF0
aF0
aF0
aF-0
aF0
aF1
aF1
aF1
aa(lp1446
Vgun_stock_base_in_bott_anim
p1447
a(lp1448
VtranslateX
p1449
aVtranslateY
p1450
aVtranslateZ
p1451
aVrotateX
p1452
aVrotateY
p1453
aVrotateZ
p1454
aVscaleX
p1455
aVscaleY
p1456
aVscaleZ
p1457
aaF0
aF-1.8403271988837049
aF4.8196681978104428
aF0
aF-0
aF0
aF1
aF1
aF1
aa(lp1458
Vgun_stock_base_in_top_anim
p1459
a(lp1460
VtranslateX
p1461
aVtranslateY
p1462
aVtranslateZ
p1463
aVrotateX
p1464
aVrotateY
p1465
aVrotateZ
p1466
aVscaleX
p1467
aVscaleY
p1468
aVscaleZ
p1469
aaF0
aF0
aF0
aF0
aF-0
aF0
aF1
aF1
aF1
aa(lp1470
Vgun_stock_base_out_bott_anim
p1471
a(lp1472
VtranslateX
p1473
aVtranslateY
p1474
aVtranslateZ
p1475
aVrotateX
p1476
aVrotateY
p1477
aVrotateZ
p1478
aVscaleX
p1479
aVscaleY
p1480
aVscaleZ
p1481
aaF0
aF1.7946718916772553
aF-20.551993518771557
aF0
aF-0
aF0
aF1
aF1
aF1
aa(lp1482
Vgun_stock_base_out_top_anim
p1483
a(lp1484
VtranslateX
p1485
aVtranslateY
p1486
aVtranslateZ
p1487
aVrotateX
p1488
aVrotateY
p1489
aVrotateZ
p1490
aVscaleX
p1491
aVscaleY
p1492
aVscaleZ
p1493
aaF0
aF0.59336312149619586
aF-11.049148285866693
aF0
aF-0
aF0
aF1
aF1
aF1
aa(lp1494
Vgun_stock_bott_anim
p1495
a(lp1496
VtranslateX
p1497
aVtranslateY
p1498
aVtranslateZ
p1499
aVrotateX
p1500
aVrotateY
p1501
aVrotateZ
p1502
aVscaleX
p1503
aVscaleY
p1504
aVscaleZ
p1505
aaF0
aF-2.4680687703261697
aF-3.9559428696088039
aF0
aF-0
aF0
aF1
aF1
aF1
aa(lp1506
Vgun_stock_in_bott_anim
p1507
a(lp1508
VtranslateX
p1509
aVtranslateY
p1510
aVtranslateZ
p1511
aVrotateX
p1512
aVrotateY
p1513
aVrotateZ
p1514
aVscaleX
p1515
aVscaleY
p1516
aVscaleZ
p1517
aaF0
aF0
aF0.18674027541677152
aF0
aF-0
aF0
aF1
aF1
aF1
aa(lp1518
Vgun_stock_in_top_anim
p1519
a(lp1520
VtranslateX
p1521
aVtranslateY
p1522
aVtranslateZ
p1523
aVrotateX
p1524
aVrotateY
p1525
aVrotateZ
p1526
aVscaleX
p1527
aVscaleY
p1528
aVscaleZ
p1529
aaF0
aF-0.4881660300523003
aF0.58417683308986756
aF0
aF-0
aF0
aF1
aF1
aF1
aa(lp1530
Vgun_stock_panel_l_anim
p1531
a(lp1532
VtranslateX
p1533
aVtranslateY
p1534
aVtranslateZ
p1535
aVrotateX
p1536
aVrotateY
p1537
aVrotateZ
p1538
aVscaleX
p1539
aVscaleY
p1540
aVscaleZ
p1541
aaF0
aF1.9223251723865333
aF1.5493042163351061
aF0
aF-0
aF0
aF1
aF1
aF1
aa(lp1542
Vgun_stock_panel_r_anim
p1543
a(lp1544
VtranslateX
p1545
aVtranslateY
p1546
aVtranslateZ
p1547
aVrotateX
p1548
aVrotateY
p1549
aVrotateZ
p1550
aVscaleX
p1551
aVscaleY
p1552
aVscaleZ
p1553
aaF0
aF-1.8805941418070735
aF-1.5685670200314261
aF0
aF-0
aF0
aF1
aF1
aF1
aa(lp1554
Vheel_plate_l_anim
p1555
a(lp1556
VtranslateX
p1557
aVtranslateY
p1558
aVtranslateZ
p1559
aVrotateX
p1560
aVrotateY
p1561
aVrotateZ
p1562
aVscaleX
p1563
aVscaleY
p1564
aVscaleZ
p1565
aaF0
aF0
aF0
aF0
aF-0
aF0
aF1
aF1
aF1
aa(lp1566
Vheel_plate_r_anim
p1567
a(lp1568
VtranslateX
p1569
aVtranslateY
p1570
aVtranslateZ
p1571
aVrotateX
p1572
aVrotateY
p1573
aVrotateZ
p1574
aVscaleX
p1575
aVscaleY
p1576
aVscaleZ
p1577
aaF0
aF0
aF0
aF0
aF-0
aF0
aF1
aF1
aF1
aa(lp1578
Vhelmet_sight_anim
p1579
a(lp1580
VtranslateX
p1581
aVtranslateY
p1582
aVtranslateZ
p1583
aVrotateX
p1584
aVrotateY
p1585
aVrotateZ
p1586
aVscaleX
p1587
aVscaleY
p1588
aVscaleZ
p1589
aaF0
aF0
aF0
aF0
aF-0
aF0
aF1
aF1
aF1
aa(lp1590
Vhip_pack_a_anim
p1591
a(lp1592
VtranslateX
p1593
aVtranslateY
p1594
aVtranslateZ
p1595
aVrotateX
p1596
aVrotateY
p1597
aVrotateZ
p1598
aVchainAttach
p1599
aVchainStartEnvelope
p1600
aVchainStartFrame
p1601
aVchainStiffness
p1602
aVchainDamping
p1603
aVchainGravity
p1604
aVchainIteration
p1605
aVchainCollide
p1606
aVchainWidthBase
p1607
aVchainWidthExtremity
p1608
aVchainCollideGround
p1609
aVchainCollideGroundHeight
p1610
aaF0
aF0
aF0
aF0
aF-0
aF0
aI1
aF0
aF1
aF0.10000000000000001
aF0.20000000000000001
aF1
aI1
aI00
aF1
aF1
aI00
aF0
aa(lp1611
Vhip_pack_b_anim
p1612
a(lp1613
VtranslateX
p1614
aVtranslateY
p1615
aVtranslateZ
p1616
aVrotateX
p1617
aVrotateY
p1618
aVrotateZ
p1619
aVchainAttach
p1620
aVchainStartEnvelope
p1621
aVchainStartFrame
p1622
aVchainStiffness
p1623
aVchainDamping
p1624
aVchainGravity
p1625
aVchainIteration
p1626
aVchainCollide
p1627
aVchainWidthBase
p1628
aVchainWidthExtremity
p1629
aVchainCollideGround
p1630
aVchainCollideGroundHeight
p1631
aaF0
aF0
aF0
aF0
aF-0
aF0
aI1
aF0
aF1
aF0.10000000000000001
aF0.20000000000000001
aF1
aI1
aI00
aF1
aF1
aI00
aF0
aa(lp1632
Vhip_pack_c_anim
p1633
a(lp1634
VtranslateX
p1635
aVtranslateY
p1636
aVtranslateZ
p1637
aVrotateX
p1638
aVrotateY
p1639
aVrotateZ
p1640
aVchainAttach
p1641
aVchainStartEnvelope
p1642
aVchainStartFrame
p1643
aVchainStiffness
p1644
aVchainDamping
p1645
aVchainGravity
p1646
aVchainIteration
p1647
aVchainCollide
p1648
aVchainWidthBase
p1649
aVchainWidthExtremity
p1650
aVchainCollideGround
p1651
aVchainCollideGroundHeight
p1652
aaF0
aF0
aF0
aF0
aF-0
aF0
aI1
aF0
aF1
aF0.10000000000000001
aF0.20000000000000001
aF1
aI1
aI00
aF1
aF1
aI00
aF0
aa(lp1653
Vhip_pack_d_anim
p1654
a(lp1655
VtranslateX
p1656
aVtranslateY
p1657
aVtranslateZ
p1658
aVrotateX
p1659
aVrotateY
p1660
aVrotateZ
p1661
aVchainAttach
p1662
aVchainStartEnvelope
p1663
aVchainStartFrame
p1664
aVchainStiffness
p1665
aVchainDamping
p1666
aVchainGravity
p1667
aVchainIteration
p1668
aVchainCollide
p1669
aVchainWidthBase
p1670
aVchainWidthExtremity
p1671
aVchainCollideGround
p1672
aVchainCollideGroundHeight
p1673
aaF0
aF0
aF0
aF0
aF-0
aF0
aI1
aF0
aF1
aF0.10000000000000001
aF0.20000000000000001
aF1
aI1
aI00
aF1
aF1
aI00
aF0
aa(lp1674
Vjaw_anim
p1675
a(lp1676
VtranslateX
p1677
aVtranslateY
p1678
aVtranslateZ
p1679
aVrotateX
p1680
aVrotateY
p1681
aVrotateZ
p1682
aVscaleX
p1683
aVscaleY
p1684
aVscaleZ
p1685
aaF0
aF0
aF0
aF0
aF-0
aF0
aF1
aF1
aF1
aa(lp1686
Vmask_anim
p1687
a(lp1688
VtranslateX
p1689
aVtranslateY
p1690
aVtranslateZ
p1691
aVrotateX
p1692
aVrotateY
p1693
aVrotateZ
p1694
aVscaleX
p1695
aVscaleY
p1696
aVscaleZ
p1697
aaF0
aF0
aF0
aF0
aF-0
aF0
aF1
aF1
aF1
aa(lp1698
Vpack_hose_in_anim
p1699
a(lp1700
VtranslateX
p1701
aVtranslateY
p1702
aVtranslateZ
p1703
aVrotateX
p1704
aVrotateY
p1705
aVrotateZ
p1706
aVscaleX
p1707
aVscaleY
p1708
aVscaleZ
p1709
aaF0
aF0
aF0
aF0
aF-0
aF0
aF1
aF1
aF1
aa(lp1710
Vpack_hose_out_anim
p1711
a(lp1712
VtranslateX
p1713
aVtranslateY
p1714
aVtranslateZ
p1715
aVrotateX
p1716
aVrotateY
p1717
aVrotateZ
p1718
aVscaleX
p1719
aVscaleY
p1720
aVscaleZ
p1721
aaF0
aF0
aF0
aF0
aF-0
aF0
aF1
aF1
aF1
aa(lp1722
Vshotgun_anim
p1723
a(lp1724
VtranslateX
p1725
aVtranslateY
p1726
aVtranslateZ
p1727
aVrotateX
p1728
aVrotateY
p1729
aVrotateZ
p1730
aVscaleX
p1731
aVscaleY
p1732
aVscaleZ
p1733
aVshotgun_rotate
p1734
aVshotgun_rail
p1735
aaF0
aF0
aF0
aF0
aF-0
aF0
aF1
aF1
aF1
aF0
aF0
aa(lp1736
Vshotgun_base_anim
p1737
a(lp1738
VtranslateX
p1739
aVtranslateY
p1740
aVtranslateZ
p1741
aVrotateX
p1742
aVrotateY
p1743
aVrotateZ
p1744
aVscaleX
p1745
aVscaleY
p1746
aVscaleZ
p1747
aaF0
aF0
aF0
aF0
aF-0
aF0
aF1
aF1
aF1
aa(lp1748
Vshotgun_clip_anim
p1749
a(lp1750
VtranslateX
p1751
aVtranslateY
p1752
aVtranslateZ
p1753
aVrotateX
p1754
aVrotateY
p1755
aVrotateZ
p1756
aVscaleX
p1757
aVscaleY
p1758
aVscaleZ
p1759
aaF0
aF0
aF0
aF0
aF-0
aF0
aF1
aF1
aF1
aa(lp1760
Vsniper_can_arm_01_anim
p1761
a(lp1762
VtranslateX
p1763
aVtranslateY
p1764
aVtranslateZ
p1765
aVrotateX
p1766
aVrotateY
p1767
aVrotateZ
p1768
aVscaleX
p1769
aVscaleY
p1770
aVscaleZ
p1771
aaF0
aF0
aF0
aF-2.7611194479486674
aF-0.48503680201577343
aF0.17769906325483734
aF1
aF1
aF1
aa(lp1772
Vsniper_can_arm_02_anim
p1773
a(lp1774
VtranslateX
p1775
aVtranslateY
p1776
aVtranslateZ
p1777
aVrotateX
p1778
aVrotateY
p1779
aVrotateZ
p1780
aVscaleX
p1781
aVscaleY
p1782
aVscaleZ
p1783
aaF0
aF0
aF0
aF-4.95827178931009
aF-0
aF0
aF1
aF1
aF1
aa(lp1784
Vsniper_can_arm_03_anim
p1785
a(lp1786
VtranslateX
p1787
aVtranslateY
p1788
aVtranslateZ
p1789
aVrotateX
p1790
aVrotateY
p1791
aVrotateZ
p1792
aVscaleX
p1793
aVscaleY
p1794
aVscaleZ
p1795
aaF45.001381201034683
aF-54.618421872527399
aF-41.114769764325757
aF-145.52936319514845
aF-19.465277943000295
aF164.89048915044296
aF1
aF1
aF1
aa(lp1796
Vtrap_handle_anim
p1797
a(lp1798
VtranslateX
p1799
aVtranslateY
p1800
aVtranslateZ
p1801
aVrotateX
p1802
aVrotateY
p1803
aVrotateZ
p1804
aVscaleX
p1805
aVscaleY
p1806
aVscaleZ
p1807
aaF0
aF0
aF0
aF0
aF-0
aF0
aF1
aF1
aF1
aa(lp1808
Vwrist_cover_anim
p1809
a(lp1810
VtranslateX
p1811
aVtranslateY
p1812
aVtranslateZ
p1813
aVrotateX
p1814
aVrotateY
p1815
aVrotateZ
p1816
aVscaleX
p1817
aVscaleY
p1818
aVscaleZ
p1819
aaF0
aF0
aF0
aF0
aF-0
aF0
aF1
aF1
aF1
aa(lp1820
Vankle_plate_in_l_anim_space_switcher
p1821
a(lp1822
Vvisibility
p1823
aVtranslateX
p1824
aVtranslateY
p1825
aVtranslateZ
p1826
aVrotateX
p1827
aVrotateY
p1828
aVrotateZ
p1829
aVscaleX
p1830
aVscaleY
p1831
aVscaleZ
p1832
aVspace_world
p1833
aaI01
aF0
aF0
aF0
aF0
aF0
aF0
aF1
aF1
aF0.99999999999999989
aF0
aa(lp1834
Vankle_plate_in_r_anim_space_switcher
p1835
a(lp1836
Vvisibility
p1837
aVtranslateX
p1838
aVtranslateY
p1839
aVtranslateZ
p1840
aVrotateX
p1841
aVrotateY
p1842
aVrotateZ
p1843
aVscaleX
p1844
aVscaleY
p1845
aVscaleZ
p1846
aVspace_world
p1847
aaI01
aF0
aF0
aF0
aF0
aF0
aF0
aF0.99999999999999989
aF0.99999999999999989
aF1
aF0
aa(lp1848
Vankle_plate_out_l_anim_space_switcher
p1849
a(lp1850
Vvisibility
p1851
aVtranslateX
p1852
aVtranslateY
p1853
aVtranslateZ
p1854
aVrotateX
p1855
aVrotateY
p1856
aVrotateZ
p1857
aVscaleX
p1858
aVscaleY
p1859
aVscaleZ
p1860
aVspace_world
p1861
aaI01
aF0
aF0
aF0
aF0
aF0
aF0
aF1
aF1
aF1
aF0
aa(lp1862
Vankle_plate_out_r_anim_space_switcher
p1863
a(lp1864
Vvisibility
p1865
aVtranslateX
p1866
aVtranslateY
p1867
aVtranslateZ
p1868
aVrotateX
p1869
aVrotateY
p1870
aVrotateZ
p1871
aVscaleX
p1872
aVscaleY
p1873
aVscaleZ
p1874
aVspace_world
p1875
aaI01
aF0
aF0
aF0
aF0
aF0
aF0
aF0.99999999999999989
aF1
aF0.99999999999999989
aF0
aa(lp1876
Varm_hose_bott_anim_space_switcher
p1877
a(lp1878
Vvisibility
p1879
aVtranslateX
p1880
aVtranslateY
p1881
aVtranslateZ
p1882
aVrotateX
p1883
aVrotateY
p1884
aVrotateZ
p1885
aVscaleX
p1886
aVscaleY
p1887
aVscaleZ
p1888
aVspace_world
p1889
aaI01
aF0
aF0
aF0
aF0
aF0
aF0
aF1
aF1.0000000000000002
aF1
aF0
aa(lp1890
Varm_hose_top_anim_space_switcher
p1891
a(lp1892
Vvisibility
p1893
aVtranslateX
p1894
aVtranslateY
p1895
aVtranslateZ
p1896
aVrotateX
p1897
aVrotateY
p1898
aVrotateZ
p1899
aVscaleX
p1900
aVscaleY
p1901
aVscaleZ
p1902
aVspace_world
p1903
aaI01
aF0
aF0
aF0
aF0
aF0
aF0
aF1
aF1
aF1
aF0
aa(lp1904
Varm_pouch_l_anim_space_switcher
p1905
a(lp1906
Vvisibility
p1907
aVtranslateX
p1908
aVtranslateY
p1909
aVtranslateZ
p1910
aVrotateX
p1911
aVrotateY
p1912
aVrotateZ
p1913
aVscaleX
p1914
aVscaleY
p1915
aVscaleZ
p1916
aVspace_world
p1917
aaI01
aF0
aF0
aF0
aF0
aF0
aF0
aF1
aF1
aF1
aF0
aa(lp1918
Vbody_anim_space_switcher
p1919
a(lp1920
Vvisibility
p1921
aVtranslateX
p1922
aVtranslateY
p1923
aVtranslateZ
p1924
aVrotateX
p1925
aVrotateY
p1926
aVrotateZ
p1927
aVscaleX
p1928
aVscaleY
p1929
aVscaleZ
p1930
aVspace_world
p1931
aaI01
aF0
aF0
aF0
aF0
aF0
aF0
aF1
aF1
aF1
aF0
aa(lp1932
Vbot_hand_anim_space_switcher
p1933
a(lp1934
Vvisibility
p1935
aVtranslateX
p1936
aVtranslateY
p1937
aVtranslateZ
p1938
aVrotateX
p1939
aVrotateY
p1940
aVrotateZ
p1941
aVscaleX
p1942
aVscaleY
p1943
aVscaleZ
p1944
aVspace_world
p1945
aaI01
aF2.8421709430404007e-14
aF7.1054273576010019e-15
aF1.4210854715202004e-14
aF-1.5902773407317584e-15
aF-0
aF0
aF1
aF1
aF1
aF0
aa(lp1946
Vbot_loarm_anim_space_switcher
p1947
a(lp1948
Vvisibility
p1949
aVtranslateX
p1950
aVtranslateY
p1951
aVtranslateZ
p1952
aVrotateX
p1953
aVrotateY
p1954
aVrotateZ
p1955
aVscaleX
p1956
aVscaleY
p1957
aVscaleZ
p1958
aVspace_world
p1959
aaI01
aF0
aF-7.1054273576010019e-15
aF-2.8421709430404007e-14
aF0
aF-0
aF6.2120208622334312e-18
aF1
aF1
aF1
aF0
aa(lp1960
Vbot_loarm_pistonB_bot_anim_space_switcher
p1961
a(lp1962
Vvisibility
p1963
aVtranslateX
p1964
aVtranslateY
p1965
aVtranslateZ
p1966
aVrotateX
p1967
aVrotateY
p1968
aVrotateZ
p1969
aVscaleX
p1970
aVscaleY
p1971
aVscaleZ
p1972
aVspace_world
p1973
aaI01
aF0
aF0
aF0
aF0
aF1.490885006936023e-16
aF3.975693351829395e-16
aF1.0000000000000002
aF1.0000000000000002
aF1.0000000000000002
aF0
aa(lp1974
Vbot_loarm_pistonB_top_anim_space_switcher
p1975
a(lp1976
Vvisibility
p1977
aVtranslateX
p1978
aVtranslateY
p1979
aVtranslateZ
p1980
aVrotateX
p1981
aVrotateY
p1982
aVrotateZ
p1983
aVscaleX
p1984
aVscaleY
p1985
aVscaleZ
p1986
aVspace_world
p1987
aaI01
aF0
aF0
aF0
aF-3.1805546814635168e-15
aF9.9392333795734899e-17
aF0
aF1
aF1
aF1
aF0
aa(lp1988
Vbot_loarm_pistonC_bot_anim_space_switcher
p1989
a(lp1990
Vvisibility
p1991
aVtranslateX
p1992
aVtranslateY
p1993
aVtranslateZ
p1994
aVrotateX
p1995
aVrotateY
p1996
aVrotateZ
p1997
aVscaleX
p1998
aVscaleY
p1999
aVscaleZ
p2000
aVspace_world
p2001
aaI01
aF-7.1054273576010019e-15
aF3.5527136788005009e-15
aF2.8421709430404007e-14
aF0
aF-1.5902773407317588e-15
aF-1.9878466759146985e-16
aF0.99999999999999989
aF0.99999999999999989
aF1
aF0
aa(lp2002
Vbot_loarm_pistonC_top_anim_space_switcher
p2003
a(lp2004
Vvisibility
p2005
aVtranslateX
p2006
aVtranslateY
p2007
aVtranslateZ
p2008
aVrotateX
p2009
aVrotateY
p2010
aVrotateZ
p2011
aVscaleX
p2012
aVscaleY
p2013
aVscaleZ
p2014
aVspace_world
p2015
aaI01
aF0
aF0
aF-2.8421709430404007e-14
aF0
aF-0
aF9.9392333795734899e-16
aF1
aF1
aF1
aF0
aa(lp2016
Vbot_loarm_pistonD_bot_anim_space_switcher
p2017
a(lp2018
Vvisibility
p2019
aVtranslateX
p2020
aVtranslateY
p2021
aVtranslateZ
p2022
aVrotateX
p2023
aVrotateY
p2024
aVrotateZ
p2025
aVscaleX
p2026
aVscaleY
p2027
aVscaleZ
p2028
aVspace_world
p2029
aaI01
aF0
aF-2.2204460492503131e-16
aF0
aF7.9513867036587919e-16
aF-0
aF4.7708320221952752e-15
aF1
aF1
aF1
aF0
aa(lp2030
Vbot_loarm_pistonD_top_anim_space_switcher
p2031
a(lp2032
Vvisibility
p2033
aVtranslateX
p2034
aVtranslateY
p2035
aVtranslateZ
p2036
aVrotateX
p2037
aVrotateY
p2038
aVrotateZ
p2039
aVscaleX
p2040
aVscaleY
p2041
aVscaleZ
p2042
aVspace_world
p2043
aaI01
aF-1.4210854715202004e-14
aF0
aF0
aF0
aF2.3854160110976376e-15
aF1.5902773407317584e-15
aF1
aF1
aF0.99999999999999978
aF0
aa(lp2044
Vbot_loarm_twist_anim_space_switcher
p2045
a(lp2046
Vvisibility
p2047
aVtranslateX
p2048
aVtranslateY
p2049
aVtranslateZ
p2050
aVrotateX
p2051
aVrotateY
p2052
aVrotateZ
p2053
aVscaleX
p2054
aVscaleY
p2055
aVscaleZ
p2056
aVspace_world
p2057
aVblendOrient1
p2058
aaI01
aF0
aF0
aF0
aF-19.585469222953542
aF-0.17391180223973715
aF-0.2475425950291103
aF1
aF1
aF1
aF0
aF0
aa(lp2059
Vbot_uparm_anim_space_switcher
p2060
a(lp2061
Vvisibility
p2062
aVtranslateX
p2063
aVtranslateY
p2064
aVtranslateZ
p2065
aVrotateX
p2066
aVrotateY
p2067
aVrotateZ
p2068
aVscaleX
p2069
aVscaleY
p2070
aVscaleZ
p2071
aVspace_world
p2072
aaI01
aF3.5527136788005009e-15
aF0
aF0
aF-7.9513867036587939e-16
aF-0
aF5.9635400277440959e-16
aF0.99999999999999989
aF0.99999999999999978
aF0.99999999999999989
aF0
aa(lp2073
Vbot_uparm_pistonC_bot_anim_space_switcher
p2074
a(lp2075
Vvisibility
p2076
aVtranslateX
p2077
aVtranslateY
p2078
aVtranslateZ
p2079
aVrotateX
p2080
aVrotateY
p2081
aVrotateZ
p2082
aVscaleX
p2083
aVscaleY
p2084
aVscaleZ
p2085
aVspace_world
p2086
aaI01
aF-1.4210854715202004e-14
aF2.8421709430404007e-14
aF-7.1054273576010019e-15
aF3.1805546814635168e-15
aF7.9513867036587919e-16
aF-1.5902773407317584e-15
aF1
aF1
aF1
aF0
aa(lp2087
Vbot_uparm_pistonC_top_anim_space_switcher
p2088
a(lp2089
Vvisibility
p2090
aVtranslateX
p2091
aVtranslateY
p2092
aVtranslateZ
p2093
aVrotateX
p2094
aVrotateY
p2095
aVrotateZ
p2096
aVscaleX
p2097
aVscaleY
p2098
aVscaleZ
p2099
aVspace_world
p2100
aaI01
aF-1.4210854715202004e-14
aF1.7763568394002505e-15
aF0
aF0
aF1.5902773407317584e-15
aF7.9513867036587919e-16
aF1
aF1
aF1
aF0
aa(lp2101
Vchest_ik_anim_space_switcher
p2102
a(lp2103
Vvisibility
p2104
aVtranslateX
p2105
aVtranslateY
p2106
aVtranslateZ
p2107
aVrotateX
p2108
aVrotateY
p2109
aVrotateZ
p2110
aVscaleX
p2111
aVscaleY
p2112
aVscaleZ
p2113
aVspace_world
p2114
aVspace_chest_ik_world_aligned
p2115
aaI01
aF0
aF-3.5527136788005009e-15
aF2.0194839173657902e-28
aF7.0622500768802538e-31
aF-0
aF0
aF1
aF1
aF1
aF0
aF0
aa(lp2116
Veyeball_l_anim_space_switcher
p2117
a(lp2118
Vvisibility
p2119
aVtranslateX
p2120
aVtranslateY
p2121
aVtranslateZ
p2122
aVrotateX
p2123
aVrotateY
p2124
aVrotateZ
p2125
aVscaleX
p2126
aVscaleY
p2127
aVscaleZ
p2128
aVspace_world
p2129
aaI01
aF0
aF0
aF0
aF0
aF0
aF0
aF1
aF1
aF1
aF0
aa(lp2130
Veyeball_r_anim_space_switcher
p2131
a(lp2132
Vvisibility
p2133
aVtranslateX
p2134
aVtranslateY
p2135
aVtranslateZ
p2136
aVrotateX
p2137
aVrotateY
p2138
aVrotateZ
p2139
aVscaleX
p2140
aVscaleY
p2141
aVscaleZ
p2142
aVspace_world
p2143
aaI01
aF0
aF0
aF0
aF0
aF0
aF0
aF1
aF1
aF1
aF0
aa(lp2144
Veyebrow_in_l_anim_space_switcher
p2145
a(lp2146
Vvisibility
p2147
aVtranslateX
p2148
aVtranslateY
p2149
aVtranslateZ
p2150
aVrotateX
p2151
aVrotateY
p2152
aVrotateZ
p2153
aVscaleX
p2154
aVscaleY
p2155
aVscaleZ
p2156
aVspace_world
p2157
aaI01
aF0
aF0
aF0
aF0
aF0
aF0
aF1
aF1.0000000000000002
aF1
aF0
aa(lp2158
Veyebrow_in_r_anim_space_switcher
p2159
a(lp2160
Vvisibility
p2161
aVtranslateX
p2162
aVtranslateY
p2163
aVtranslateZ
p2164
aVrotateX
p2165
aVrotateY
p2166
aVrotateZ
p2167
aVscaleX
p2168
aVscaleY
p2169
aVscaleZ
p2170
aVspace_world
p2171
aaI01
aF0
aF0
aF0
aF0
aF0
aF0
aF1.0000000000000002
aF1.0000000000000002
aF1.0000000000000002
aF0
aa(lp2172
Veyebrow_out_l_anim_space_switcher
p2173
a(lp2174
Vvisibility
p2175
aVtranslateX
p2176
aVtranslateY
p2177
aVtranslateZ
p2178
aVrotateX
p2179
aVrotateY
p2180
aVrotateZ
p2181
aVscaleX
p2182
aVscaleY
p2183
aVscaleZ
p2184
aVspace_world
p2185
aaI01
aF0
aF0
aF0
aF0
aF0
aF0
aF1
aF1
aF1.0000000000000002
aF0
aa(lp2186
Veyebrow_out_r_anim_space_switcher
p2187
a(lp2188
Vvisibility
p2189
aVtranslateX
p2190
aVtranslateY
p2191
aVtranslateZ
p2192
aVrotateX
p2193
aVrotateY
p2194
aVrotateZ
p2195
aVscaleX
p2196
aVscaleY
p2197
aVscaleZ
p2198
aVspace_world
p2199
aaI01
aF0
aF0
aF0
aF0
aF0
aF0
aF1
aF0.99999999999999989
aF0.99999999999999989
aF0
aa(lp2200
Veyelid_bott_l_anim_space_switcher
p2201
a(lp2202
Vvisibility
p2203
aVtranslateX
p2204
aVtranslateY
p2205
aVtranslateZ
p2206
aVrotateX
p2207
aVrotateY
p2208
aVrotateZ
p2209
aVscaleX
p2210
aVscaleY
p2211
aVscaleZ
p2212
aVspace_world
p2213
aaI01
aF0
aF0
aF0
aF0
aF0
aF0
aF1
aF1
aF1
aF0
aa(lp2214
Veyelid_bott_r_anim_space_switcher
p2215
a(lp2216
Vvisibility
p2217
aVtranslateX
p2218
aVtranslateY
p2219
aVtranslateZ
p2220
aVrotateX
p2221
aVrotateY
p2222
aVrotateZ
p2223
aVscaleX
p2224
aVscaleY
p2225
aVscaleZ
p2226
aVspace_world
p2227
aaI01
aF0
aF0
aF0
aF0
aF0
aF0
aF1
aF1
aF1
aF0
aa(lp2228
Veyelid_top_l_anim_space_switcher
p2229
a(lp2230
Vvisibility
p2231
aVtranslateX
p2232
aVtranslateY
p2233
aVtranslateZ
p2234
aVrotateX
p2235
aVrotateY
p2236
aVrotateZ
p2237
aVscaleX
p2238
aVscaleY
p2239
aVscaleZ
p2240
aVspace_world
p2241
aaI01
aF0
aF0
aF0
aF0
aF0
aF0
aF1
aF1
aF1
aF0
aa(lp2242
Veyelid_top_r_anim_space_switcher
p2243
a(lp2244
Vvisibility
p2245
aVtranslateX
p2246
aVtranslateY
p2247
aVtranslateZ
p2248
aVrotateX
p2249
aVrotateY
p2250
aVrotateZ
p2251
aVscaleX
p2252
aVscaleY
p2253
aVscaleZ
p2254
aVspace_world
p2255
aaI01
aF0
aF0
aF0
aF0
aF0
aF0
aF1
aF1
aF1
aF0
aa(lp2256
Vgun_anim_space_switcher
p2257
a(lp2258
Vvisibility
p2259
aVtranslateX
p2260
aVtranslateY
p2261
aVtranslateZ
p2262
aVrotateX
p2263
aVrotateY
p2264
aVrotateZ
p2265
aVscaleX
p2266
aVscaleY
p2267
aVscaleZ
p2268
aVspace_world
p2269
aaI01
aF2.8421709430404007e-14
aF4.4408920985006262e-16
aF0
aF3.7272125173400599e-17
aF-0
aF0
aF0.99999999999999989
aF0.99999999999999989
aF0.99999999999999989
aF0
aa(lp2270
Vgun_barrel_anim_space_switcher
p2271
a(lp2272
Vvisibility
p2273
aVtranslateX
p2274
aVtranslateY
p2275
aVtranslateZ
p2276
aVrotateX
p2277
aVrotateY
p2278
aVrotateZ
p2279
aVscaleX
p2280
aVscaleY
p2281
aVscaleZ
p2282
aVspace_world
p2283
aaI01
aF0
aF-1.7763568394002505e-15
aF-2.8421709430404007e-14
aF-1.1181637552020177e-16
aF1.9878466759146975e-16
aF-7.9513867036587899e-16
aF1.0000000000000002
aF1
aF1.0000000000000002
aF0
aa(lp2284
Vgun_barrel_inner_anim_space_switcher
p2285
a(lp2286
Vvisibility
p2287
aVtranslateX
p2288
aVtranslateY
p2289
aVtranslateZ
p2290
aVrotateX
p2291
aVrotateY
p2292
aVrotateZ
p2293
aVscaleX
p2294
aVscaleY
p2295
aVscaleZ
p2296
aVspace_world
p2297
aaI01
aF0
aF0
aF0
aF0
aF0
aF0
aF1
aF1
aF1.0000000000000002
aF0
aa(lp2298
Vgun_body_panel_l_anim_space_switcher
p2299
a(lp2300
Vvisibility
p2301
aVtranslateX
p2302
aVtranslateY
p2303
aVtranslateZ
p2304
aVrotateX
p2305
aVrotateY
p2306
aVrotateZ
p2307
aVscaleX
p2308
aVscaleY
p2309
aVscaleZ
p2310
aVspace_world
p2311
aaI01
aF0
aF0
aF0
aF0
aF0
aF0
aF1
aF1
aF1.0000000000000002
aF0
aa(lp2312
Vgun_body_panel_r_anim_space_switcher
p2313
a(lp2314
Vvisibility
p2315
aVtranslateX
p2316
aVtranslateY
p2317
aVtranslateZ
p2318
aVrotateX
p2319
aVrotateY
p2320
aVrotateZ
p2321
aVscaleX
p2322
aVscaleY
p2323
aVscaleZ
p2324
aVspace_world
p2325
aaI01
aF0
aF0
aF0
aF0
aF0
aF0
aF1
aF1
aF1.0000000000000002
aF0
aa(lp2326
Vgun_scope_anim_space_switcher
p2327
a(lp2328
Vvisibility
p2329
aVtranslateX
p2330
aVtranslateY
p2331
aVtranslateZ
p2332
aVrotateX
p2333
aVrotateY
p2334
aVrotateZ
p2335
aVscaleX
p2336
aVscaleY
p2337
aVscaleZ
p2338
aVspace_world
p2339
aaI01
aF2.8421709430404007e-14
aF0
aF-2.8421709430404007e-14
aF-1.1181637552020177e-16
aF1.9878466759146975e-16
aF-7.9513867036587899e-16
aF1.0000000000000002
aF1
aF1.0000000000000002
aF0
aa(lp2340
Vgun_stock_base_anim_space_switcher
p2341
a(lp2342
Vvisibility
p2343
aVtranslateX
p2344
aVtranslateY
p2345
aVtranslateZ
p2346
aVrotateX
p2347
aVrotateY
p2348
aVrotateZ
p2349
aVscaleX
p2350
aVscaleY
p2351
aVscaleZ
p2352
aVspace_world
p2353
aaI01
aF0
aF0
aF0
aF0
aF0
aF0
aF1
aF1
aF1.0000000000000002
aF0
aa(lp2354
Vgun_stock_base_in_bott_anim_space_switcher
p2355
a(lp2356
Vvisibility
p2357
aVtranslateX
p2358
aVtranslateY
p2359
aVtranslateZ
p2360
aVrotateX
p2361
aVrotateY
p2362
aVrotateZ
p2363
aVscaleX
p2364
aVscaleY
p2365
aVscaleZ
p2366
aVspace_world
p2367
aaI01
aF0
aF0
aF0
aF0
aF0
aF0
aF1
aF1
aF1.0000000000000002
aF0
aa(lp2368
Vgun_stock_base_in_top_anim_space_switcher
p2369
a(lp2370
Vvisibility
p2371
aVtranslateX
p2372
aVtranslateY
p2373
aVtranslateZ
p2374
aVrotateX
p2375
aVrotateY
p2376
aVrotateZ
p2377
aVscaleX
p2378
aVscaleY
p2379
aVscaleZ
p2380
aVspace_world
p2381
aaI01
aF0
aF0
aF0
aF0
aF0
aF0
aF1
aF1
aF1.0000000000000002
aF0
aa(lp2382
Vgun_stock_base_out_bott_anim_space_switcher
p2383
a(lp2384
Vvisibility
p2385
aVtranslateX
p2386
aVtranslateY
p2387
aVtranslateZ
p2388
aVrotateX
p2389
aVrotateY
p2390
aVrotateZ
p2391
aVscaleX
p2392
aVscaleY
p2393
aVscaleZ
p2394
aVspace_world
p2395
aaI01
aF0
aF0
aF0
aF0
aF0
aF0
aF1
aF1
aF1.0000000000000002
aF0
aa(lp2396
Vgun_stock_base_out_top_anim_space_switcher
p2397
a(lp2398
Vvisibility
p2399
aVtranslateX
p2400
aVtranslateY
p2401
aVtranslateZ
p2402
aVrotateX
p2403
aVrotateY
p2404
aVrotateZ
p2405
aVscaleX
p2406
aVscaleY
p2407
aVscaleZ
p2408
aVspace_world
p2409
aaI01
aF0
aF0
aF0
aF0
aF0
aF0
aF1
aF1
aF1.0000000000000002
aF0
aa(lp2410
Vgun_stock_bott_anim_space_switcher
p2411
a(lp2412
Vvisibility
p2413
aVtranslateX
p2414
aVtranslateY
p2415
aVtranslateZ
p2416
aVrotateX
p2417
aVrotateY
p2418
aVrotateZ
p2419
aVscaleX
p2420
aVscaleY
p2421
aVscaleZ
p2422
aVspace_world
p2423
aaI01
aF0
aF1.7798262863522041e-15
aF0
aF-6.2120208622334324e-17
aF-0
aF7.9513867036587939e-16
aF0.99999999999999989
aF0.99999999999999989
aF0.99999999999999989
aF0
aa(lp2424
Vgun_stock_in_bott_anim_space_switcher
p2425
a(lp2426
Vvisibility
p2427
aVtranslateX
p2428
aVtranslateY
p2429
aVtranslateZ
p2430
aVrotateX
p2431
aVrotateY
p2432
aVrotateZ
p2433
aVscaleX
p2434
aVscaleY
p2435
aVscaleZ
p2436
aVspace_world
p2437
aaI01
aF0
aF0
aF0
aF0
aF0
aF0
aF1
aF1
aF1.0000000000000002
aF0
aa(lp2438
Vgun_stock_in_top_anim_space_switcher
p2439
a(lp2440
Vvisibility
p2441
aVtranslateX
p2442
aVtranslateY
p2443
aVtranslateZ
p2444
aVrotateX
p2445
aVrotateY
p2446
aVrotateZ
p2447
aVscaleX
p2448
aVscaleY
p2449
aVscaleZ
p2450
aVspace_world
p2451
aaI01
aF0
aF0
aF0
aF0
aF0
aF0
aF1
aF1
aF1.0000000000000002
aF0
aa(lp2452
Vgun_stock_panel_l_anim_space_switcher
p2453
a(lp2454
Vvisibility
p2455
aVtranslateX
p2456
aVtranslateY
p2457
aVtranslateZ
p2458
aVrotateX
p2459
aVrotateY
p2460
aVrotateZ
p2461
aVscaleX
p2462
aVscaleY
p2463
aVscaleZ
p2464
aVspace_world
p2465
aaI01
aF2.8421709430404007e-14
aF0
aF-2.8421709430404007e-14
aF-6.2120208622334324e-17
aF-0
aF7.9513867036587939e-16
aF0.99999999999999989
aF0.99999999999999989
aF0.99999999999999989
aF0
aa(lp2466
Vgun_stock_panel_r_anim_space_switcher
p2467
a(lp2468
Vvisibility
p2469
aVtranslateX
p2470
aVtranslateY
p2471
aVtranslateZ
p2472
aVrotateX
p2473
aVrotateY
p2474
aVrotateZ
p2475
aVscaleX
p2476
aVscaleY
p2477
aVscaleZ
p2478
aVspace_world
p2479
aaI01
aF2.8421709430404007e-14
aF0
aF2.8421709430404007e-14
aF0
aF1.9878466759146985e-16
aF7.9513867036587939e-16
aF0.99999999999999989
aF0.99999999999999989
aF0.99999999999999989
aF0
aa(lp2480
Vheel_plate_l_anim_space_switcher
p2481
a(lp2482
Vvisibility
p2483
aVtranslateX
p2484
aVtranslateY
p2485
aVtranslateZ
p2486
aVrotateX
p2487
aVrotateY
p2488
aVrotateZ
p2489
aVscaleX
p2490
aVscaleY
p2491
aVscaleZ
p2492
aVspace_world
p2493
aaI01
aF0
aF0
aF0
aF0
aF0
aF0
aF1
aF1
aF1
aF0
aa(lp2494
Vheel_plate_r_anim_space_switcher
p2495
a(lp2496
Vvisibility
p2497
aVtranslateX
p2498
aVtranslateY
p2499
aVtranslateZ
p2500
aVrotateX
p2501
aVrotateY
p2502
aVrotateZ
p2503
aVscaleX
p2504
aVscaleY
p2505
aVscaleZ
p2506
aVspace_world
p2507
aaI01
aF0
aF0
aF0
aF0
aF0
aF0
aF0.99999999999999989
aF0.99999999999999989
aF0.99999999999999978
aF0
aa(lp2508
Vhelmet_sight_anim_space_switcher
p2509
a(lp2510
Vvisibility
p2511
aVtranslateX
p2512
aVtranslateY
p2513
aVtranslateZ
p2514
aVrotateX
p2515
aVrotateY
p2516
aVrotateZ
p2517
aVscaleX
p2518
aVscaleY
p2519
aVscaleZ
p2520
aVspace_world
p2521
aaI01
aF0
aF0
aF0
aF0
aF0
aF0
aF1
aF1
aF1
aF0
aa(lp2522
Vik_elbow_l_anim_space_switcher
p2523
a(lp2524
Vvisibility
p2525
aVtranslateX
p2526
aVtranslateY
p2527
aVtranslateZ
p2528
aVrotateX
p2529
aVrotateY
p2530
aVrotateZ
p2531
aVscaleX
p2532
aVscaleY
p2533
aVscaleZ
p2534
aVspace_world
p2535
aVspace_body_anim
p2536
aVspace_chest_ik_anim
p2537
aaI01
aF0
aF0
aF0
aF0
aF0
aF0
aF1
aF1
aF1
aF0
aF0
aF0
aa(lp2538
Vik_elbow_r_anim_space_switcher
p2539
a(lp2540
Vvisibility
p2541
aVtranslateX
p2542
aVtranslateY
p2543
aVtranslateZ
p2544
aVrotateX
p2545
aVrotateY
p2546
aVrotateZ
p2547
aVscaleX
p2548
aVscaleY
p2549
aVscaleZ
p2550
aVspace_world
p2551
aVspace_body_anim
p2552
aVspace_chest_ik_anim
p2553
aaI01
aF0
aF0
aF0
aF0
aF0
aF0
aF1
aF1
aF1
aF0
aF0
aF0
aa(lp2554
Vik_foot_anim_l_space_switcher
p2555
a(lp2556
Vvisibility
p2557
aVtranslateX
p2558
aVtranslateY
p2559
aVtranslateZ
p2560
aVrotateX
p2561
aVrotateY
p2562
aVrotateZ
p2563
aVscaleX
p2564
aVscaleY
p2565
aVscaleZ
p2566
aVspace_world
p2567
aVspace_body_anim
p2568
aaI01
aF0
aF0
aF0
aF0
aF0
aF0
aF1
aF1
aF1
aF0
aF0
aa(lp2569
Vik_foot_anim_r_space_switcher
p2570
a(lp2571
Vvisibility
p2572
aVtranslateX
p2573
aVtranslateY
p2574
aVtranslateZ
p2575
aVrotateX
p2576
aVrotateY
p2577
aVrotateZ
p2578
aVscaleX
p2579
aVscaleY
p2580
aVscaleZ
p2581
aVspace_world
p2582
aVspace_body_anim
p2583
aaI01
aF0
aF0
aF0
aF0
aF0
aF0
aF1
aF1
aF1
aF0
aF0
aa(lp2584
Vik_wrist_l_anim_space_switcher
p2585
a(lp2586
Vvisibility
p2587
aVtranslateX
p2588
aVtranslateY
p2589
aVtranslateZ
p2590
aVrotateX
p2591
aVrotateY
p2592
aVrotateZ
p2593
aVscaleX
p2594
aVscaleY
p2595
aVscaleZ
p2596
aVspace_world
p2597
aVspace_body_anim
p2598
aVspace_head_fk_anim
p2599
aVspace_chest_ik_anim
p2600
aVspace_driver_gun_stock_bott
p2601
aaI01
aF0
aF0
aF0
aF0
aF0
aF0
aF1
aF1
aF1
aF0
aF0
aF0
aF0
aF0
aa(lp2602
Vik_wrist_r_anim_space_switcher
p2603
a(lp2604
Vvisibility
p2605
aVtranslateX
p2606
aVtranslateY
p2607
aVtranslateZ
p2608
aVrotateX
p2609
aVrotateY
p2610
aVrotateZ
p2611
aVscaleX
p2612
aVscaleY
p2613
aVscaleZ
p2614
aVspace_world
p2615
aVspace_body_anim
p2616
aVspace_head_fk_anim
p2617
aVspace_chest_ik_anim
p2618
aaI01
aF0
aF0
aF0
aF0
aF0
aF0
aF1
aF1
aF1
aF0
aF0
aF0
aF0
aa(lp2619
Vjaw_anim_space_switcher
p2620
a(lp2621
Vvisibility
p2622
aVtranslateX
p2623
aVtranslateY
p2624
aVtranslateZ
p2625
aVrotateX
p2626
aVrotateY
p2627
aVrotateZ
p2628
aVscaleX
p2629
aVscaleY
p2630
aVscaleZ
p2631
aVspace_world
p2632
aaI01
aF0
aF0
aF0
aF0
aF0
aF0
aF1
aF1
aF1
aF0
aa(lp2633
Vl_global_ik_anim_space_switcher
p2634
a(lp2635
Vvisibility
p2636
aVtranslateX
p2637
aVtranslateY
p2638
aVtranslateZ
p2639
aVrotateX
p2640
aVrotateY
p2641
aVrotateZ
p2642
aVscaleX
p2643
aVscaleY
p2644
aVscaleZ
p2645
aVspace_world
p2646
aaI01
aF0
aF0
aF0
aF0
aF0
aF0
aF1
aF1
aF1
aF0
aa(lp2647
Vmask_anim_space_switcher
p2648
a(lp2649
Vvisibility
p2650
aVtranslateX
p2651
aVtranslateY
p2652
aVtranslateZ
p2653
aVrotateX
p2654
aVrotateY
p2655
aVrotateZ
p2656
aVscaleX
p2657
aVscaleY
p2658
aVscaleZ
p2659
aVspace_world
p2660
aVspace_driver_hand_l
p2661
aVspace_driver_hand_r
p2662
aaI01
aF0
aF0
aF0
aF0
aF0
aF0
aF1
aF1
aF1
aF0
aF0
aF0
aa(lp2663
Vmaster_anim_space_switcher
p2664
a(lp2665
Vvisibility
p2666
aVtranslateX
p2667
aVtranslateY
p2668
aVtranslateZ
p2669
aVrotateX
p2670
aVrotateY
p2671
aVrotateZ
p2672
aVscaleX
p2673
aVscaleY
p2674
aVscaleZ
p2675
aVspace_world
p2676
aaI01
aF0
aF0
aF0
aF0
aF0
aF0
aF1
aF1
aF1
aF0
aa(lp2677
Vpack_hose_in_anim_space_switcher
p2678
a(lp2679
Vvisibility
p2680
aVtranslateX
p2681
aVtranslateY
p2682
aVtranslateZ
p2683
aVrotateX
p2684
aVrotateY
p2685
aVrotateZ
p2686
aVscaleX
p2687
aVscaleY
p2688
aVscaleZ
p2689
aVspace_world
p2690
aaI01
aF0
aF0
aF0
aF0
aF0
aF0
aF0.99999999999999989
aF0.99999999999999989
aF0.99999999999999989
aF0
aa(lp2691
Vpack_hose_out_anim_space_switcher
p2692
a(lp2693
Vvisibility
p2694
aVtranslateX
p2695
aVtranslateY
p2696
aVtranslateZ
p2697
aVrotateX
p2698
aVrotateY
p2699
aVrotateZ
p2700
aVscaleX
p2701
aVscaleY
p2702
aVscaleZ
p2703
aVspace_world
p2704
aaI01
aF0
aF0
aF0
aF0
aF0
aF0
aF1.0000000000000002
aF1.0000000000000002
aF1.0000000000000002
aF0
aa(lp2705
Vr_global_ik_anim_space_switcher
p2706
a(lp2707
Vvisibility
p2708
aVtranslateX
p2709
aVtranslateY
p2710
aVtranslateZ
p2711
aVrotateX
p2712
aVrotateY
p2713
aVrotateZ
p2714
aVscaleX
p2715
aVscaleY
p2716
aVscaleZ
p2717
aVspace_world
p2718
aaI01
aF0
aF0
aF0
aF0
aF0
aF0
aF1
aF1
aF1
aF0
aa(lp2719
Vshotgun_anim_space_switcher
p2720
a(lp2721
Vvisibility
p2722
aVtranslateX
p2723
aVtranslateY
p2724
aVtranslateZ
p2725
aVrotateX
p2726
aVrotateY
p2727
aVrotateZ
p2728
aVscaleX
p2729
aVscaleY
p2730
aVscaleZ
p2731
aVspace_world
p2732
aVspace_driver_hand_l
p2733
aaI01
aF4.9960036108132044e-16
aF0
aF-2.8421709430404007e-14
aF0
aF-2.4848083448933725e-17
aF-1.4334238139603642e-15
aF1
aF1
aF1
aF0
aF0
aa(lp2734
Vshotgun_base_anim_space_switcher
p2735
a(lp2736
Vvisibility
p2737
aVtranslateX
p2738
aVtranslateY
p2739
aVtranslateZ
p2740
aVrotateX
p2741
aVrotateY
p2742
aVrotateZ
p2743
aVscaleX
p2744
aVscaleY
p2745
aVscaleZ
p2746
aVspace_world
p2747
aaI01
aF0
aF0
aF0
aF0
aF0
aF0
aF1
aF1
aF1
aF0
aa(lp2748
Vshotgun_clip_anim_space_switcher
p2749
a(lp2750
Vvisibility
p2751
aVtranslateX
p2752
aVtranslateY
p2753
aVtranslateZ
p2754
aVrotateX
p2755
aVrotateY
p2756
aVrotateZ
p2757
aVscaleX
p2758
aVscaleY
p2759
aVscaleZ
p2760
aVspace_world
p2761
aaI01
aF8.8817841970012523e-16
aF-3.5527136788005009e-15
aF0
aF-9.9392333795734924e-17
aF-0
aF-1.2045496703174517e-15
aF0.99999999999999989
aF0.99999999999999989
aF0.99999999999999989
aF0
aa(lp2762
Vsniper_can_arm_01_anim_space_switcher
p2763
a(lp2764
Vvisibility
p2765
aVtranslateX
p2766
aVtranslateY
p2767
aVtranslateZ
p2768
aVrotateX
p2769
aVrotateY
p2770
aVrotateZ
p2771
aVscaleX
p2772
aVscaleY
p2773
aVscaleZ
p2774
aVspace_world
p2775
aaI01
aF2.5243548967072378e-29
aF0
aF0
aF0
aF0
aF0
aF1
aF1
aF1
aF0
aa(lp2776
Vsniper_can_arm_02_anim_space_switcher
p2777
a(lp2778
Vvisibility
p2779
aVtranslateX
p2780
aVtranslateY
p2781
aVtranslateZ
p2782
aVrotateX
p2783
aVrotateY
p2784
aVrotateZ
p2785
aVscaleX
p2786
aVscaleY
p2787
aVscaleZ
p2788
aVspace_world
p2789
aaI01
aF0
aF0
aF7.1054273576010019e-15
aF-3.180554681463516e-15
aF-0
aF0
aF1
aF1.0000000000000002
aF1.0000000000000002
aF0
aa(lp2790
Vsniper_can_arm_03_anim_space_switcher
p2791
a(lp2792
Vvisibility
p2793
aVtranslateX
p2794
aVtranslateY
p2795
aVtranslateZ
p2796
aVrotateX
p2797
aVrotateY
p2798
aVrotateZ
p2799
aVscaleX
p2800
aVscaleY
p2801
aVscaleZ
p2802
aVspace_world
p2803
aVspace_driver_hand_l
p2804
aVspace_driver_gun
p2805
aaI01
aF0
aF-3.0119581030473201e-15
aF0
aF0
aF0
aF0
aF1
aF1
aF1
aF0
aF0
aF0
aa(lp2806
Vspine_01_space_switcher
p2807
a(lp2808
Vvisibility
p2809
aVtranslateX
p2810
aVtranslateY
p2811
aVtranslateZ
p2812
aVrotateX
p2813
aVrotateY
p2814
aVrotateZ
p2815
aVscaleX
p2816
aVscaleY
p2817
aVscaleZ
p2818
aVspace_world
p2819
aaI01
aF-1.4210854715202004e-14
aF-4.4408920985006262e-16
aF1.2621774483536189e-29
aF-1.7655625192200634e-31
aF-0
aF0
aF1
aF1
aF1
aF0
aa(lp2820
Vtrap_handle_anim_space_switcher
p2821
a(lp2822
Vvisibility
p2823
aVtranslateX
p2824
aVtranslateY
p2825
aVtranslateZ
p2826
aVrotateX
p2827
aVrotateY
p2828
aVrotateZ
p2829
aVscaleX
p2830
aVscaleY
p2831
aVscaleZ
p2832
aVspace_world
p2833
aVspace_driver_hand_l
p2834
aaI01
aF-7.1054273576010019e-15
aF1.4210854715202004e-14
aF0
aF0
aF-7.9513867036587919e-16
aF-2.3854160110976376e-15
aF1
aF1
aF1
aF0
aF0
aa(lp2835
Vwrist_cover_anim_space_switcher
p2836
a(lp2837
Vvisibility
p2838
aVtranslateX
p2839
aVtranslateY
p2840
aVtranslateZ
p2841
aVrotateX
p2842
aVrotateY
p2843
aVrotateZ
p2844
aVscaleX
p2845
aVscaleY
p2846
aVscaleZ
p2847
aVspace_world
p2848
aaI01
aF-2.1316282072803006e-14
aF2.8421709430404007e-14
aF0
aF7.9513867036587939e-16
aF-9.9392333795734899e-17
aF0
aF1
aF0.99999999999999989
aF1
aF0
aa.