(lp1
(lp2
Vhip_anim
p3
a(lp4
VtranslateX
p5
aVtranslateY
p6
aVtranslateZ
p7
aVrotateX
p8
aVrotateY
p9
aVrotateZ
p10
aVlCalfTwistCtrlVis
p11
aVrCalfTwistCtrlVis
p12
aVautoHips
p13
aaF0
aF0
aF1.2621774483536189e-29
aF0.84816706091522465
aF0.14518558640240209
aF4.9696166897867437e-17
aI00
aI00
aF0
aa(lp14
Vbody_anim
p15
a(lp16
VtranslateX
p17
aVtranslateY
p18
aVtranslateZ
p19
aVrotateX
p20
aVrotateY
p21
aVrotateZ
p22
aaF-11.391485850972153
aF6.7704343514611018
aF-1.8893942032483877
aF11.645955093632617
aF-9.5099527333094933
aF4.3765881304038059
aa(lp23
Vspine_01_anim
p24
a(lp25
Vlength
p26
aVtranslateY
p27
aVtranslateZ
p28
aVrotateX
p29
aVrotateY
p30
aVrotateZ
p31
aaF0
aF0
aF0
aF-2.8636273302372506
aF2.2019164813315553
aF-8.6092215702723234
aa(lp32
Vspine_02_anim
p33
a(lp34
Vlength
p35
aVtranslateY
p36
aVtranslateZ
p37
aVrotateX
p38
aVrotateY
p39
aVrotateZ
p40
aaF0
aF0
aF0
aF-6.1056031074475383
aF4.7014705432336603
aF-6.0899946867606713
aa(lp41
Vspine_03_anim
p42
a(lp43
Vlength
p44
aVtranslateY
p45
aVtranslateZ
p46
aVrotateX
p47
aVrotateY
p48
aVrotateZ
p49
aaF0
aF0
aF0
aF-6.3882884633359618
aF4.1132849902597881
aF-6.2172938217526994
aa(lp50
Vmid_ik_anim
p51
a(lp52
VtranslateX
p53
aVtranslateY
p54
aVtranslateZ
p55
aVrotateX
p56
aVrotateY
p57
aVrotateZ
p58
aaF-0.22240117351006064
aF-3.106622191155441
aF-0.84938759113102991
aF-6.9042298342235275
aF9.2656623538737417
aF-1.9666494733927791
aa(lp59
Vchest_ik_anim
p60
a(lp61
VtranslateX
p62
aVtranslateY
p63
aVtranslateZ
p64
aVrotateX
p65
aVrotateY
p66
aVrotateZ
p67
aVstretch
p68
aVsquash
p69
aVtwist_amount
p70
aVautoSpine
p71
aVrotationInfluence
p72
aaF-0.029407302837358568
aF-5.4431358368984553
aF-2.8823245392842609
aF-25.208469833678141
aF17.013944215095915
aF-7.7919370694333905
aF0
aF0
aF1
aF0
aF0.25
aa(lp73
Vik_wrist_l_anim
p74
a(lp75
VtranslateX
p76
aVtranslateY
p77
aVtranslateZ
p78
aVrotateX
p79
aVrotateY
p80
aVrotateZ
p81
aVstretch
p82
aVsquash
p83
aVstretchBias
p84
aVside
p85
aVmid_bend
p86
aVmid_swivel
p87
aVtip_pivot
p88
aVtip_swivel
p89
aaF-52.821193888104716
aF-25.568966111540121
aF-47.304827441252854
aF-178.54437898793316
aF32.441588462541873
aF-98.888272027794343
aF0
aF0
aF0
aF0
aF0
aF0
aF0
aF0
aa(lp90
Vik_elbow_l_anim
p91
a(lp92
VtranslateX
p93
aVtranslateY
p94
aVtranslateZ
p95
aaF4.3297759277933157
aF29.292773402357483
aF-31.358833809028773
aa(lp96
Vfk_arm_l_anim
p97
a(lp98
VtranslateX
p99
aVtranslateY
p100
aVtranslateZ
p101
aVrotateX
p102
aVrotateY
p103
aVrotateZ
p104
aaF0
aF0
aF0
aF-8.9453551598503864
aF65.272635646600889
aF-75.573350456149825
aa(lp105
Vfk_elbow_l_anim
p106
a(lp107
VtranslateX
p108
aVtranslateY
p109
aVtranslateZ
p110
aVrotateX
p111
aVrotateY
p112
aVrotateZ
p113
aaF0
aF0
aF0
aF18.669261977179861
aF-19.984806100437627
aF-74.776426738070697
aa(lp114
Vfk_wrist_l_anim
p115
a(lp116
VtranslateX
p117
aVtranslateY
p118
aVtranslateZ
p119
aVrotateX
p120
aVrotateY
p121
aVrotateZ
p122
aaF0
aF0
aF0
aF-75.424332643454036
aF-15.493722536433781
aF-19.350065805731926
aa(lp123
Vclavicle_l_anim
p124
a(lp125
VtranslateX
p126
aVtranslateY
p127
aVtranslateZ
p128
aVautoShoulders
p129
aaF1.6952069190505585
aF-0.31549470807234309
aF4.4392896291527517
aF0
aa(lp130
Vik_wrist_r_anim
p131
a(lp132
VtranslateX
p133
aVtranslateY
p134
aVtranslateZ
p135
aVrotateX
p136
aVrotateY
p137
aVrotateZ
p138
aVstretch
p139
aVsquash
p140
aVstretchBias
p141
aVside
p142
aVmid_bend
p143
aVmid_swivel
p144
aVtip_pivot
p145
aVtip_swivel
p146
aaF45.195171632996278
aF-28.939537535591384
aF-37.246378516306144
aF-96.722828484323315
aF-11.548390683586037
aF155.6397551039145
aF0
aF0
aF0
aF0
aF0
aF0
aF0
aF0
aa(lp147
Vik_elbow_r_anim
p148
a(lp149
VtranslateX
p150
aVtranslateY
p151
aVtranslateZ
p152
aaF-19.524111601536895
aF-15.795095333110119
aF-31.09994545711848
aa(lp153
Vfk_arm_r_anim
p154
a(lp155
VtranslateX
p156
aVtranslateY
p157
aVtranslateZ
p158
aVrotateX
p159
aVrotateY
p160
aVrotateZ
p161
aaF0
aF0
aF0
aF47.089491828617426
aF38.652556028803048
aF14.121080187334091
aa(lp162
Vfk_elbow_r_anim
p163
a(lp164
VtranslateX
p165
aVtranslateY
p166
aVtranslateZ
p167
aVrotateX
p168
aVrotateY
p169
aVrotateZ
p170
aaF0
aF0
aF0
aF26.173391149865662
aF-12.710260388723238
aF-118.873825441986
aa(lp171
Vfk_wrist_r_anim
p172
a(lp173
VtranslateX
p174
aVtranslateY
p175
aVtranslateZ
p176
aVrotateX
p177
aVrotateY
p178
aVrotateZ
p179
aaF0
aF0
aF0
aF-27.03771059925317
aF0.78186493112502409
aF-21.14081816646236
aa(lp180
Vclavicle_r_anim
p181
a(lp182
VtranslateX
p183
aVtranslateY
p184
aVtranslateZ
p185
aVautoShoulders
p186
aaF-1.7628787456217243
aF-0.73844949701450191
aF5.6045221202868243
aF0
aa(lp187
Vhead_fk_anim
p188
a(lp189
VtranslateX
p190
aVtranslateY
p191
aVtranslateZ
p192
aVrotateX
p193
aVrotateY
p194
aVrotateZ
p195
aVscaleX
p196
aVscaleY
p197
aVscaleZ
p198
aVfkOrientation
p199
aaF0
aF0
aF0
aF7.0154086222386454
aF-3.0715587577298318
aF9.7690726123997678
aF1
aF1
aF1
aI0
aa(lp200
Vneck_01_fk_anim
p201
a(lp202
VtranslateX
p203
aVtranslateY
p204
aVtranslateZ
p205
aVrotateX
p206
aVrotateY
p207
aVrotateZ
p208
aVscaleX
p209
aVscaleY
p210
aVscaleZ
p211
aVfkOrientation
p212
aaF0
aF0
aF-1.5777218104420236e-30
aF5.8611820121158473
aF-2.1710891851918661
aF4.7118206629965815
aF1
aF1
aF1
aI0
aa(lp213
Vgun_anim
p214
a(lp215
VtranslateX
p216
aVtranslateY
p217
aVtranslateZ
p218
aVrotateX
p219
aVrotateY
p220
aVrotateZ
p221
aVscaleX
p222
aVscaleY
p223
aVscaleZ
p224
aaF0
aF0
aF0
aF0
aF0
aF0
aF1
aF1
aF1
aa(lp225
Vindex_finger_fk_ctrl_1_r
p226
a(lp227
VtranslateX
p228
aVtranslateY
p229
aVtranslateZ
p230
aVrotateX
p231
aVrotateY
p232
aVrotateZ
p233
aVsticky
p234
aaF0
aF0
aF0
aF-18.235420204538876
aF-4.5303875060476937
aF44.051142115159003
aF0
aa(lp235
Vmiddle_finger_fk_ctrl_1_r
p236
a(lp237
VtranslateX
p238
aVtranslateY
p239
aVtranslateZ
p240
aVrotateX
p241
aVrotateY
p242
aVrotateZ
p243
aVsticky
p244
aaF0
aF0
aF0
aF-6.1872507748188879
aF-4.1153185698392756
aF69.882167601948183
aF0
aa(lp245
Vring_finger_fk_ctrl_1_r
p246
a(lp247
VtranslateX
p248
aVtranslateY
p249
aVtranslateZ
p250
aVrotateX
p251
aVrotateY
p252
aVrotateZ
p253
aVsticky
p254
aaF0
aF0
aF0
aF-17.537253279013118
aF-3.8896483125510932
aF61.3300721580908
aF0
aa(lp255
Vpinky_finger_fk_ctrl_1_r
p256
a(lp257
VtranslateX
p258
aVtranslateY
p259
aVtranslateZ
p260
aVrotateX
p261
aVrotateY
p262
aVrotateZ
p263
aVsticky
p264
aaF0
aF0
aF0
aF-0.49069871912143409
aF-9.8122038602914241
aF60.514905295287271
aF0
aa(lp265
Vthumb_finger_fk_ctrl_1_r
p266
a(lp267
VtranslateX
p268
aVtranslateY
p269
aVtranslateZ
p270
aVrotateX
p271
aVrotateY
p272
aVrotateZ
p273
aVsticky
p274
aaF0
aF0
aF0
aF-20.399995807933919
aF19.699254667710729
aF3.9914978609359113
aF0
aa(lp275
Vindex_finger_fk_ctrl_2_r
p276
a(lp277
VtranslateX
p278
aVtranslateY
p279
aVtranslateZ
p280
aVrotateX
p281
aVrotateY
p282
aVrotateZ
p283
aaF0
aF0
aF0
aF24.35458567318058
aF11.754785803312252
aF84.243736267089787
aa(lp284
Vmiddle_finger_fk_ctrl_2_r
p285
a(lp286
VtranslateX
p287
aVtranslateY
p288
aVtranslateZ
p289
aVrotateX
p290
aVrotateY
p291
aVrotateZ
p292
aaF0
aF0
aF0
aF11.803943634033214
aF7.9659514427184002
aF83.946128845214929
aa(lp293
Vring_finger_fk_ctrl_2_r
p294
a(lp295
VtranslateX
p296
aVtranslateY
p297
aVtranslateZ
p298
aVrotateX
p299
aVrotateY
p300
aVrotateZ
p301
aaF0
aF0
aF0
aF-2.4195189476013113
aF-2.2452738285064777
aF71.886215209960838
aa(lp302
Vpinky_finger_fk_ctrl_2_r
p303
a(lp304
VtranslateX
p305
aVtranslateY
p306
aVtranslateZ
p307
aVrotateX
p308
aVrotateY
p309
aVrotateZ
p310
aaF0
aF0
aF0
aF3.7660679817200733
aF2.9020192623137864
aF46.353736877441314
aa(lp311
Vthumb_finger_fk_ctrl_2_r
p312
a(lp313
VtranslateX
p314
aVtranslateY
p315
aVtranslateZ
p316
aVrotateX
p317
aVrotateY
p318
aVrotateZ
p319
aaF0
aF0
aF0
aF32.780117034912088
aF11.447066307067855
aF38.10806274414054
aa(lp320
Vindex_finger_fk_ctrl_3_r
p321
a(lp322
VtranslateX
p323
aVtranslateY
p324
aVtranslateZ
p325
aVrotateX
p326
aVrotateY
p327
aVrotateZ
p328
aaF0
aF0
aF0
aF8.3584327697980978
aF11.421175003050738
aF41.550048827322478
aa(lp329
Vmiddle_finger_fk_ctrl_3_r
p330
a(lp331
VtranslateX
p332
aVtranslateY
p333
aVtranslateZ
p334
aVrotateX
p335
aVrotateY
p336
aVrotateZ
p337
aaF0
aF0
aF0
aF0.34894034266481083
aF2.9220106601714111
aF29.163963317870902
aa(lp338
Vring_finger_fk_ctrl_3_r
p339
a(lp340
VtranslateX
p341
aVtranslateY
p342
aVtranslateZ
p343
aVrotateX
p344
aVrotateY
p345
aVrotateZ
p346
aaF0
aF0
aF0
aF-2.2251775264739937
aF2.2419226169585755
aF30.030200958251953
aa(lp347
Vpinky_finger_fk_ctrl_3_r
p348
a(lp349
VtranslateX
p350
aVtranslateY
p351
aVtranslateZ
p352
aVrotateX
p353
aVrotateY
p354
aVrotateZ
p355
aaF0
aF0
aF0
aF2.0519118309021569
aF4.3689389228822044
aF57.614753723144545
aa(lp356
Vthumb_finger_fk_ctrl_3_r
p357
a(lp358
VtranslateX
p359
aVtranslateY
p360
aVtranslateZ
p361
aVrotateX
p362
aVrotateY
p363
aVrotateZ
p364
aaF0
aF0
aF0
aF-8.3886165618896609
aF17.110204696655355
aF59.888751983642564
aa(lp365
Vindex_finger_fk_ctrl_1_l
p366
a(lp367
VtranslateX
p368
aVtranslateY
p369
aVtranslateZ
p370
aVrotateX
p371
aVrotateY
p372
aVrotateZ
p373
aVsticky
p374
aaF0
aF0
aF0
aF-24.053345044880615
aF-0.34519720231749446
aF39.554606349842857
aF0
aa(lp375
Vmiddle_finger_fk_ctrl_1_l
p376
a(lp377
VtranslateX
p378
aVtranslateY
p379
aVtranslateZ
p380
aVrotateX
p381
aVrotateY
p382
aVrotateZ
p383
aVsticky
p384
aaF0
aF0
aF0
aF-17.325604944188594
aF-4.7062460149756955
aF73.934212453512714
aF0
aa(lp385
Vring_finger_fk_ctrl_1_l
p386
a(lp387
VtranslateX
p388
aVtranslateY
p389
aVtranslateZ
p390
aVrotateX
p391
aVrotateY
p392
aVrotateZ
p393
aVsticky
p394
aaF0
aF0
aF0
aF-16.485596845281588
aF-9.8189372403116568
aF68.87320963016262
aF0
aa(lp395
Vpinky_finger_fk_ctrl_1_l
p396
a(lp397
VtranslateX
p398
aVtranslateY
p399
aVtranslateZ
p400
aVrotateX
p401
aVrotateY
p402
aVrotateZ
p403
aVsticky
p404
aaF0
aF0
aF0
aF-17.56876554852732
aF-20.743199114525229
aF50.819207156619996
aF0
aa(lp405
Vthumb_finger_fk_ctrl_1_l
p406
a(lp407
VtranslateX
p408
aVtranslateY
p409
aVtranslateZ
p410
aVrotateX
p411
aVrotateY
p412
aVrotateZ
p413
aVsticky
p414
aaF0
aF0
aF0
aF-18.656072564032932
aF-2.0863671772695187
aF-47.814767813966114
aF0
aa(lp415
Vindex_finger_fk_ctrl_2_l
p416
a(lp417
VtranslateX
p418
aVtranslateY
p419
aVtranslateZ
p420
aVrotateX
p421
aVrotateY
p422
aVrotateZ
p423
aaF0
aF0
aF0
aF2.6591717510323498
aF1.0276526154085484
aF37.695584928729282
aa(lp424
Vmiddle_finger_fk_ctrl_2_l
p425
a(lp426
VtranslateX
p427
aVtranslateY
p428
aVtranslateZ
p429
aVrotateX
p430
aVrotateY
p431
aVrotateZ
p432
aaF0
aF0
aF0
aF-19.599591636641208
aF-3.2511824282985171
aF10.476239225818835
aa(lp433
Vring_finger_fk_ctrl_2_l
p434
a(lp435
VtranslateX
p436
aVtranslateY
p437
aVtranslateZ
p438
aVrotateX
p439
aVrotateY
p440
aVrotateZ
p441
aaF0
aF0
aF0
aF17.182117527265358
aF6.0837316962681705
aF14.797182275222475
aa(lp442
Vpinky_finger_fk_ctrl_2_l
p443
a(lp444
VtranslateX
p445
aVtranslateY
p446
aVtranslateZ
p447
aVrotateX
p448
aVrotateY
p449
aVrotateZ
p450
aaF0
aF0
aF0
aF8.5766782126870442
aF2.9708111451259613
aF15.09357996896737
aa(lp451
Vthumb_finger_fk_ctrl_2_l
p452
a(lp453
VtranslateX
p454
aVtranslateY
p455
aVtranslateZ
p456
aVrotateX
p457
aVrotateY
p458
aVrotateZ
p459
aaF0
aF0
aF0
aF8.7259359359740678
aF10.793167114257811
aF21.381568908691399
aa(lp460
Vindex_finger_fk_ctrl_3_l
p461
a(lp462
VtranslateX
p463
aVtranslateY
p464
aVtranslateZ
p465
aVrotateX
p466
aVrotateY
p467
aVrotateZ
p468
aaF0
aF0
aF0
aF4.0468716592447
aF7.3090467454788222
aF20.109149932778244
aa(lp469
Vmiddle_finger_fk_ctrl_3_l
p470
a(lp471
VtranslateX
p472
aVtranslateY
p473
aVtranslateZ
p474
aVrotateX
p475
aVrotateY
p476
aVrotateZ
p477
aaF0
aF0
aF0
aF-2.6564145088195423
aF-13.529303550720265
aF19.268327713012511
aa(lp478
Vring_finger_fk_ctrl_3_l
p479
a(lp480
VtranslateX
p481
aVtranslateY
p482
aVtranslateZ
p483
aVrotateX
p484
aVrotateY
p485
aVrotateZ
p486
aaF0
aF0
aF0
aF-2.1815209388732768
aF3.8441541194915203
aF10.678306579589815
aa(lp487
Vpinky_finger_fk_ctrl_3_l
p488
a(lp489
VtranslateX
p490
aVtranslateY
p491
aVtranslateZ
p492
aVrotateX
p493
aVrotateY
p494
aVrotateZ
p495
aaF0
aF0
aF0
aF0.5456728339194582
aF4.795074939727952
aF38.926383972168026
aa(lp496
Vthumb_finger_fk_ctrl_3_l
p497
a(lp498
VtranslateX
p499
aVtranslateY
p500
aVtranslateZ
p501
aVrotateX
p502
aVrotateY
p503
aVrotateZ
p504
aaF0
aF0
aF0
aF-13.147610664367726
aF-5.1299538612364817
aF21.566631317138697
aa.