(lp1
(lp2
S'fk_clavicle_r_anim'
p3
a(lp4
VtranslateX
p5
aVtranslateY
p6
aVtranslateZ
p7
aVrotateX
p8
aVrotateY
p9
aVrotateZ
p10
aaF0
aF0
aF0
aF0
aF0
aF0
aa(lp11
S'fk_clavicle_l_anim'
p12
a(lp13
VtranslateX
p14
aVtranslateY
p15
aVtranslateZ
p16
aVrotateX
p17
aVrotateY
p18
aVrotateZ
p19
aaF0
aF0
aF0
aF0
aF0
aF0
aa(lp20
S'head_fk_anim'
p21
a(lp22
VtranslateX
p23
aVtranslateY
p24
aVtranslateZ
p25
aVrotateX
p26
aVrotateY
p27
aVrotateZ
p28
aVscaleX
p29
aVscaleY
p30
aVscaleZ
p31
aVfkOrientation
p32
aaF0
aF0
aF0
aF-0.74902706171077504
aF-0.11158800189883723
aF-26.605850507518053
aF1
aF1
aF1
aI3
aa(lp33
S'neck_01_fk_anim'
p34
a(lp35
VtranslateX
p36
aVtranslateY
p37
aVtranslateZ
p38
aVrotateX
p39
aVrotateY
p40
aVrotateZ
p41
aVscaleX
p42
aVscaleY
p43
aVscaleZ
p44
aVfkOrientation
p45
aaF0
aF0
aF-1.5777218104420236e-30
aF-3.3726180347141086
aF-3.2582328261816231
aF-36.892233733299584
aF1
aF0.99999999999999989
aF0.99999999999999978
aI2
aa(lp46
S'spine_01_anim'
p47
a(lp48
Vlength
p49
aVtranslateY
p50
aVtranslateZ
p51
aVrotateX
p52
aVrotateY
p53
aVrotateZ
p54
aaF0
aF0
aF0
aF-7.7836938135926443
aF-10.15455290539496
aF-28.637873000361566
aa(lp55
S'spine_02_anim'
p56
a(lp57
Vlength
p58
aVtranslateY
p59
aVtranslateZ
p60
aVrotateX
p61
aVrotateY
p62
aVrotateZ
p63
aaF0
aF0
aF0
aF-4.4867514901741643
aF-2.9823736338684195
aF-14.345844230003847
aa(lp64
S'spine_03_anim'
p65
a(lp66
Vlength
p67
aVtranslateY
p68
aVtranslateZ
p69
aVrotateX
p70
aVrotateY
p71
aVrotateZ
p72
aaF0
aF0
aF0
aF-2.4652623841091779
aF1.1679476174263936
aF-9.9858057739486341
aa(lp73
S'mid_ik_anim'
p74
a(lp75
VtranslateX
p76
aVtranslateY
p77
aVtranslateZ
p78
aVrotateX
p79
aVrotateY
p80
aVrotateZ
p81
aaF-1.688540409401682
aF-6.9385661691097233
aF2.738673620670351
aF-12.689832577412506
aF-12.016164329069339
aF-30.940393781139335
aa(lp82
S'chest_ik_anim'
p83
a(lp84
VtranslateX
p85
aVtranslateY
p86
aVtranslateZ
p87
aVrotateX
p88
aVrotateY
p89
aVrotateZ
p90
aVstretch
p91
aVsquash
p92
aVtwist_amount
p93
aVautoSpine
p94
aVrotationInfluence
p95
aaF-3.1766764143324449
aF-14.650380938958236
aF6.4922795579033972
aF-9.7704580858979551
aF-9.6565333983888841
aF-44.664258204814828
aF0
aF0
aF1
aF0
aF0.25
aa(lp96
S'body_anim'
p97
a(lp98
VtranslateX
p99
aVtranslateY
p100
aVtranslateZ
p101
aVrotateX
p102
aVrotateY
p103
aVrotateZ
p104
aaF-15.811586884703225
aF-25.573439418140104
aF-1.3269530534744163
aF2.3625486955381665
aF11.759507739650306
aF-8.2694183391379887
aa(lp105
S'hip_anim'
p106
a(lp107
VtranslateX
p108
aVtranslateY
p109
aVtranslateZ
p110
aVrotateX
p111
aVrotateY
p112
aVrotateZ
p113
aVlCalfTwistCtrlVis
p114
aVrCalfTwistCtrlVis
p115
aVautoHips
p116
aaF0
aF0
aF1.2621774483536189e-29
aF3.7272125173400562e-17
aF-2.5444437451708134e-14
aF4.9696166897867437e-17
aI00
aI00
aF0
aa(lp117
S'clavicle_l_anim'
p118
a(lp119
VtranslateX
p120
aVtranslateY
p121
aVtranslateZ
p122
aVautoShoulders
p123
aaF0.83976486848901644
aF-8.0490292499378508
aF5.4478697708621304
aF0
aa(lp124
S'clavicle_r_anim'
p125
a(lp126
VtranslateX
p127
aVtranslateY
p128
aVtranslateZ
p129
aVautoShoulders
p130
aaF-1.8369289673163192
aF-1.2866619744596732
aF4.3977213244761186
aF0
aa(lp131
S'fk_arm_l_anim'
p132
a(lp133
VtranslateX
p134
aVtranslateY
p135
aVtranslateZ
p136
aVrotateX
p137
aVrotateY
p138
aVrotateZ
p139
aaF0
aF0
aF0
aF16.008558755232787
aF59.473669120876579
aF-11.397088506251647
aa(lp140
S'fk_arm_r_anim'
p141
a(lp142
VtranslateX
p143
aVtranslateY
p144
aVtranslateZ
p145
aVrotateX
p146
aVrotateY
p147
aVrotateZ
p148
aaF0
aF0
aF0
aF11.936317845997092
aF21.359257366331459
aF-33.212718008563186
aa(lp149
S'fk_elbow_l_anim'
p150
a(lp151
VtranslateX
p152
aVtranslateY
p153
aVtranslateZ
p154
aVrotateX
p155
aVrotateY
p156
aVrotateZ
p157
aaF0
aF0
aF0
aF0.011397716589273067
aF-10.054606437683107
aF-90.065284729003935
aa(lp158
S'fk_elbow_r_anim'
p159
a(lp160
VtranslateX
p161
aVtranslateY
p162
aVtranslateZ
p163
aVrotateX
p164
aVrotateY
p165
aVrotateZ
p166
aaF0
aF0
aF0
aF-0.049628775566816379
aF1.5559561252593992
aF-91.827354431152344
aa(lp167
S'fk_wrist_l_anim'
p168
a(lp169
VtranslateX
p170
aVtranslateY
p171
aVtranslateZ
p172
aVrotateX
p173
aVrotateY
p174
aVrotateZ
p175
aaF0
aF0
aF0
aF-98.565933227539062
aF10.514576911926277
aF-24.7908821105957
aa(lp176
S'fk_wrist_r_anim'
p177
a(lp178
VtranslateX
p179
aVtranslateY
p180
aVtranslateZ
p181
aVrotateX
p182
aVrotateY
p183
aVrotateZ
p184
aaF0
aF0
aF0
aF-36.487709045410149
aF38.383975982666023
aF-9.274646759033196
aa(lp185
S'ik_elbow_l_anim'
p186
a(lp187
VtranslateX
p188
aVtranslateY
p189
aVtranslateZ
p190
aaF-11.459818266031881
aF-50.212292998933329
aF-41.931470485715906
aa(lp191
S'ik_elbow_r_anim'
p192
a(lp193
VtranslateX
p194
aVtranslateY
p195
aVtranslateZ
p196
aaF4.1366915720217854
aF-69.108503792419711
aF-36.002551543252544
aa(lp197
S'ik_wrist_l_anim'
p198
a(lp199
VtranslateX
p200
aVtranslateY
p201
aVtranslateZ
p202
aVrotateX
p203
aVrotateY
p204
aVrotateZ
p205
aVstretch
p206
aVsquash
p207
aVstretchBias
p208
aVside
p209
aVmid_bend
p210
aVmid_swivel
p211
aVtip_pivot
p212
aVtip_swivel
p213
aaF-53.02849846372564
aF-57.767723471043517
aF-65.778040999583453
aF-175.50612542876107
aF35.702114449750994
aF-84.398069139003937
aF0
aF0
aF0
aF0
aF0
aF0
aF0
aF0
aa(lp214
S'ik_wrist_r_anim'
p215
a(lp216
VtranslateX
p217
aVtranslateY
p218
aVtranslateZ
p219
aVrotateX
p220
aVrotateY
p221
aVrotateZ
p222
aVstretch
p223
aVsquash
p224
aVstretchBias
p225
aVside
p226
aVmid_bend
p227
aVmid_swivel
p228
aVtip_pivot
p229
aVtip_swivel
p230
aaF46.832588648582188
aF-74.329824746156248
aF-58.879058498827497
aF-100.61758751707762
aF-10.024099619799545
aF169.15605743342104
aF0
aF0
aF0
aF0
aF0
aF0
aF0
aF0
aa(lp231
S'fk_thigh_l_anim'
p232
a(lp233
VrotateX
p234
aVrotateY
p235
aVrotateZ
p236
aaF-2.1284193092301713
aF-14.049766354969957
aF17.456692530136753
aa(lp237
S'fk_thigh_r_anim'
p238
a(lp239
VrotateX
p240
aVrotateY
p241
aVrotateZ
p242
aaF3.1118087412068611
aF9.0250745457419015
aF38.059931287031226
aa(lp243
S'fk_calf_l_anim'
p244
a(lp245
VrotateX
p246
aVrotateY
p247
aVrotateZ
p248
aaF-18.520632707915546
aF14.590315575270358
aF224.42105815289611
aa(lp249
S'fk_calf_r_anim'
p250
a(lp251
VrotateX
p252
aVrotateY
p253
aVrotateZ
p254
aaF6.4611951007903343
aF22.664419519586552
aF-65.16063986898574
aa(lp255
S'fk_foot_l_anim'
p256
a(lp257
VrotateX
p258
aVrotateY
p259
aVrotateZ
p260
aaF2.5080250173068106
aF-17.473849934020908
aF1.5616829172212812
aa(lp261
S'fk_foot_r_anim'
p262
a(lp263
VrotateX
p264
aVrotateY
p265
aVrotateZ
p266
aaF-6.3695914686713282
aF-9.7212495572480879
aF37.990466743045644
aa(lp267
S'fk_ball_l_anim'
p268
a(lp269
VrotateX
p270
aVrotateY
p271
aVrotateZ
p272
aaF-0.0003309710300527538
aF-0.00030385988061438628
aF0.0031754029914775467
aa(lp273
S'fk_ball_r_anim'
p274
a(lp275
VrotateX
p276
aVrotateY
p277
aVrotateZ
p278
aaF1.4576383364330965e-05
aF2.3388613004409119e-05
aF0.00014100249974011004
aa(lp279
S'ik_foot_anim_l'
p280
a(lp281
VtranslateX
p282
aVtranslateY
p283
aVtranslateZ
p284
aVrotateX
p285
aVrotateY
p286
aVrotateZ
p287
aVknee_twist
p288
aVstretch
p289
aVsquash
p290
aVtoeCtrlVis
p291
aVstretchBias
p292
aaF-14.090203390598877
aF-3.9886047876936708
aF45.791968927051435
aF120.71757405943467
aF2.260687329475938
aF8.5547765643526148
aF22
aF0
aF0
aI00
aF0
aa(lp293
S'ik_foot_anim_r'
p294
a(lp295
VtranslateX
p296
aVtranslateY
p297
aVtranslateZ
p298
aVrotateX
p299
aVrotateY
p300
aVrotateZ
p301
aVknee_twist
p302
aVstretch
p303
aVsquash
p304
aVtoeCtrlVis
p305
aVstretchBias
p306
aaF16.195628230503615
aF-25.141652007506092
aF-1.4255369941460714
aF4.1961969431382453
aF4.7288496716975681
aF-6.7488818704072182
aF13
aF0
aF0
aI00
aF0
aa(lp307
S'heel_ctrl_l'
p308
a(lp309
VrotateX
p310
aVrotateY
p311
aVrotateZ
p312
aVheelPivot
p313
aVballPivot
p314
aaF-3.7520606007889914e-15
aF1.2324649390671127e-14
aF0
aF0
aF0
aa(lp315
S'heel_ctrl_r'
p316
a(lp317
VrotateX
p318
aVrotateY
p319
aVrotateZ
p320
aVheelPivot
p321
aVballPivot
p322
aaF-1.5033090486604903e-15
aF-1.9480897423964047e-14
aF0
aF0
aF0
aa(lp323
S'toe_wiggle_ctrl_l'
p324
a(lp325
VrotateX
p326
aVrotateY
p327
aVrotateZ
p328
aaF6.3611092702081637e-15
aF1.2723771731069628e-14
aF-6.3611093629270304e-15
aa(lp329
S'toe_wiggle_ctrl_r'
p330
a(lp331
VrotateX
p332
aVrotateY
p333
aVrotateZ
p334
aaF-3.1794685459000318e-15
aF6.361109362927032e-15
aF-3.1805546814635187e-15
aa(lp335
S'toe_tip_ctrl_l'
p336
a(lp337
VrotateX
p338
aVrotateY
p339
aVrotateZ
p340
aaF0
aF-6.3657683785737075e-15
aF-3.1805546814635183e-15
aa(lp341
S'toe_tip_ctrl_r'
p342
a(lp343
VrotateX
p344
aVrotateY
p345
aVrotateZ
p346
aaF0
aF-6.361109362927032e-15
aF3.1805546814635195e-15
aa(lp347
S'master_anim'
p348
a(lp349
VtranslateX
p350
aVtranslateY
p351
aVtranslateZ
p352
aVrotateX
p353
aVrotateY
p354
aVrotateZ
p355
aaF0
aF0
aF0
aF0
aF0
aF0
aa(lp356
S'offset_anim'
p357
a(lp358
VtranslateX
p359
aVtranslateY
p360
aVtranslateZ
p361
aVrotateX
p362
aVrotateY
p363
aVrotateZ
p364
aaF0
aF0
aF0
aF0
aF0
aF0
aa(lp365
S'root_anim'
p366
a(lp367
VtranslateX
p368
aVtranslateY
p369
aVtranslateZ
p370
aVrotateX
p371
aVrotateY
p372
aVrotateZ
p373
aaF0
aF0
aF0
aF0
aF0
aF0
aa(lp374
S'upperarm_l_twist_anim'
p375
a(lp376
VtranslateX
p377
aVtranslateY
p378
aVtranslateZ
p379
aVrotateX
p380
aVrotateY
p381
aVrotateZ
p382
aVscaleX
p383
aVscaleY
p384
aVscaleZ
p385
aaF0
aF-1.7763568394002505e-15
aF0
aF3.975693351829395e-16
aF-4.9696166897867449e-17
aF1.3977046940025222e-17
aF1
aF1.0000000000000002
aF1.0000000000000002
aa(lp386
S'upperarm_l_twist_2_anim'
p387
a(lp388
VtranslateX
p389
aVtranslateY
p390
aVtranslateZ
p391
aVrotateX
p392
aVrotateY
p393
aVrotateZ
p394
aVscaleX
p395
aVscaleY
p396
aVscaleZ
p397
aaF0
aF1.7763568394002505e-15
aF0
aF3.975693351829395e-16
aF-4.9696166897867449e-17
aF1.3977046940025222e-17
aF1
aF1.0000000000000002
aF1.0000000000000002
aa(lp398
S'upperarm_r_twist_anim'
p399
a(lp400
VtranslateX
p401
aVtranslateY
p402
aVtranslateZ
p403
aVrotateX
p404
aVrotateY
p405
aVrotateZ
p406
aVscaleX
p407
aVscaleY
p408
aVscaleZ
p409
aaF-3.5527136788005009e-15
aF3.5527136788005009e-15
aF-2.8421709430404007e-14
aF0
aF4.9696166897867437e-17
aF-1.5530052155583574e-18
aF1.0000000000000002
aF1.0000000000000002
aF1.0000000000000002
aa(lp410
S'upperarm_r_twist_2_anim'
p411
a(lp412
VtranslateX
p413
aVtranslateY
p414
aVtranslateZ
p415
aVrotateX
p416
aVrotateY
p417
aVrotateZ
p418
aVscaleX
p419
aVscaleY
p420
aVscaleZ
p421
aaF-7.1054273576010019e-15
aF0
aF2.8421709430404007e-14
aF0
aF4.9696166897867437e-17
aF-1.5530052155583574e-18
aF1.0000000000000002
aF1.0000000000000002
aF1.0000000000000002
aa(lp422
S'lowerarm_l_twist_anim'
p423
a(lp424
VtranslateX
p425
aVtranslateY
p426
aVtranslateZ
p427
aVrotateX
p428
aVrotateY
p429
aVrotateZ
p430
aaF0
aF0
aF0
aF0
aF0
aF0
aa(lp431
S'lowerarm_r_twist_anim'
p432
a(lp433
VtranslateX
p434
aVtranslateY
p435
aVtranslateZ
p436
aVrotateX
p437
aVrotateY
p438
aVrotateZ
p439
aaF0
aF0
aF0
aF0
aF0
aF0
aa(lp440
S'l_thigh_twist_01_anim'
p441
a(lp442
VtranslateX
p443
aVtranslateY
p444
aVtranslateZ
p445
aVrotateX
p446
aVrotateY
p447
aVrotateZ
p448
aVscaleX
p449
aVscaleY
p450
aVscaleZ
p451
aaF-2.8421709430404007e-14
aF-8.8817841970012523e-16
aF0
aF-1.6151254241806922e-16
aF-0
aF0
aF1
aF1
aF1.0000000000000002
aa(lp452
S'r_thigh_twist_01_anim'
p453
a(lp454
VtranslateX
p455
aVtranslateY
p456
aVtranslateZ
p457
aVrotateX
p458
aVrotateY
p459
aVrotateZ
p460
aVscaleX
p461
aVscaleY
p462
aVscaleZ
p463
aaF2.8421709430404007e-14
aF0
aF0
aF1.5505204072134644e-14
aF-1.1927080055488186e-14
aF-2.0872390097104326e-15
aF1.0000000000000002
aF1
aF1.0000000000000002
aa(lp464
S'pinky_finger_fk_ctrl_1_l'
p465
a(lp466
VtranslateX
p467
aVtranslateY
p468
aVtranslateZ
p469
aVrotateX
p470
aVrotateY
p471
aVrotateZ
p472
aVsticky
p473
aaF0
aF0
aF0
aF-17.568805282889645
aF-20.74341146978264
aF50.81906730747999
aF0
aa(lp474
S'pinky_finger_fk_ctrl_1_r'
p475
a(lp476
VtranslateX
p477
aVtranslateY
p478
aVtranslateZ
p479
aVrotateX
p480
aVrotateY
p481
aVrotateZ
p482
aVsticky
p483
aaF0
aF0
aF0
aF-0.49069863522916446
aF-9.8122008159358121
aF60.514905858347191
aF0
aa(lp484
S'pinky_finger_fk_ctrl_2_l'
p485
a(lp486
VtranslateX
p487
aVtranslateY
p488
aVtranslateZ
p489
aVrotateX
p490
aVrotateY
p491
aVrotateZ
p492
aaF0
aF0
aF0
aF8.5766782126870282
aF2.9708111451259467
aF15.093579968967365
aa(lp493
S'pinky_finger_fk_ctrl_2_r'
p494
a(lp495
VtranslateX
p496
aVtranslateY
p497
aVtranslateZ
p498
aVrotateX
p499
aVrotateY
p500
aVrotateZ
p501
aaF0
aF0
aF0
aF3.7660679817200777
aF2.9020192623137997
aF46.353736877441307
aa(lp502
S'pinky_finger_fk_ctrl_3_l'
p503
a(lp504
VtranslateX
p505
aVtranslateY
p506
aVtranslateZ
p507
aVrotateX
p508
aVrotateY
p509
aVrotateZ
p510
aaF0
aF0
aF0
aF0.54567283391946286
aF4.7950749397279582
aF38.926383972168018
aa(lp511
S'pinky_finger_fk_ctrl_3_r'
p512
a(lp513
VtranslateX
p514
aVtranslateY
p515
aVtranslateZ
p516
aVrotateX
p517
aVrotateY
p518
aVrotateZ
p519
aaF0
aF0
aF0
aF2.0519118309021596
aF4.3689389228822035
aF57.614753723144545
aa(lp520
S'ring_finger_fk_ctrl_1_l'
p521
a(lp522
VtranslateX
p523
aVtranslateY
p524
aVtranslateZ
p525
aVrotateX
p526
aVrotateY
p527
aVrotateZ
p528
aVsticky
p529
aaF0
aF0
aF0
aF-16.485610050905478
aF-9.8191799614581701
aF68.873125183095993
aF0
aa(lp530
S'ring_finger_fk_ctrl_1_r'
p531
a(lp532
VtranslateX
p533
aVtranslateY
p534
aVtranslateZ
p535
aVrotateX
p536
aVrotateY
p537
aVrotateZ
p538
aVsticky
p539
aaF0
aF0
aF0
aF-17.537253410244805
aF-3.8896452262009404
aF61.33007193583795
aF0
aa(lp540
S'ring_finger_fk_ctrl_2_l'
p541
a(lp542
VtranslateX
p543
aVtranslateY
p544
aVtranslateZ
p545
aVrotateX
p546
aVrotateY
p547
aVrotateZ
p548
aaF0
aF0
aF0
aF17.182117517839277
aF6.0837315544322443
aF14.797182275083383
aa(lp549
S'ring_finger_fk_ctrl_2_r'
p550
a(lp551
VtranslateX
p552
aVtranslateY
p553
aVtranslateZ
p554
aVrotateX
p555
aVrotateY
p556
aVrotateZ
p557
aaF0
aF0
aF0
aF-2.4195189476012966
aF-2.2452738285064777
aF71.886215209960824
aa(lp558
S'ring_finger_fk_ctrl_3_l'
p559
a(lp560
VtranslateX
p561
aVtranslateY
p562
aVtranslateZ
p563
aVrotateX
p564
aVrotateY
p565
aVrotateZ
p566
aaF0
aF0
aF0
aF-2.1815209388732768
aF3.8441541194915203
aF10.678306579589826
aa(lp567
S'ring_finger_fk_ctrl_3_r'
p568
a(lp569
VtranslateX
p570
aVtranslateY
p571
aVtranslateZ
p572
aVrotateX
p573
aVrotateY
p574
aVrotateZ
p575
aaF0
aF0
aF0
aF-2.2251775264739946
aF2.2419226169585906
aF30.030200958251957
aa(lp576
S'middle_finger_fk_ctrl_1_l'
p577
a(lp578
VtranslateX
p579
aVtranslateY
p580
aVtranslateZ
p581
aVrotateX
p582
aVrotateY
p583
aVrotateZ
p584
aVsticky
p585
aaF0
aF0
aF0
aF-17.325583483811435
aF-4.7064934220064174
aF73.934145158221284
aF0
aa(lp586
S'middle_finger_fk_ctrl_1_r'
p587
a(lp588
VtranslateX
p589
aVtranslateY
p590
aVtranslateZ
p591
aVrotateX
p592
aVrotateY
p593
aVrotateZ
p594
aVsticky
p595
aaF0
aF0
aF0
aF-6.1872512001436251
aF-4.1153155372213313
aF69.882167138803737
aF0
aa(lp596
S'middle_finger_fk_ctrl_2_l'
p597
a(lp598
VtranslateX
p599
aVtranslateY
p600
aVtranslateZ
p601
aVrotateX
p602
aVrotateY
p603
aVrotateZ
p604
aaF0
aF0
aF0
aF-19.599591636641204
aF-3.2511824282985113
aF10.476239225818842
aa(lp605
S'middle_finger_fk_ctrl_2_r'
p606
a(lp607
VtranslateX
p608
aVtranslateY
p609
aVtranslateZ
p610
aVrotateX
p611
aVrotateY
p612
aVrotateZ
p613
aaF0
aF0
aF0
aF11.803943634033203
aF7.9659514427184002
aF83.946128845214929
aa(lp614
S'middle_finger_fk_ctrl_3_l'
p615
a(lp616
VtranslateX
p617
aVtranslateY
p618
aVtranslateZ
p619
aVrotateX
p620
aVrotateY
p621
aVrotateZ
p622
aaF0
aF0
aF0
aF-2.6564145088195423
aF-13.529303550720265
aF19.268327713012511
aa(lp623
S'middle_finger_fk_ctrl_3_r'
p624
a(lp625
VtranslateX
p626
aVtranslateY
p627
aVtranslateZ
p628
aVrotateX
p629
aVrotateY
p630
aVrotateZ
p631
aaF0
aF0
aF0
aF0.34894034266482377
aF2.9220106601714284
aF29.163963317870902
aa(lp632
S'index_finger_fk_ctrl_1_l'
p633
a(lp634
VtranslateX
p635
aVtranslateY
p636
aVtranslateZ
p637
aVrotateX
p638
aVrotateY
p639
aVrotateZ
p640
aVsticky
p641
aaF0
aF0
aF0
aF-24.053340651593537
aF-0.34545443685522054
aF39.554612550677057
aF0
aa(lp642
S'index_finger_fk_ctrl_1_r'
p643
a(lp644
VtranslateX
p645
aVtranslateY
p646
aVtranslateZ
p647
aVrotateX
p648
aVrotateY
p649
aVrotateZ
p650
aVsticky
p651
aaF0
aF0
aF0
aF-18.235420249226472
aF-4.5303847075988468
aF44.051140788937879
aF0
aa(lp652
S'index_finger_fk_ctrl_2_l'
p653
a(lp654
VtranslateX
p655
aVtranslateY
p656
aVtranslateZ
p657
aVrotateX
p658
aVrotateY
p659
aVrotateZ
p660
aaF0
aF0
aF0
aF2.6591717539338835
aF1.0276526455138504
aF37.69558492863829
aa(lp661
S'index_finger_fk_ctrl_2_r'
p662
a(lp663
VtranslateX
p664
aVtranslateY
p665
aVtranslateZ
p666
aVrotateX
p667
aVrotateY
p668
aVrotateZ
p669
aaF0
aF0
aF0
aF24.354585647583001
aF11.754785537719352
aF84.243736267089787
aa(lp670
S'index_finger_fk_ctrl_3_l'
p671
a(lp672
VtranslateX
p673
aVtranslateY
p674
aVtranslateZ
p675
aVrotateX
p676
aVrotateY
p677
aVrotateZ
p678
aaF0
aF0
aF0
aF4.0468716621395577
aF7.3090467453004502
aF20.10914993286125
aa(lp679
S'index_finger_fk_ctrl_3_r'
p680
a(lp681
VtranslateX
p682
aVtranslateY
p683
aVtranslateZ
p684
aVrotateX
p685
aVrotateY
p686
aVrotateZ
p687
aaF0
aF0
aF0
aF8.358432769775181
aF11.421175003052078
aF41.550048828124957
aa(lp688
S'thumb_finger_fk_ctrl_1_l'
p689
a(lp690
VtranslateX
p691
aVtranslateY
p692
aVtranslateZ
p693
aVrotateX
p694
aVrotateY
p695
aVrotateZ
p696
aVsticky
p697
aaF0
aF0
aF0
aF-18.656101052986831
aF-2.0864191951873932
aF-47.814517386642315
aF0
aa(lp698
S'thumb_finger_fk_ctrl_1_r'
p699
a(lp700
VtranslateX
p701
aVtranslateY
p702
aVtranslateZ
p703
aVrotateX
p704
aVrotateY
p705
aVrotateZ
p706
aVsticky
p707
aaF0
aF0
aF0
aF-20.399994577720602
aF19.699254384439179
aF3.9914950327720553
aF0
aa(lp708
S'thumb_finger_fk_ctrl_2_l'
p709
a(lp710
VtranslateX
p711
aVtranslateY
p712
aVtranslateZ
p713
aVrotateX
p714
aVrotateY
p715
aVrotateZ
p716
aaF0
aF0
aF0
aF8.7259359359740749
aF10.793167114257798
aF21.381568908691403
aa(lp717
S'thumb_finger_fk_ctrl_2_r'
p718
a(lp719
VtranslateX
p720
aVtranslateY
p721
aVtranslateZ
p722
aVrotateX
p723
aVrotateY
p724
aVrotateZ
p725
aaF0
aF0
aF0
aF32.780117034912095
aF11.44706630706785
aF38.108062744140561
aa(lp726
S'thumb_finger_fk_ctrl_3_l'
p727
a(lp728
VtranslateX
p729
aVtranslateY
p730
aVtranslateZ
p731
aVrotateX
p732
aVrotateY
p733
aVrotateZ
p734
aaF0
aF0
aF0
aF-13.147610664367736
aF-5.1299538612364834
aF21.56663131713869
aa(lp735
S'thumb_finger_fk_ctrl_3_r'
p736
a(lp737
VtranslateX
p738
aVtranslateY
p739
aVtranslateZ
p740
aVrotateX
p741
aVrotateY
p742
aVrotateZ
p743
aaF0
aF0
aF0
aF-8.3886165618896538
aF17.110204696655348
aF59.888751983642564
aa(lp744
S'index_l_ik_anim'
p745
a(lp746
VtranslateX
p747
aVtranslateY
p748
aVtranslateZ
p749
aVrotateX
p750
aVrotateY
p751
aVrotateZ
p752
aVpoleVectorVis
p753
aaF0
aF0
aF0
aF0
aF0
aF0
aF0
aa(lp754
S'index_r_ik_anim'
p755
a(lp756
VtranslateX
p757
aVtranslateY
p758
aVtranslateZ
p759
aVrotateX
p760
aVrotateY
p761
aVrotateZ
p762
aVpoleVectorVis
p763
aaF0
aF0
aF0
aF0
aF0
aF0
aF0
aa(lp764
S'middle_l_ik_anim'
p765
a(lp766
VtranslateX
p767
aVtranslateY
p768
aVtranslateZ
p769
aVrotateX
p770
aVrotateY
p771
aVrotateZ
p772
aVpoleVectorVis
p773
aaF0
aF0
aF0
aF0
aF0
aF0
aF0
aa(lp774
S'middle_r_ik_anim'
p775
a(lp776
VtranslateX
p777
aVtranslateY
p778
aVtranslateZ
p779
aVrotateX
p780
aVrotateY
p781
aVrotateZ
p782
aVpoleVectorVis
p783
aaF0
aF0
aF0
aF0
aF0
aF0
aF0
aa(lp784
S'ring_l_ik_anim'
p785
a(lp786
VtranslateX
p787
aVtranslateY
p788
aVtranslateZ
p789
aVrotateX
p790
aVrotateY
p791
aVrotateZ
p792
aVpoleVectorVis
p793
aaF0
aF0
aF0
aF0
aF0
aF0
aF0
aa(lp794
S'ring_r_ik_anim'
p795
a(lp796
VtranslateX
p797
aVtranslateY
p798
aVtranslateZ
p799
aVrotateX
p800
aVrotateY
p801
aVrotateZ
p802
aVpoleVectorVis
p803
aaF0
aF0
aF0
aF0
aF0
aF0
aF0
aa(lp804
S'pinky_l_ik_anim'
p805
a(lp806
VtranslateX
p807
aVtranslateY
p808
aVtranslateZ
p809
aVrotateX
p810
aVrotateY
p811
aVrotateZ
p812
aVpoleVectorVis
p813
aaF0
aF0
aF0
aF0
aF0
aF0
aF0
aa(lp814
S'pinky_r_ik_anim'
p815
a(lp816
VtranslateX
p817
aVtranslateY
p818
aVtranslateZ
p819
aVrotateX
p820
aVrotateY
p821
aVrotateZ
p822
aVpoleVectorVis
p823
aaF0
aF0
aF0
aF0
aF0
aF0
aF0
aa(lp824
S'thumb_l_ik_anim'
p825
a(lp826
VtranslateX
p827
aVtranslateY
p828
aVtranslateZ
p829
aVrotateX
p830
aVrotateY
p831
aVrotateZ
p832
aVpoleVectorVis
p833
aaF0
aF0
aF0
aF0
aF0
aF0
aF0
aa(lp834
S'thumb_r_ik_anim'
p835
a(lp836
VtranslateX
p837
aVtranslateY
p838
aVtranslateZ
p839
aVrotateX
p840
aVrotateY
p841
aVrotateZ
p842
aVpoleVectorVis
p843
aaF0
aF0
aF0
aF0
aF0
aF0
aF0
aa(lp844
S'index_l_poleVector'
p845
a(lp846
VtranslateX
p847
aVtranslateY
p848
aVtranslateZ
p849
aVrotateX
p850
aVrotateY
p851
aVrotateZ
p852
aaF0
aF0
aF0
aF0
aF0
aF0
aa(lp853
S'index_r_poleVector'
p854
a(lp855
VtranslateX
p856
aVtranslateY
p857
aVtranslateZ
p858
aVrotateX
p859
aVrotateY
p860
aVrotateZ
p861
aaF0
aF0
aF0
aF0
aF0
aF0
aa(lp862
S'middle_l_poleVector'
p863
a(lp864
VtranslateX
p865
aVtranslateY
p866
aVtranslateZ
p867
aVrotateX
p868
aVrotateY
p869
aVrotateZ
p870
aaF0
aF0
aF0
aF0
aF0
aF0
aa(lp871
S'middle_r_poleVector'
p872
a(lp873
VtranslateX
p874
aVtranslateY
p875
aVtranslateZ
p876
aVrotateX
p877
aVrotateY
p878
aVrotateZ
p879
aaF0
aF0
aF0
aF0
aF0
aF0
aa(lp880
S'ring_l_poleVector'
p881
a(lp882
VtranslateX
p883
aVtranslateY
p884
aVtranslateZ
p885
aVrotateX
p886
aVrotateY
p887
aVrotateZ
p888
aaF0
aF0
aF0
aF0
aF0
aF0
aa(lp889
S'ring_r_poleVector'
p890
a(lp891
VtranslateX
p892
aVtranslateY
p893
aVtranslateZ
p894
aVrotateX
p895
aVrotateY
p896
aVrotateZ
p897
aaF0
aF0
aF0
aF0
aF0
aF0
aa(lp898
S'pinky_l_poleVector'
p899
a(lp900
VtranslateX
p901
aVtranslateY
p902
aVtranslateZ
p903
aVrotateX
p904
aVrotateY
p905
aVrotateZ
p906
aaF0
aF0
aF0
aF0
aF0
aF0
aa(lp907
S'pinky_r_poleVector'
p908
a(lp909
VtranslateX
p910
aVtranslateY
p911
aVtranslateZ
p912
aVrotateX
p913
aVrotateY
p914
aVrotateZ
p915
aaF0
aF0
aF0
aF0
aF0
aF0
aa(lp916
S'thumb_l_poleVector'
p917
a(lp918
VtranslateX
p919
aVtranslateY
p920
aVtranslateZ
p921
aVrotateX
p922
aVrotateY
p923
aVrotateZ
p924
aaF0
aF0
aF0
aF0
aF0
aF0
aa(lp925
S'thumb_r_poleVector'
p926
a(lp927
VtranslateX
p928
aVtranslateY
p929
aVtranslateZ
p930
aVrotateX
p931
aVrotateY
p932
aVrotateZ
p933
aaF0
aF0
aF0
aF0
aF0
aF0
aa(lp934
S'l_global_ik_anim'
p935
a(lp936
VtranslateX
p937
aVtranslateY
p938
aVtranslateZ
p939
aVrotateX
p940
aVrotateY
p941
aVrotateZ
p942
aaF0
aF0
aF0
aF0
aF0
aF0
aa(lp943
S'r_global_ik_anim'
p944
a(lp945
VtranslateX
p946
aVtranslateY
p947
aVtranslateZ
p948
aVrotateX
p949
aVrotateY
p950
aVrotateZ
p951
aaF0
aF0
aF0
aF0
aF0
aF0
aa(lp952
S'Rig_Settings'
p953
a(lp954
Vspine_ik
p955
aVspine_fk
p956
aVlLegMode
p957
aVlThighTwistAmount
p958
aVlThighTwist2Amount
p959
aVllegTwistCtrlVis
p960
aVlCalfTwistAmount
p961
aVrLegMode
p962
aVrThighTwistAmount
p963
aVrThighTwist2Amount
p964
aVrlegTwistCtrlVis
p965
aVrCalfTwistAmount
p966
aVlFkArmOrient
p967
aVlArmMode
p968
aVlClavMode
p969
aVlUpperarmTwistAmount
p970
aVlUpperarmTwist2Amount
p971
aVltwistCtrlVis
p972
aVltwistCtrlVisLower
p973
aVlForearmTwistAmount
p974
aVrFkArmOrient
p975
aVrArmMode
p976
aVrClavMode
p977
aVrUpperarmTwistAmount
p978
aVrUpperarmTwist2Amount
p979
aVrtwistCtrlVis
p980
aVrtwistCtrlVisLower
p981
aVrForearmTwistAmount
p982
aaF1
aF0
aI1
aF1
aF0.59999999999999998
aI00
aF0.5
aI1
aF1
aF0.59999999999999998
aI00
aF0.5
aI0
aI1
aI1
aF0.90000000000000002
aF0.59999999999999998
aI00
aI00
aF0.5
aI0
aI1
aI1
aF0.90000000000000002
aF0.59999999999999998
aI00
aI00
aF0.5
aa(lp983
S'calf_l_twist_anim'
p984
a(lp985
VtranslateX
p986
aVtranslateY
p987
aVtranslateZ
p988
aVrotateX
p989
aVrotateY
p990
aVrotateZ
p991
aaF0
aF0
aF0
aF0
aF0
aF0
aa(lp992
S'calf_r_twist_anim'
p993
a(lp994
VtranslateX
p995
aVtranslateY
p996
aVtranslateZ
p997
aVrotateX
p998
aVrotateY
p999
aVrotateZ
p1000
aaF0
aF0
aF0
aF0
aF0
aF0
aa(lp1001
Vbot_loarm_pistonC_bot_anim
p1002
a(lp1003
VtranslateX
p1004
aVtranslateY
p1005
aVtranslateZ
p1006
aVrotateX
p1007
aVrotateY
p1008
aVrotateZ
p1009
aVscaleX
p1010
aVscaleY
p1011
aVscaleZ
p1012
aaF0
aF0
aF0
aF0
aF0
aF0
aF0.99999999999999967
aF0.99999999999999978
aF0.99999999999999967
aa(lp1013
Vbot_loarm_pistonB_top_anim
p1014
a(lp1015
VtranslateX
p1016
aVtranslateY
p1017
aVtranslateZ
p1018
aVrotateX
p1019
aVrotateY
p1020
aVrotateZ
p1021
aVscaleX
p1022
aVscaleY
p1023
aVscaleZ
p1024
aaF0
aF0
aF0
aF0
aF0
aF0
aF1
aF1
aF1
aa(lp1025
Vbot_hand_anim
p1026
a(lp1027
VtranslateX
p1028
aVtranslateY
p1029
aVtranslateZ
p1030
aVrotateX
p1031
aVrotateY
p1032
aVrotateZ
p1033
aVscaleX
p1034
aVscaleY
p1035
aVscaleZ
p1036
aaF0
aF0
aF0
aF0
aF0
aF0
aF1
aF1
aF1
aa(lp1037
Vgun_stock_bott_anim
p1038
a(lp1039
VtranslateX
p1040
aVtranslateY
p1041
aVtranslateZ
p1042
aVrotateX
p1043
aVrotateY
p1044
aVrotateZ
p1045
aVscaleX
p1046
aVscaleY
p1047
aVscaleZ
p1048
aaF0
aF0
aF0
aF0
aF0
aF0
aF0.99999999999999967
aF0.99999999999999967
aF0.99999999999999967
aa(lp1049
Vbot_loarm_pistonC_top_anim
p1050
a(lp1051
VtranslateX
p1052
aVtranslateY
p1053
aVtranslateZ
p1054
aVrotateX
p1055
aVrotateY
p1056
aVrotateZ
p1057
aVscaleX
p1058
aVscaleY
p1059
aVscaleZ
p1060
aaF0
aF0
aF0
aF0
aF0
aF0
aF1
aF1
aF1
aa(lp1061
Vjaw_anim
p1062
a(lp1063
VtranslateX
p1064
aVtranslateY
p1065
aVtranslateZ
p1066
aVrotateX
p1067
aVrotateY
p1068
aVrotateZ
p1069
aVscaleX
p1070
aVscaleY
p1071
aVscaleZ
p1072
aaF0
aF0
aF0
aF0
aF0
aF0
aF1
aF1
aF1
aa(lp1073
Vbot_uparm_pistonC_bot_anim
p1074
a(lp1075
VtranslateX
p1076
aVtranslateY
p1077
aVtranslateZ
p1078
aVrotateX
p1079
aVrotateY
p1080
aVrotateZ
p1081
aVscaleX
p1082
aVscaleY
p1083
aVscaleZ
p1084
aaF0
aF0
aF0
aF0
aF0
aF0
aF1
aF1
aF1
aa(lp1085
Vankle_plates_r_anim
p1086
a(lp1087
VtranslateX
p1088
aVtranslateY
p1089
aVtranslateZ
p1090
aVrotateX
p1091
aVrotateY
p1092
aVrotateZ
p1093
aVscaleX
p1094
aVscaleY
p1095
aVscaleZ
p1096
aaF0
aF0
aF0
aF0
aF0
aF0
aF1
aF1
aF1
aa(lp1097
Vbot_uparm_anim
p1098
a(lp1099
VtranslateX
p1100
aVtranslateY
p1101
aVtranslateZ
p1102
aVrotateX
p1103
aVrotateY
p1104
aVrotateZ
p1105
aVscaleX
p1106
aVscaleY
p1107
aVscaleZ
p1108
aaF0
aF0
aF0
aF0
aF0
aF0
aF1.0000000000000002
aF1.0000000000000002
aF1.0000000000000004
aa(lp1109
Vgun_stock_panel_l_anim
p1110
a(lp1111
VtranslateX
p1112
aVtranslateY
p1113
aVtranslateZ
p1114
aVrotateX
p1115
aVrotateY
p1116
aVrotateZ
p1117
aVscaleX
p1118
aVscaleY
p1119
aVscaleZ
p1120
aaF0
aF0
aF0
aF0
aF0
aF0
aF0.99999999999999967
aF0.99999999999999967
aF0.99999999999999967
aa(lp1121
Vtrap_handle_anim
p1122
a(lp1123
VtranslateX
p1124
aVtranslateY
p1125
aVtranslateZ
p1126
aVrotateX
p1127
aVrotateY
p1128
aVrotateZ
p1129
aVscaleX
p1130
aVscaleY
p1131
aVscaleZ
p1132
aaF0
aF0
aF0
aF0
aF0
aF0
aF1
aF1
aF1
aa(lp1133
Vtrap_ring_anim
p1134
a(lp1135
VtranslateX
p1136
aVtranslateY
p1137
aVtranslateZ
p1138
aVrotateX
p1139
aVrotateY
p1140
aVrotateZ
p1141
aVscaleX
p1142
aVscaleY
p1143
aVscaleZ
p1144
aaF0
aF0
aF0
aF0
aF0
aF0
aF0.10000000000000001
aF0.10000000000000001
aF0.10000000000000001
aa(lp1145
Vgun_anim
p1146
a(lp1147
VtranslateX
p1148
aVtranslateY
p1149
aVtranslateZ
p1150
aVrotateX
p1151
aVrotateY
p1152
aVrotateZ
p1153
aVscaleX
p1154
aVscaleY
p1155
aVscaleZ
p1156
aaF0
aF0
aF0
aF0
aF0
aF0
aF0.99999999999999967
aF0.99999999999999967
aF0.99999999999999967
aa(lp1157
Vgun_scope_anim
p1158
a(lp1159
VtranslateX
p1160
aVtranslateY
p1161
aVtranslateZ
p1162
aVrotateX
p1163
aVrotateY
p1164
aVrotateZ
p1165
aVscaleX
p1166
aVscaleY
p1167
aVscaleZ
p1168
aaF0
aF0
aF0
aF0
aF0
aF0
aF1.0000000000000002
aF1
aF1.0000000000000002
aa(lp1169
Vwrist_cover_anim
p1170
a(lp1171
VtranslateX
p1172
aVtranslateY
p1173
aVtranslateZ
p1174
aVrotateX
p1175
aVrotateY
p1176
aVrotateZ
p1177
aVscaleX
p1178
aVscaleY
p1179
aVscaleZ
p1180
aaF0
aF0
aF0
aF0
aF0
aF0
aF1
aF0.99999999999999967
aF0.99999999999999978
aa(lp1181
Vbot_uparm_pistonC_top_anim
p1182
a(lp1183
VtranslateX
p1184
aVtranslateY
p1185
aVtranslateZ
p1186
aVrotateX
p1187
aVrotateY
p1188
aVrotateZ
p1189
aVscaleX
p1190
aVscaleY
p1191
aVscaleZ
p1192
aaF0
aF0
aF0
aF0
aF0
aF0
aF1
aF1
aF1
aa(lp1193
Vgun_barrel_anim
p1194
a(lp1195
VtranslateX
p1196
aVtranslateY
p1197
aVtranslateZ
p1198
aVrotateX
p1199
aVrotateY
p1200
aVrotateZ
p1201
aVscaleX
p1202
aVscaleY
p1203
aVscaleZ
p1204
aaF0
aF0
aF0
aF0
aF0
aF0
aF1.0000000000000002
aF1
aF1.0000000000000002
aa(lp1205
Vbot_loarm_anim
p1206
a(lp1207
VtranslateX
p1208
aVtranslateY
p1209
aVtranslateZ
p1210
aVrotateX
p1211
aVrotateY
p1212
aVrotateZ
p1213
aVscaleX
p1214
aVscaleY
p1215
aVscaleZ
p1216
aaF0
aF0
aF0
aF0
aF0
aF0
aF1
aF1
aF1
aa(lp1217
Vshotgun_base_anim
p1218
a(lp1219
VtranslateX
p1220
aVtranslateY
p1221
aVtranslateZ
p1222
aVrotateX
p1223
aVrotateY
p1224
aVrotateZ
p1225
aVscaleX
p1226
aVscaleY
p1227
aVscaleZ
p1228
aaF0
aF0
aF0
aF0
aF0
aF0
aF1
aF1
aF1
aa(lp1229
Vhip_pack_c_anim
p1230
a(lp1231
VtranslateX
p1232
aVtranslateY
p1233
aVtranslateZ
p1234
aVrotateX
p1235
aVrotateY
p1236
aVrotateZ
p1237
aVchainAttach
p1238
aVchainStartEnvelope
p1239
aVchainStartFrame
p1240
aVchainStiffness
p1241
aVchainDamping
p1242
aVchainGravity
p1243
aVchainIteration
p1244
aVchainCollide
p1245
aVchainWidthBase
p1246
aVchainWidthExtremity
p1247
aVchainCollideGround
p1248
aVchainCollideGroundHeight
p1249
aaF0
aF0
aF0
aF0
aF0
aF0
aI1
aF0
aF1
aF0.10000000000000001
aF0.20000000000000001
aF1
aI1
aI00
aF1
aF1
aI00
aF0
aa(lp1250
Vhip_pack_b_anim
p1251
a(lp1252
VtranslateX
p1253
aVtranslateY
p1254
aVtranslateZ
p1255
aVrotateX
p1256
aVrotateY
p1257
aVrotateZ
p1258
aVchainAttach
p1259
aVchainStartEnvelope
p1260
aVchainStartFrame
p1261
aVchainStiffness
p1262
aVchainDamping
p1263
aVchainGravity
p1264
aVchainIteration
p1265
aVchainCollide
p1266
aVchainWidthBase
p1267
aVchainWidthExtremity
p1268
aVchainCollideGround
p1269
aVchainCollideGroundHeight
p1270
aaF0
aF0
aF0
aF0
aF0
aF0
aI1
aF0
aF1
aF0.10000000000000001
aF0.20000000000000001
aF1
aI1
aI00
aF1
aF1
aI00
aF0
aa(lp1271
Vhip_pack_a_anim
p1272
a(lp1273
VtranslateX
p1274
aVtranslateY
p1275
aVtranslateZ
p1276
aVrotateX
p1277
aVrotateY
p1278
aVrotateZ
p1279
aVchainAttach
p1280
aVchainStartEnvelope
p1281
aVchainStartFrame
p1282
aVchainStiffness
p1283
aVchainDamping
p1284
aVchainGravity
p1285
aVchainIteration
p1286
aVchainCollide
p1287
aVchainWidthBase
p1288
aVchainWidthExtremity
p1289
aVchainCollideGround
p1290
aVchainCollideGroundHeight
p1291
aaF0
aF0
aF0
aF0
aF0
aF0
aI1
aF0
aF1
aF0.10000000000000001
aF0.20000000000000001
aF1
aI1
aI00
aF1
aF1
aI00
aF0
aa(lp1292
Vhip_pack_d_anim
p1293
a(lp1294
VtranslateX
p1295
aVtranslateY
p1296
aVtranslateZ
p1297
aVrotateX
p1298
aVrotateY
p1299
aVrotateZ
p1300
aVchainAttach
p1301
aVchainStartEnvelope
p1302
aVchainStartFrame
p1303
aVchainStiffness
p1304
aVchainDamping
p1305
aVchainGravity
p1306
aVchainIteration
p1307
aVchainCollide
p1308
aVchainWidthBase
p1309
aVchainWidthExtremity
p1310
aVchainCollideGround
p1311
aVchainCollideGroundHeight
p1312
aaF0
aF0
aF0
aF0
aF0
aF0
aI1
aF0
aF1
aF0.10000000000000001
aF0.20000000000000001
aF1
aI1
aI00
aF1
aF1
aI00
aF0
aa(lp1313
Vgun_stock_panel_r_anim
p1314
a(lp1315
VtranslateX
p1316
aVtranslateY
p1317
aVtranslateZ
p1318
aVrotateX
p1319
aVrotateY
p1320
aVrotateZ
p1321
aVscaleX
p1322
aVscaleY
p1323
aVscaleZ
p1324
aaF0
aF0
aF0
aF0
aF0
aF0
aF0.99999999999999967
aF0.99999999999999967
aF0.99999999999999967
aa(lp1325
Vbot_loarm_pistonD_top_anim
p1326
a(lp1327
VtranslateX
p1328
aVtranslateY
p1329
aVtranslateZ
p1330
aVrotateX
p1331
aVrotateY
p1332
aVrotateZ
p1333
aVscaleX
p1334
aVscaleY
p1335
aVscaleZ
p1336
aaF0
aF0
aF0
aF0
aF0
aF0
aF0.99999999999999978
aF0.99999999999999989
aF0.99999999999999967
aa(lp1337
Vsniper_can_arm_03_anim
p1338
a(lp1339
VtranslateX
p1340
aVtranslateY
p1341
aVtranslateZ
p1342
aVrotateX
p1343
aVrotateY
p1344
aVrotateZ
p1345
aVscaleX
p1346
aVscaleY
p1347
aVscaleZ
p1348
aaF0
aF0
aF0
aF0
aF0
aF0
aF1
aF1
aF1
aa(lp1349
Vsniper_can_arm_02_anim
p1350
a(lp1351
VtranslateX
p1352
aVtranslateY
p1353
aVtranslateZ
p1354
aVrotateX
p1355
aVrotateY
p1356
aVrotateZ
p1357
aVscaleX
p1358
aVscaleY
p1359
aVscaleZ
p1360
aaF0
aF0
aF0
aF0
aF0
aF0
aF1
aF1
aF1
aa(lp1361
Vsniper_can_arm_01_anim
p1362
a(lp1363
VtranslateX
p1364
aVtranslateY
p1365
aVtranslateZ
p1366
aVrotateX
p1367
aVrotateY
p1368
aVrotateZ
p1369
aVscaleX
p1370
aVscaleY
p1371
aVscaleZ
p1372
aaF0
aF0
aF0
aF0
aF0
aF0
aF1
aF1
aF1
aa(lp1373
Vbot_loarm_twist_anim
p1374
a(lp1375
VtranslateX
p1376
aVtranslateY
p1377
aVtranslateZ
p1378
aVrotateX
p1379
aVrotateY
p1380
aVrotateZ
p1381
aVscaleX
p1382
aVscaleY
p1383
aVscaleZ
p1384
aaF0
aF0
aF0
aF0
aF0
aF0
aF1
aF1
aF1
aa(lp1385
Vshotgun_anim
p1386
a(lp1387
VtranslateX
p1388
aVtranslateY
p1389
aVtranslateZ
p1390
aVrotateX
p1391
aVrotateY
p1392
aVrotateZ
p1393
aVscaleX
p1394
aVscaleY
p1395
aVscaleZ
p1396
aVshotgun_rotate
p1397
aVshotgun_rail
p1398
aaF0
aF0
aF0
aF0
aF0
aF0
aF1
aF1
aF1
aF0
aF0
aa(lp1399
Vankle_plates_l_anim
p1400
a(lp1401
VtranslateX
p1402
aVtranslateY
p1403
aVtranslateZ
p1404
aVrotateX
p1405
aVrotateY
p1406
aVrotateZ
p1407
aVscaleX
p1408
aVscaleY
p1409
aVscaleZ
p1410
aaF0.29434220652566268
aF-0.04890487527232068
aF-0.06576818011125507
aF-2.7660091926193875
aF16.847180895570148
aF-5.719153106606953
aF1
aF1
aF1
aa(lp1411
Vbot_loarm_pistonB_bot_anim
p1412
a(lp1413
VtranslateX
p1414
aVtranslateY
p1415
aVtranslateZ
p1416
aVrotateX
p1417
aVrotateY
p1418
aVrotateZ
p1419
aVscaleX
p1420
aVscaleY
p1421
aVscaleZ
p1422
aaF0
aF0
aF0
aF0
aF0
aF0
aF1.0000000000000002
aF1.0000000000000002
aF1
aa(lp1423
Vbot_loarm_pistonD_bot_anim
p1424
a(lp1425
VtranslateX
p1426
aVtranslateY
p1427
aVtranslateZ
p1428
aVrotateX
p1429
aVrotateY
p1430
aVrotateZ
p1431
aVscaleX
p1432
aVscaleY
p1433
aVscaleZ
p1434
aaF0
aF0
aF0
aF0
aF0
aF0
aF1
aF1
aF1
aa(lp1435
Vgun_stock_bott_in_anim
p1436
a(lp1437
VtranslateX
p1438
aVtranslateY
p1439
aVtranslateZ
p1440
aVrotateX
p1441
aVrotateY
p1442
aVrotateZ
p1443
aVscaleX
p1444
aVscaleY
p1445
aVscaleZ
p1446
aaF0
aF0
aF0
aF0
aF0
aF0
aF1.0000000000000002
aF1
aF1.0000000000000002
aa(lp1447
Vgun_stock_top_anim
p1448
a(lp1449
VtranslateX
p1450
aVtranslateY
p1451
aVtranslateZ
p1452
aVrotateX
p1453
aVrotateY
p1454
aVrotateZ
p1455
aVscaleX
p1456
aVscaleY
p1457
aVscaleZ
p1458
aaF0
aF0
aF0
aF0
aF0
aF0
aF1.0000000000000002
aF1
aF1.0000000000000002
aa(lp1459
Vshotgun_clip_anim
p1460
a(lp1461
VtranslateX
p1462
aVtranslateY
p1463
aVtranslateZ
p1464
aVrotateX
p1465
aVrotateY
p1466
aVrotateZ
p1467
aVscaleX
p1468
aVscaleY
p1469
aVscaleZ
p1470
aaF0
aF0
aF0
aF0
aF0
aF0
aF0.99999999999999989
aF1
aF1.0000000000000002
aa(lp1471
Vankle_plates_l_anim_space_switcher
p1472
a(lp1473
Vvisibility
p1474
aVtranslateX
p1475
aVtranslateY
p1476
aVtranslateZ
p1477
aVrotateX
p1478
aVrotateY
p1479
aVrotateZ
p1480
aVscaleX
p1481
aVscaleY
p1482
aVscaleZ
p1483
aVspace_world
p1484
aaI01
aF0
aF0
aF0
aF0
aF0
aF0
aF1
aF1
aF1
aF0
aa(lp1485
Vankle_plates_r_anim_space_switcher
p1486
a(lp1487
Vvisibility
p1488
aVtranslateX
p1489
aVtranslateY
p1490
aVtranslateZ
p1491
aVrotateX
p1492
aVrotateY
p1493
aVrotateZ
p1494
aVscaleX
p1495
aVscaleY
p1496
aVscaleZ
p1497
aVspace_world
p1498
aaI01
aF-1.7763568394002505e-15
aF-8.8817841970012523e-16
aF0
aF1.2248130215594724e-23
aF-0
aF0
aF1
aF1
aF1
aF0
aa(lp1499
Vbody_anim_space_switcher
p1500
a(lp1501
Vvisibility
p1502
aVtranslateX
p1503
aVtranslateY
p1504
aVtranslateZ
p1505
aVrotateX
p1506
aVrotateY
p1507
aVrotateZ
p1508
aVscaleX
p1509
aVscaleY
p1510
aVscaleZ
p1511
aVspace_world
p1512
aaI01
aF0
aF0
aF0
aF0
aF0
aF0
aF1
aF1
aF1
aF0
aa(lp1513
Vbot_hand_anim_space_switcher
p1514
a(lp1515
Vvisibility
p1516
aVtranslateX
p1517
aVtranslateY
p1518
aVtranslateZ
p1519
aVrotateX
p1520
aVrotateY
p1521
aVrotateZ
p1522
aVscaleX
p1523
aVscaleY
p1524
aVscaleZ
p1525
aVspace_world
p1526
aaI01
aF2.8421709430404007e-14
aF7.1054273576010019e-15
aF1.4210854715202004e-14
aF-1.5902773407317584e-15
aF-0
aF0
aF1
aF1
aF1
aF0
aa(lp1527
Vbot_loarm_anim_space_switcher
p1528
a(lp1529
Vvisibility
p1530
aVtranslateX
p1531
aVtranslateY
p1532
aVtranslateZ
p1533
aVrotateX
p1534
aVrotateY
p1535
aVrotateZ
p1536
aVscaleX
p1537
aVscaleY
p1538
aVscaleZ
p1539
aVspace_world
p1540
aaI01
aF0
aF-7.1054273576010019e-15
aF-2.8421709430404007e-14
aF0
aF-0
aF6.2120208622334312e-18
aF1
aF1
aF1
aF0
aa(lp1541
Vbot_loarm_pistonB_bot_anim_space_switcher
p1542
a(lp1543
Vvisibility
p1544
aVtranslateX
p1545
aVtranslateY
p1546
aVtranslateZ
p1547
aVrotateX
p1548
aVrotateY
p1549
aVrotateZ
p1550
aVscaleX
p1551
aVscaleY
p1552
aVscaleZ
p1553
aVspace_world
p1554
aaI01
aF0
aF0
aF0
aF0
aF1.490885006936023e-16
aF3.975693351829395e-16
aF1.0000000000000002
aF1.0000000000000002
aF1.0000000000000002
aF0
aa(lp1555
Vbot_loarm_pistonB_top_anim_space_switcher
p1556
a(lp1557
Vvisibility
p1558
aVtranslateX
p1559
aVtranslateY
p1560
aVtranslateZ
p1561
aVrotateX
p1562
aVrotateY
p1563
aVrotateZ
p1564
aVscaleX
p1565
aVscaleY
p1566
aVscaleZ
p1567
aVspace_world
p1568
aaI01
aF0
aF0
aF0
aF-3.1805546814635168e-15
aF9.9392333795734899e-17
aF0
aF1
aF1
aF1
aF0
aa(lp1569
Vbot_loarm_pistonC_bot_anim_space_switcher
p1570
a(lp1571
Vvisibility
p1572
aVtranslateX
p1573
aVtranslateY
p1574
aVtranslateZ
p1575
aVrotateX
p1576
aVrotateY
p1577
aVrotateZ
p1578
aVscaleX
p1579
aVscaleY
p1580
aVscaleZ
p1581
aVspace_world
p1582
aaI01
aF-7.1054273576010019e-15
aF3.5527136788005009e-15
aF2.8421709430404007e-14
aF0
aF-1.5902773407317588e-15
aF-1.9878466759146985e-16
aF0.99999999999999989
aF0.99999999999999989
aF1
aF0
aa(lp1583
Vbot_loarm_pistonC_top_anim_space_switcher
p1584
a(lp1585
Vvisibility
p1586
aVtranslateX
p1587
aVtranslateY
p1588
aVtranslateZ
p1589
aVrotateX
p1590
aVrotateY
p1591
aVrotateZ
p1592
aVscaleX
p1593
aVscaleY
p1594
aVscaleZ
p1595
aVspace_world
p1596
aaI01
aF0
aF0
aF-2.8421709430404007e-14
aF0
aF-0
aF9.9392333795734899e-16
aF1
aF1
aF1
aF0
aa(lp1597
Vbot_loarm_pistonD_bot_anim_space_switcher
p1598
a(lp1599
Vvisibility
p1600
aVtranslateX
p1601
aVtranslateY
p1602
aVtranslateZ
p1603
aVrotateX
p1604
aVrotateY
p1605
aVrotateZ
p1606
aVscaleX
p1607
aVscaleY
p1608
aVscaleZ
p1609
aVspace_world
p1610
aaI01
aF0
aF-2.2204460492503131e-16
aF0
aF7.9513867036587919e-16
aF-0
aF4.7708320221952752e-15
aF1
aF1
aF1
aF0
aa(lp1611
Vbot_loarm_pistonD_top_anim_space_switcher
p1612
a(lp1613
Vvisibility
p1614
aVtranslateX
p1615
aVtranslateY
p1616
aVtranslateZ
p1617
aVrotateX
p1618
aVrotateY
p1619
aVrotateZ
p1620
aVscaleX
p1621
aVscaleY
p1622
aVscaleZ
p1623
aVspace_world
p1624
aaI01
aF-1.4210854715202004e-14
aF0
aF0
aF0
aF2.3854160110976376e-15
aF1.5902773407317584e-15
aF1
aF1
aF0.99999999999999978
aF0
aa(lp1625
Vbot_loarm_twist_anim_space_switcher
p1626
a(lp1627
Vvisibility
p1628
aVtranslateX
p1629
aVtranslateY
p1630
aVtranslateZ
p1631
aVrotateX
p1632
aVrotateY
p1633
aVrotateZ
p1634
aVscaleX
p1635
aVscaleY
p1636
aVscaleZ
p1637
aVspace_world
p1638
aaI01
aF0
aF0
aF0
aF-5.1559764644841426
aF-0.037375309491752044
aF-0.070741916469765895
aF1
aF1
aF1
aF0
aa(lp1639
Vbot_uparm_anim_space_switcher
p1640
a(lp1641
Vvisibility
p1642
aVtranslateX
p1643
aVtranslateY
p1644
aVtranslateZ
p1645
aVrotateX
p1646
aVrotateY
p1647
aVrotateZ
p1648
aVscaleX
p1649
aVscaleY
p1650
aVscaleZ
p1651
aVspace_world
p1652
aaI01
aF3.5527136788005009e-15
aF0
aF0
aF-7.9513867036587939e-16
aF-0
aF5.9635400277440959e-16
aF0.99999999999999989
aF0.99999999999999978
aF0.99999999999999989
aF0
aa(lp1653
Vbot_uparm_pistonC_bot_anim_space_switcher
p1654
a(lp1655
Vvisibility
p1656
aVtranslateX
p1657
aVtranslateY
p1658
aVtranslateZ
p1659
aVrotateX
p1660
aVrotateY
p1661
aVrotateZ
p1662
aVscaleX
p1663
aVscaleY
p1664
aVscaleZ
p1665
aVspace_world
p1666
aaI01
aF-1.4210854715202004e-14
aF2.8421709430404007e-14
aF-7.1054273576010019e-15
aF3.1805546814635168e-15
aF7.9513867036587919e-16
aF-1.5902773407317584e-15
aF1
aF1
aF1
aF0
aa(lp1667
Vbot_uparm_pistonC_top_anim_space_switcher
p1668
a(lp1669
Vvisibility
p1670
aVtranslateX
p1671
aVtranslateY
p1672
aVtranslateZ
p1673
aVrotateX
p1674
aVrotateY
p1675
aVrotateZ
p1676
aVscaleX
p1677
aVscaleY
p1678
aVscaleZ
p1679
aVspace_world
p1680
aaI01
aF-1.4210854715202004e-14
aF1.7763568394002505e-15
aF0
aF0
aF1.5902773407317584e-15
aF7.9513867036587919e-16
aF1
aF1
aF1
aF0
aa(lp1681
Vchest_ik_anim_space_switcher
p1682
a(lp1683
Vvisibility
p1684
aVtranslateX
p1685
aVtranslateY
p1686
aVtranslateZ
p1687
aVrotateX
p1688
aVrotateY
p1689
aVrotateZ
p1690
aVscaleX
p1691
aVscaleY
p1692
aVscaleZ
p1693
aVspace_world
p1694
aVspace_chest_ik_world_aligned
p1695
aaI01
aF0
aF-3.5527136788005009e-15
aF2.0194839173657902e-28
aF7.0622500768802538e-31
aF-0
aF0
aF1
aF1
aF1
aF0
aF0
aa(lp1696
Vgun_anim_space_switcher
p1697
a(lp1698
Vvisibility
p1699
aVtranslateX
p1700
aVtranslateY
p1701
aVtranslateZ
p1702
aVrotateX
p1703
aVrotateY
p1704
aVrotateZ
p1705
aVscaleX
p1706
aVscaleY
p1707
aVscaleZ
p1708
aVspace_world
p1709
aaI01
aF2.8421709430404007e-14
aF4.4408920985006262e-16
aF0
aF3.7272125173400599e-17
aF-0
aF0
aF0.99999999999999989
aF0.99999999999999989
aF0.99999999999999989
aF0
aa(lp1710
Vgun_barrel_anim_space_switcher
p1711
a(lp1712
Vvisibility
p1713
aVtranslateX
p1714
aVtranslateY
p1715
aVtranslateZ
p1716
aVrotateX
p1717
aVrotateY
p1718
aVrotateZ
p1719
aVscaleX
p1720
aVscaleY
p1721
aVscaleZ
p1722
aVspace_world
p1723
aaI01
aF0
aF-1.7763568394002505e-15
aF-2.8421709430404007e-14
aF-1.1181637552020177e-16
aF1.9878466759146975e-16
aF-7.9513867036587899e-16
aF1.0000000000000002
aF1
aF1.0000000000000002
aF0
aa(lp1724
Vgun_scope_anim_space_switcher
p1725
a(lp1726
Vvisibility
p1727
aVtranslateX
p1728
aVtranslateY
p1729
aVtranslateZ
p1730
aVrotateX
p1731
aVrotateY
p1732
aVrotateZ
p1733
aVscaleX
p1734
aVscaleY
p1735
aVscaleZ
p1736
aVspace_world
p1737
aaI01
aF2.8421709430404007e-14
aF0
aF-2.8421709430404007e-14
aF-1.1181637552020177e-16
aF1.9878466759146975e-16
aF-7.9513867036587899e-16
aF1.0000000000000002
aF1
aF1.0000000000000002
aF0
aa(lp1738
Vgun_stock_bott_anim_space_switcher
p1739
a(lp1740
Vvisibility
p1741
aVtranslateX
p1742
aVtranslateY
p1743
aVtranslateZ
p1744
aVrotateX
p1745
aVrotateY
p1746
aVrotateZ
p1747
aVscaleX
p1748
aVscaleY
p1749
aVscaleZ
p1750
aVspace_world
p1751
aaI01
aF0
aF1.7798262863522041e-15
aF0
aF-6.2120208622334324e-17
aF-0
aF7.9513867036587939e-16
aF0.99999999999999989
aF0.99999999999999989
aF0.99999999999999989
aF0
aa(lp1752
Vgun_stock_bott_in_anim_space_switcher
p1753
a(lp1754
Vvisibility
p1755
aVtranslateX
p1756
aVtranslateY
p1757
aVtranslateZ
p1758
aVrotateX
p1759
aVrotateY
p1760
aVrotateZ
p1761
aVscaleX
p1762
aVscaleY
p1763
aVscaleZ
p1764
aVspace_world
p1765
aaI01
aF-2.8421709430404007e-14
aF0
aF0
aF-1.1181637552020177e-16
aF1.9878466759146975e-16
aF-7.9513867036587899e-16
aF1.0000000000000002
aF1
aF1.0000000000000002
aF0
aa(lp1766
Vgun_stock_panel_l_anim_space_switcher
p1767
a(lp1768
Vvisibility
p1769
aVtranslateX
p1770
aVtranslateY
p1771
aVtranslateZ
p1772
aVrotateX
p1773
aVrotateY
p1774
aVrotateZ
p1775
aVscaleX
p1776
aVscaleY
p1777
aVscaleZ
p1778
aVspace_world
p1779
aaI01
aF2.8421709430404007e-14
aF0
aF-2.8421709430404007e-14
aF-6.2120208622334324e-17
aF-0
aF7.9513867036587939e-16
aF0.99999999999999989
aF0.99999999999999989
aF0.99999999999999989
aF0
aa(lp1780
Vgun_stock_panel_r_anim_space_switcher
p1781
a(lp1782
Vvisibility
p1783
aVtranslateX
p1784
aVtranslateY
p1785
aVtranslateZ
p1786
aVrotateX
p1787
aVrotateY
p1788
aVrotateZ
p1789
aVscaleX
p1790
aVscaleY
p1791
aVscaleZ
p1792
aVspace_world
p1793
aaI01
aF2.8421709430404007e-14
aF0
aF2.8421709430404007e-14
aF0
aF1.9878466759146985e-16
aF7.9513867036587939e-16
aF0.99999999999999989
aF0.99999999999999989
aF0.99999999999999989
aF0
aa(lp1794
Vgun_stock_top_anim_space_switcher
p1795
a(lp1796
Vvisibility
p1797
aVtranslateX
p1798
aVtranslateY
p1799
aVtranslateZ
p1800
aVrotateX
p1801
aVrotateY
p1802
aVrotateZ
p1803
aVscaleX
p1804
aVscaleY
p1805
aVscaleZ
p1806
aVspace_world
p1807
aaI01
aF0
aF-1.3322676295501878e-15
aF0
aF-1.1181637552020177e-16
aF1.9878466759146975e-16
aF-7.9513867036587899e-16
aF1.0000000000000002
aF1
aF1.0000000000000002
aF0
aa(lp1808
Vik_elbow_l_anim_space_switcher
p1809
a(lp1810
Vvisibility
p1811
aVtranslateX
p1812
aVtranslateY
p1813
aVtranslateZ
p1814
aVrotateX
p1815
aVrotateY
p1816
aVrotateZ
p1817
aVscaleX
p1818
aVscaleY
p1819
aVscaleZ
p1820
aVspace_world
p1821
aVspace_body_anim
p1822
aVspace_chest_ik_anim
p1823
aaI01
aF0
aF0
aF0
aF0
aF0
aF0
aF1
aF1
aF1
aF0
aF0
aF0
aa(lp1824
Vik_elbow_r_anim_space_switcher
p1825
a(lp1826
Vvisibility
p1827
aVtranslateX
p1828
aVtranslateY
p1829
aVtranslateZ
p1830
aVrotateX
p1831
aVrotateY
p1832
aVrotateZ
p1833
aVscaleX
p1834
aVscaleY
p1835
aVscaleZ
p1836
aVspace_world
p1837
aVspace_body_anim
p1838
aVspace_chest_ik_anim
p1839
aaI01
aF0
aF0
aF0
aF0
aF0
aF0
aF1
aF1
aF1
aF0
aF0
aF0
aa(lp1840
Vik_foot_anim_l_space_switcher
p1841
a(lp1842
Vvisibility
p1843
aVtranslateX
p1844
aVtranslateY
p1845
aVtranslateZ
p1846
aVrotateX
p1847
aVrotateY
p1848
aVrotateZ
p1849
aVscaleX
p1850
aVscaleY
p1851
aVscaleZ
p1852
aVspace_world
p1853
aVspace_body_anim
p1854
aaI01
aF0
aF0
aF0
aF0
aF0
aF0
aF1
aF1
aF1
aF0
aF0
aa(lp1855
Vik_foot_anim_r_space_switcher
p1856
a(lp1857
Vvisibility
p1858
aVtranslateX
p1859
aVtranslateY
p1860
aVtranslateZ
p1861
aVrotateX
p1862
aVrotateY
p1863
aVrotateZ
p1864
aVscaleX
p1865
aVscaleY
p1866
aVscaleZ
p1867
aVspace_world
p1868
aVspace_body_anim
p1869
aaI01
aF0
aF0
aF0
aF0
aF0
aF0
aF1
aF1
aF1
aF0
aF0
aa(lp1870
Vik_wrist_l_anim_space_switcher
p1871
a(lp1872
Vvisibility
p1873
aVtranslateX
p1874
aVtranslateY
p1875
aVtranslateZ
p1876
aVrotateX
p1877
aVrotateY
p1878
aVrotateZ
p1879
aVscaleX
p1880
aVscaleY
p1881
aVscaleZ
p1882
aVspace_world
p1883
aVspace_body_anim
p1884
aVspace_head_fk_anim
p1885
aVspace_chest_ik_anim
p1886
aVspace_driver_gun_stock_bott
p1887
aaI01
aF0
aF0
aF0
aF0
aF0
aF0
aF1
aF1
aF1
aF0
aF0
aF0
aF0
aF0
aa(lp1888
Vik_wrist_r_anim_space_switcher
p1889
a(lp1890
Vvisibility
p1891
aVtranslateX
p1892
aVtranslateY
p1893
aVtranslateZ
p1894
aVrotateX
p1895
aVrotateY
p1896
aVrotateZ
p1897
aVscaleX
p1898
aVscaleY
p1899
aVscaleZ
p1900
aVspace_world
p1901
aVspace_body_anim
p1902
aVspace_head_fk_anim
p1903
aVspace_chest_ik_anim
p1904
aaI01
aF0
aF0
aF0
aF0
aF0
aF0
aF1
aF1
aF1
aF0
aF0
aF0
aF0
aa(lp1905
Vjaw_anim_space_switcher
p1906
a(lp1907
Vvisibility
p1908
aVtranslateX
p1909
aVtranslateY
p1910
aVtranslateZ
p1911
aVrotateX
p1912
aVrotateY
p1913
aVrotateZ
p1914
aVscaleX
p1915
aVscaleY
p1916
aVscaleZ
p1917
aVspace_world
p1918
aaI01
aF0
aF0
aF0
aF0
aF0
aF0
aF1
aF1
aF1
aF0
aa(lp1919
Vl_global_ik_anim_space_switcher
p1920
a(lp1921
Vvisibility
p1922
aVtranslateX
p1923
aVtranslateY
p1924
aVtranslateZ
p1925
aVrotateX
p1926
aVrotateY
p1927
aVrotateZ
p1928
aVscaleX
p1929
aVscaleY
p1930
aVscaleZ
p1931
aVspace_world
p1932
aaI01
aF0
aF0
aF0
aF0
aF0
aF0
aF1
aF1
aF1
aF0
aa(lp1933
Vmaster_anim_space_switcher
p1934
a(lp1935
Vvisibility
p1936
aVtranslateX
p1937
aVtranslateY
p1938
aVtranslateZ
p1939
aVrotateX
p1940
aVrotateY
p1941
aVrotateZ
p1942
aVscaleX
p1943
aVscaleY
p1944
aVscaleZ
p1945
aVspace_world
p1946
aaI01
aF0
aF0
aF0
aF0
aF0
aF0
aF1
aF1
aF1
aF0
aa(lp1947
Vr_global_ik_anim_space_switcher
p1948
a(lp1949
Vvisibility
p1950
aVtranslateX
p1951
aVtranslateY
p1952
aVtranslateZ
p1953
aVrotateX
p1954
aVrotateY
p1955
aVrotateZ
p1956
aVscaleX
p1957
aVscaleY
p1958
aVscaleZ
p1959
aVspace_world
p1960
aaI01
aF0
aF0
aF0
aF0
aF0
aF0
aF1
aF1
aF1
aF0
aa(lp1961
Vshotgun_anim_space_switcher
p1962
a(lp1963
Vvisibility
p1964
aVtranslateX
p1965
aVtranslateY
p1966
aVtranslateZ
p1967
aVrotateX
p1968
aVrotateY
p1969
aVrotateZ
p1970
aVscaleX
p1971
aVscaleY
p1972
aVscaleZ
p1973
aVspace_world
p1974
aVspace_driver_hand_l
p1975
aaI01
aF4.9960036108132044e-16
aF0
aF-2.8421709430404007e-14
aF0
aF-2.4848083448933725e-17
aF-1.4334238139603642e-15
aF1
aF1
aF1
aF0
aF0
aa(lp1976
Vshotgun_base_anim_space_switcher
p1977
a(lp1978
Vvisibility
p1979
aVtranslateX
p1980
aVtranslateY
p1981
aVtranslateZ
p1982
aVrotateX
p1983
aVrotateY
p1984
aVrotateZ
p1985
aVscaleX
p1986
aVscaleY
p1987
aVscaleZ
p1988
aVspace_world
p1989
aaI01
aF0
aF0
aF0
aF0
aF0
aF0
aF1
aF1
aF1
aF0
aa(lp1990
Vshotgun_clip_anim_space_switcher
p1991
a(lp1992
Vvisibility
p1993
aVtranslateX
p1994
aVtranslateY
p1995
aVtranslateZ
p1996
aVrotateX
p1997
aVrotateY
p1998
aVrotateZ
p1999
aVscaleX
p2000
aVscaleY
p2001
aVscaleZ
p2002
aVspace_world
p2003
aaI01
aF8.8817841970012523e-16
aF-3.5527136788005009e-15
aF0
aF-9.9392333795734924e-17
aF-0
aF-1.2045496703174517e-15
aF0.99999999999999989
aF0.99999999999999989
aF0.99999999999999989
aF0
aa(lp2004
Vsniper_can_arm_01_anim_space_switcher
p2005
a(lp2006
Vvisibility
p2007
aVtranslateX
p2008
aVtranslateY
p2009
aVtranslateZ
p2010
aVrotateX
p2011
aVrotateY
p2012
aVrotateZ
p2013
aVscaleX
p2014
aVscaleY
p2015
aVscaleZ
p2016
aVspace_world
p2017
aaI01
aF2.5243548967072378e-29
aF0
aF0
aF0
aF0
aF0
aF1
aF1
aF1
aF0
aa(lp2018
Vsniper_can_arm_02_anim_space_switcher
p2019
a(lp2020
Vvisibility
p2021
aVtranslateX
p2022
aVtranslateY
p2023
aVtranslateZ
p2024
aVrotateX
p2025
aVrotateY
p2026
aVrotateZ
p2027
aVscaleX
p2028
aVscaleY
p2029
aVscaleZ
p2030
aVspace_world
p2031
aaI01
aF0
aF0
aF7.1054273576010019e-15
aF-3.180554681463516e-15
aF-0
aF0
aF1
aF1.0000000000000002
aF1.0000000000000002
aF0
aa(lp2032
Vsniper_can_arm_03_anim_space_switcher
p2033
a(lp2034
Vvisibility
p2035
aVtranslateX
p2036
aVtranslateY
p2037
aVtranslateZ
p2038
aVrotateX
p2039
aVrotateY
p2040
aVrotateZ
p2041
aVscaleX
p2042
aVscaleY
p2043
aVscaleZ
p2044
aVspace_world
p2045
aVspace_driver_hand_l
p2046
aVspace_driver_gun
p2047
aaI01
aF0
aF-3.5527136788005009e-15
aF0
aF0
aF0
aF0
aF1
aF1
aF1
aF0
aF0
aF0
aa(lp2048
Vspine_01_space_switcher
p2049
a(lp2050
Vvisibility
p2051
aVtranslateX
p2052
aVtranslateY
p2053
aVtranslateZ
p2054
aVrotateX
p2055
aVrotateY
p2056
aVrotateZ
p2057
aVscaleX
p2058
aVscaleY
p2059
aVscaleZ
p2060
aVspace_world
p2061
aaI01
aF-1.4210854715202004e-14
aF-4.4408920985006262e-16
aF1.2621774483536189e-29
aF-1.7655625192200634e-31
aF-0
aF0
aF1
aF1
aF1
aF0
aa(lp2062
Vtrap_handle_anim_space_switcher
p2063
a(lp2064
Vvisibility
p2065
aVtranslateX
p2066
aVtranslateY
p2067
aVtranslateZ
p2068
aVrotateX
p2069
aVrotateY
p2070
aVrotateZ
p2071
aVscaleX
p2072
aVscaleY
p2073
aVscaleZ
p2074
aVspace_world
p2075
aVspace_driver_hand_l
p2076
aaI01
aF-7.1054273576010019e-15
aF1.4210854715202004e-14
aF0
aF0
aF-7.9513867036587919e-16
aF-2.3854160110976376e-15
aF1
aF1
aF1
aF0
aF0
aa(lp2077
Vtrap_ring_anim_space_switcher
p2078
a(lp2079
Vvisibility
p2080
aVtranslateX
p2081
aVtranslateY
p2082
aVtranslateZ
p2083
aVrotateX
p2084
aVrotateY
p2085
aVrotateZ
p2086
aVscaleX
p2087
aVscaleY
p2088
aVscaleZ
p2089
aVspace_world
p2090
aaI01
aF3.5527136788005009e-15
aF-1.4210854715202004e-14
aF-1.4210854715202004e-14
aF-3.1805546814635168e-15
aF-1.5902773407317584e-15
aF2.3854160110976376e-15
aF1
aF1
aF1
aF0
aa(lp2091
Vwrist_cover_anim_space_switcher
p2092
a(lp2093
Vvisibility
p2094
aVtranslateX
p2095
aVtranslateY
p2096
aVtranslateZ
p2097
aVrotateX
p2098
aVrotateY
p2099
aVrotateZ
p2100
aVscaleX
p2101
aVscaleY
p2102
aVscaleZ
p2103
aVspace_world
p2104
aaI01
aF-2.1316282072803006e-14
aF2.8421709430404007e-14
aF0
aF7.9513867036587939e-16
aF-9.9392333795734899e-17
aF0
aF1
aF0.99999999999999989
aF1
aF0
aa.