(lp1
(lp2
S'fk_clavicle_r_anim'
p3
a(lp4
VtranslateX
p5
aVtranslateY
p6
aVtranslateZ
p7
aVrotateX
p8
aVrotateY
p9
aVrotateZ
p10
aaF0
aF0
aF0
aF0
aF-0
aF0
aa(lp11
S'fk_clavicle_l_anim'
p12
a(lp13
VtranslateX
p14
aVtranslateY
p15
aVtranslateZ
p16
aVrotateX
p17
aVrotateY
p18
aVrotateZ
p19
aaF0
aF0
aF0
aF0
aF-0
aF0
aa(lp20
S'head_fk_anim'
p21
a(lp22
VtranslateX
p23
aVtranslateY
p24
aVtranslateZ
p25
aVrotateX
p26
aVrotateY
p27
aVrotateZ
p28
aVscaleX
p29
aVscaleY
p30
aVscaleZ
p31
aVfkOrientation
p32
aaF0
aF0
aF0
aF0.90238646194822303
aF2.9349474301797134
aF9.987790290767089
aF1
aF1
aF1
aI0
aa(lp33
S'neck_01_fk_anim'
p34
a(lp35
VtranslateX
p36
aVtranslateY
p37
aVtranslateZ
p38
aVrotateX
p39
aVrotateY
p40
aVrotateZ
p41
aVscaleX
p42
aVscaleY
p43
aVscaleZ
p44
aVfkOrientation
p45
aaF0
aF0
aF0
aF9.8738747125696733
aF3.7996877376411677
aF11.577788879448075
aF1
aF1
aF1
aI0
aa(lp46
S'spine_01_anim'
p47
a(lp48
Vlength
p49
aVtranslateY
p50
aVtranslateZ
p51
aVrotateX
p52
aVrotateY
p53
aVrotateZ
p54
aaF0
aF0
aF0
aF-2.8636273302372492
aF2.2019164813315548
aF-8.6092215702723234
aa(lp55
S'spine_02_anim'
p56
a(lp57
Vlength
p58
aVtranslateY
p59
aVtranslateZ
p60
aVrotateX
p61
aVrotateY
p62
aVrotateZ
p63
aaF0
aF0
aF0
aF-6.1056031074475365
aF4.7014705432336656
aF-6.0899946867606705
aa(lp64
S'spine_03_anim'
p65
a(lp66
Vlength
p67
aVtranslateY
p68
aVtranslateZ
p69
aVrotateX
p70
aVrotateY
p71
aVrotateZ
p72
aaF0
aF0
aF0
aF-6.3882884633359627
aF4.1132849902597846
aF-6.2172938217527003
aa(lp73
S'mid_ik_anim'
p74
a(lp75
VtranslateX
p76
aVtranslateY
p77
aVtranslateZ
p78
aVrotateX
p79
aVrotateY
p80
aVrotateZ
p81
aaF0
aF0
aF0
aF0
aF0
aF0
aa(lp82
S'chest_ik_anim'
p83
a(lp84
VtranslateX
p85
aVtranslateY
p86
aVtranslateZ
p87
aVrotateX
p88
aVrotateY
p89
aVrotateZ
p90
aVstretch
p91
aVsquash
p92
aVtwist_amount
p93
aVautoSpine
p94
aVrotationInfluence
p95
aaF6.0455765214687789
aF-3.8873143999547564
aF0.11814077696411263
aF39.423847383773456
aF1.874557959624864
aF-7.2619773326613632
aF0
aF0
aF1
aF0
aF0.25
aa(lp96
S'body_anim'
p97
a(lp98
VtranslateX
p99
aVtranslateY
p100
aVtranslateZ
p101
aVrotateX
p102
aVrotateY
p103
aVrotateZ
p104
aaF-7.8441403040351796
aF6.4960272668074595
aF-11.324426929809492
aF-55.526122300345214
aF0.96900291019723761
aF-6.0213421710071646
aa(lp105
S'hip_anim'
p106
a(lp107
VtranslateX
p108
aVtranslateY
p109
aVtranslateZ
p110
aVrotateX
p111
aVrotateY
p112
aVrotateZ
p113
aVlCalfTwistCtrlVis
p114
aVrCalfTwistCtrlVis
p115
aVautoHips
p116
aaF0
aF0
aF0
aF11.135706712336763
aF-1.3540529731958237
aF5.9749691788408148
aI00
aI00
aF0
aa(lp117
S'clavicle_l_anim'
p118
a(lp119
VtranslateX
p120
aVtranslateY
p121
aVtranslateZ
p122
aVautoShoulders
p123
aaF1.238299691145593
aF-1.9847706275257639
aF6.7837264886138549
aF0
aa(lp124
S'clavicle_r_anim'
p125
a(lp126
VtranslateX
p127
aVtranslateY
p128
aVtranslateZ
p129
aVautoShoulders
p130
aaF-1.625874432724324
aF-0.61563943140077493
aF9.2575176051765009
aF0
aa(lp131
S'fk_arm_l_anim'
p132
a(lp133
VtranslateX
p134
aVtranslateY
p135
aVtranslateZ
p136
aVrotateX
p137
aVrotateY
p138
aVrotateZ
p139
aaF0
aF0
aF0
aF-8.9453551598503616
aF65.272635646600918
aF-75.573350456149853
aa(lp140
S'fk_arm_r_anim'
p141
a(lp142
VtranslateX
p143
aVtranslateY
p144
aVtranslateZ
p145
aVrotateX
p146
aVrotateY
p147
aVrotateZ
p148
aaF0
aF0
aF0
aF47.089491828617412
aF38.652556028803062
aF14.121080187334082
aa(lp149
S'fk_elbow_l_anim'
p150
a(lp151
VtranslateX
p152
aVtranslateY
p153
aVtranslateZ
p154
aVrotateX
p155
aVrotateY
p156
aVrotateZ
p157
aaF0
aF0
aF0
aF18.669261977179865
aF-19.98480610043762
aF-74.776426738070697
aa(lp158
S'fk_elbow_r_anim'
p159
a(lp160
VtranslateX
p161
aVtranslateY
p162
aVtranslateZ
p163
aVrotateX
p164
aVrotateY
p165
aVrotateZ
p166
aaF0
aF0
aF0
aF26.173391149865669
aF-12.710260388723256
aF-118.87382544198599
aa(lp167
S'fk_wrist_l_anim'
p168
a(lp169
VtranslateX
p170
aVtranslateY
p171
aVtranslateZ
p172
aVrotateX
p173
aVrotateY
p174
aVrotateZ
p175
aaF0
aF0
aF0
aF-75.424332643454079
aF-15.493722536433781
aF-19.350065805731912
aa(lp176
S'fk_wrist_r_anim'
p177
a(lp178
VtranslateX
p179
aVtranslateY
p180
aVtranslateZ
p181
aVrotateX
p182
aVrotateY
p183
aVrotateZ
p184
aaF0
aF0
aF0
aF-27.037710599253181
aF0.78186493112502364
aF-21.140818166462374
aa(lp185
S'ik_elbow_l_anim'
p186
a(lp187
VtranslateX
p188
aVtranslateY
p189
aVtranslateZ
p190
aaF22.948253638003401
aF-5.4228961220036425
aF-17.974481810630834
aa(lp191
S'ik_elbow_r_anim'
p192
a(lp193
VtranslateX
p194
aVtranslateY
p195
aVtranslateZ
p196
aaF-8.7759996063181731
aF-12.006800383952232
aF-16.662895222214715
aa(lp197
S'ik_wrist_l_anim'
p198
a(lp199
VtranslateX
p200
aVtranslateY
p201
aVtranslateZ
p202
aVrotateX
p203
aVrotateY
p204
aVrotateZ
p205
aVstretch
p206
aVsquash
p207
aVstretchBias
p208
aVside
p209
aVmid_bend
p210
aVmid_swivel
p211
aVtip_pivot
p212
aVtip_swivel
p213
aaF-51.44693961758685
aF-33.673800617495189
aF-30.117389118855755
aF179.50055664602718
aF7.749053721819041
aF263.66647445963645
aF0
aF0
aF0
aF0
aF-0.010877778906044355
aF-0.012313740561332357
aF0
aF0
aa(lp214
S'ik_wrist_r_anim'
p215
a(lp216
VtranslateX
p217
aVtranslateY
p218
aVtranslateZ
p219
aVrotateX
p220
aVrotateY
p221
aVrotateZ
p222
aVstretch
p223
aVsquash
p224
aVstretchBias
p225
aVside
p226
aVmid_bend
p227
aVmid_swivel
p228
aVtip_pivot
p229
aVtip_swivel
p230
aaF47.948387577974863
aF-34.406075712223348
aF-13.74612928419241
aF-71.942247686534884
aF-5.7921091398687139
aF155.07363831660035
aF0
aF0
aF0
aF0
aF0
aF0
aF0
aF0
aa(lp231
S'fk_thigh_l_anim'
p232
a(lp233
VrotateX
p234
aVrotateY
p235
aVrotateZ
p236
aaF30.978047232667588
aF-18.049191585140683
aF33.410124572101758
aa(lp237
S'fk_thigh_r_anim'
p238
a(lp239
VrotateX
p240
aVrotateY
p241
aVrotateZ
p242
aaF24.626610676673145
aF-14.717174931991217
aF26.698935033193688
aa(lp243
S'fk_calf_l_anim'
p244
a(lp245
VrotateX
p246
aVrotateY
p247
aVrotateZ
p248
aaF1.3046933412551258
aF-0.69259464740758014
aF-30.778654098510732
aa(lp249
S'fk_calf_r_anim'
p250
a(lp251
VrotateX
p252
aVrotateY
p253
aVrotateZ
p254
aaF-0.11435873806471505
aF-0.91247910261152942
aF-31.225751876831055
aa(lp255
S'fk_foot_l_anim'
p256
a(lp257
VrotateX
p258
aVrotateY
p259
aVrotateZ
p260
aaF-5.6440310478210138
aF2.7781219482421853
aF-4.4080839157104617
aa(lp261
S'fk_foot_r_anim'
p262
a(lp263
VrotateX
p264
aVrotateY
p265
aVrotateZ
p266
aaF6.8336400985717791
aF-0.74298369884493753
aF1.3092601299286268
aa(lp267
S'fk_ball_l_anim'
p268
a(lp269
VrotateX
p270
aVrotateY
p271
aVrotateZ
p272
aaF0.016095440834760957
aF-0.00025201743115151661
aF0.30748155713081543
aa(lp273
S'fk_ball_r_anim'
p274
a(lp275
VrotateX
p276
aVrotateY
p277
aVrotateZ
p278
aaF0.0059163044206762523
aF0.53823220729823551
aF4.6641597747802779
aa(lp279
S'ik_foot_anim_l'
p280
a(lp281
VtranslateX
p282
aVtranslateY
p283
aVtranslateZ
p284
aVrotateX
p285
aVrotateY
p286
aVrotateZ
p287
aVknee_twist
p288
aVstretch
p289
aVsquash
p290
aVtoeCtrlVis
p291
aVstretchBias
p292
aaF16.485867977625094
aF-32.616905502706857
aF0.5863510843905182
aF0.049366116782720446
aF0.03544320504124223
aF-18.998592424911898
aF-26.770619521009181
aF0
aF0
aI00
aF0
aa(lp293
S'ik_foot_anim_r'
p294
a(lp295
VtranslateX
p296
aVtranslateY
p297
aVtranslateZ
p298
aVrotateX
p299
aVrotateY
p300
aVrotateZ
p301
aVknee_twist
p302
aVstretch
p303
aVsquash
p304
aVtoeCtrlVis
p305
aVstretchBias
p306
aaF5.7795068246912003
aF33.52938834597569
aF0.021526858248485325
aF0.70328762094174035
aF1.8296411100199625
aF-58.616890041930333
aF47.874383976027651
aF0
aF0
aI00
aF0
aa(lp307
S'heel_ctrl_l'
p308
a(lp309
VrotateX
p310
aVrotateY
p311
aVrotateZ
p312
aVheelPivot
p313
aVballPivot
p314
aaF0
aF-0
aF0
aF0
aF0
aa(lp315
S'heel_ctrl_r'
p316
a(lp317
VrotateX
p318
aVrotateY
p319
aVrotateZ
p320
aVheelPivot
p321
aVballPivot
p322
aaF0
aF0
aF0
aF0
aF0
aa(lp323
S'toe_wiggle_ctrl_l'
p324
a(lp325
VrotateX
p326
aVrotateY
p327
aVrotateZ
p328
aaF0
aF-0
aF0
aa(lp329
S'toe_wiggle_ctrl_r'
p330
a(lp331
VrotateX
p332
aVrotateY
p333
aVrotateZ
p334
aaF0
aF-0
aF0
aa(lp335
S'toe_tip_ctrl_l'
p336
a(lp337
VrotateX
p338
aVrotateY
p339
aVrotateZ
p340
aaF0
aF0
aF0
aa(lp341
S'toe_tip_ctrl_r'
p342
a(lp343
VrotateX
p344
aVrotateY
p345
aVrotateZ
p346
aaF0
aF0
aF0
aa(lp347
S'master_anim'
p348
a(lp349
VtranslateX
p350
aVtranslateY
p351
aVtranslateZ
p352
aVrotateX
p353
aVrotateY
p354
aVrotateZ
p355
aaF0
aF0
aF0
aF0
aF-0
aF0
aa(lp356
S'offset_anim'
p357
a(lp358
VtranslateX
p359
aVtranslateY
p360
aVtranslateZ
p361
aVrotateX
p362
aVrotateY
p363
aVrotateZ
p364
aaF0
aF0
aF0
aF0
aF-0
aF0
aa(lp365
S'root_anim'
p366
a(lp367
VtranslateX
p368
aVtranslateY
p369
aVtranslateZ
p370
aVrotateX
p371
aVrotateY
p372
aVrotateZ
p373
aaF0
aF0
aF0
aF0
aF-0
aF0
aa(lp374
S'upperarm_l_twist_anim'
p375
a(lp376
VtranslateX
p377
aVtranslateY
p378
aVtranslateZ
p379
aVrotateX
p380
aVrotateY
p381
aVrotateZ
p382
aVscaleX
p383
aVscaleY
p384
aVscaleZ
p385
aaF0
aF0
aF0
aF0
aF0
aF0
aF1
aF1
aF1
aa(lp386
S'upperarm_l_twist_2_anim'
p387
a(lp388
VtranslateX
p389
aVtranslateY
p390
aVtranslateZ
p391
aVrotateX
p392
aVrotateY
p393
aVrotateZ
p394
aVscaleX
p395
aVscaleY
p396
aVscaleZ
p397
aaF0
aF0
aF0
aF0
aF0
aF0
aF1
aF1
aF1
aa(lp398
S'upperarm_r_twist_anim'
p399
a(lp400
VtranslateX
p401
aVtranslateY
p402
aVtranslateZ
p403
aVrotateX
p404
aVrotateY
p405
aVrotateZ
p406
aVscaleX
p407
aVscaleY
p408
aVscaleZ
p409
aaF0
aF0
aF0
aF0
aF-0
aF0
aF1
aF1
aF1
aa(lp410
S'upperarm_r_twist_2_anim'
p411
a(lp412
VtranslateX
p413
aVtranslateY
p414
aVtranslateZ
p415
aVrotateX
p416
aVrotateY
p417
aVrotateZ
p418
aVscaleX
p419
aVscaleY
p420
aVscaleZ
p421
aaF0
aF0
aF0
aF0
aF-0
aF0
aF1
aF1
aF1
aa(lp422
S'lowerarm_l_twist_anim'
p423
a(lp424
VtranslateX
p425
aVtranslateY
p426
aVtranslateZ
p427
aVrotateX
p428
aVrotateY
p429
aVrotateZ
p430
aaF0
aF0
aF0
aF0
aF-0
aF0
aa(lp431
S'lowerarm_r_twist_anim'
p432
a(lp433
VtranslateX
p434
aVtranslateY
p435
aVtranslateZ
p436
aVrotateX
p437
aVrotateY
p438
aVrotateZ
p439
aaF0
aF0
aF0
aF0
aF-0
aF0
aa(lp440
S'l_thigh_twist_01_anim'
p441
a(lp442
VtranslateX
p443
aVtranslateY
p444
aVtranslateZ
p445
aVrotateX
p446
aVrotateY
p447
aVrotateZ
p448
aVscaleX
p449
aVscaleY
p450
aVscaleZ
p451
aaF0
aF0
aF0
aF0
aF-0
aF0
aF1
aF1
aF1
aa(lp452
S'r_thigh_twist_01_anim'
p453
a(lp454
VtranslateX
p455
aVtranslateY
p456
aVtranslateZ
p457
aVrotateX
p458
aVrotateY
p459
aVrotateZ
p460
aVscaleX
p461
aVscaleY
p462
aVscaleZ
p463
aaF0
aF0
aF0
aF0
aF0
aF0
aF1
aF1
aF1
aa(lp464
S'pinky_finger_fk_ctrl_1_l'
p465
a(lp466
VtranslateX
p467
aVtranslateY
p468
aVtranslateZ
p469
aVrotateX
p470
aVrotateY
p471
aVrotateZ
p472
aVsticky
p473
aaF0
aF0
aF0
aF-17.568765548527342
aF-20.743199114525218
aF50.819207156620017
aF0
aa(lp474
S'pinky_finger_fk_ctrl_1_r'
p475
a(lp476
VtranslateX
p477
aVtranslateY
p478
aVtranslateZ
p479
aVrotateX
p480
aVrotateY
p481
aVrotateZ
p482
aVsticky
p483
aaF0
aF0
aF0
aF-0.49069871912142854
aF-9.8122038602914206
aF60.514905295287271
aF0
aa(lp484
S'pinky_finger_fk_ctrl_2_l'
p485
a(lp486
VtranslateX
p487
aVtranslateY
p488
aVtranslateZ
p489
aVrotateX
p490
aVrotateY
p491
aVrotateZ
p492
aaF0
aF0
aF0
aF8.5766782126870478
aF2.9708111451259613
aF15.09357996896737
aa(lp493
S'pinky_finger_fk_ctrl_2_r'
p494
a(lp495
VtranslateX
p496
aVtranslateY
p497
aVtranslateZ
p498
aVrotateX
p499
aVrotateY
p500
aVrotateZ
p501
aaF0
aF0
aF0
aF3.7660679817200786
aF2.9020192623137846
aF46.353736877441328
aa(lp502
S'pinky_finger_fk_ctrl_3_l'
p503
a(lp504
VtranslateX
p505
aVtranslateY
p506
aVtranslateZ
p507
aVrotateX
p508
aVrotateY
p509
aVrotateZ
p510
aaF0
aF0
aF0
aF0.54567283391945898
aF4.7950749397279546
aF38.926383972168026
aa(lp511
S'pinky_finger_fk_ctrl_3_r'
p512
a(lp513
VtranslateX
p514
aVtranslateY
p515
aVtranslateZ
p516
aVrotateX
p517
aVrotateY
p518
aVrotateZ
p519
aaF0
aF0
aF0
aF2.0519118309021542
aF4.3689389228822053
aF57.614753723144531
aa(lp520
S'ring_finger_fk_ctrl_1_l'
p521
a(lp522
VtranslateX
p523
aVtranslateY
p524
aVtranslateZ
p525
aVrotateX
p526
aVrotateY
p527
aVrotateZ
p528
aVsticky
p529
aaF0
aF0
aF0
aF-16.485596845281584
aF-9.8189372403116693
aF68.873209630162648
aF0
aa(lp530
S'ring_finger_fk_ctrl_1_r'
p531
a(lp532
VtranslateX
p533
aVtranslateY
p534
aVtranslateZ
p535
aVrotateX
p536
aVrotateY
p537
aVrotateZ
p538
aVsticky
p539
aaF0
aF0
aF0
aF-17.537253279013115
aF-3.8896483125511003
aF61.3300721580908
aF0
aa(lp540
S'ring_finger_fk_ctrl_2_l'
p541
a(lp542
VtranslateX
p543
aVtranslateY
p544
aVtranslateZ
p545
aVrotateX
p546
aVrotateY
p547
aVrotateZ
p548
aaF0
aF0
aF0
aF17.182117527265376
aF6.0837316962681758
aF14.797182275222477
aa(lp549
S'ring_finger_fk_ctrl_2_r'
p550
a(lp551
VtranslateX
p552
aVtranslateY
p553
aVtranslateZ
p554
aVrotateX
p555
aVrotateY
p556
aVrotateZ
p557
aaF0
aF0
aF0
aF-2.4195189476013095
aF-2.2452738285064777
aF71.886215209960795
aa(lp558
S'ring_finger_fk_ctrl_3_l'
p559
a(lp560
VtranslateX
p561
aVtranslateY
p562
aVtranslateZ
p563
aVrotateX
p564
aVrotateY
p565
aVrotateZ
p566
aaF0
aF0
aF0
aF-2.1815209388732764
aF3.8441541194915092
aF10.678306579589812
aa(lp567
S'ring_finger_fk_ctrl_3_r'
p568
a(lp569
VtranslateX
p570
aVtranslateY
p571
aVtranslateZ
p572
aVrotateX
p573
aVrotateY
p574
aVrotateZ
p575
aaF0
aF0
aF0
aF-2.2251775264739924
aF2.241922616958576
aF30.030200958251989
aa(lp576
S'middle_finger_fk_ctrl_1_l'
p577
a(lp578
VtranslateX
p579
aVtranslateY
p580
aVtranslateZ
p581
aVrotateX
p582
aVrotateY
p583
aVrotateZ
p584
aVsticky
p585
aaF0
aF0
aF0
aF-17.32560494418858
aF-4.7062460149757115
aF73.934212453512629
aF0
aa(lp586
S'middle_finger_fk_ctrl_1_r'
p587
a(lp588
VtranslateX
p589
aVtranslateY
p590
aVtranslateZ
p591
aVrotateX
p592
aVrotateY
p593
aVrotateZ
p594
aVsticky
p595
aaF0
aF0
aF0
aF-6.1872507748188807
aF-4.1153185698392756
aF69.882167601948183
aF0
aa(lp596
S'middle_finger_fk_ctrl_2_l'
p597
a(lp598
VtranslateX
p599
aVtranslateY
p600
aVtranslateZ
p601
aVrotateX
p602
aVrotateY
p603
aVrotateZ
p604
aaF0
aF0
aF0
aF-19.599591636641204
aF-3.2511824282985211
aF10.476239225818846
aa(lp605
S'middle_finger_fk_ctrl_2_r'
p606
a(lp607
VtranslateX
p608
aVtranslateY
p609
aVtranslateZ
p610
aVrotateX
p611
aVrotateY
p612
aVrotateZ
p613
aaF0
aF0
aF0
aF11.803943634033219
aF7.9659514427184046
aF83.946128845214943
aa(lp614
S'middle_finger_fk_ctrl_3_l'
p615
a(lp616
VtranslateX
p617
aVtranslateY
p618
aVtranslateZ
p619
aVrotateX
p620
aVrotateY
p621
aVrotateZ
p622
aaF0
aF0
aF0
aF-2.6564145088195397
aF-13.529303550720254
aF19.268327713012507
aa(lp623
S'middle_finger_fk_ctrl_3_r'
p624
a(lp625
VtranslateX
p626
aVtranslateY
p627
aVtranslateZ
p628
aVrotateX
p629
aVrotateY
p630
aVrotateZ
p631
aaF0
aF0
aF0
aF0.34894034266481178
aF2.9220106601714129
aF29.163963317870916
aa(lp632
S'index_finger_fk_ctrl_1_l'
p633
a(lp634
VtranslateX
p635
aVtranslateY
p636
aVtranslateZ
p637
aVrotateX
p638
aVrotateY
p639
aVrotateZ
p640
aVsticky
p641
aaF0
aF0
aF0
aF-24.053345044880633
aF-0.34519720231749368
aF39.554606349842871
aF0
aa(lp642
S'index_finger_fk_ctrl_1_r'
p643
a(lp644
VtranslateX
p645
aVtranslateY
p646
aVtranslateZ
p647
aVrotateX
p648
aVrotateY
p649
aVrotateZ
p650
aVsticky
p651
aaF0
aF0
aF0
aF-18.235420204538897
aF-4.5303875060476875
aF44.051142115159024
aF0
aa(lp652
S'index_finger_fk_ctrl_2_l'
p653
a(lp654
VtranslateX
p655
aVtranslateY
p656
aVtranslateZ
p657
aVrotateX
p658
aVrotateY
p659
aVrotateZ
p660
aaF0
aF0
aF0
aF2.6591717510323489
aF1.0276526154085479
aF37.695584928729268
aa(lp661
S'index_finger_fk_ctrl_2_r'
p662
a(lp663
VtranslateX
p664
aVtranslateY
p665
aVtranslateZ
p666
aVrotateX
p667
aVrotateY
p668
aVrotateZ
p669
aaF0
aF0
aF0
aF24.354585673180576
aF11.754785803312247
aF84.243736267089787
aa(lp670
S'index_finger_fk_ctrl_3_l'
p671
a(lp672
VtranslateX
p673
aVtranslateY
p674
aVtranslateZ
p675
aVrotateX
p676
aVrotateY
p677
aVrotateZ
p678
aaF0
aF0
aF0
aF4.0468716592447036
aF7.3090467454788222
aF20.109149932778223
aa(lp679
S'index_finger_fk_ctrl_3_r'
p680
a(lp681
VtranslateX
p682
aVtranslateY
p683
aVtranslateZ
p684
aVrotateX
p685
aVrotateY
p686
aVrotateZ
p687
aaF0
aF0
aF0
aF8.358432769798112
aF11.421175003050759
aF41.550048827322577
aa(lp688
S'thumb_finger_fk_ctrl_1_l'
p689
a(lp690
VtranslateX
p691
aVtranslateY
p692
aVtranslateZ
p693
aVrotateX
p694
aVrotateY
p695
aVrotateZ
p696
aVsticky
p697
aaF0
aF0
aF0
aF-18.656072564032932
aF-2.0863671772695267
aF-47.814767813966128
aF0
aa(lp698
S'thumb_finger_fk_ctrl_1_r'
p699
a(lp700
VtranslateX
p701
aVtranslateY
p702
aVtranslateZ
p703
aVrotateX
p704
aVrotateY
p705
aVrotateZ
p706
aVsticky
p707
aaF0
aF0
aF0
aF-20.399995807933923
aF19.699254667710711
aF3.9914978609359073
aF0
aa(lp708
S'thumb_finger_fk_ctrl_2_l'
p709
a(lp710
VtranslateX
p711
aVtranslateY
p712
aVtranslateZ
p713
aVrotateX
p714
aVrotateY
p715
aVrotateZ
p716
aaF0
aF0
aF0
aF8.7259359359740749
aF10.793167114257837
aF21.381568908691431
aa(lp717
S'thumb_finger_fk_ctrl_2_r'
p718
a(lp719
VtranslateX
p720
aVtranslateY
p721
aVtranslateZ
p722
aVrotateX
p723
aVrotateY
p724
aVrotateZ
p725
aaF0
aF0
aF0
aF32.780117034912095
aF11.447066307067864
aF38.108062744140568
aa(lp726
S'thumb_finger_fk_ctrl_3_l'
p727
a(lp728
VtranslateX
p729
aVtranslateY
p730
aVtranslateZ
p731
aVrotateX
p732
aVrotateY
p733
aVrotateZ
p734
aaF0
aF0
aF0
aF-13.147610664367733
aF-5.1299538612364755
aF21.5666313171387
aa(lp735
S'thumb_finger_fk_ctrl_3_r'
p736
a(lp737
VtranslateX
p738
aVtranslateY
p739
aVtranslateZ
p740
aVrotateX
p741
aVrotateY
p742
aVrotateZ
p743
aaF0
aF0
aF0
aF-8.3886165618896786
aF17.110204696655369
aF59.888751983642578
aa(lp744
S'index_l_ik_anim'
p745
a(lp746
VtranslateX
p747
aVtranslateY
p748
aVtranslateZ
p749
aVrotateX
p750
aVrotateY
p751
aVrotateZ
p752
aVpoleVectorVis
p753
aaF0
aF0
aF0
aF0
aF-0
aF0
aF0
aa(lp754
S'index_r_ik_anim'
p755
a(lp756
VtranslateX
p757
aVtranslateY
p758
aVtranslateZ
p759
aVrotateX
p760
aVrotateY
p761
aVrotateZ
p762
aVpoleVectorVis
p763
aaF0
aF0
aF0
aF0
aF-0
aF0
aF0
aa(lp764
S'middle_l_ik_anim'
p765
a(lp766
VtranslateX
p767
aVtranslateY
p768
aVtranslateZ
p769
aVrotateX
p770
aVrotateY
p771
aVrotateZ
p772
aVpoleVectorVis
p773
aaF0
aF0
aF0
aF0
aF-0
aF0
aF0
aa(lp774
S'middle_r_ik_anim'
p775
a(lp776
VtranslateX
p777
aVtranslateY
p778
aVtranslateZ
p779
aVrotateX
p780
aVrotateY
p781
aVrotateZ
p782
aVpoleVectorVis
p783
aaF0
aF0
aF0
aF0
aF-0
aF0
aF0
aa(lp784
S'ring_l_ik_anim'
p785
a(lp786
VtranslateX
p787
aVtranslateY
p788
aVtranslateZ
p789
aVrotateX
p790
aVrotateY
p791
aVrotateZ
p792
aVpoleVectorVis
p793
aaF0
aF0
aF0
aF0
aF-0
aF0
aF0
aa(lp794
S'ring_r_ik_anim'
p795
a(lp796
VtranslateX
p797
aVtranslateY
p798
aVtranslateZ
p799
aVrotateX
p800
aVrotateY
p801
aVrotateZ
p802
aVpoleVectorVis
p803
aaF0
aF0
aF0
aF0
aF-0
aF0
aF0
aa(lp804
S'pinky_l_ik_anim'
p805
a(lp806
VtranslateX
p807
aVtranslateY
p808
aVtranslateZ
p809
aVrotateX
p810
aVrotateY
p811
aVrotateZ
p812
aVpoleVectorVis
p813
aaF0
aF0
aF0
aF0
aF-0
aF0
aF0
aa(lp814
S'pinky_r_ik_anim'
p815
a(lp816
VtranslateX
p817
aVtranslateY
p818
aVtranslateZ
p819
aVrotateX
p820
aVrotateY
p821
aVrotateZ
p822
aVpoleVectorVis
p823
aaF0
aF0
aF0
aF0
aF-0
aF0
aF0
aa(lp824
S'thumb_l_ik_anim'
p825
a(lp826
VtranslateX
p827
aVtranslateY
p828
aVtranslateZ
p829
aVrotateX
p830
aVrotateY
p831
aVrotateZ
p832
aVpoleVectorVis
p833
aaF0
aF0
aF0
aF0
aF-0
aF0
aF0
aa(lp834
S'thumb_r_ik_anim'
p835
a(lp836
VtranslateX
p837
aVtranslateY
p838
aVtranslateZ
p839
aVrotateX
p840
aVrotateY
p841
aVrotateZ
p842
aVpoleVectorVis
p843
aaF0
aF0
aF0
aF0
aF-0
aF0
aF0
aa(lp844
S'index_l_poleVector'
p845
a(lp846
VtranslateX
p847
aVtranslateY
p848
aVtranslateZ
p849
aVrotateX
p850
aVrotateY
p851
aVrotateZ
p852
aaF0
aF0
aF0
aF0
aF-0
aF0
aa(lp853
S'index_r_poleVector'
p854
a(lp855
VtranslateX
p856
aVtranslateY
p857
aVtranslateZ
p858
aVrotateX
p859
aVrotateY
p860
aVrotateZ
p861
aaF0
aF0
aF0
aF0
aF-0
aF0
aa(lp862
S'middle_l_poleVector'
p863
a(lp864
VtranslateX
p865
aVtranslateY
p866
aVtranslateZ
p867
aVrotateX
p868
aVrotateY
p869
aVrotateZ
p870
aaF0
aF0
aF0
aF0
aF-0
aF0
aa(lp871
S'middle_r_poleVector'
p872
a(lp873
VtranslateX
p874
aVtranslateY
p875
aVtranslateZ
p876
aVrotateX
p877
aVrotateY
p878
aVrotateZ
p879
aaF0
aF0
aF0
aF0
aF-0
aF0
aa(lp880
S'ring_l_poleVector'
p881
a(lp882
VtranslateX
p883
aVtranslateY
p884
aVtranslateZ
p885
aVrotateX
p886
aVrotateY
p887
aVrotateZ
p888
aaF0
aF0
aF0
aF0
aF-0
aF0
aa(lp889
S'ring_r_poleVector'
p890
a(lp891
VtranslateX
p892
aVtranslateY
p893
aVtranslateZ
p894
aVrotateX
p895
aVrotateY
p896
aVrotateZ
p897
aaF0
aF0
aF0
aF0
aF-0
aF0
aa(lp898
S'pinky_l_poleVector'
p899
a(lp900
VtranslateX
p901
aVtranslateY
p902
aVtranslateZ
p903
aVrotateX
p904
aVrotateY
p905
aVrotateZ
p906
aaF0
aF0
aF0
aF0
aF-0
aF0
aa(lp907
S'pinky_r_poleVector'
p908
a(lp909
VtranslateX
p910
aVtranslateY
p911
aVtranslateZ
p912
aVrotateX
p913
aVrotateY
p914
aVrotateZ
p915
aaF0
aF0
aF0
aF0
aF-0
aF0
aa(lp916
S'thumb_l_poleVector'
p917
a(lp918
VtranslateX
p919
aVtranslateY
p920
aVtranslateZ
p921
aVrotateX
p922
aVrotateY
p923
aVrotateZ
p924
aaF0
aF0
aF0
aF0
aF-0
aF0
aa(lp925
S'thumb_r_poleVector'
p926
a(lp927
VtranslateX
p928
aVtranslateY
p929
aVtranslateZ
p930
aVrotateX
p931
aVrotateY
p932
aVrotateZ
p933
aaF0
aF0
aF0
aF0
aF-0
aF0
aa(lp934
S'l_global_ik_anim'
p935
a(lp936
VtranslateX
p937
aVtranslateY
p938
aVtranslateZ
p939
aVrotateX
p940
aVrotateY
p941
aVrotateZ
p942
aaF0
aF0
aF0
aF0
aF-0
aF0
aa(lp943
S'r_global_ik_anim'
p944
a(lp945
VtranslateX
p946
aVtranslateY
p947
aVtranslateZ
p948
aVrotateX
p949
aVrotateY
p950
aVrotateZ
p951
aaF0
aF0
aF0
aF0
aF-0
aF0
aa(lp952
S'Rig_Settings'
p953
a(lp954
Vspine_ik
p955
aVspine_fk
p956
aVlLegMode
p957
aVlThighTwistAmount
p958
aVlThighTwist2Amount
p959
aVllegTwistCtrlVis
p960
aVlCalfTwistAmount
p961
aVrLegMode
p962
aVrThighTwistAmount
p963
aVrThighTwist2Amount
p964
aVrlegTwistCtrlVis
p965
aVrCalfTwistAmount
p966
aVlFkArmOrient
p967
aVlArmMode
p968
aVlClavMode
p969
aVlUpperarmTwistAmount
p970
aVlUpperarmTwist2Amount
p971
aVltwistCtrlVis
p972
aVltwistCtrlVisLower
p973
aVlForearmTwistAmount
p974
aVlForearmTwist2Amount
p975
aVrFkArmOrient
p976
aVrArmMode
p977
aVrClavMode
p978
aVrUpperarmTwistAmount
p979
aVrUpperarmTwist2Amount
p980
aVrtwistCtrlVis
p981
aVrtwistCtrlVisLower
p982
aVrForearmTwistAmount
p983
aaF1
aF0
aI1
aF1
aF0.59999999999999998
aI00
aF0.5
aI1
aF1
aF0.59999999999999998
aI00
aF0.5
aI0
aI1
aI1
aF0.90000000000000002
aF0.59999999999999998
aI00
aI00
aF0.5
aF0.59999999999999998
aI0
aI1
aI1
aF0.90000000000000002
aF0.59999999999999998
aI00
aI00
aF0.5
aa(lp984
S'calf_l_twist_anim'
p985
a(lp986
VtranslateX
p987
aVtranslateY
p988
aVtranslateZ
p989
aVrotateX
p990
aVrotateY
p991
aVrotateZ
p992
aaF0
aF0
aF0
aF0
aF-0
aF0
aa(lp993
S'calf_r_twist_anim'
p994
a(lp995
VtranslateX
p996
aVtranslateY
p997
aVtranslateZ
p998
aVrotateX
p999
aVrotateY
p1000
aVrotateZ
p1001
aaF0
aF0
aF0
aF0
aF-0
aF0
aa(lp1002
S'lowerarm_l_twist2_anim'
p1003
a(lp1004
VtranslateX
p1005
aVtranslateY
p1006
aVtranslateZ
p1007
aVrotateX
p1008
aVrotateY
p1009
aVrotateZ
p1010
aaF0
aF0
aF0
aF0
aF0
aF0
aa(lp1011
Vankle_plate_in_l_anim
p1012
a(lp1013
VtranslateX
p1014
aVtranslateY
p1015
aVtranslateZ
p1016
aVrotateX
p1017
aVrotateY
p1018
aVrotateZ
p1019
aVscaleX
p1020
aVscaleY
p1021
aVscaleZ
p1022
aaF0
aF0
aF0
aF0
aF-0
aF0
aF1
aF1
aF1
aa(lp1023
Vankle_plate_in_r_anim
p1024
a(lp1025
VtranslateX
p1026
aVtranslateY
p1027
aVtranslateZ
p1028
aVrotateX
p1029
aVrotateY
p1030
aVrotateZ
p1031
aVscaleX
p1032
aVscaleY
p1033
aVscaleZ
p1034
aaF0
aF0
aF0
aF0
aF-0
aF0
aF1
aF1
aF1
aa(lp1035
Vankle_plate_out_l_anim
p1036
a(lp1037
VtranslateX
p1038
aVtranslateY
p1039
aVtranslateZ
p1040
aVrotateX
p1041
aVrotateY
p1042
aVrotateZ
p1043
aVscaleX
p1044
aVscaleY
p1045
aVscaleZ
p1046
aaF0
aF0
aF0
aF0
aF-0
aF0
aF1
aF1
aF1
aa(lp1047
Vankle_plate_out_r_anim
p1048
a(lp1049
VtranslateX
p1050
aVtranslateY
p1051
aVtranslateZ
p1052
aVrotateX
p1053
aVrotateY
p1054
aVrotateZ
p1055
aVscaleX
p1056
aVscaleY
p1057
aVscaleZ
p1058
aaF0
aF0
aF0
aF0
aF-0
aF0
aF1
aF1
aF1
aa(lp1059
Varm_hose_bott_anim
p1060
a(lp1061
VtranslateX
p1062
aVtranslateY
p1063
aVtranslateZ
p1064
aVrotateX
p1065
aVrotateY
p1066
aVrotateZ
p1067
aVscaleX
p1068
aVscaleY
p1069
aVscaleZ
p1070
aaF0
aF0
aF0
aF0
aF-0
aF0
aF1
aF1
aF1
aa(lp1071
Varm_hose_top_anim
p1072
a(lp1073
VtranslateX
p1074
aVtranslateY
p1075
aVtranslateZ
p1076
aVrotateX
p1077
aVrotateY
p1078
aVrotateZ
p1079
aVscaleX
p1080
aVscaleY
p1081
aVscaleZ
p1082
aaF0
aF0
aF0
aF0
aF-0
aF0
aF1
aF1
aF1
aa(lp1083
Varm_pouch_l_anim
p1084
a(lp1085
VtranslateX
p1086
aVtranslateY
p1087
aVtranslateZ
p1088
aVrotateX
p1089
aVrotateY
p1090
aVrotateZ
p1091
aVscaleX
p1092
aVscaleY
p1093
aVscaleZ
p1094
aaF0
aF0
aF0
aF0
aF-0
aF0
aF1
aF1
aF1
aa(lp1095
Vbot_hand_anim
p1096
a(lp1097
VtranslateX
p1098
aVtranslateY
p1099
aVtranslateZ
p1100
aVrotateX
p1101
aVrotateY
p1102
aVrotateZ
p1103
aVscaleX
p1104
aVscaleY
p1105
aVscaleZ
p1106
aaF0
aF0
aF0
aF0
aF-0
aF0
aF1
aF1
aF1
aa(lp1107
Vbot_loarm_anim
p1108
a(lp1109
VtranslateX
p1110
aVtranslateY
p1111
aVtranslateZ
p1112
aVrotateX
p1113
aVrotateY
p1114
aVrotateZ
p1115
aVscaleX
p1116
aVscaleY
p1117
aVscaleZ
p1118
aaF0
aF0
aF0
aF0
aF-0
aF0
aF1
aF1
aF1
aa(lp1119
Vbot_loarm_pistonB_bot_anim
p1120
a(lp1121
VtranslateX
p1122
aVtranslateY
p1123
aVtranslateZ
p1124
aVrotateX
p1125
aVrotateY
p1126
aVrotateZ
p1127
aVscaleX
p1128
aVscaleY
p1129
aVscaleZ
p1130
aaF0
aF0
aF0
aF0
aF-0
aF0
aF1
aF1
aF1
aa(lp1131
Vbot_loarm_pistonB_top_anim
p1132
a(lp1133
VtranslateX
p1134
aVtranslateY
p1135
aVtranslateZ
p1136
aVrotateX
p1137
aVrotateY
p1138
aVrotateZ
p1139
aVscaleX
p1140
aVscaleY
p1141
aVscaleZ
p1142
aaF0
aF0
aF0
aF0
aF-0
aF0
aF1
aF1
aF1
aa(lp1143
Vbot_loarm_pistonC_bot_anim
p1144
a(lp1145
VtranslateX
p1146
aVtranslateY
p1147
aVtranslateZ
p1148
aVrotateX
p1149
aVrotateY
p1150
aVrotateZ
p1151
aVscaleX
p1152
aVscaleY
p1153
aVscaleZ
p1154
aaF0
aF0
aF0
aF0
aF-0
aF0
aF1
aF1
aF1
aa(lp1155
Vbot_loarm_pistonC_top_anim
p1156
a(lp1157
VtranslateX
p1158
aVtranslateY
p1159
aVtranslateZ
p1160
aVrotateX
p1161
aVrotateY
p1162
aVrotateZ
p1163
aVscaleX
p1164
aVscaleY
p1165
aVscaleZ
p1166
aaF0
aF0
aF0
aF0
aF-0
aF0
aF1
aF1
aF1
aa(lp1167
Vbot_loarm_pistonD_bot_anim
p1168
a(lp1169
VtranslateX
p1170
aVtranslateY
p1171
aVtranslateZ
p1172
aVrotateX
p1173
aVrotateY
p1174
aVrotateZ
p1175
aVscaleX
p1176
aVscaleY
p1177
aVscaleZ
p1178
aaF0
aF0
aF0
aF0
aF-0
aF0
aF1
aF1
aF1
aa(lp1179
Vbot_loarm_pistonD_top_anim
p1180
a(lp1181
VtranslateX
p1182
aVtranslateY
p1183
aVtranslateZ
p1184
aVrotateX
p1185
aVrotateY
p1186
aVrotateZ
p1187
aVscaleX
p1188
aVscaleY
p1189
aVscaleZ
p1190
aaF0
aF0
aF0
aF0
aF-0
aF0
aF1
aF1
aF1
aa(lp1191
Vbot_loarm_twist_anim
p1192
a(lp1193
VtranslateX
p1194
aVtranslateY
p1195
aVtranslateZ
p1196
aVrotateX
p1197
aVrotateY
p1198
aVrotateZ
p1199
aVscaleX
p1200
aVscaleY
p1201
aVscaleZ
p1202
aaF0
aF0
aF0
aF0
aF-0
aF0
aF1
aF1
aF1
aa(lp1203
Vbot_uparm_anim
p1204
a(lp1205
VtranslateX
p1206
aVtranslateY
p1207
aVtranslateZ
p1208
aVrotateX
p1209
aVrotateY
p1210
aVrotateZ
p1211
aVscaleX
p1212
aVscaleY
p1213
aVscaleZ
p1214
aaF0
aF0
aF0
aF0
aF-0
aF0
aF1
aF1
aF1
aa(lp1215
Vbot_uparm_pistonC_bot_anim
p1216
a(lp1217
VtranslateX
p1218
aVtranslateY
p1219
aVtranslateZ
p1220
aVrotateX
p1221
aVrotateY
p1222
aVrotateZ
p1223
aVscaleX
p1224
aVscaleY
p1225
aVscaleZ
p1226
aaF0
aF0
aF0
aF0
aF-0
aF0
aF1
aF1
aF1
aa(lp1227
Vbot_uparm_pistonC_top_anim
p1228
a(lp1229
VtranslateX
p1230
aVtranslateY
p1231
aVtranslateZ
p1232
aVrotateX
p1233
aVrotateY
p1234
aVrotateZ
p1235
aVscaleX
p1236
aVscaleY
p1237
aVscaleZ
p1238
aaF0
aF0
aF0
aF0
aF-0
aF0
aF1
aF1
aF1
aa(lp1239
Veyeball_l_anim
p1240
a(lp1241
VtranslateX
p1242
aVtranslateY
p1243
aVtranslateZ
p1244
aVrotateX
p1245
aVrotateY
p1246
aVrotateZ
p1247
aVscaleX
p1248
aVscaleY
p1249
aVscaleZ
p1250
aaF0
aF0
aF0
aF0
aF-0
aF0
aF1
aF1
aF1
aa(lp1251
Veyeball_r_anim
p1252
a(lp1253
VtranslateX
p1254
aVtranslateY
p1255
aVtranslateZ
p1256
aVrotateX
p1257
aVrotateY
p1258
aVrotateZ
p1259
aVscaleX
p1260
aVscaleY
p1261
aVscaleZ
p1262
aaF0
aF0
aF0
aF0
aF-0
aF0
aF1
aF1
aF1
aa(lp1263
Veyebrow_in_l_anim
p1264
a(lp1265
VtranslateX
p1266
aVtranslateY
p1267
aVtranslateZ
p1268
aVrotateX
p1269
aVrotateY
p1270
aVrotateZ
p1271
aVscaleX
p1272
aVscaleY
p1273
aVscaleZ
p1274
aaF0
aF0
aF0
aF0
aF-0
aF0
aF1
aF1
aF1
aa(lp1275
Veyebrow_in_r_anim
p1276
a(lp1277
VtranslateX
p1278
aVtranslateY
p1279
aVtranslateZ
p1280
aVrotateX
p1281
aVrotateY
p1282
aVrotateZ
p1283
aVscaleX
p1284
aVscaleY
p1285
aVscaleZ
p1286
aaF0
aF0
aF0
aF0
aF-0
aF0
aF1
aF1
aF1
aa(lp1287
Veyebrow_out_l_anim
p1288
a(lp1289
VtranslateX
p1290
aVtranslateY
p1291
aVtranslateZ
p1292
aVrotateX
p1293
aVrotateY
p1294
aVrotateZ
p1295
aVscaleX
p1296
aVscaleY
p1297
aVscaleZ
p1298
aaF0
aF0
aF0
aF0
aF-0
aF0
aF1
aF1
aF1
aa(lp1299
Veyebrow_out_r_anim
p1300
a(lp1301
VtranslateX
p1302
aVtranslateY
p1303
aVtranslateZ
p1304
aVrotateX
p1305
aVrotateY
p1306
aVrotateZ
p1307
aVscaleX
p1308
aVscaleY
p1309
aVscaleZ
p1310
aaF0
aF0
aF0
aF0
aF-0
aF0
aF1
aF1
aF1
aa(lp1311
Veyelid_bott_l_anim
p1312
a(lp1313
VtranslateX
p1314
aVtranslateY
p1315
aVtranslateZ
p1316
aVrotateX
p1317
aVrotateY
p1318
aVrotateZ
p1319
aVscaleX
p1320
aVscaleY
p1321
aVscaleZ
p1322
aaF0
aF0
aF0
aF0
aF-0
aF0
aF1
aF1
aF1
aa(lp1323
Veyelid_bott_r_anim
p1324
a(lp1325
VtranslateX
p1326
aVtranslateY
p1327
aVtranslateZ
p1328
aVrotateX
p1329
aVrotateY
p1330
aVrotateZ
p1331
aVscaleX
p1332
aVscaleY
p1333
aVscaleZ
p1334
aaF0
aF0
aF0
aF0
aF-0
aF0
aF1
aF1
aF1
aa(lp1335
Veyelid_top_l_anim
p1336
a(lp1337
VtranslateX
p1338
aVtranslateY
p1339
aVtranslateZ
p1340
aVrotateX
p1341
aVrotateY
p1342
aVrotateZ
p1343
aVscaleX
p1344
aVscaleY
p1345
aVscaleZ
p1346
aaF0
aF0
aF0
aF0
aF-0
aF0
aF1
aF1
aF1
aa(lp1347
Veyelid_top_r_anim
p1348
a(lp1349
VtranslateX
p1350
aVtranslateY
p1351
aVtranslateZ
p1352
aVrotateX
p1353
aVrotateY
p1354
aVrotateZ
p1355
aVscaleX
p1356
aVscaleY
p1357
aVscaleZ
p1358
aaF0
aF0
aF0
aF0
aF-0
aF0
aF1
aF1
aF1
aa(lp1359
Vgun_anim
p1360
a(lp1361
VtranslateX
p1362
aVtranslateY
p1363
aVtranslateZ
p1364
aVrotateX
p1365
aVrotateY
p1366
aVrotateZ
p1367
aVscaleX
p1368
aVscaleY
p1369
aVscaleZ
p1370
aaF0
aF0
aF0
aF0
aF0
aF0
aF1
aF1
aF1
aa(lp1371
Vgun_barrel_anim
p1372
a(lp1373
VtranslateX
p1374
aVtranslateY
p1375
aVtranslateZ
p1376
aVrotateX
p1377
aVrotateY
p1378
aVrotateZ
p1379
aVscaleX
p1380
aVscaleY
p1381
aVscaleZ
p1382
aaF0
aF0
aF0
aF0
aF-0
aF0
aF1
aF1
aF1
aa(lp1383
Vgun_barrel_inner_anim
p1384
a(lp1385
VtranslateX
p1386
aVtranslateY
p1387
aVtranslateZ
p1388
aVrotateX
p1389
aVrotateY
p1390
aVrotateZ
p1391
aVscaleX
p1392
aVscaleY
p1393
aVscaleZ
p1394
aaF0
aF0
aF0
aF0
aF-0
aF0
aF1
aF1
aF1
aa(lp1395
Vgun_body_panel_l_anim
p1396
a(lp1397
VtranslateX
p1398
aVtranslateY
p1399
aVtranslateZ
p1400
aVrotateX
p1401
aVrotateY
p1402
aVrotateZ
p1403
aVscaleX
p1404
aVscaleY
p1405
aVscaleZ
p1406
aaF0
aF0
aF0
aF0
aF-0
aF0
aF1
aF1
aF1
aa(lp1407
Vgun_body_panel_r_anim
p1408
a(lp1409
VtranslateX
p1410
aVtranslateY
p1411
aVtranslateZ
p1412
aVrotateX
p1413
aVrotateY
p1414
aVrotateZ
p1415
aVscaleX
p1416
aVscaleY
p1417
aVscaleZ
p1418
aaF0
aF0
aF0
aF0
aF-0
aF0
aF1
aF1
aF1
aa(lp1419
Vgun_scope_anim
p1420
a(lp1421
VtranslateX
p1422
aVtranslateY
p1423
aVtranslateZ
p1424
aVrotateX
p1425
aVrotateY
p1426
aVrotateZ
p1427
aVscaleX
p1428
aVscaleY
p1429
aVscaleZ
p1430
aaF0
aF0
aF0
aF0
aF-0
aF0
aF1
aF1
aF1
aa(lp1431
Vgun_stock_base_anim
p1432
a(lp1433
VtranslateX
p1434
aVtranslateY
p1435
aVtranslateZ
p1436
aVrotateX
p1437
aVrotateY
p1438
aVrotateZ
p1439
aVscaleX
p1440
aVscaleY
p1441
aVscaleZ
p1442
aaF0
aF0
aF0
aF0
aF-0
aF0
aF1
aF1
aF1
aa(lp1443
Vgun_stock_base_in_bott_anim
p1444
a(lp1445
VtranslateX
p1446
aVtranslateY
p1447
aVtranslateZ
p1448
aVrotateX
p1449
aVrotateY
p1450
aVrotateZ
p1451
aVscaleX
p1452
aVscaleY
p1453
aVscaleZ
p1454
aaF0
aF0
aF0
aF0
aF-0
aF0
aF1
aF1
aF1
aa(lp1455
Vgun_stock_base_in_top_anim
p1456
a(lp1457
VtranslateX
p1458
aVtranslateY
p1459
aVtranslateZ
p1460
aVrotateX
p1461
aVrotateY
p1462
aVrotateZ
p1463
aVscaleX
p1464
aVscaleY
p1465
aVscaleZ
p1466
aaF0
aF0
aF0
aF0
aF-0
aF0
aF1
aF1
aF1
aa(lp1467
Vgun_stock_base_out_bott_anim
p1468
a(lp1469
VtranslateX
p1470
aVtranslateY
p1471
aVtranslateZ
p1472
aVrotateX
p1473
aVrotateY
p1474
aVrotateZ
p1475
aVscaleX
p1476
aVscaleY
p1477
aVscaleZ
p1478
aaF0
aF0
aF0
aF0
aF-0
aF0
aF1
aF1
aF1
aa(lp1479
Vgun_stock_base_out_top_anim
p1480
a(lp1481
VtranslateX
p1482
aVtranslateY
p1483
aVtranslateZ
p1484
aVrotateX
p1485
aVrotateY
p1486
aVrotateZ
p1487
aVscaleX
p1488
aVscaleY
p1489
aVscaleZ
p1490
aaF0
aF0
aF0
aF0
aF-0
aF0
aF1
aF1
aF1
aa(lp1491
Vgun_stock_bott_anim
p1492
a(lp1493
VtranslateX
p1494
aVtranslateY
p1495
aVtranslateZ
p1496
aVrotateX
p1497
aVrotateY
p1498
aVrotateZ
p1499
aVscaleX
p1500
aVscaleY
p1501
aVscaleZ
p1502
aaF0
aF0
aF0
aF0
aF-0
aF0
aF1
aF1
aF1
aa(lp1503
Vgun_stock_in_bott_anim
p1504
a(lp1505
VtranslateX
p1506
aVtranslateY
p1507
aVtranslateZ
p1508
aVrotateX
p1509
aVrotateY
p1510
aVrotateZ
p1511
aVscaleX
p1512
aVscaleY
p1513
aVscaleZ
p1514
aaF0
aF0
aF0
aF0
aF-0
aF0
aF1
aF1
aF1
aa(lp1515
Vgun_stock_in_top_anim
p1516
a(lp1517
VtranslateX
p1518
aVtranslateY
p1519
aVtranslateZ
p1520
aVrotateX
p1521
aVrotateY
p1522
aVrotateZ
p1523
aVscaleX
p1524
aVscaleY
p1525
aVscaleZ
p1526
aaF0
aF0
aF0
aF0
aF-0
aF0
aF1
aF1
aF1
aa(lp1527
Vgun_stock_panel_l_anim
p1528
a(lp1529
VtranslateX
p1530
aVtranslateY
p1531
aVtranslateZ
p1532
aVrotateX
p1533
aVrotateY
p1534
aVrotateZ
p1535
aVscaleX
p1536
aVscaleY
p1537
aVscaleZ
p1538
aaF0
aF0
aF0
aF0
aF-0
aF0
aF1
aF1
aF1
aa(lp1539
Vgun_stock_panel_r_anim
p1540
a(lp1541
VtranslateX
p1542
aVtranslateY
p1543
aVtranslateZ
p1544
aVrotateX
p1545
aVrotateY
p1546
aVrotateZ
p1547
aVscaleX
p1548
aVscaleY
p1549
aVscaleZ
p1550
aaF0
aF0
aF0
aF0
aF-0
aF0
aF1
aF1
aF1
aa(lp1551
Vheel_plate_l_anim
p1552
a(lp1553
VtranslateX
p1554
aVtranslateY
p1555
aVtranslateZ
p1556
aVrotateX
p1557
aVrotateY
p1558
aVrotateZ
p1559
aVscaleX
p1560
aVscaleY
p1561
aVscaleZ
p1562
aaF0
aF0
aF0
aF0
aF-0
aF0
aF1
aF1
aF1
aa(lp1563
Vheel_plate_r_anim
p1564
a(lp1565
VtranslateX
p1566
aVtranslateY
p1567
aVtranslateZ
p1568
aVrotateX
p1569
aVrotateY
p1570
aVrotateZ
p1571
aVscaleX
p1572
aVscaleY
p1573
aVscaleZ
p1574
aaF0
aF0
aF0
aF0
aF-0
aF0
aF1
aF1
aF1
aa(lp1575
Vhelmet_sight_anim
p1576
a(lp1577
VtranslateX
p1578
aVtranslateY
p1579
aVtranslateZ
p1580
aVrotateX
p1581
aVrotateY
p1582
aVrotateZ
p1583
aVscaleX
p1584
aVscaleY
p1585
aVscaleZ
p1586
aaF0
aF0
aF0
aF0
aF-0
aF0
aF1
aF1
aF1
aa(lp1587
Vhip_pack_a_anim
p1588
a(lp1589
VtranslateX
p1590
aVtranslateY
p1591
aVtranslateZ
p1592
aVrotateX
p1593
aVrotateY
p1594
aVrotateZ
p1595
aVchainAttach
p1596
aVchainStartEnvelope
p1597
aVchainStartFrame
p1598
aVchainStiffness
p1599
aVchainDamping
p1600
aVchainGravity
p1601
aVchainIteration
p1602
aVchainCollide
p1603
aVchainWidthBase
p1604
aVchainWidthExtremity
p1605
aVchainCollideGround
p1606
aVchainCollideGroundHeight
p1607
aaF0
aF0
aF0
aF0
aF0
aF0
aI0
aF0
aF1
aF0
aF0
aF1
aI0
aI00
aF1
aF1
aI00
aF0
aa(lp1608
Vhip_pack_b_anim
p1609
a(lp1610
VtranslateX
p1611
aVtranslateY
p1612
aVtranslateZ
p1613
aVrotateX
p1614
aVrotateY
p1615
aVrotateZ
p1616
aVchainAttach
p1617
aVchainStartEnvelope
p1618
aVchainStartFrame
p1619
aVchainStiffness
p1620
aVchainDamping
p1621
aVchainGravity
p1622
aVchainIteration
p1623
aVchainCollide
p1624
aVchainWidthBase
p1625
aVchainWidthExtremity
p1626
aVchainCollideGround
p1627
aVchainCollideGroundHeight
p1628
aaF0
aF0
aF0
aF0
aF-0
aF0
aI0
aF0
aF1
aF0
aF0
aF1
aI0
aI00
aF1
aF1
aI00
aF0
aa(lp1629
Vhip_pack_c_anim
p1630
a(lp1631
VtranslateX
p1632
aVtranslateY
p1633
aVtranslateZ
p1634
aVrotateX
p1635
aVrotateY
p1636
aVrotateZ
p1637
aVchainAttach
p1638
aVchainStartEnvelope
p1639
aVchainStartFrame
p1640
aVchainStiffness
p1641
aVchainDamping
p1642
aVchainGravity
p1643
aVchainIteration
p1644
aVchainCollide
p1645
aVchainWidthBase
p1646
aVchainWidthExtremity
p1647
aVchainCollideGround
p1648
aVchainCollideGroundHeight
p1649
aaF0
aF0
aF0
aF0
aF0
aF0
aI0
aF0
aF1
aF0
aF0
aF1
aI0
aI00
aF1
aF1
aI00
aF0
aa(lp1650
Vhip_pack_d_anim
p1651
a(lp1652
VtranslateX
p1653
aVtranslateY
p1654
aVtranslateZ
p1655
aVrotateX
p1656
aVrotateY
p1657
aVrotateZ
p1658
aVchainAttach
p1659
aVchainStartEnvelope
p1660
aVchainStartFrame
p1661
aVchainStiffness
p1662
aVchainDamping
p1663
aVchainGravity
p1664
aVchainIteration
p1665
aVchainCollide
p1666
aVchainWidthBase
p1667
aVchainWidthExtremity
p1668
aVchainCollideGround
p1669
aVchainCollideGroundHeight
p1670
aaF0
aF0
aF0
aF0
aF-0
aF0
aI0
aF0
aF1
aF0
aF0
aF1
aI0
aI00
aF1
aF1
aI00
aF0
aa(lp1671
Vjaw_anim
p1672
a(lp1673
VtranslateX
p1674
aVtranslateY
p1675
aVtranslateZ
p1676
aVrotateX
p1677
aVrotateY
p1678
aVrotateZ
p1679
aVscaleX
p1680
aVscaleY
p1681
aVscaleZ
p1682
aaF0
aF0
aF0
aF0
aF-0
aF0
aF1
aF1
aF1
aa(lp1683
Vmask_anim
p1684
a(lp1685
VtranslateX
p1686
aVtranslateY
p1687
aVtranslateZ
p1688
aVrotateX
p1689
aVrotateY
p1690
aVrotateZ
p1691
aVscaleX
p1692
aVscaleY
p1693
aVscaleZ
p1694
aaF0
aF0
aF0
aF0
aF-0
aF0
aF1
aF1
aF1
aa(lp1695
Vpack_hose_in_anim
p1696
a(lp1697
VtranslateX
p1698
aVtranslateY
p1699
aVtranslateZ
p1700
aVrotateX
p1701
aVrotateY
p1702
aVrotateZ
p1703
aVscaleX
p1704
aVscaleY
p1705
aVscaleZ
p1706
aaF0
aF0
aF0
aF0
aF-0
aF0
aF1
aF1
aF1
aa(lp1707
Vpack_hose_out_anim
p1708
a(lp1709
VtranslateX
p1710
aVtranslateY
p1711
aVtranslateZ
p1712
aVrotateX
p1713
aVrotateY
p1714
aVrotateZ
p1715
aVscaleX
p1716
aVscaleY
p1717
aVscaleZ
p1718
aaF0
aF0
aF0
aF0
aF-0
aF0
aF1
aF1
aF1
aa(lp1719
Vshotgun_anim
p1720
a(lp1721
VtranslateX
p1722
aVtranslateY
p1723
aVtranslateZ
p1724
aVrotateX
p1725
aVrotateY
p1726
aVrotateZ
p1727
aVscaleX
p1728
aVscaleY
p1729
aVscaleZ
p1730
aVshotgun_rotate
p1731
aVshotgun_rail
p1732
aaF0
aF0
aF0
aF0
aF-0
aF0
aF1
aF1
aF1
aF0
aF0
aa(lp1733
Vshotgun_base_anim
p1734
a(lp1735
VtranslateX
p1736
aVtranslateY
p1737
aVtranslateZ
p1738
aVrotateX
p1739
aVrotateY
p1740
aVrotateZ
p1741
aVscaleX
p1742
aVscaleY
p1743
aVscaleZ
p1744
aaF0
aF0
aF0
aF0
aF-0
aF0
aF1
aF1
aF1
aa(lp1745
Vshotgun_clip_anim
p1746
a(lp1747
VtranslateX
p1748
aVtranslateY
p1749
aVtranslateZ
p1750
aVrotateX
p1751
aVrotateY
p1752
aVrotateZ
p1753
aVscaleX
p1754
aVscaleY
p1755
aVscaleZ
p1756
aaF0
aF0
aF0
aF0
aF-0
aF0
aF1
aF1
aF1
aa(lp1757
Vsniper_can_arm_01_anim
p1758
a(lp1759
VtranslateX
p1760
aVtranslateY
p1761
aVtranslateZ
p1762
aVrotateX
p1763
aVrotateY
p1764
aVrotateZ
p1765
aVscaleX
p1766
aVscaleY
p1767
aVscaleZ
p1768
aaF0.19710507874797717
aF1.6276432578952627
aF-3.3012431529511255
aF-0.8354861449993215
aF7.4764276967211902
aF-0.10871960112610195
aF1
aF1
aF1
aa(lp1769
Vsniper_can_arm_02_anim
p1770
a(lp1771
VtranslateX
p1772
aVtranslateY
p1773
aVtranslateZ
p1774
aVrotateX
p1775
aVrotateY
p1776
aVrotateZ
p1777
aVscaleX
p1778
aVscaleY
p1779
aVscaleZ
p1780
aaF0
aF0
aF0
aF0
aF-0
aF0
aF1
aF1
aF1
aa(lp1781
Vsniper_can_arm_03_anim
p1782
a(lp1783
VtranslateX
p1784
aVtranslateY
p1785
aVtranslateZ
p1786
aVrotateX
p1787
aVrotateY
p1788
aVrotateZ
p1789
aVscaleX
p1790
aVscaleY
p1791
aVscaleZ
p1792
aaF0
aF0
aF0
aF0
aF-0
aF0
aF1
aF1
aF1
aa(lp1793
Vtrap_handle_anim
p1794
a(lp1795
VtranslateX
p1796
aVtranslateY
p1797
aVtranslateZ
p1798
aVrotateX
p1799
aVrotateY
p1800
aVrotateZ
p1801
aVscaleX
p1802
aVscaleY
p1803
aVscaleZ
p1804
aaF0
aF0
aF0
aF0
aF0
aF0
aF1
aF1
aF1
aa(lp1805
Vwrist_cover_anim
p1806
a(lp1807
VtranslateX
p1808
aVtranslateY
p1809
aVtranslateZ
p1810
aVrotateX
p1811
aVrotateY
p1812
aVrotateZ
p1813
aVscaleX
p1814
aVscaleY
p1815
aVscaleZ
p1816
aaF0
aF0
aF0
aF0
aF-0
aF0
aF1
aF1
aF1
aa(lp1817
Vankle_plate_in_l_anim_space_switcher
p1818
a(lp1819
Vvisibility
p1820
aVtranslateX
p1821
aVtranslateY
p1822
aVtranslateZ
p1823
aVrotateX
p1824
aVrotateY
p1825
aVrotateZ
p1826
aVscaleX
p1827
aVscaleY
p1828
aVscaleZ
p1829
aVspace_world
p1830
aaI01
aF0
aF0
aF0
aF0
aF0
aF0
aF1
aF1
aF1
aF0
aa(lp1831
Vankle_plate_in_r_anim_space_switcher
p1832
a(lp1833
Vvisibility
p1834
aVtranslateX
p1835
aVtranslateY
p1836
aVtranslateZ
p1837
aVrotateX
p1838
aVrotateY
p1839
aVrotateZ
p1840
aVscaleX
p1841
aVscaleY
p1842
aVscaleZ
p1843
aVspace_world
p1844
aaI01
aF0
aF0
aF0
aF0
aF0
aF0
aF1
aF1
aF1
aF0
aa(lp1845
Vankle_plate_out_l_anim_space_switcher
p1846
a(lp1847
Vvisibility
p1848
aVtranslateX
p1849
aVtranslateY
p1850
aVtranslateZ
p1851
aVrotateX
p1852
aVrotateY
p1853
aVrotateZ
p1854
aVscaleX
p1855
aVscaleY
p1856
aVscaleZ
p1857
aVspace_world
p1858
aaI01
aF0
aF0
aF0
aF0
aF0
aF0
aF1
aF1
aF1
aF0
aa(lp1859
Vankle_plate_out_r_anim_space_switcher
p1860
a(lp1861
Vvisibility
p1862
aVtranslateX
p1863
aVtranslateY
p1864
aVtranslateZ
p1865
aVrotateX
p1866
aVrotateY
p1867
aVrotateZ
p1868
aVscaleX
p1869
aVscaleY
p1870
aVscaleZ
p1871
aVspace_world
p1872
aaI01
aF0
aF0
aF0
aF0
aF0
aF0
aF1
aF1
aF1
aF0
aa(lp1873
Varm_hose_bott_anim_space_switcher
p1874
a(lp1875
Vvisibility
p1876
aVtranslateX
p1877
aVtranslateY
p1878
aVtranslateZ
p1879
aVrotateX
p1880
aVrotateY
p1881
aVrotateZ
p1882
aVscaleX
p1883
aVscaleY
p1884
aVscaleZ
p1885
aVspace_world
p1886
aaI01
aF0
aF0
aF0
aF0
aF0
aF0
aF1
aF1
aF1
aF0
aa(lp1887
Varm_hose_top_anim_space_switcher
p1888
a(lp1889
Vvisibility
p1890
aVtranslateX
p1891
aVtranslateY
p1892
aVtranslateZ
p1893
aVrotateX
p1894
aVrotateY
p1895
aVrotateZ
p1896
aVscaleX
p1897
aVscaleY
p1898
aVscaleZ
p1899
aVspace_world
p1900
aaI01
aF0
aF0
aF0
aF0
aF0
aF0
aF1
aF1
aF1
aF0
aa(lp1901
Varm_pouch_l_anim_space_switcher
p1902
a(lp1903
Vvisibility
p1904
aVtranslateX
p1905
aVtranslateY
p1906
aVtranslateZ
p1907
aVrotateX
p1908
aVrotateY
p1909
aVrotateZ
p1910
aVscaleX
p1911
aVscaleY
p1912
aVscaleZ
p1913
aVspace_world
p1914
aaI01
aF0
aF0
aF0
aF0
aF0
aF0
aF1
aF1
aF1
aF0
aa(lp1915
Vbody_anim_space_switcher
p1916
a(lp1917
Vvisibility
p1918
aVtranslateX
p1919
aVtranslateY
p1920
aVtranslateZ
p1921
aVrotateX
p1922
aVrotateY
p1923
aVrotateZ
p1924
aVscaleX
p1925
aVscaleY
p1926
aVscaleZ
p1927
aVspace_world
p1928
aaI01
aF0
aF0
aF0
aF0
aF0
aF0
aF1
aF1
aF1
aF0
aa(lp1929
Vbot_hand_anim_space_switcher
p1930
a(lp1931
Vvisibility
p1932
aVtranslateX
p1933
aVtranslateY
p1934
aVtranslateZ
p1935
aVrotateX
p1936
aVrotateY
p1937
aVrotateZ
p1938
aVscaleX
p1939
aVscaleY
p1940
aVscaleZ
p1941
aVspace_world
p1942
aaI01
aF2.8421709430404007e-14
aF7.1054273576010019e-15
aF1.4210854715202004e-14
aF-1.5902773407317584e-15
aF-0
aF0
aF1
aF1
aF1
aF0
aa(lp1943
Vbot_loarm_anim_space_switcher
p1944
a(lp1945
Vvisibility
p1946
aVtranslateX
p1947
aVtranslateY
p1948
aVtranslateZ
p1949
aVrotateX
p1950
aVrotateY
p1951
aVrotateZ
p1952
aVscaleX
p1953
aVscaleY
p1954
aVscaleZ
p1955
aVspace_world
p1956
aaI01
aF0
aF-7.1054273576010019e-15
aF-2.8421709430404007e-14
aF0
aF-0
aF6.2120208622334312e-18
aF1
aF1
aF1
aF0
aa(lp1957
Vbot_loarm_pistonB_bot_anim_space_switcher
p1958
a(lp1959
Vvisibility
p1960
aVtranslateX
p1961
aVtranslateY
p1962
aVtranslateZ
p1963
aVrotateX
p1964
aVrotateY
p1965
aVrotateZ
p1966
aVscaleX
p1967
aVscaleY
p1968
aVscaleZ
p1969
aVspace_world
p1970
aaI01
aF0
aF0
aF0
aF0
aF1.490885006936023e-16
aF3.975693351829395e-16
aF1.0000000000000002
aF1.0000000000000002
aF1.0000000000000002
aF0
aa(lp1971
Vbot_loarm_pistonB_top_anim_space_switcher
p1972
a(lp1973
Vvisibility
p1974
aVtranslateX
p1975
aVtranslateY
p1976
aVtranslateZ
p1977
aVrotateX
p1978
aVrotateY
p1979
aVrotateZ
p1980
aVscaleX
p1981
aVscaleY
p1982
aVscaleZ
p1983
aVspace_world
p1984
aaI01
aF0
aF0
aF0
aF-3.1805546814635168e-15
aF9.9392333795734899e-17
aF0
aF1
aF1
aF1
aF0
aa(lp1985
Vbot_loarm_pistonC_bot_anim_space_switcher
p1986
a(lp1987
Vvisibility
p1988
aVtranslateX
p1989
aVtranslateY
p1990
aVtranslateZ
p1991
aVrotateX
p1992
aVrotateY
p1993
aVrotateZ
p1994
aVscaleX
p1995
aVscaleY
p1996
aVscaleZ
p1997
aVspace_world
p1998
aaI01
aF-7.1054273576010019e-15
aF3.5527136788005009e-15
aF2.8421709430404007e-14
aF0
aF-1.5902773407317588e-15
aF-1.9878466759146985e-16
aF0.99999999999999989
aF0.99999999999999989
aF1
aF0
aa(lp1999
Vbot_loarm_pistonC_top_anim_space_switcher
p2000
a(lp2001
Vvisibility
p2002
aVtranslateX
p2003
aVtranslateY
p2004
aVtranslateZ
p2005
aVrotateX
p2006
aVrotateY
p2007
aVrotateZ
p2008
aVscaleX
p2009
aVscaleY
p2010
aVscaleZ
p2011
aVspace_world
p2012
aaI01
aF0
aF0
aF-2.8421709430404007e-14
aF0
aF-0
aF9.9392333795734899e-16
aF1
aF1
aF1
aF0
aa(lp2013
Vbot_loarm_pistonD_bot_anim_space_switcher
p2014
a(lp2015
Vvisibility
p2016
aVtranslateX
p2017
aVtranslateY
p2018
aVtranslateZ
p2019
aVrotateX
p2020
aVrotateY
p2021
aVrotateZ
p2022
aVscaleX
p2023
aVscaleY
p2024
aVscaleZ
p2025
aVspace_world
p2026
aaI01
aF0
aF-2.2204460492503131e-16
aF0
aF7.9513867036587919e-16
aF-0
aF4.7708320221952752e-15
aF1
aF1
aF1
aF0
aa(lp2027
Vbot_loarm_pistonD_top_anim_space_switcher
p2028
a(lp2029
Vvisibility
p2030
aVtranslateX
p2031
aVtranslateY
p2032
aVtranslateZ
p2033
aVrotateX
p2034
aVrotateY
p2035
aVrotateZ
p2036
aVscaleX
p2037
aVscaleY
p2038
aVscaleZ
p2039
aVspace_world
p2040
aaI01
aF-1.4210854715202004e-14
aF0
aF0
aF0
aF2.3854160110976376e-15
aF1.5902773407317584e-15
aF1
aF1
aF0.99999999999999978
aF0
aa(lp2041
Vbot_loarm_twist_anim_space_switcher
p2042
a(lp2043
Vvisibility
p2044
aVtranslateX
p2045
aVtranslateY
p2046
aVtranslateZ
p2047
aVrotateX
p2048
aVrotateY
p2049
aVrotateZ
p2050
aVscaleX
p2051
aVscaleY
p2052
aVscaleZ
p2053
aVspace_world
p2054
aVblendOrient1
p2055
aaI01
aF0
aF0
aF0
aF-17.215199412839937
aF-0.14840456554139558
aF-0.22102747214823779
aF1
aF1
aF1
aF0
aF0
aa(lp2056
Vbot_uparm_anim_space_switcher
p2057
a(lp2058
Vvisibility
p2059
aVtranslateX
p2060
aVtranslateY
p2061
aVtranslateZ
p2062
aVrotateX
p2063
aVrotateY
p2064
aVrotateZ
p2065
aVscaleX
p2066
aVscaleY
p2067
aVscaleZ
p2068
aVspace_world
p2069
aaI01
aF3.5527136788005009e-15
aF0
aF0
aF-7.9513867036587939e-16
aF-0
aF5.9635400277440959e-16
aF0.99999999999999989
aF0.99999999999999978
aF0.99999999999999989
aF0
aa(lp2070
Vbot_uparm_pistonC_bot_anim_space_switcher
p2071
a(lp2072
Vvisibility
p2073
aVtranslateX
p2074
aVtranslateY
p2075
aVtranslateZ
p2076
aVrotateX
p2077
aVrotateY
p2078
aVrotateZ
p2079
aVscaleX
p2080
aVscaleY
p2081
aVscaleZ
p2082
aVspace_world
p2083
aaI01
aF-1.4210854715202004e-14
aF2.8421709430404007e-14
aF-7.1054273576010019e-15
aF3.1805546814635168e-15
aF7.9513867036587919e-16
aF-1.5902773407317584e-15
aF1
aF1
aF1
aF0
aa(lp2084
Vbot_uparm_pistonC_top_anim_space_switcher
p2085
a(lp2086
Vvisibility
p2087
aVtranslateX
p2088
aVtranslateY
p2089
aVtranslateZ
p2090
aVrotateX
p2091
aVrotateY
p2092
aVrotateZ
p2093
aVscaleX
p2094
aVscaleY
p2095
aVscaleZ
p2096
aVspace_world
p2097
aaI01
aF-1.4210854715202004e-14
aF1.7763568394002505e-15
aF0
aF0
aF1.5902773407317584e-15
aF7.9513867036587919e-16
aF1
aF1
aF1
aF0
aa(lp2098
Vchest_ik_anim_space_switcher
p2099
a(lp2100
Vvisibility
p2101
aVtranslateX
p2102
aVtranslateY
p2103
aVtranslateZ
p2104
aVrotateX
p2105
aVrotateY
p2106
aVrotateZ
p2107
aVscaleX
p2108
aVscaleY
p2109
aVscaleZ
p2110
aVspace_world
p2111
aVspace_chest_ik_world_aligned
p2112
aaI01
aF0
aF0
aF0
aF0
aF0
aF0
aF1
aF1
aF1
aF0
aF0
aa(lp2113
Veyeball_l_anim_space_switcher
p2114
a(lp2115
Vvisibility
p2116
aVtranslateX
p2117
aVtranslateY
p2118
aVtranslateZ
p2119
aVrotateX
p2120
aVrotateY
p2121
aVrotateZ
p2122
aVscaleX
p2123
aVscaleY
p2124
aVscaleZ
p2125
aVspace_world
p2126
aaI01
aF0
aF0
aF0
aF0
aF0
aF0
aF1
aF1
aF1
aF0
aa(lp2127
Veyeball_r_anim_space_switcher
p2128
a(lp2129
Vvisibility
p2130
aVtranslateX
p2131
aVtranslateY
p2132
aVtranslateZ
p2133
aVrotateX
p2134
aVrotateY
p2135
aVrotateZ
p2136
aVscaleX
p2137
aVscaleY
p2138
aVscaleZ
p2139
aVspace_world
p2140
aaI01
aF0
aF0
aF0
aF0
aF0
aF0
aF1
aF1
aF1
aF0
aa(lp2141
Veyebrow_in_l_anim_space_switcher
p2142
a(lp2143
Vvisibility
p2144
aVtranslateX
p2145
aVtranslateY
p2146
aVtranslateZ
p2147
aVrotateX
p2148
aVrotateY
p2149
aVrotateZ
p2150
aVscaleX
p2151
aVscaleY
p2152
aVscaleZ
p2153
aVspace_world
p2154
aaI01
aF0
aF0
aF0
aF0
aF0
aF0
aF1
aF1
aF1
aF0
aa(lp2155
Veyebrow_in_r_anim_space_switcher
p2156
a(lp2157
Vvisibility
p2158
aVtranslateX
p2159
aVtranslateY
p2160
aVtranslateZ
p2161
aVrotateX
p2162
aVrotateY
p2163
aVrotateZ
p2164
aVscaleX
p2165
aVscaleY
p2166
aVscaleZ
p2167
aVspace_world
p2168
aaI01
aF0
aF0
aF0
aF0
aF0
aF0
aF1
aF1
aF1
aF0
aa(lp2169
Veyebrow_out_l_anim_space_switcher
p2170
a(lp2171
Vvisibility
p2172
aVtranslateX
p2173
aVtranslateY
p2174
aVtranslateZ
p2175
aVrotateX
p2176
aVrotateY
p2177
aVrotateZ
p2178
aVscaleX
p2179
aVscaleY
p2180
aVscaleZ
p2181
aVspace_world
p2182
aaI01
aF0
aF0
aF0
aF0
aF0
aF0
aF1
aF1
aF1
aF0
aa(lp2183
Veyebrow_out_r_anim_space_switcher
p2184
a(lp2185
Vvisibility
p2186
aVtranslateX
p2187
aVtranslateY
p2188
aVtranslateZ
p2189
aVrotateX
p2190
aVrotateY
p2191
aVrotateZ
p2192
aVscaleX
p2193
aVscaleY
p2194
aVscaleZ
p2195
aVspace_world
p2196
aaI01
aF0
aF0
aF0
aF0
aF0
aF0
aF1
aF1
aF1
aF0
aa(lp2197
Veyelid_bott_l_anim_space_switcher
p2198
a(lp2199
Vvisibility
p2200
aVtranslateX
p2201
aVtranslateY
p2202
aVtranslateZ
p2203
aVrotateX
p2204
aVrotateY
p2205
aVrotateZ
p2206
aVscaleX
p2207
aVscaleY
p2208
aVscaleZ
p2209
aVspace_world
p2210
aaI01
aF0
aF0
aF0
aF0
aF0
aF0
aF1
aF1
aF1
aF0
aa(lp2211
Veyelid_bott_r_anim_space_switcher
p2212
a(lp2213
Vvisibility
p2214
aVtranslateX
p2215
aVtranslateY
p2216
aVtranslateZ
p2217
aVrotateX
p2218
aVrotateY
p2219
aVrotateZ
p2220
aVscaleX
p2221
aVscaleY
p2222
aVscaleZ
p2223
aVspace_world
p2224
aaI01
aF0
aF0
aF0
aF0
aF0
aF0
aF1
aF1
aF1
aF0
aa(lp2225
Veyelid_top_l_anim_space_switcher
p2226
a(lp2227
Vvisibility
p2228
aVtranslateX
p2229
aVtranslateY
p2230
aVtranslateZ
p2231
aVrotateX
p2232
aVrotateY
p2233
aVrotateZ
p2234
aVscaleX
p2235
aVscaleY
p2236
aVscaleZ
p2237
aVspace_world
p2238
aaI01
aF0
aF0
aF0
aF0
aF0
aF0
aF1
aF1
aF1
aF0
aa(lp2239
Veyelid_top_r_anim_space_switcher
p2240
a(lp2241
Vvisibility
p2242
aVtranslateX
p2243
aVtranslateY
p2244
aVtranslateZ
p2245
aVrotateX
p2246
aVrotateY
p2247
aVrotateZ
p2248
aVscaleX
p2249
aVscaleY
p2250
aVscaleZ
p2251
aVspace_world
p2252
aaI01
aF0
aF0
aF0
aF0
aF0
aF0
aF1
aF1
aF1
aF0
aa(lp2253
Vgun_anim_space_switcher
p2254
a(lp2255
Vvisibility
p2256
aVtranslateX
p2257
aVtranslateY
p2258
aVtranslateZ
p2259
aVrotateX
p2260
aVrotateY
p2261
aVrotateZ
p2262
aVscaleX
p2263
aVscaleY
p2264
aVscaleZ
p2265
aVspace_world
p2266
aaI01
aF2.8421709430404007e-14
aF4.4408920985006262e-16
aF0
aF3.7272125173400599e-17
aF-0
aF0
aF0.99999999999999989
aF0.99999999999999989
aF0.99999999999999989
aF0
aa(lp2267
Vgun_barrel_anim_space_switcher
p2268
a(lp2269
Vvisibility
p2270
aVtranslateX
p2271
aVtranslateY
p2272
aVtranslateZ
p2273
aVrotateX
p2274
aVrotateY
p2275
aVrotateZ
p2276
aVscaleX
p2277
aVscaleY
p2278
aVscaleZ
p2279
aVspace_world
p2280
aaI01
aF0
aF-1.7763568394002505e-15
aF-2.8421709430404007e-14
aF-1.1181637552020177e-16
aF1.9878466759146975e-16
aF-7.9513867036587899e-16
aF1.0000000000000002
aF1
aF1.0000000000000002
aF0
aa(lp2281
Vgun_barrel_inner_anim_space_switcher
p2282
a(lp2283
Vvisibility
p2284
aVtranslateX
p2285
aVtranslateY
p2286
aVtranslateZ
p2287
aVrotateX
p2288
aVrotateY
p2289
aVrotateZ
p2290
aVscaleX
p2291
aVscaleY
p2292
aVscaleZ
p2293
aVspace_world
p2294
aaI01
aF0
aF0
aF0
aF0
aF0
aF0
aF1
aF1
aF1
aF0
aa(lp2295
Vgun_body_panel_l_anim_space_switcher
p2296
a(lp2297
Vvisibility
p2298
aVtranslateX
p2299
aVtranslateY
p2300
aVtranslateZ
p2301
aVrotateX
p2302
aVrotateY
p2303
aVrotateZ
p2304
aVscaleX
p2305
aVscaleY
p2306
aVscaleZ
p2307
aVspace_world
p2308
aaI01
aF0
aF0
aF0
aF0
aF0
aF0
aF1
aF1
aF1
aF0
aa(lp2309
Vgun_body_panel_r_anim_space_switcher
p2310
a(lp2311
Vvisibility
p2312
aVtranslateX
p2313
aVtranslateY
p2314
aVtranslateZ
p2315
aVrotateX
p2316
aVrotateY
p2317
aVrotateZ
p2318
aVscaleX
p2319
aVscaleY
p2320
aVscaleZ
p2321
aVspace_world
p2322
aaI01
aF0
aF0
aF0
aF0
aF0
aF0
aF1
aF1
aF1
aF0
aa(lp2323
Vgun_scope_anim_space_switcher
p2324
a(lp2325
Vvisibility
p2326
aVtranslateX
p2327
aVtranslateY
p2328
aVtranslateZ
p2329
aVrotateX
p2330
aVrotateY
p2331
aVrotateZ
p2332
aVscaleX
p2333
aVscaleY
p2334
aVscaleZ
p2335
aVspace_world
p2336
aaI01
aF2.8421709430404007e-14
aF0
aF-2.8421709430404007e-14
aF-1.1181637552020177e-16
aF1.9878466759146975e-16
aF-7.9513867036587899e-16
aF1.0000000000000002
aF1
aF1.0000000000000002
aF0
aa(lp2337
Vgun_stock_base_anim_space_switcher
p2338
a(lp2339
Vvisibility
p2340
aVtranslateX
p2341
aVtranslateY
p2342
aVtranslateZ
p2343
aVrotateX
p2344
aVrotateY
p2345
aVrotateZ
p2346
aVscaleX
p2347
aVscaleY
p2348
aVscaleZ
p2349
aVspace_world
p2350
aaI01
aF0
aF0
aF0
aF0
aF0
aF0
aF1
aF1
aF1
aF0
aa(lp2351
Vgun_stock_base_in_bott_anim_space_switcher
p2352
a(lp2353
Vvisibility
p2354
aVtranslateX
p2355
aVtranslateY
p2356
aVtranslateZ
p2357
aVrotateX
p2358
aVrotateY
p2359
aVrotateZ
p2360
aVscaleX
p2361
aVscaleY
p2362
aVscaleZ
p2363
aVspace_world
p2364
aaI01
aF0
aF0
aF0
aF0
aF0
aF0
aF1
aF1
aF1
aF0
aa(lp2365
Vgun_stock_base_in_top_anim_space_switcher
p2366
a(lp2367
Vvisibility
p2368
aVtranslateX
p2369
aVtranslateY
p2370
aVtranslateZ
p2371
aVrotateX
p2372
aVrotateY
p2373
aVrotateZ
p2374
aVscaleX
p2375
aVscaleY
p2376
aVscaleZ
p2377
aVspace_world
p2378
aaI01
aF0
aF0
aF0
aF0
aF0
aF0
aF1
aF1
aF1
aF0
aa(lp2379
Vgun_stock_base_out_bott_anim_space_switcher
p2380
a(lp2381
Vvisibility
p2382
aVtranslateX
p2383
aVtranslateY
p2384
aVtranslateZ
p2385
aVrotateX
p2386
aVrotateY
p2387
aVrotateZ
p2388
aVscaleX
p2389
aVscaleY
p2390
aVscaleZ
p2391
aVspace_world
p2392
aaI01
aF0
aF0
aF0
aF0
aF0
aF0
aF1
aF1
aF1
aF0
aa(lp2393
Vgun_stock_base_out_top_anim_space_switcher
p2394
a(lp2395
Vvisibility
p2396
aVtranslateX
p2397
aVtranslateY
p2398
aVtranslateZ
p2399
aVrotateX
p2400
aVrotateY
p2401
aVrotateZ
p2402
aVscaleX
p2403
aVscaleY
p2404
aVscaleZ
p2405
aVspace_world
p2406
aaI01
aF0
aF0
aF0
aF0
aF0
aF0
aF1
aF1
aF1
aF0
aa(lp2407
Vgun_stock_bott_anim_space_switcher
p2408
a(lp2409
Vvisibility
p2410
aVtranslateX
p2411
aVtranslateY
p2412
aVtranslateZ
p2413
aVrotateX
p2414
aVrotateY
p2415
aVrotateZ
p2416
aVscaleX
p2417
aVscaleY
p2418
aVscaleZ
p2419
aVspace_world
p2420
aaI01
aF0
aF1.7798262863522041e-15
aF0
aF-6.2120208622334324e-17
aF-0
aF7.9513867036587939e-16
aF0.99999999999999989
aF0.99999999999999989
aF0.99999999999999989
aF0
aa(lp2421
Vgun_stock_in_bott_anim_space_switcher
p2422
a(lp2423
Vvisibility
p2424
aVtranslateX
p2425
aVtranslateY
p2426
aVtranslateZ
p2427
aVrotateX
p2428
aVrotateY
p2429
aVrotateZ
p2430
aVscaleX
p2431
aVscaleY
p2432
aVscaleZ
p2433
aVspace_world
p2434
aaI01
aF0
aF0
aF0
aF0
aF0
aF0
aF1
aF1
aF1
aF0
aa(lp2435
Vgun_stock_in_top_anim_space_switcher
p2436
a(lp2437
Vvisibility
p2438
aVtranslateX
p2439
aVtranslateY
p2440
aVtranslateZ
p2441
aVrotateX
p2442
aVrotateY
p2443
aVrotateZ
p2444
aVscaleX
p2445
aVscaleY
p2446
aVscaleZ
p2447
aVspace_world
p2448
aaI01
aF0
aF0
aF0
aF0
aF0
aF0
aF1
aF1
aF1
aF0
aa(lp2449
Vgun_stock_panel_l_anim_space_switcher
p2450
a(lp2451
Vvisibility
p2452
aVtranslateX
p2453
aVtranslateY
p2454
aVtranslateZ
p2455
aVrotateX
p2456
aVrotateY
p2457
aVrotateZ
p2458
aVscaleX
p2459
aVscaleY
p2460
aVscaleZ
p2461
aVspace_world
p2462
aaI01
aF2.8421709430404007e-14
aF0
aF-2.8421709430404007e-14
aF-6.2120208622334324e-17
aF-0
aF7.9513867036587939e-16
aF0.99999999999999989
aF0.99999999999999989
aF0.99999999999999989
aF0
aa(lp2463
Vgun_stock_panel_r_anim_space_switcher
p2464
a(lp2465
Vvisibility
p2466
aVtranslateX
p2467
aVtranslateY
p2468
aVtranslateZ
p2469
aVrotateX
p2470
aVrotateY
p2471
aVrotateZ
p2472
aVscaleX
p2473
aVscaleY
p2474
aVscaleZ
p2475
aVspace_world
p2476
aaI01
aF2.8421709430404007e-14
aF0
aF2.8421709430404007e-14
aF0
aF1.9878466759146985e-16
aF7.9513867036587939e-16
aF0.99999999999999989
aF0.99999999999999989
aF0.99999999999999989
aF0
aa(lp2477
Vheel_plate_l_anim_space_switcher
p2478
a(lp2479
Vvisibility
p2480
aVtranslateX
p2481
aVtranslateY
p2482
aVtranslateZ
p2483
aVrotateX
p2484
aVrotateY
p2485
aVrotateZ
p2486
aVscaleX
p2487
aVscaleY
p2488
aVscaleZ
p2489
aVspace_world
p2490
aaI01
aF0
aF0
aF0
aF0
aF0
aF0
aF1
aF1
aF1
aF0
aa(lp2491
Vheel_plate_r_anim_space_switcher
p2492
a(lp2493
Vvisibility
p2494
aVtranslateX
p2495
aVtranslateY
p2496
aVtranslateZ
p2497
aVrotateX
p2498
aVrotateY
p2499
aVrotateZ
p2500
aVscaleX
p2501
aVscaleY
p2502
aVscaleZ
p2503
aVspace_world
p2504
aaI01
aF0
aF0
aF0
aF0
aF0
aF0
aF1
aF1
aF1
aF0
aa(lp2505
Vhelmet_sight_anim_space_switcher
p2506
a(lp2507
Vvisibility
p2508
aVtranslateX
p2509
aVtranslateY
p2510
aVtranslateZ
p2511
aVrotateX
p2512
aVrotateY
p2513
aVrotateZ
p2514
aVscaleX
p2515
aVscaleY
p2516
aVscaleZ
p2517
aVspace_world
p2518
aaI01
aF0
aF0
aF0
aF0
aF0
aF0
aF1
aF1
aF1
aF0
aa(lp2519
Vik_elbow_l_anim_space_switcher
p2520
a(lp2521
Vvisibility
p2522
aVtranslateX
p2523
aVtranslateY
p2524
aVtranslateZ
p2525
aVrotateX
p2526
aVrotateY
p2527
aVrotateZ
p2528
aVscaleX
p2529
aVscaleY
p2530
aVscaleZ
p2531
aVspace_world
p2532
aVspace_body_anim
p2533
aVspace_chest_ik_anim
p2534
aaI01
aF0
aF0
aF0
aF0
aF0
aF0
aF1
aF1
aF1
aF0
aF0
aF0
aa(lp2535
Vik_elbow_r_anim_space_switcher
p2536
a(lp2537
Vvisibility
p2538
aVtranslateX
p2539
aVtranslateY
p2540
aVtranslateZ
p2541
aVrotateX
p2542
aVrotateY
p2543
aVrotateZ
p2544
aVscaleX
p2545
aVscaleY
p2546
aVscaleZ
p2547
aVspace_world
p2548
aVspace_body_anim
p2549
aVspace_chest_ik_anim
p2550
aaI01
aF0
aF0
aF0
aF0
aF0
aF0
aF1
aF1
aF1
aF0
aF0
aF0
aa(lp2551
Vik_foot_anim_l_space_switcher
p2552
a(lp2553
Vvisibility
p2554
aVtranslateX
p2555
aVtranslateY
p2556
aVtranslateZ
p2557
aVrotateX
p2558
aVrotateY
p2559
aVrotateZ
p2560
aVscaleX
p2561
aVscaleY
p2562
aVscaleZ
p2563
aVspace_world
p2564
aVspace_body_anim
p2565
aaI01
aF0
aF0
aF0
aF0
aF0
aF0
aF1
aF1
aF1
aF0
aF0
aa(lp2566
Vik_foot_anim_r_space_switcher
p2567
a(lp2568
Vvisibility
p2569
aVtranslateX
p2570
aVtranslateY
p2571
aVtranslateZ
p2572
aVrotateX
p2573
aVrotateY
p2574
aVrotateZ
p2575
aVscaleX
p2576
aVscaleY
p2577
aVscaleZ
p2578
aVspace_world
p2579
aVspace_body_anim
p2580
aaI01
aF0
aF0
aF0
aF0
aF0
aF0
aF1
aF1
aF1
aF0
aF0
aa(lp2581
Vik_wrist_l_anim_space_switcher
p2582
a(lp2583
Vvisibility
p2584
aVtranslateX
p2585
aVtranslateY
p2586
aVtranslateZ
p2587
aVrotateX
p2588
aVrotateY
p2589
aVrotateZ
p2590
aVscaleX
p2591
aVscaleY
p2592
aVscaleZ
p2593
aVspace_world
p2594
aVspace_body_anim
p2595
aVspace_head_fk_anim
p2596
aVspace_chest_ik_anim
p2597
aVspace_driver_gun_stock_bott
p2598
aaI01
aF0
aF0
aF0
aF0
aF0
aF0
aF1
aF1
aF1
aF0
aF0
aF0
aF0
aF0
aa(lp2599
Vik_wrist_r_anim_space_switcher
p2600
a(lp2601
Vvisibility
p2602
aVtranslateX
p2603
aVtranslateY
p2604
aVtranslateZ
p2605
aVrotateX
p2606
aVrotateY
p2607
aVrotateZ
p2608
aVscaleX
p2609
aVscaleY
p2610
aVscaleZ
p2611
aVspace_world
p2612
aVspace_body_anim
p2613
aVspace_head_fk_anim
p2614
aVspace_chest_ik_anim
p2615
aaI01
aF0
aF0
aF0
aF0
aF0
aF0
aF1
aF1
aF1
aF0
aF0
aF0
aF0
aa(lp2616
Vjaw_anim_space_switcher
p2617
a(lp2618
Vvisibility
p2619
aVtranslateX
p2620
aVtranslateY
p2621
aVtranslateZ
p2622
aVrotateX
p2623
aVrotateY
p2624
aVrotateZ
p2625
aVscaleX
p2626
aVscaleY
p2627
aVscaleZ
p2628
aVspace_world
p2629
aaI01
aF0
aF0
aF0
aF0
aF0
aF0
aF1
aF1
aF1
aF0
aa(lp2630
Vl_global_ik_anim_space_switcher
p2631
a(lp2632
Vvisibility
p2633
aVtranslateX
p2634
aVtranslateY
p2635
aVtranslateZ
p2636
aVrotateX
p2637
aVrotateY
p2638
aVrotateZ
p2639
aVscaleX
p2640
aVscaleY
p2641
aVscaleZ
p2642
aVspace_world
p2643
aaI01
aF0
aF0
aF0
aF0
aF0
aF0
aF1
aF1
aF1
aF0
aa(lp2644
Vmask_anim_space_switcher
p2645
a(lp2646
Vvisibility
p2647
aVtranslateX
p2648
aVtranslateY
p2649
aVtranslateZ
p2650
aVrotateX
p2651
aVrotateY
p2652
aVrotateZ
p2653
aVscaleX
p2654
aVscaleY
p2655
aVscaleZ
p2656
aVspace_world
p2657
aVspace_driver_hand_l
p2658
aVspace_driver_hand_r
p2659
aaI01
aF0
aF0
aF0
aF0
aF0
aF0
aF1
aF1
aF1
aF0
aF0
aF0
aa(lp2660
Vmaster_anim_space_switcher
p2661
a(lp2662
Vvisibility
p2663
aVtranslateX
p2664
aVtranslateY
p2665
aVtranslateZ
p2666
aVrotateX
p2667
aVrotateY
p2668
aVrotateZ
p2669
aVscaleX
p2670
aVscaleY
p2671
aVscaleZ
p2672
aVspace_world
p2673
aaI01
aF0
aF0
aF0
aF0
aF0
aF0
aF1
aF1
aF1
aF0
aa(lp2674
Vpack_hose_in_anim_space_switcher
p2675
a(lp2676
Vvisibility
p2677
aVtranslateX
p2678
aVtranslateY
p2679
aVtranslateZ
p2680
aVrotateX
p2681
aVrotateY
p2682
aVrotateZ
p2683
aVscaleX
p2684
aVscaleY
p2685
aVscaleZ
p2686
aVspace_world
p2687
aaI01
aF0
aF0
aF0
aF0
aF0
aF0
aF1
aF1
aF1
aF0
aa(lp2688
Vpack_hose_out_anim_space_switcher
p2689
a(lp2690
Vvisibility
p2691
aVtranslateX
p2692
aVtranslateY
p2693
aVtranslateZ
p2694
aVrotateX
p2695
aVrotateY
p2696
aVrotateZ
p2697
aVscaleX
p2698
aVscaleY
p2699
aVscaleZ
p2700
aVspace_world
p2701
aaI01
aF0
aF0
aF0
aF0
aF0
aF0
aF1
aF1
aF1
aF0
aa(lp2702
Vr_global_ik_anim_space_switcher
p2703
a(lp2704
Vvisibility
p2705
aVtranslateX
p2706
aVtranslateY
p2707
aVtranslateZ
p2708
aVrotateX
p2709
aVrotateY
p2710
aVrotateZ
p2711
aVscaleX
p2712
aVscaleY
p2713
aVscaleZ
p2714
aVspace_world
p2715
aaI01
aF0
aF0
aF0
aF0
aF0
aF0
aF1
aF1
aF1
aF0
aa(lp2716
Vshotgun_anim_space_switcher
p2717
a(lp2718
Vvisibility
p2719
aVtranslateX
p2720
aVtranslateY
p2721
aVtranslateZ
p2722
aVrotateX
p2723
aVrotateY
p2724
aVrotateZ
p2725
aVscaleX
p2726
aVscaleY
p2727
aVscaleZ
p2728
aVspace_world
p2729
aVspace_driver_hand_l
p2730
aaI01
aF4.9960036108132044e-16
aF0
aF-2.8421709430404007e-14
aF0
aF-2.4848083448933725e-17
aF-1.4334238139603642e-15
aF1
aF1
aF1
aF0
aF0
aa(lp2731
Vshotgun_base_anim_space_switcher
p2732
a(lp2733
Vvisibility
p2734
aVtranslateX
p2735
aVtranslateY
p2736
aVtranslateZ
p2737
aVrotateX
p2738
aVrotateY
p2739
aVrotateZ
p2740
aVscaleX
p2741
aVscaleY
p2742
aVscaleZ
p2743
aVspace_world
p2744
aaI01
aF0
aF0
aF0
aF0
aF0
aF0
aF1
aF1
aF1
aF0
aa(lp2745
Vshotgun_clip_anim_space_switcher
p2746
a(lp2747
Vvisibility
p2748
aVtranslateX
p2749
aVtranslateY
p2750
aVtranslateZ
p2751
aVrotateX
p2752
aVrotateY
p2753
aVrotateZ
p2754
aVscaleX
p2755
aVscaleY
p2756
aVscaleZ
p2757
aVspace_world
p2758
aaI01
aF8.8817841970012523e-16
aF-3.5527136788005009e-15
aF0
aF-9.9392333795734924e-17
aF-0
aF-1.2045496703174517e-15
aF0.99999999999999989
aF0.99999999999999989
aF0.99999999999999989
aF0
aa(lp2759
Vsniper_can_arm_01_anim_space_switcher
p2760
a(lp2761
Vvisibility
p2762
aVtranslateX
p2763
aVtranslateY
p2764
aVtranslateZ
p2765
aVrotateX
p2766
aVrotateY
p2767
aVrotateZ
p2768
aVscaleX
p2769
aVscaleY
p2770
aVscaleZ
p2771
aVspace_world
p2772
aaI01
aF2.5243548967072378e-29
aF0
aF0
aF0
aF0
aF0
aF1
aF1
aF1
aF0
aa(lp2773
Vsniper_can_arm_02_anim_space_switcher
p2774
a(lp2775
Vvisibility
p2776
aVtranslateX
p2777
aVtranslateY
p2778
aVtranslateZ
p2779
aVrotateX
p2780
aVrotateY
p2781
aVrotateZ
p2782
aVscaleX
p2783
aVscaleY
p2784
aVscaleZ
p2785
aVspace_world
p2786
aaI01
aF0
aF0
aF7.1054273576010019e-15
aF-3.180554681463516e-15
aF-0
aF0
aF1
aF1.0000000000000002
aF1.0000000000000002
aF0
aa(lp2787
Vsniper_can_arm_03_anim_space_switcher
p2788
a(lp2789
Vvisibility
p2790
aVtranslateX
p2791
aVtranslateY
p2792
aVtranslateZ
p2793
aVrotateX
p2794
aVrotateY
p2795
aVrotateZ
p2796
aVscaleX
p2797
aVscaleY
p2798
aVscaleZ
p2799
aVspace_world
p2800
aVspace_driver_hand_l
p2801
aVspace_driver_gun
p2802
aaI01
aF0
aF-3.5527136788005009e-15
aF0
aF0
aF0
aF0
aF1
aF1
aF1
aF0
aF0
aF0
aa(lp2803
Vspine_01_space_switcher
p2804
a(lp2805
Vvisibility
p2806
aVtranslateX
p2807
aVtranslateY
p2808
aVtranslateZ
p2809
aVrotateX
p2810
aVrotateY
p2811
aVrotateZ
p2812
aVscaleX
p2813
aVscaleY
p2814
aVscaleZ
p2815
aVspace_world
p2816
aaI01
aF-1.4210854715202004e-14
aF-4.4408920985006262e-16
aF1.2621774483536189e-29
aF-1.7655625192200634e-31
aF-0
aF0
aF1
aF1
aF1
aF0
aa(lp2817
Vtrap_handle_anim_space_switcher
p2818
a(lp2819
Vvisibility
p2820
aVtranslateX
p2821
aVtranslateY
p2822
aVtranslateZ
p2823
aVrotateX
p2824
aVrotateY
p2825
aVrotateZ
p2826
aVscaleX
p2827
aVscaleY
p2828
aVscaleZ
p2829
aVspace_world
p2830
aVspace_driver_hand_l
p2831
aaI01
aF-7.1054273576010019e-15
aF1.4210854715202004e-14
aF0
aF0
aF-7.9513867036587919e-16
aF-2.3854160110976376e-15
aF1
aF1
aF1
aF0
aF0
aa(lp2832
Vwrist_cover_anim_space_switcher
p2833
a(lp2834
Vvisibility
p2835
aVtranslateX
p2836
aVtranslateY
p2837
aVtranslateZ
p2838
aVrotateX
p2839
aVrotateY
p2840
aVrotateZ
p2841
aVscaleX
p2842
aVscaleY
p2843
aVscaleZ
p2844
aVspace_world
p2845
aaI01
aF-2.1316282072803006e-14
aF2.8421709430404007e-14
aF0
aF7.9513867036587939e-16
aF-9.9392333795734899e-17
aF0
aF1
aF0.99999999999999989
aF1
aF0
aa.