(lp1
(lp2
Vhip_anim
p3
a(lp4
VtranslateX
p5
aVtranslateY
p6
aVtranslateZ
p7
aVrotateX
p8
aVrotateY
p9
aVrotateZ
p10
aVlCalfTwistCtrlVis
p11
aVrCalfTwistCtrlVis
p12
aVautoHips
p13
aaF0
aF0
aF1.2621774483536189e-29
aF10.716826308037836
aF-4.1068121603843659
aF0
aI00
aI00
aF0
aa(lp14
Vbody_anim
p15
a(lp16
VtranslateX
p17
aVtranslateY
p18
aVtranslateZ
p19
aVrotateX
p20
aVrotateY
p21
aVrotateZ
p22
aaF-2.8836025267901282
aF-1.5372992991735259
aF-13.089906730113043
aF-28.886867551869422
aF0.37322078042032608
aF-0.45948469695137933
aa(lp23
Vspine_01_anim
p24
a(lp25
Vlength
p26
aVtranslateY
p27
aVtranslateZ
p28
aVrotateX
p29
aVrotateY
p30
aVrotateZ
p31
aaF0
aF0
aF0
aF-0.53826195567246005
aF-0.06011800268225486
aF-1.6950799854783867
aa(lp32
Vspine_02_anim
p33
a(lp34
Vlength
p35
aVtranslateY
p36
aVtranslateZ
p37
aVrotateX
p38
aVrotateY
p39
aVrotateZ
p40
aaF0
aF0
aF0
aF-1.0792208634808667
aF0.13342856075692452
aF-3.8281778511417133
aa(lp41
Vspine_03_anim
p42
a(lp43
Vlength
p44
aVtranslateY
p45
aVtranslateZ
p46
aVrotateX
p47
aVrotateY
p48
aVrotateZ
p49
aaF0
aF0
aF0
aF-1.0814445057741544
aF0.067935651354782536
aF-3.8287829880791553
aa(lp50
Vmid_ik_anim
p51
a(lp52
VtranslateX
p53
aVtranslateY
p54
aVtranslateZ
p55
aVrotateX
p56
aVrotateY
p57
aVrotateZ
p58
aaF-0.12129887485144764
aF-1.9219184378338543
aF0.73200255294103644
aF-7.0574535337339075
aF-5.5693780082813023
aF3.9377928300356091
aa(lp59
Vchest_ik_anim
p60
a(lp61
VtranslateX
p62
aVtranslateY
p63
aVtranslateZ
p64
aVrotateX
p65
aVrotateY
p66
aVrotateZ
p67
aVstretch
p68
aVsquash
p69
aVtwist_amount
p70
aVautoSpine
p71
aVrotationInfluence
p72
aaF0.17622401211539795
aF-2.5460387141594074
aF1.8756864956417945
aF-12.57536544261664
aF-7.3394208994205883
aF-5.4057263141906713
aF0
aF0
aF1
aF0
aF0.25
aa(lp73
Vhead_fk_anim
p74
a(lp75
VtranslateX
p76
aVtranslateY
p77
aVtranslateZ
p78
aVrotateX
p79
aVrotateY
p80
aVrotateZ
p81
aVscaleX
p82
aVscaleY
p83
aVscaleZ
p84
aVfkOrientation
p85
aaF0
aF0
aF0
aF26.043095268744384
aF2.8434760726657378
aF-2.7376463578943322
aF1
aF1
aF1
aI0
aa(lp86
Vneck_01_fk_anim
p87
a(lp88
VtranslateX
p89
aVtranslateY
p90
aVtranslateZ
p91
aVrotateX
p92
aVrotateY
p93
aVrotateZ
p94
aVscaleX
p95
aVscaleY
p96
aVscaleZ
p97
aVfkOrientation
p98
aaF0
aF0
aF-1.577721810442024e-30
aF6.1063835129180655
aF5.4491188184008976
aF-8.1820688710628442
aF1
aF0.99999999999999989
aF0.99999999999999989
aI0
aa(lp99
Vik_wrist_r_anim
p100
a(lp101
VtranslateX
p102
aVtranslateY
p103
aVtranslateZ
p104
aVrotateX
p105
aVrotateY
p106
aVrotateZ
p107
aVstretch
p108
aVsquash
p109
aVstretchBias
p110
aVside
p111
aVmid_bend
p112
aVmid_swivel
p113
aVtip_pivot
p114
aVtip_swivel
p115
aaF47.065232939128919
aF3.2979148642318066
aF-35.106153672084261
aF-88.144785889068146
aF-30.325205169232593
aF94.967754213531848
aF0
aF0
aF0
aF0
aF0
aF0
aF0
aF0
aa(lp116
Vik_elbow_r_anim
p117
a(lp118
VtranslateX
p119
aVtranslateY
p120
aVtranslateZ
p121
aaF22.378852251249093
aF36.715637496100413
aF-27.254551428607783
aa(lp122
Vfk_arm_r_anim
p123
a(lp124
VtranslateX
p125
aVtranslateY
p126
aVtranslateZ
p127
aVrotateX
p128
aVrotateY
p129
aVrotateZ
p130
aaF0
aF0
aF0
aF-28.022643040011129
aF31.373350599324613
aF-85.068557399492434
aa(lp131
Vfk_elbow_r_anim
p132
a(lp133
VtranslateX
p134
aVtranslateY
p135
aVtranslateZ
p136
aVrotateX
p137
aVrotateY
p138
aVrotateZ
p139
aaF0
aF0
aF0
aF5.2968387603759757
aF-2.2591130733489981
aF-88.62188720703125
aa(lp140
Vfk_wrist_r_anim
p141
a(lp142
VtranslateX
p143
aVtranslateY
p144
aVtranslateZ
p145
aVrotateX
p146
aVrotateY
p147
aVrotateZ
p148
aaF0
aF0
aF0
aF-32.176914215087905
aF-4.6610479354858407
aF1.8415238857269278
aa(lp149
Vclavicle_r_anim
p150
a(lp151
VtranslateX
p152
aVtranslateY
p153
aVtranslateZ
p154
aVautoShoulders
p155
aaF-4.2257642224390102
aF-4.454197234353126
aF10.893227853055768
aF0.20000000000000001
aa(lp156
Vik_wrist_l_anim
p157
a(lp158
VtranslateX
p159
aVtranslateY
p160
aVtranslateZ
p161
aVrotateX
p162
aVrotateY
p163
aVrotateZ
p164
aVstretch
p165
aVsquash
p166
aVstretchBias
p167
aVside
p168
aVmid_bend
p169
aVmid_swivel
p170
aVtip_pivot
p171
aVtip_swivel
p172
aaF-79.631649486531188
aF-53.509565069374453
aF-43.883433791719554
aF15.184082642250862
aF160.36232880639972
aF32.416405890100165
aF0
aF0
aF0
aF0
aF0
aF0
aF0
aF0
aa(lp173
Vik_elbow_l_anim
p174
a(lp175
VtranslateX
p176
aVtranslateY
p177
aVtranslateZ
p178
aaF-8.739074919221359
aF-45.9956281991577
aF-61.004430997211955
aa(lp179
Vfk_arm_l_anim
p180
a(lp181
VtranslateX
p182
aVtranslateY
p183
aVtranslateZ
p184
aVrotateX
p185
aVrotateY
p186
aVrotateZ
p187
aaF0
aF0
aF0
aF-34.276203154580003
aF43.783648462996219
aF-45.36411938850614
aa(lp188
Vfk_elbow_l_anim
p189
a(lp190
VtranslateX
p191
aVtranslateY
p192
aVtranslateZ
p193
aVrotateX
p194
aVrotateY
p195
aVrotateZ
p196
aaF0
aF0
aF0
aF16.986427307128906
aF-1.9700599908828733
aF-81.873420715332031
aa(lp197
Vfk_wrist_l_anim
p198
a(lp199
VtranslateX
p200
aVtranslateY
p201
aVtranslateZ
p202
aVrotateX
p203
aVrotateY
p204
aVrotateZ
p205
aaF0
aF0
aF0
aF-106.28956604003906
aF-18.279989242553711
aF-3.2510626316070583
aa(lp206
Vclavicle_l_anim
p207
a(lp208
VtranslateX
p209
aVtranslateY
p210
aVtranslateZ
p211
aVautoShoulders
p212
aaF-10.51002611694266
aF-3.4798824650080822
aF3.5164298641860063
aF0.28000000000000003
aa(lp213
Vgun_anim
p214
a(lp215
VtranslateX
p216
aVtranslateY
p217
aVtranslateZ
p218
aVrotateX
p219
aVrotateY
p220
aVrotateZ
p221
aVscaleX
p222
aVscaleY
p223
aVscaleZ
p224
aVblendParent1
p225
aaF2.2945803711267345
aF0.081511541477898297
aF0.10571991721390051
aF31.434007196564291
aF-0.43412181609596773
aF0.231665907619271
aF1
aF1
aF1
aF0
aa(lp226
Vindex_finger_fk_ctrl_1_r
p227
a(lp228
VtranslateX
p229
aVtranslateY
p230
aVtranslateZ
p231
aVrotateX
p232
aVrotateY
p233
aVrotateZ
p234
aVsticky
p235
aVblendOrient1
p236
aaF0
aF0
aF0
aF-3.3387655848653877
aF-6.0928954074903556
aF28.807340222052282
aF0
aF0
aa(lp237
Vmiddle_finger_fk_ctrl_1_r
p238
a(lp239
VtranslateX
p240
aVtranslateY
p241
aVtranslateZ
p242
aVrotateX
p243
aVrotateY
p244
aVrotateZ
p245
aVsticky
p246
aVblendOrient1
p247
aaF0
aF0
aF0
aF-1.5576726256467806
aF-7.4905555396410568
aF71.02870484263309
aF0
aF0
aa(lp248
Vring_finger_fk_ctrl_1_r
p249
a(lp250
VtranslateX
p251
aVtranslateY
p252
aVtranslateZ
p253
aVrotateX
p254
aVrotateY
p255
aVrotateZ
p256
aVsticky
p257
aVblendOrient1
p258
aaF0
aF0
aF0
aF-1.8761689618070569
aF-7.6148050121739645
aF58.806392729110243
aF0
aF0
aa(lp259
Vpinky_finger_fk_ctrl_1_r
p260
a(lp261
VtranslateX
p262
aVtranslateY
p263
aVtranslateZ
p264
aVrotateX
p265
aVrotateY
p266
aVrotateZ
p267
aVsticky
p268
aVblendOrient1
p269
aaF0
aF0
aF0
aF-12.038537149107768
aF-15.346512905441463
aF61.069669371678827
aF0
aF0
aa(lp270
Vthumb_finger_fk_ctrl_1_r
p271
a(lp272
VtranslateX
p273
aVtranslateY
p274
aVtranslateZ
p275
aVrotateX
p276
aVrotateY
p277
aVrotateZ
p278
aVsticky
p279
aVblendOrient1
p280
aaF0
aF0
aF0
aF13.842244727365063
aF26.503604187545172
aF43.077083507749407
aF0
aF0
aa(lp281
Vindex_finger_fk_ctrl_2_r
p282
a(lp283
VtranslateX
p284
aVtranslateY
p285
aVtranslateZ
p286
aVrotateX
p287
aVrotateY
p288
aVrotateZ
p289
aVblendOrient1
p290
aaF0
aF0
aF0
aF11.878195406430866
aF10.67039299033722
aF79.2649151528354
aF0
aa(lp291
Vmiddle_finger_fk_ctrl_2_r
p292
a(lp293
VtranslateX
p294
aVtranslateY
p295
aVtranslateZ
p296
aVrotateX
p297
aVrotateY
p298
aVrotateZ
p299
aVblendOrient1
p300
aaF0
aF0
aF0
aF3.1205578674787855
aF-6.3745989768269888
aF87.623761326050996
aF0
aa(lp301
Vring_finger_fk_ctrl_2_r
p302
a(lp303
VtranslateX
p304
aVtranslateY
p305
aVtranslateZ
p306
aVrotateX
p307
aVrotateY
p308
aVrotateZ
p309
aVblendOrient1
p310
aaF0
aF0
aF0
aF1.2678331474032762
aF0.84626236834742452
aF58.15179294196863
aF0
aa(lp311
Vpinky_finger_fk_ctrl_2_r
p312
a(lp313
VtranslateX
p314
aVtranslateY
p315
aVtranslateZ
p316
aVrotateX
p317
aVrotateY
p318
aVrotateZ
p319
aVblendOrient1
p320
aaF0
aF0
aF0
aF4.092621231082858
aF-10.906328913024248
aF36.685285091803422
aF0
aa(lp321
Vthumb_finger_fk_ctrl_2_r
p322
a(lp323
VtranslateX
p324
aVtranslateY
p325
aVtranslateZ
p326
aVrotateX
p327
aVrotateY
p328
aVrotateZ
p329
aVblendOrient1
p330
aaF0
aF0
aF0
aF-1.7716493101714719
aF4.5295816409483507
aF-4.4364118677265898
aF0
aa(lp331
Vindex_finger_fk_ctrl_3_r
p332
a(lp333
VtranslateX
p334
aVtranslateY
p335
aVtranslateZ
p336
aVrotateX
p337
aVrotateY
p338
aVrotateZ
p339
aVblendOrient1
p340
aaF0
aF0
aF0
aF3.8930346965788418
aF12.801635742187861
aF55.805820465087848
aF0
aa(lp341
Vmiddle_finger_fk_ctrl_3_r
p342
a(lp343
VtranslateX
p344
aVtranslateY
p345
aVtranslateZ
p346
aVrotateX
p347
aVrotateY
p348
aVrotateZ
p349
aVblendOrient1
p350
aaF0
aF0
aF0
aF3.4957659244537962
aF-2.3556907176972621
aF56.61675643920875
aF0
aa(lp351
Vring_finger_fk_ctrl_3_r
p352
a(lp353
VtranslateX
p354
aVtranslateY
p355
aVtranslateZ
p356
aVrotateX
p357
aVrotateY
p358
aVrotateZ
p359
aVblendOrient1
p360
aaF0
aF0
aF0
aF4.968184787457993
aF1.9827603811766792
aF51.810856189638557
aF0
aa(lp361
Vpinky_finger_fk_ctrl_3_r
p362
a(lp363
VtranslateX
p364
aVtranslateY
p365
aVtranslateZ
p366
aVrotateX
p367
aVrotateY
p368
aVrotateZ
p369
aVblendOrient1
p370
aaF0
aF0
aF0
aF4.0918183326721964
aF-10.42243957519522
aF70.588310241699233
aF0
aa(lp371
Vthumb_finger_fk_ctrl_3_r
p372
a(lp373
VtranslateX
p374
aVtranslateY
p375
aVtranslateZ
p376
aVrotateX
p377
aVrotateY
p378
aVrotateZ
p379
aVblendOrient1
p380
aaF0
aF0
aF0
aF9.6091172257146707e-06
aF-4.3910623032876708e-08
aF55.176322325550096
aF0
aa(lp381
Vindex_finger_fk_ctrl_1_l
p382
a(lp383
VtranslateX
p384
aVtranslateY
p385
aVtranslateZ
p386
aVrotateX
p387
aVrotateY
p388
aVrotateZ
p389
aVsticky
p390
aVblendOrient1
p391
aaF0
aF0
aF0
aF-27.470599771115058
aF4.1163992310990478
aF21.259937763283922
aF0
aF0
aa(lp392
Vmiddle_finger_fk_ctrl_1_l
p393
a(lp394
VtranslateX
p395
aVtranslateY
p396
aVtranslateZ
p397
aVrotateX
p398
aVrotateY
p399
aVrotateZ
p400
aVsticky
p401
aVblendOrient1
p402
aaF-0.047150666871850135
aF0.53850382638743388
aF-0.19635123450015501
aF-10.031814921723624
aF3.08896093820097
aF53.348086341326045
aF0
aF0
aa(lp403
Vring_finger_fk_ctrl_1_l
p404
a(lp405
VtranslateX
p406
aVtranslateY
p407
aVtranslateZ
p408
aVrotateX
p409
aVrotateY
p410
aVrotateZ
p411
aVsticky
p412
aVblendOrient1
p413
aaF-0.0083448964791337978
aF0.55350502390110901
aF-0.15596767270523595
aF-2.5563661393476287
aF8.9682840233567838
aF49.652889658415262
aF0
aF0
aa(lp414
Vpinky_finger_fk_ctrl_1_l
p415
a(lp416
VtranslateX
p417
aVtranslateY
p418
aVtranslateZ
p419
aVrotateX
p420
aVrotateY
p421
aVrotateZ
p422
aVsticky
p423
aVblendOrient1
p424
aaF0.019498285388217761
aF0.57465450232680537
aF-0.012465293119438735
aF7.7630848118714582
aF3.3222092666701148
aF52.565135361419408
aF0
aF0
aa(lp425
Vthumb_finger_fk_ctrl_1_l
p426
a(lp427
VtranslateX
p428
aVtranslateY
p429
aVtranslateZ
p430
aVrotateX
p431
aVrotateY
p432
aVrotateZ
p433
aVsticky
p434
aVblendOrient1
p435
aaF0
aF0
aF0
aF15.254731217907235
aF1.9921205759110532
aF-21.661200833422892
aF0
aF0
aa(lp436
Vindex_finger_fk_ctrl_2_l
p437
a(lp438
VtranslateX
p439
aVtranslateY
p440
aVtranslateZ
p441
aVrotateX
p442
aVrotateY
p443
aVrotateZ
p444
aVblendOrient1
p445
aaF0
aF0
aF0
aF-16.393347263175347
aF-5.3813586539425184
aF28.945357810899054
aF0
aa(lp446
Vmiddle_finger_fk_ctrl_2_l
p447
a(lp448
VtranslateX
p449
aVtranslateY
p450
aVtranslateZ
p451
aVrotateX
p452
aVrotateY
p453
aVrotateZ
p454
aVblendOrient1
p455
aaF0
aF0
aF0
aF18.43137263865426
aF6.9129903851227015
aF19.314189521770786
aF0
aa(lp456
Vring_finger_fk_ctrl_2_l
p457
a(lp458
VtranslateX
p459
aVtranslateY
p460
aVtranslateZ
p461
aVrotateX
p462
aVrotateY
p463
aVrotateZ
p464
aVblendOrient1
p465
aaF0
aF0
aF0
aF-6.0546636127617122
aF-2.4641171730251181
aF9.9056048993928734
aF0
aa(lp466
Vpinky_finger_fk_ctrl_2_l
p467
a(lp468
VtranslateX
p469
aVtranslateY
p470
aVtranslateZ
p471
aVrotateX
p472
aVrotateY
p473
aVrotateZ
p474
aVblendOrient1
p475
aaF0
aF0
aF0
aF-5.4671137340668645
aF4.8045469855154881
aF-8.7200932187199989
aF0
aa(lp476
Vthumb_finger_fk_ctrl_2_l
p477
a(lp478
VtranslateX
p479
aVtranslateY
p480
aVtranslateZ
p481
aVrotateX
p482
aVrotateY
p483
aVrotateZ
p484
aVblendOrient1
p485
aaF0
aF0
aF0
aF0
aF0
aF0
aF0
aa(lp486
Vindex_finger_fk_ctrl_3_l
p487
a(lp488
VtranslateX
p489
aVtranslateY
p490
aVtranslateZ
p491
aVrotateX
p492
aVrotateY
p493
aVrotateZ
p494
aVblendOrient1
p495
aaF0
aF0
aF0
aF0
aF0
aF22.059717254845935
aF0
aa(lp496
Vmiddle_finger_fk_ctrl_3_l
p497
a(lp498
VtranslateX
p499
aVtranslateY
p500
aVtranslateZ
p501
aVrotateX
p502
aVrotateY
p503
aVrotateZ
p504
aVblendOrient1
p505
aaF0
aF0
aF0
aF-33.415324841912494
aF3.6018526705548375
aF18.63023015650424
aF0
aa(lp506
Vring_finger_fk_ctrl_3_l
p507
a(lp508
VtranslateX
p509
aVtranslateY
p510
aVtranslateZ
p511
aVrotateX
p512
aVrotateY
p513
aVrotateZ
p514
aVblendOrient1
p515
aaF0
aF0
aF0
aF0
aF0
aF21.019213376385007
aF0
aa(lp516
Vpinky_finger_fk_ctrl_3_l
p517
a(lp518
VtranslateX
p519
aVtranslateY
p520
aVtranslateZ
p521
aVrotateX
p522
aVrotateY
p523
aVrotateZ
p524
aVblendOrient1
p525
aaF0
aF0
aF0
aF-19.737430918257342
aF4.8226348587712851
aF17.992099408405753
aF0
aa(lp526
Vthumb_finger_fk_ctrl_3_l
p527
a(lp528
VtranslateX
p529
aVtranslateY
p530
aVtranslateZ
p531
aVrotateX
p532
aVrotateY
p533
aVrotateZ
p534
aVblendOrient1
p535
aaF0
aF0
aF0
aF-6.997906662654545
aF-2.4044252941487776
aF2.3033591963087394
aF0
aa.