(lp1
(lp2
Vankle_plate_in_l_anim_space_switcher_follow
p3
a(lp4
Vvisibility
p5
aVtranslateX
p6
aVtranslateY
p7
aVtranslateZ
p8
aVrotateX
p9
aVrotateY
p10
aVrotateZ
p11
aVscaleX
p12
aVscaleY
p13
aVscaleZ
p14
aaI01
aF-3.5527136788005009e-15
aF0
aF0
aF-1.192708005548819e-14
aF-3.2140995941195771e-14
aF6.7586786981099759e-15
aF1
aF1
aF0.99999999999999989
aa(lp15
Vankle_plate_in_r_anim_space_switcher_follow
p16
a(lp17
Vvisibility
p18
aVtranslateX
p19
aVtranslateY
p20
aVtranslateZ
p21
aVrotateX
p22
aVrotateY
p23
aVrotateZ
p24
aVscaleX
p25
aVscaleY
p26
aVscaleZ
p27
aaI01
aF7.1054273576010019e-15
aF0
aF0
aF-1.9083328088781101e-14
aF6.3611093629270351e-15
aF7.1562480332929119e-15
aF0.99999999999999989
aF0.99999999999999989
aF1
aa(lp28
Vankle_plate_out_l_anim_space_switcher_follow
p29
a(lp30
Vvisibility
p31
aVtranslateX
p32
aVtranslateY
p33
aVtranslateZ
p34
aVrotateX
p35
aVrotateY
p36
aVrotateZ
p37
aVscaleX
p38
aVscaleY
p39
aVscaleZ
p40
aaI01
aF-1.7763568394002505e-15
aF0
aF-3.5527136788005009e-15
aF-6.3611093629270335e-15
aF-6.957463365701439e-16
aF7.1562480332929135e-15
aF1
aF1
aF1
aa(lp41
Vankle_plate_out_r_anim_space_switcher_follow
p42
a(lp43
Vvisibility
p44
aVtranslateX
p45
aVtranslateY
p46
aVtranslateZ
p47
aVrotateX
p48
aVrotateY
p49
aVrotateZ
p50
aVscaleX
p51
aVscaleY
p52
aVscaleZ
p53
aaI01
aF-1.7763568394002505e-15
aF8.8817841970012523e-16
aF-7.1054273576010019e-15
aF9.6211779114271389e-14
aF-1.1349256568861473e-29
aF1.3517357396219947e-14
aF0.99999999999999989
aF1
aF0.99999999999999989
aa(lp54
Varm_hose_bott_anim_space_switcher_follow
p55
a(lp56
Vvisibility
p57
aVtranslateX
p58
aVtranslateY
p59
aVtranslateZ
p60
aVrotateX
p61
aVrotateY
p62
aVrotateZ
p63
aVscaleX
p64
aVscaleY
p65
aVscaleZ
p66
aaI01
aF-2.8421709430404007e-14
aF1.7763568394002505e-15
aF1.5987211554602254e-14
aF5.5659706925611465e-15
aF4.9894951565458918e-14
aF-1.7493050748049341e-14
aF1
aF1.0000000000000002
aF1
aa(lp67
Varm_hose_top_anim_space_switcher_follow
p68
a(lp69
Vvisibility
p70
aVtranslateX
p71
aVtranslateY
p72
aVtranslateZ
p73
aVrotateX
p74
aVrotateY
p75
aVrotateZ
p76
aVscaleX
p77
aVscaleY
p78
aVscaleZ
p79
aaI01
aF-2.8421709430404007e-14
aF-1.4210854715202004e-14
aF-2.8421709430404007e-14
aF-3.2550989318103172e-15
aF-5.0193128566846119e-15
aF-3.975693351829394e-16
aF1
aF1
aF1
aa(lp80
Varm_pouch_l_anim_space_switcher_follow
p81
a(lp82
Vvisibility
p83
aVtranslateX
p84
aVtranslateY
p85
aVtranslateZ
p86
aVrotateX
p87
aVrotateY
p88
aVrotateZ
p89
aVscaleX
p90
aVscaleY
p91
aVscaleZ
p92
aaI01
aF2.8421709430404007e-14
aF7.1054273576010019e-15
aF1.0658141036401503e-14
aF1.5902773407317584e-15
aF-1.2722218725854067e-14
aF7.9513867036587899e-16
aF1
aF1
aF1
aa(lp93
Vbody_anim_space_switcher_follow
p94
a(lp95
Vvisibility
p96
aVtranslateX
p97
aVtranslateY
p98
aVtranslateZ
p99
aVrotateX
p100
aVrotateY
p101
aVrotateZ
p102
aVscaleX
p103
aVscaleY
p104
aVscaleZ
p105
aaI01
aF1.0807024562835961e-14
aF1.090841951454778
aF105.80643883050104
aF0
aF-89.999999999999986
aF0
aF1
aF1
aF1
aa(lp106
Vbot_hand_anim_space_switcher_follow
p107
a(lp108
Vvisibility
p109
aVtranslateX
p110
aVtranslateY
p111
aVtranslateZ
p112
aVrotateX
p113
aVrotateY
p114
aVrotateZ
p115
aVscaleX
p116
aVscaleY
p117
aVscaleZ
p118
aaI01
aF0
aF7.1054273576010019e-15
aF-1.4210854715202004e-14
aF-9.8597195125369042e-14
aF1.1131941385122302e-14
aF-9.5416640443905613e-15
aF1
aF1
aF0.99999999999999989
aa(lp119
Vbot_loarm_anim_space_switcher_follow
p120
a(lp121
Vvisibility
p122
aVtranslateX
p123
aVtranslateY
p124
aVtranslateZ
p125
aVrotateX
p126
aVrotateY
p127
aVrotateZ
p128
aVscaleX
p129
aVscaleY
p130
aVscaleZ
p131
aaI01
aF-7.1054273576010019e-15
aF1.7763568394002505e-15
aF0
aF2.0375452693832145e-14
aF-2.4848083448933725e-17
aF2.4848083448933712e-17
aF1
aF1
aF1
aa(lp132
Vbot_loarm_pistonB_bot_anim_space_switcher_follow
p133
a(lp134
Vvisibility
p135
aVtranslateX
p136
aVtranslateY
p137
aVtranslateZ
p138
aVrotateX
p139
aVrotateY
p140
aVrotateZ
p141
aVscaleX
p142
aVscaleY
p143
aVscaleZ
p144
aaI01
aF-2.8421709430404007e-14
aF-5.6843418860808015e-14
aF-3.5527136788005009e-15
aF-2.5444437451708134e-14
aF3.9756933518294103e-16
aF6.3611093629270335e-15
aF1
aF1
aF1
aa(lp145
Vbot_loarm_pistonB_top_anim_space_switcher_follow
p146
a(lp147
Vvisibility
p148
aVtranslateX
p149
aVtranslateY
p150
aVtranslateZ
p151
aVrotateX
p152
aVrotateY
p153
aVrotateZ
p154
aVscaleX
p155
aVscaleY
p156
aVscaleZ
p157
aaI01
aF0
aF0
aF-1.4210854715202004e-14
aF-4.4527765540489241e-14
aF1.1927080055488158e-15
aF-7.5538173684758519e-15
aF1
aF1
aF1
aa(lp158
Vbot_loarm_pistonC_bot_anim_space_switcher_follow
p159
a(lp160
Vvisibility
p161
aVtranslateX
p162
aVtranslateY
p163
aVtranslateZ
p164
aVrotateX
p165
aVrotateY
p166
aVrotateZ
p167
aVscaleX
p168
aVscaleY
p169
aVscaleZ
p170
aaI01
aF7.1054273576010019e-15
aF8.8817841970012523e-16
aF2.8421709430404007e-14
aF-8.7962215409225378e-15
aF9.5416640443905503e-15
aF-2.3854160110976384e-15
aF1
aF1
aF1
aa(lp171
Vbot_loarm_pistonC_top_anim_space_switcher_follow
p172
a(lp173
Vvisibility
p174
aVtranslateX
p175
aVtranslateY
p176
aVtranslateZ
p177
aVrotateX
p178
aVrotateY
p179
aVrotateZ
p180
aVscaleX
p181
aVscaleY
p182
aVscaleZ
p183
aaI01
aF-3.5527136788005009e-15
aF0
aF2.8421709430404007e-14
aF-8.4980445395353344e-15
aF6.3611093629270335e-15
aF-1.5902773407317592e-15
aF1
aF1
aF1
aa(lp184
Vbot_loarm_pistonD_bot_anim_space_switcher_follow
p185
a(lp186
Vvisibility
p187
aVtranslateX
p188
aVtranslateY
p189
aVtranslateZ
p190
aVrotateX
p191
aVrotateY
p192
aVrotateZ
p193
aVscaleX
p194
aVscaleY
p195
aVscaleZ
p196
aaI01
aF4.2632564145606011e-14
aF0
aF0
aF6.7586786981099719e-15
aF-9.5416640443905519e-15
aF1.5902773407317584e-14
aF1
aF0.99999999999999989
aF1
aa(lp197
Vbot_loarm_pistonD_top_anim_space_switcher_follow
p198
a(lp199
Vvisibility
p200
aVtranslateX
p201
aVtranslateY
p202
aVtranslateZ
p203
aVrotateX
p204
aVrotateY
p205
aVrotateZ
p206
aVscaleX
p207
aVscaleY
p208
aVscaleZ
p209
aaI01
aF0
aF0
aF2.2204460492503131e-15
aF-3.975693351829395e-16
aF-3.1805546814635168e-15
aF-3.1805546814635168e-15
aF1
aF1.0000000000000002
aF1.0000000000000002
aa(lp210
Vbot_loarm_twist_anim_space_switcher_follow
p211
a(lp212
Vvisibility
p213
aVtranslateX
p214
aVtranslateY
p215
aVtranslateZ
p216
aVrotateX
p217
aVrotateY
p218
aVrotateZ
p219
aVscaleX
p220
aVscaleY
p221
aVscaleZ
p222
aaI01
aF0
aF3.5527136788005009e-15
aF-2.8421709430404007e-14
aF-7.765026077791789e-19
aF6.2120208622334312e-18
aF9.9392333795734899e-17
aF1
aF1.0000000000000002
aF1
aa(lp223
Vbot_uparm_anim_space_switcher_follow
p224
a(lp225
Vvisibility
p226
aVtranslateX
p227
aVtranslateY
p228
aVtranslateZ
p229
aVrotateX
p230
aVrotateY
p231
aVrotateZ
p232
aVscaleX
p233
aVscaleY
p234
aVscaleZ
p235
aaI01
aF0
aF1.0658141036401503e-14
aF0
aF8.7465253740246703e-15
aF-2.7767733254183429e-15
aF-9.5416640443905503e-15
aF1
aF1
aF1
aa(lp236
Vbot_uparm_pistonC_bot_anim_space_switcher_follow
p237
a(lp238
Vvisibility
p239
aVtranslateX
p240
aVtranslateY
p241
aVtranslateZ
p242
aVrotateX
p243
aVrotateY
p244
aVrotateZ
p245
aVscaleX
p246
aVscaleY
p247
aVscaleZ
p248
aaI01
aF-2.8421709430404007e-14
aF-2.8421709430404007e-14
aF0
aF5.7249984266343308e-14
aF-2.4450514113750787e-14
aF-6.162324695335577e-15
aF1
aF1
aF1
aa(lp249
Vbot_uparm_pistonC_top_anim_space_switcher_follow
p250
a(lp251
Vvisibility
p252
aVtranslateX
p253
aVtranslateY
p254
aVtranslateZ
p255
aVrotateX
p256
aVrotateY
p257
aVrotateZ
p258
aVscaleX
p259
aVscaleY
p260
aVscaleZ
p261
aaI01
aF0
aF5.3290705182007514e-15
aF0
aF-7.9513867036587919e-15
aF9.9392333795734899e-16
aF-6.8967285907033731e-32
aF1
aF1.0000000000000002
aF1.0000000000000002
aa(lp262
Vchest_ik_anim_space_switcher_follow
p263
a(lp264
Vvisibility
p265
aVtranslateX
p266
aVtranslateY
p267
aVtranslateZ
p268
aVrotateX
p269
aVrotateY
p270
aVrotateZ
p271
aVscaleX
p272
aVscaleY
p273
aVscaleZ
p274
aaI01
aF36.150192702482414
aF2.5913227685769593
aF-1.1842407472441214e-12
aF0
aF0
aF0
aF1
aF1
aF1
aa(lp275
Veyeball_l_anim_space_switcher_follow
p276
a(lp277
Vvisibility
p278
aVtranslateX
p279
aVtranslateY
p280
aVtranslateZ
p281
aVrotateX
p282
aVrotateY
p283
aVrotateZ
p284
aVscaleX
p285
aVscaleY
p286
aVscaleZ
p287
aaI01
aF0
aF0
aF0
aF0
aF0
aF0
aF1
aF1
aF1
aa(lp288
Veyeball_r_anim_space_switcher_follow
p289
a(lp290
Vvisibility
p291
aVtranslateX
p292
aVtranslateY
p293
aVtranslateZ
p294
aVrotateX
p295
aVrotateY
p296
aVrotateZ
p297
aVscaleX
p298
aVscaleY
p299
aVscaleZ
p300
aaI01
aF0
aF0
aF0
aF0
aF0
aF0
aF1
aF1
aF1
aa(lp301
Veyebrow_in_l_anim_space_switcher_follow
p302
a(lp303
Vvisibility
p304
aVtranslateX
p305
aVtranslateY
p306
aVtranslateZ
p307
aVrotateX
p308
aVrotateY
p309
aVrotateZ
p310
aVscaleX
p311
aVscaleY
p312
aVscaleZ
p313
aaI01
aF-3.5527136788005009e-15
aF8.8817841970012523e-16
aF-2.8421709430404007e-14
aF3.975693351829395e-16
aF-2.4848083448933715e-16
aF-6.4356536132738332e-15
aF1
aF1.0000000000000002
aF1
aa(lp314
Veyebrow_in_r_anim_space_switcher_follow
p315
a(lp316
Vvisibility
p317
aVtranslateX
p318
aVtranslateY
p319
aVtranslateZ
p320
aVrotateX
p321
aVrotateY
p322
aVrotateZ
p323
aVscaleX
p324
aVscaleY
p325
aVscaleZ
p326
aaI01
aF3.5527136788005009e-15
aF8.8817841970012523e-16
aF2.8421709430404007e-14
aF-8.1501713712502619e-15
aF3.1805546814635168e-15
aF-2.2621269777507068e-31
aF1.0000000000000002
aF1.0000000000000002
aF1.0000000000000002
aa(lp327
Veyebrow_out_l_anim_space_switcher_follow
p328
a(lp329
Vvisibility
p330
aVtranslateX
p331
aVtranslateY
p332
aVtranslateZ
p333
aVrotateX
p334
aVrotateY
p335
aVrotateZ
p336
aVscaleX
p337
aVscaleY
p338
aVscaleZ
p339
aaI01
aF9.9920072216264089e-16
aF-1.7763568394002505e-15
aF2.8421709430404007e-14
aF3.975693351829396e-16
aF-9.9392333795734899e-17
aF-6.2120208622334312e-18
aF1
aF1
aF1.0000000000000002
aa(lp340
Veyebrow_out_r_anim_space_switcher_follow
p341
a(lp342
Vvisibility
p343
aVtranslateX
p344
aVtranslateY
p345
aVtranslateZ
p346
aVrotateX
p347
aVrotateY
p348
aVrotateZ
p349
aVscaleX
p350
aVscaleY
p351
aVscaleZ
p352
aaI01
aF1.4432899320127035e-15
aF0
aF2.8421709430404007e-14
aF8.2495637050460001e-15
aF-8.9453100416161435e-15
aF6.3611093629270335e-15
aF1
aF0.99999999999999989
aF0.99999999999999989
aa(lp353
Veyelid_bott_l_anim_space_switcher_follow
p354
a(lp355
Vvisibility
p356
aVtranslateX
p357
aVtranslateY
p358
aVtranslateZ
p359
aVrotateX
p360
aVrotateY
p361
aVrotateZ
p362
aVscaleX
p363
aVscaleY
p364
aVscaleZ
p365
aaI01
aF0
aF0
aF0
aF0
aF0
aF0
aF1
aF1
aF1
aa(lp366
Veyelid_bott_r_anim_space_switcher_follow
p367
a(lp368
Vvisibility
p369
aVtranslateX
p370
aVtranslateY
p371
aVtranslateZ
p372
aVrotateX
p373
aVrotateY
p374
aVrotateZ
p375
aVscaleX
p376
aVscaleY
p377
aVscaleZ
p378
aaI01
aF0
aF0
aF5.6843418860808015e-14
aF0
aF0
aF0
aF1
aF1
aF1
aa(lp379
Veyelid_top_l_anim_space_switcher_follow
p380
a(lp381
Vvisibility
p382
aVtranslateX
p383
aVtranslateY
p384
aVtranslateZ
p385
aVrotateX
p386
aVrotateY
p387
aVrotateZ
p388
aVscaleX
p389
aVscaleY
p390
aVscaleZ
p391
aaI01
aF0
aF0
aF0
aF0
aF0
aF0
aF1
aF1
aF1
aa(lp392
Veyelid_top_r_anim_space_switcher_follow
p393
a(lp394
Vvisibility
p395
aVtranslateX
p396
aVtranslateY
p397
aVtranslateZ
p398
aVrotateX
p399
aVrotateY
p400
aVrotateZ
p401
aVscaleX
p402
aVscaleY
p403
aVscaleZ
p404
aaI01
aF0
aF-1.7763568394002505e-15
aF0
aF0
aF0
aF0
aF1
aF1
aF1
aa(lp405
Vgun_anim_space_switcher_follow
p406
a(lp407
Vvisibility
p408
aVtranslateX
p409
aVtranslateY
p410
aVtranslateZ
p411
aVrotateX
p412
aVrotateY
p413
aVrotateZ
p414
aVscaleX
p415
aVscaleY
p416
aVscaleZ
p417
aaI01
aF-5.6843418860808015e-14
aF-5.3290705182007514e-15
aF0
aF4.1148426191434251e-14
aF3.990205777080297e-29
aF-1.1112062918363161e-13
aF1
aF1
aF1.0000000000000002
aa(lp418
Vgun_barrel_anim_space_switcher_follow
p419
a(lp420
Vvisibility
p421
aVtranslateX
p422
aVtranslateY
p423
aVtranslateZ
p424
aVrotateX
p425
aVrotateY
p426
aVrotateZ
p427
aVscaleX
p428
aVscaleY
p429
aVscaleZ
p430
aaI01
aF0
aF8.8817841970012523e-16
aF-2.8421709430404007e-14
aF2.0196522227293334e-13
aF6.3611093629268908e-15
aF8.1302929044911165e-14
aF1
aF1
aF1.0000000000000002
aa(lp431
Vgun_barrel_inner_anim_space_switcher_follow
p432
a(lp433
Vvisibility
p434
aVtranslateX
p435
aVtranslateY
p436
aVtranslateZ
p437
aVrotateX
p438
aVrotateY
p439
aVrotateZ
p440
aVscaleX
p441
aVscaleY
p442
aVscaleZ
p443
aaI01
aF-5.6843418860808015e-14
aF-3.5527136788005009e-15
aF0
aF-9.3428793767990803e-15
aF-1.4424507847456107e-30
aF-1.7691835415640811e-14
aF1
aF1
aF1.0000000000000002
aa(lp444
Vgun_body_panel_l_anim_space_switcher_follow
p445
a(lp446
Vvisibility
p447
aVtranslateX
p448
aVtranslateY
p449
aVtranslateZ
p450
aVrotateX
p451
aVrotateY
p452
aVrotateZ
p453
aVscaleX
p454
aVscaleY
p455
aVscaleZ
p456
aaI01
aF2.8421709430404007e-14
aF-3.5527136788005009e-15
aF0
aF2.0196522227293334e-13
aF6.3611093629268908e-15
aF8.1302929044911165e-14
aF1
aF1
aF1.0000000000000002
aa(lp457
Vgun_body_panel_r_anim_space_switcher_follow
p458
a(lp459
Vvisibility
p460
aVtranslateX
p461
aVtranslateY
p462
aVtranslateZ
p463
aVrotateX
p464
aVrotateY
p465
aVrotateZ
p466
aVscaleX
p467
aVscaleY
p468
aVscaleZ
p469
aaI01
aF-2.8421709430404007e-14
aF-1.7763568394002505e-15
aF-2.8421709430404007e-14
aF1.2324649390671124e-14
aF-3.3544912656060389e-16
aF-1.2324649390671124e-14
aF1
aF1
aF1.0000000000000002
aa(lp470
Vgun_scope_anim_space_switcher_follow
p471
a(lp472
Vvisibility
p473
aVtranslateX
p474
aVtranslateY
p475
aVtranslateZ
p476
aVrotateX
p477
aVrotateY
p478
aVrotateZ
p479
aVscaleX
p480
aVscaleY
p481
aVscaleZ
p482
aaI01
aF-2.8421709430404007e-14
aF-3.5527136788005009e-15
aF0
aF2.0196522227293334e-13
aF6.3611093629268908e-15
aF8.1302929044911165e-14
aF1
aF1
aF1.0000000000000002
aa(lp483
Vgun_stock_base_anim_space_switcher_follow
p484
a(lp485
Vvisibility
p486
aVtranslateX
p487
aVtranslateY
p488
aVtranslateZ
p489
aVrotateX
p490
aVrotateY
p491
aVrotateZ
p492
aVscaleX
p493
aVscaleY
p494
aVscaleZ
p495
aaI01
aF0
aF1.7763568394002505e-15
aF2.8421709430404007e-14
aF2.0196522227293334e-13
aF6.3611093629268908e-15
aF8.1302929044911165e-14
aF1
aF1
aF1.0000000000000002
aa(lp496
Vgun_stock_base_in_bott_anim_space_switcher_follow
p497
a(lp498
Vvisibility
p499
aVtranslateX
p500
aVtranslateY
p501
aVtranslateZ
p502
aVrotateX
p503
aVrotateY
p504
aVrotateZ
p505
aVscaleX
p506
aVscaleY
p507
aVscaleZ
p508
aaI01
aF-2.8421709430404007e-14
aF8.8817841970012523e-16
aF-5.6843418860808015e-14
aF-9.3428793767990803e-15
aF-1.4424507847456107e-30
aF-1.7691835415640811e-14
aF1
aF1
aF1.0000000000000002
aa(lp509
Vgun_stock_base_in_top_anim_space_switcher_follow
p510
a(lp511
Vvisibility
p512
aVtranslateX
p513
aVtranslateY
p514
aVtranslateZ
p515
aVrotateX
p516
aVrotateY
p517
aVrotateZ
p518
aVscaleX
p519
aVscaleY
p520
aVscaleZ
p521
aaI01
aF0
aF0
aF-2.8421709430404007e-14
aF-9.3428793767990803e-15
aF-1.4424507847456107e-30
aF-1.7691835415640811e-14
aF1
aF1
aF1.0000000000000002
aa(lp522
Vgun_stock_base_out_bott_anim_space_switcher_follow
p523
a(lp524
Vvisibility
p525
aVtranslateX
p526
aVtranslateY
p527
aVtranslateZ
p528
aVrotateX
p529
aVrotateY
p530
aVrotateZ
p531
aVscaleX
p532
aVscaleY
p533
aVscaleZ
p534
aaI01
aF0
aF5.3290705182007514e-15
aF-8.5265128291212022e-14
aF-9.3428793767990803e-15
aF-1.4424507847456107e-30
aF-1.7691835415640811e-14
aF1
aF1
aF1.0000000000000002
aa(lp535
Vgun_stock_base_out_top_anim_space_switcher_follow
p536
a(lp537
Vvisibility
p538
aVtranslateX
p539
aVtranslateY
p540
aVtranslateZ
p541
aVrotateX
p542
aVrotateY
p543
aVrotateZ
p544
aVscaleX
p545
aVscaleY
p546
aVscaleZ
p547
aaI01
aF0
aF-1.7763568394002505e-15
aF0
aF-9.3428793767990803e-15
aF-1.4424507847456107e-30
aF-1.7691835415640811e-14
aF1
aF1
aF1.0000000000000002
aa(lp548
Vgun_stock_bott_anim_space_switcher_follow
p549
a(lp550
Vvisibility
p551
aVtranslateX
p552
aVtranslateY
p553
aVtranslateZ
p554
aVrotateX
p555
aVrotateY
p556
aVrotateZ
p557
aVscaleX
p558
aVscaleY
p559
aVscaleZ
p560
aaI01
aF2.8421709430404007e-14
aF1.7832957333041577e-15
aF-2.8421709430404007e-14
aF2.0196522227293334e-13
aF6.3611093629268908e-15
aF8.1302929044911165e-14
aF1
aF1
aF1.0000000000000002
aa(lp561
Vgun_stock_in_bott_anim_space_switcher_follow
p562
a(lp563
Vvisibility
p564
aVtranslateX
p565
aVtranslateY
p566
aVtranslateZ
p567
aVrotateX
p568
aVrotateY
p569
aVrotateZ
p570
aVscaleX
p571
aVscaleY
p572
aVscaleZ
p573
aaI01
aF-2.8421709430404007e-14
aF1.7763568394002505e-15
aF2.8421709430404007e-14
aF-9.3428793767990803e-15
aF-1.4424507847456107e-30
aF-1.7691835415640811e-14
aF1
aF1
aF1.0000000000000002
aa(lp574
Vgun_stock_in_top_anim_space_switcher_follow
p575
a(lp576
Vvisibility
p577
aVtranslateX
p578
aVtranslateY
p579
aVtranslateZ
p580
aVrotateX
p581
aVrotateY
p582
aVrotateZ
p583
aVscaleX
p584
aVscaleY
p585
aVscaleZ
p586
aaI01
aF-2.8421709430404007e-14
aF0
aF2.8421709430404007e-14
aF-9.3428793767990803e-15
aF-1.4424507847456107e-30
aF-1.7691835415640811e-14
aF1
aF1
aF1.0000000000000002
aa(lp587
Vgun_stock_panel_l_anim_space_switcher_follow
p588
a(lp589
Vvisibility
p590
aVtranslateX
p591
aVtranslateY
p592
aVtranslateZ
p593
aVrotateX
p594
aVrotateY
p595
aVrotateZ
p596
aVscaleX
p597
aVscaleY
p598
aVscaleZ
p599
aaI01
aF-5.6843418860808015e-14
aF3.5527136788005009e-15
aF2.8421709430404007e-14
aF2.0196522227293334e-13
aF6.3611093629268908e-15
aF8.1302929044911165e-14
aF1
aF1
aF1.0000000000000002
aa(lp600
Vgun_stock_panel_r_anim_space_switcher_follow
p601
a(lp602
Vvisibility
p603
aVtranslateX
p604
aVtranslateY
p605
aVtranslateZ
p606
aVrotateX
p607
aVrotateY
p608
aVrotateZ
p609
aVscaleX
p610
aVscaleY
p611
aVscaleZ
p612
aaI01
aF2.8421709430404007e-14
aF-1.7763568394002505e-15
aF-2.8421709430404007e-14
aF1.2324649390671124e-14
aF-3.3544912656060389e-16
aF-1.2324649390671124e-14
aF1
aF1
aF1.0000000000000002
aa(lp613
Vheel_plate_l_anim_space_switcher_follow
p614
a(lp615
Vvisibility
p616
aVtranslateX
p617
aVtranslateY
p618
aVtranslateZ
p619
aVrotateX
p620
aVrotateY
p621
aVrotateZ
p622
aVscaleX
p623
aVscaleY
p624
aVscaleZ
p625
aaI01
aF-1.0658141036401503e-14
aF1.7763568394002505e-15
aF-1.7763568394002505e-15
aF3.8825130388958926e-19
aF-1.2448307430959959e-17
aF3.975693351829395e-16
aF1
aF1
aF1
aa(lp626
Vheel_plate_r_anim_space_switcher_follow
p627
a(lp628
Vvisibility
p629
aVtranslateX
p630
aVtranslateY
p631
aVtranslateZ
p632
aVrotateX
p633
aVrotateY
p634
aVrotateZ
p635
aVscaleX
p636
aVscaleY
p637
aVscaleZ
p638
aaI01
aF7.1054273576010019e-15
aF1.7763568394002505e-15
aF8.8817841970012523e-16
aF-1.7350950770825749e-15
aF4.9696166897867449e-17
aF3.975693351829395e-16
aF0.99999999999999989
aF0.99999999999999989
aF0.99999999999999978
aa(lp639
Vhelmet_sight_anim_space_switcher_follow
p640
a(lp641
Vvisibility
p642
aVtranslateX
p643
aVtranslateY
p644
aVtranslateZ
p645
aVrotateX
p646
aVrotateY
p647
aVrotateZ
p648
aVscaleX
p649
aVscaleY
p650
aVscaleZ
p651
aaI01
aF0
aF0
aF0
aF0
aF0
aF0
aF1
aF1
aF1
aa(lp652
Vik_elbow_l_anim_space_switcher_follow
p653
a(lp654
Vvisibility
p655
aVtranslateX
p656
aVtranslateY
p657
aVtranslateZ
p658
aVrotateX
p659
aVrotateY
p660
aVrotateZ
p661
aVscaleX
p662
aVscaleY
p663
aVscaleZ
p664
aaI01
aF47.990892976592463
aF22.468191987694581
aF153.88766657377778
aF0
aF0
aF0
aF1
aF1
aF1
aa(lp665
Vik_elbow_r_anim_space_switcher_follow
p666
a(lp667
Vvisibility
p668
aVtranslateX
p669
aVtranslateY
p670
aVtranslateZ
p671
aVrotateX
p672
aVrotateY
p673
aVrotateZ
p674
aVscaleX
p675
aVscaleY
p676
aVscaleZ
p677
aaI01
aF-47.990888824069046
aF22.469545309016567
aF153.88779960025778
aF0
aF0
aF0
aF1
aF1
aF1
aa(lp678
Vik_foot_anim_l_space_switcher_follow
p679
a(lp680
Vvisibility
p681
aVtranslateX
p682
aVtranslateY
p683
aVtranslateZ
p684
aVrotateX
p685
aVrotateY
p686
aVrotateZ
p687
aVscaleX
p688
aVscaleY
p689
aVscaleZ
p690
aaI01
aF17.761112866131473
aF4.8391793611151463
aF14.190699637299787
aF0
aF0
aF0
aF1
aF1
aF1
aa(lp691
Vik_foot_anim_r_space_switcher_follow
p692
a(lp693
Vvisibility
p694
aVtranslateX
p695
aVtranslateY
p696
aVtranslateZ
p697
aVrotateX
p698
aVrotateY
p699
aVrotateZ
p700
aVscaleX
p701
aVscaleY
p702
aVscaleZ
p703
aaI01
aF-17.761136311579595
aF4.8391945622563259
aF14.190509366785321
aF0
aF0
aF0
aF1
aF1
aF1
aa(lp704
Vik_wrist_l_anim_space_switcher_follow
p705
a(lp706
Vvisibility
p707
aVtranslateX
p708
aVtranslateY
p709
aVtranslateZ
p710
aVrotateX
p711
aVrotateY
p712
aVrotateZ
p713
aVscaleX
p714
aVscaleY
p715
aVscaleZ
p716
aaI01
aF77.841590895221714
aF8.9201786053900882
aF154.414881892393
aF5.9635400277440939e-16
aF5.5139345082673479e-31
aF-1.0595222782625341e-13
aF1
aF1
aF1
aa(lp717
Vik_wrist_r_anim_space_switcher_follow
p718
a(lp719
Vvisibility
p720
aVtranslateX
p721
aVtranslateY
p722
aVtranslateZ
p723
aVrotateX
p724
aVrotateY
p725
aVrotateZ
p726
aVscaleX
p727
aVscaleY
p728
aVscaleZ
p729
aaI01
aF-77.841680515764494
aF8.9201665166468587
aF154.41492576619629
aF0
aF0
aF0
aF1
aF1
aF1
aa(lp730
Vinvis_legs_ik_foot_anim_l_space_switcher_follow
p731
a(lp732
Vvisibility
p733
aVtranslateX
p734
aVtranslateY
p735
aVtranslateZ
p736
aVrotateX
p737
aVrotateY
p738
aVrotateZ
p739
aVscaleX
p740
aVscaleY
p741
aVscaleZ
p742
aaI01
aF17.761112866131473
aF4.8391793611151472
aF14.190699637299829
aF0
aF0
aF0
aF1
aF1
aF1
aa(lp743
Vinvis_legs_ik_foot_anim_r_space_switcher_follow
p744
a(lp745
Vvisibility
p746
aVtranslateX
p747
aVtranslateY
p748
aVtranslateZ
p749
aVrotateX
p750
aVrotateY
p751
aVrotateZ
p752
aVscaleX
p753
aVscaleY
p754
aVscaleZ
p755
aaI01
aF-17.761136311579595
aF4.8391945622563268
aF14.190509366785363
aF0
aF0
aF0
aF1
aF1
aF1
aa(lp756
Vjaw_anim_space_switcher_follow
p757
a(lp758
Vvisibility
p759
aVtranslateX
p760
aVtranslateY
p761
aVtranslateZ
p762
aVrotateX
p763
aVrotateY
p764
aVrotateZ
p765
aVscaleX
p766
aVscaleY
p767
aVscaleZ
p768
aaI01
aF1.5777218104420236e-30
aF0
aF0
aF0
aF0
aF0
aF1
aF1
aF1
aa(lp769
Vl_global_ik_anim_space_switcher_follow
p770
a(lp771
Vvisibility
p772
aVtranslateX
p773
aVtranslateY
p774
aVtranslateZ
p775
aVrotateX
p776
aVrotateY
p777
aVrotateZ
p778
aVscaleX
p779
aVscaleY
p780
aVscaleZ
p781
aaI01
aF13.742419246221459
aF0.51065306949638334
aF-12.324741867152028
aF0
aF0
aF0
aF1
aF1
aF1
aa(lp782
Vmask_anim_space_switcher_follow
p783
a(lp784
Vvisibility
p785
aVtranslateX
p786
aVtranslateY
p787
aVtranslateZ
p788
aVrotateX
p789
aVrotateY
p790
aVrotateZ
p791
aVscaleX
p792
aVscaleY
p793
aVscaleZ
p794
aaI01
aF-1.5199148666143472e-14
aF-8.8817841970012523e-16
aF5.6843418860808015e-14
aF-5.3694306028202953e-15
aF-9.939233379573486e-16
aF1.851182216945562e-15
aF1
aF1
aF1
aa(lp795
Vmaster_anim_space_switcher_follow
p796
a(lp797
Vvisibility
p798
aVtranslateX
p799
aVtranslateY
p800
aVtranslateZ
p801
aVrotateX
p802
aVrotateY
p803
aVrotateZ
p804
aVscaleX
p805
aVscaleY
p806
aVscaleZ
p807
aaI01
aF0
aF0
aF0
aF0
aF0
aF0
aF1
aF1
aF1
aa(lp808
Vpack_hose_in_anim_space_switcher_follow
p809
a(lp810
Vvisibility
p811
aVtranslateX
p812
aVtranslateY
p813
aVtranslateZ
p814
aVrotateX
p815
aVrotateY
p816
aVrotateZ
p817
aVscaleX
p818
aVscaleY
p819
aVscaleZ
p820
aaI01
aF-7.1054273576010019e-15
aF-7.1054273576010019e-15
aF-2.8421709430404007e-14
aF-4.9696166897867451e-15
aF2.4569595604380767e-31
aF5.6653630263568893e-15
aF0.99999999999999989
aF0.99999999999999989
aF0.99999999999999989
aa(lp821
Vpack_hose_out_anim_space_switcher_follow
p822
a(lp823
Vvisibility
p824
aVtranslateX
p825
aVtranslateY
p826
aVtranslateZ
p827
aVrotateX
p828
aVrotateY
p829
aVrotateZ
p830
aVscaleX
p831
aVscaleY
p832
aVscaleZ
p833
aaI01
aF7.1054273576010019e-15
aF-2.6645352591003757e-15
aF0
aF-1.987846675914698e-15
aF-4.969616689786744e-16
aF6.2617170291312993e-15
aF1.0000000000000002
aF1.0000000000000002
aF1.0000000000000002
aa(lp834
Vr_global_ik_anim_space_switcher_follow
p835
a(lp836
Vvisibility
p837
aVtranslateX
p838
aVtranslateY
p839
aVtranslateZ
p840
aVrotateX
p841
aVrotateY
p842
aVrotateZ
p843
aVscaleX
p844
aVscaleY
p845
aVscaleZ
p846
aaI01
aF-13.742329497787324
aF0.5106384547227627
aF-12.324858505646773
aF0
aF0
aF0
aF1
aF1
aF1
aa(lp847
Vshotgun_anim_space_switcher_follow
p848
a(lp849
Vvisibility
p850
aVtranslateX
p851
aVtranslateY
p852
aVtranslateZ
p853
aVrotateX
p854
aVrotateY
p855
aVrotateZ
p856
aVscaleX
p857
aVscaleY
p858
aVscaleZ
p859
aaI01
aF-1.3600232051658168e-15
aF1.4210854715202004e-14
aF-2.8421709430404007e-14
aF3.1777786846407064e-14
aF-3.103525622771822e-14
aF3.5676897628544153e-15
aF1
aF1
aF1.0000000000000002
aa(lp860
Vshotgun_base_anim_space_switcher_follow
p861
a(lp862
Vvisibility
p863
aVtranslateX
p864
aVtranslateY
p865
aVtranslateZ
p866
aVrotateX
p867
aVrotateY
p868
aVrotateZ
p869
aVscaleX
p870
aVscaleY
p871
aVscaleZ
p872
aaI01
aF-7.1054273576010019e-15
aF0
aF0
aF0
aF0
aF0
aF1
aF1
aF1
aa(lp873
Vshotgun_clip_anim_space_switcher_follow
p874
a(lp875
Vvisibility
p876
aVtranslateX
p877
aVtranslateY
p878
aVtranslateZ
p879
aVrotateX
p880
aVrotateY
p881
aVrotateZ
p882
aVscaleX
p883
aVscaleY
p884
aVscaleZ
p885
aaI01
aF-4.4408920985006262e-16
aF0
aF2.8421709430404007e-14
aF-3.0128301181832142e-16
aF-1.2424041724466862e-17
aF-2.4265706493099336e-19
aF1
aF0.99999999999999989
aF1
aa(lp886
Vsniper_can_arm_01_anim_space_switcher_follow
p887
a(lp888
Vvisibility
p889
aVtranslateX
p890
aVtranslateY
p891
aVtranslateZ
p892
aVrotateX
p893
aVrotateY
p894
aVrotateZ
p895
aVscaleX
p896
aVscaleY
p897
aVscaleZ
p898
aaI01
aF5.0487097934144756e-29
aF0
aF0
aF0
aF0
aF0
aF1
aF1
aF1
aa(lp899
Vsniper_can_arm_02_anim_space_switcher_follow
p900
a(lp901
Vvisibility
p902
aVtranslateX
p903
aVtranslateY
p904
aVtranslateZ
p905
aVrotateX
p906
aVrotateY
p907
aVrotateZ
p908
aVscaleX
p909
aVscaleY
p910
aVscaleZ
p911
aaI01
aF0
aF0
aF0
aF0
aF0
aF0
aF1
aF1
aF1
aa(lp912
Vsniper_can_arm_03_anim_space_switcher_follow
p913
a(lp914
Vvisibility
p915
aVtranslateX
p916
aVtranslateY
p917
aVtranslateZ
p918
aVrotateX
p919
aVrotateY
p920
aVrotateZ
p921
aVscaleX
p922
aVscaleY
p923
aVscaleZ
p924
aaI01
aF1.1628279054400666e-14
aF1.4210854715202004e-14
aF0
aF1.3358329662146771e-13
aF1.113194138512229e-14
aF1.7493050748049356e-14
aF1
aF1
aF1
aa(lp925
Vspine_01_space_switcher_follow
p926
a(lp927
Vvisibility
p928
aVtranslateX
p929
aVtranslateY
p930
aVtranslateZ
p931
aVrotateX
p932
aVrotateY
p933
aVrotateZ
p934
aVscaleX
p935
aVscaleY
p936
aVscaleZ
p937
aaI01
aF10.833364173561591
aF-0.74590776129230529
aF1.1050585362634262e-14
aF-9.6434927585604852e-17
aF6.3634839495302395e-15
aF1.8433851775094461
aF0.99999999999999978
aF0.99999999999999989
aF0.99999999999999978
aa(lp938
Vtrap_handle_anim_space_switcher_follow
p939
a(lp940
Vvisibility
p941
aVtranslateX
p942
aVtranslateY
p943
aVtranslateZ
p944
aVrotateX
p945
aVrotateY
p946
aVrotateZ
p947
aVscaleX
p948
aVscaleY
p949
aVscaleZ
p950
aaI01
aF-1.4210854715202004e-14
aF2.8421709430404007e-14
aF-1.4210854715202004e-14
aF-5.4069429584879776e-14
aF-9.0043688480223199e-30
aF-1.9083328088781097e-14
aF1
aF1
aF1
aa(lp951
Vwrist_cover_anim_space_switcher_follow
p952
a(lp953
Vvisibility
p954
aVtranslateX
p955
aVtranslateY
p956
aVtranslateZ
p957
aVrotateX
p958
aVrotateY
p959
aVrotateZ
p960
aVscaleX
p961
aVscaleY
p962
aVscaleZ
p963
aaI01
aF7.1054273576010019e-15
aF5.6843418860808015e-14
aF0
aF2.4848083448933725e-17
aF3.975693351829396e-16
aF-3.975693351829396e-16
aF1
aF1
aF1
aa.