(lp1
(lp2
S'fk_clavicle_r_anim'
p3
a(lp4
VtranslateX
p5
aVtranslateY
p6
aVtranslateZ
p7
aVrotateX
p8
aVrotateY
p9
aVrotateZ
p10
aaF0
aF0
aF0
aF0
aF-0
aF0
aa(lp11
S'fk_clavicle_l_anim'
p12
a(lp13
VtranslateX
p14
aVtranslateY
p15
aVtranslateZ
p16
aVrotateX
p17
aVrotateY
p18
aVrotateZ
p19
aaF0
aF0
aF0
aF0
aF-0
aF0
aa(lp20
S'head_fk_anim'
p21
a(lp22
VtranslateX
p23
aVtranslateY
p24
aVtranslateZ
p25
aVrotateX
p26
aVrotateY
p27
aVrotateZ
p28
aVscaleX
p29
aVscaleY
p30
aVscaleZ
p31
aVfkOrientation
p32
aVblendOrient1
p33
aaF0
aF0
aF0
aF7.5068694956008519
aF4.7769659379332658
aF14.764653064759743
aF1
aF1
aF1
aI0
aF0
aa(lp34
S'neck_01_fk_anim'
p35
a(lp36
VtranslateX
p37
aVtranslateY
p38
aVtranslateZ
p39
aVrotateX
p40
aVrotateY
p41
aVrotateZ
p42
aVscaleX
p43
aVscaleY
p44
aVscaleZ
p45
aVfkOrientation
p46
aVblendOrient1
p47
aaF0
aF0
aF0
aF3.0550255033364979
aF7.5332457961366357
aF9.1253269188565334
aF1
aF1
aF1
aI0
aF0
aa(lp48
S'spine_01_anim'
p49
a(lp50
Vlength
p51
aVtranslateY
p52
aVtranslateZ
p53
aVrotateX
p54
aVrotateY
p55
aVrotateZ
p56
aVblendOrient1
p57
aaF0
aF0
aF0
aF1.764680221339695
aF1.1859212645609529
aF-2.0273083731955741
aF0
aa(lp58
S'spine_02_anim'
p59
a(lp60
Vlength
p61
aVtranslateY
p62
aVtranslateZ
p63
aVrotateX
p64
aVrotateY
p65
aVrotateZ
p66
aVblendOrient1
p67
aaF0
aF0
aF0
aF3.9749557476068098
aF1.5034552360791407
aF-8.4280435311700312
aF0
aa(lp68
S'spine_03_anim'
p69
a(lp70
Vlength
p71
aVtranslateY
p72
aVtranslateZ
p73
aVrotateX
p74
aVrotateY
p75
aVrotateZ
p76
aVblendOrient1
p77
aaF0
aF0
aF0
aF3.8080753885517171
aF1.8869774578777394
aF-8.4385844259771954
aF0
aa(lp78
S'mid_ik_anim'
p79
a(lp80
VtranslateX
p81
aVtranslateY
p82
aVtranslateZ
p83
aVrotateX
p84
aVrotateY
p85
aVrotateZ
p86
aVblendParent1
p87
aaF-7.2515968324873796
aF-1.3918490082380002
aF-0.26247164722584504
aF5.7857757849363169
aF2.6619788217504357
aF-6.5855717954251984
aF0
aa(lp88
S'chest_ik_anim'
p89
a(lp90
VtranslateX
p91
aVtranslateY
p92
aVtranslateZ
p93
aVrotateX
p94
aVrotateY
p95
aVrotateZ
p96
aVstretch
p97
aVsquash
p98
aVtwist_amount
p99
aVautoSpine
p100
aVrotationInfluence
p101
aVblendParent1
p102
aaF-0.010899757489085005
aF-4.6858530443315214
aF-1.7845364329471272
aF11.563433536086279
aF-0.96707770447964758
aF-15.022185487910646
aF0
aF0
aF1
aF0
aF0
aF0
aa(lp103
S'body_anim'
p104
a(lp105
VtranslateX
p106
aVtranslateY
p107
aVtranslateZ
p108
aVrotateX
p109
aVrotateY
p110
aVrotateZ
p111
aVrib_panel_l
p112
aVrib_panel_r
p113
aVupperback_panel_l
p114
aVupperback_panel_r
p115
aVlowerback_panel_l
p116
aVlowerback_panel_r
p117
aVback_gem
p118
aVblendParent1
p119
aaF-18.599478105181078
aF25.086830106115485
aF-4.2192747868274907
aF-27.583225277952018
aF5.0610789960105089
aF-17.484944265891059
aF0
aF0
aF0
aF0
aF0
aF0
aF0
aF0
aa(lp120
S'hip_anim'
p121
a(lp122
VtranslateX
p123
aVtranslateY
p124
aVtranslateZ
p125
aVrotateX
p126
aVrotateY
p127
aVrotateZ
p128
aVautoHips
p129
aaF0
aF0
aF0
aF-0
aF0
aF-0
aF0
aa(lp130
S'clavicle_l_anim'
p131
a(lp132
VtranslateX
p133
aVtranslateY
p134
aVtranslateZ
p135
aVautoShoulders
p136
aVblendPoint1
p137
aaF0.90671975693082452
aF-14.051875288597811
aF0.36644493078066542
aF0
aF0
aa(lp138
S'clavicle_r_anim'
p139
a(lp140
VtranslateX
p141
aVtranslateY
p142
aVtranslateZ
p143
aVautoShoulders
p144
aVblendPoint1
p145
aaF-0.80063644401944956
aF-0.063815479224427207
aF4.7106791507106607
aF0
aF0
aa(lp146
S'fk_arm_l_anim'
p147
a(lp148
VtranslateX
p149
aVtranslateY
p150
aVtranslateZ
p151
aVrotateX
p152
aVrotateY
p153
aVrotateZ
p154
aVblendOrient1
p155
aaF0
aF0
aF0
aF0.71844627191562194
aF50.199307387207583
aF21.044209710992018
aF0
aa(lp156
S'fk_arm_r_anim'
p157
a(lp158
VtranslateX
p159
aVtranslateY
p160
aVtranslateZ
p161
aVrotateX
p162
aVrotateY
p163
aVrotateZ
p164
aVblendOrient1
p165
aaF0
aF0
aF0
aF18.658990977752946
aF55.80959239639801
aF24.794495404675747
aF0
aa(lp166
S'fk_elbow_l_anim'
p167
a(lp168
VtranslateX
p169
aVtranslateY
p170
aVtranslateZ
p171
aVrotateX
p172
aVrotateY
p173
aVrotateZ
p174
aVblendOrient1
p175
aaF0
aF0
aF0
aF3.6207230091094984
aF-8.5811777114868146
aF-51.348369598388665
aF0
aa(lp176
S'fk_elbow_r_anim'
p177
a(lp178
VtranslateX
p179
aVtranslateY
p180
aVtranslateZ
p181
aVrotateX
p182
aVrotateY
p183
aVrotateZ
p184
aVblendOrient1
p185
aaF0
aF0
aF0
aF4.6796240806579599
aF-10.985393524169929
aF-49.783313751220703
aF0
aa(lp186
S'fk_wrist_l_anim'
p187
a(lp188
VtranslateX
p189
aVtranslateY
p190
aVtranslateZ
p191
aVrotateX
p192
aVrotateY
p193
aVrotateZ
p194
aVblendOrient1
p195
aaF0
aF0
aF0
aF-21.495807647705057
aF4.7338509559631401
aF-11.279264450073239
aF0
aa(lp196
S'fk_wrist_r_anim'
p197
a(lp198
VtranslateX
p199
aVtranslateY
p200
aVtranslateZ
p201
aVrotateX
p202
aVrotateY
p203
aVrotateZ
p204
aVblendOrient1
p205
aaF0
aF0
aF0
aF-10.423811912536621
aF-2.3258218765258789
aF-13.251907348632812
aF0
aa(lp206
S'ik_elbow_l_anim'
p207
a(lp208
VtranslateX
p209
aVtranslateY
p210
aVtranslateZ
p211
aVblendPoint1
p212
aaF54.314841379920622
aF-17.456288415030436
aF-71.366504801028498
aF0
aa(lp213
S'ik_elbow_r_anim'
p214
a(lp215
VtranslateX
p216
aVtranslateY
p217
aVtranslateZ
p218
aVblendPoint1
p219
aaF43.451362865441361
aF105.71797589497066
aF-7.1237712422395703
aF0
aa(lp220
S'ik_wrist_l_anim'
p221
a(lp222
VtranslateX
p223
aVtranslateY
p224
aVtranslateZ
p225
aVrotateX
p226
aVrotateY
p227
aVrotateZ
p228
aVstretch
p229
aVsquash
p230
aVstretchBias
p231
aVside
p232
aVmid_bend
p233
aVmid_swivel
p234
aVtip_pivot
p235
aVtip_swivel
p236
aVblendParent1
p237
aaF-152.42454979569743
aF-32.754159102408387
aF-100.68808000260228
aF-154.39620913830598
aF19.075316437389276
aF-163.57092215403762
aF0
aF0
aF0
aF0
aF0
aF0
aF0
aF0
aF0
aa(lp238
S'ik_wrist_r_anim'
p239
a(lp240
VtranslateX
p241
aVtranslateY
p242
aVtranslateZ
p243
aVrotateX
p244
aVrotateY
p245
aVrotateZ
p246
aVstretch
p247
aVsquash
p248
aVstretchBias
p249
aVside
p250
aVmid_bend
p251
aVmid_swivel
p252
aVtip_pivot
p253
aVtip_swivel
p254
aVblendParent1
p255
aaF87.807222054291159
aF46.593993712104464
aF-76.269103973990227
aF-12.208129094514588
aF-57.673608157912227
aF24.740834598814402
aF0
aF0
aF0
aF0
aF0
aF0
aF0
aF0
aF0
aa(lp256
S'fk_thigh_l_anim'
p257
a(lp258
VrotateX
p259
aVrotateY
p260
aVrotateZ
p261
aVblendOrient1
p262
aaF2.5464947223663281
aF-28.61659049987794
aF72.725635525571704
aF0
aa(lp263
S'fk_thigh_r_anim'
p264
a(lp265
VrotateX
p266
aVrotateY
p267
aVrotateZ
p268
aVblendOrient1
p269
aaF-3.8005549907684286
aF-18.847873687744137
aF50.047527310239637
aF0
aa(lp270
S'fk_calf_l_anim'
p271
a(lp272
VrotateX
p273
aVrotateY
p274
aVrotateZ
p275
aVblendOrient1
p276
aaF5.1740455627441397
aF1.0692874193191551
aF-47.793495178222692
aF0
aa(lp277
S'fk_calf_r_anim'
p278
a(lp279
VrotateX
p280
aVrotateY
p281
aVrotateZ
p282
aVblendOrient1
p283
aaF-3.2779603004455597
aF9.065861701965332
aF-49.121822357177713
aF0
aa(lp284
S'fk_foot_l_anim'
p285
a(lp286
VrotateX
p287
aVrotateY
p288
aVrotateZ
p289
aVblendOrient1
p290
aaF-18.384011971343512
aF9.7755546089794851
aF-7.5727325063444333
aF0
aa(lp291
S'fk_foot_r_anim'
p292
a(lp293
VrotateX
p294
aVrotateY
p295
aVrotateZ
p296
aVblendOrient1
p297
aaF-7.2894337876020936
aF9.5406884974442949
aF15.437473576945731
aF0
aa(lp298
S'ik_foot_anim_l'
p299
a(lp300
VtranslateX
p301
aVtranslateY
p302
aVtranslateZ
p303
aVrotateX
p304
aVrotateY
p305
aVrotateZ
p306
aVknee_twist
p307
aVstretch
p308
aVsquash
p309
aVtoeCtrlVis
p310
aVstretchBias
p311
aVKneeFlex
p312
aVblendPoint1
p313
aVblendOrient1
p314
aaF10.380274729607038
aF-25.161884862233666
aF2.2204460492503131e-16
aF0
aF-0.078758865816698775
aF0
aF0
aF0
aF0
aI00
aF0
aF0
aF0
aF0
aa(lp315
S'ik_foot_anim_r'
p316
a(lp317
VtranslateX
p318
aVtranslateY
p319
aVtranslateZ
p320
aVrotateX
p321
aVrotateY
p322
aVrotateZ
p323
aVknee_twist
p324
aVstretch
p325
aVsquash
p326
aVtoeCtrlVis
p327
aVstretchBias
p328
aVKneeFlex
p329
aVblendPoint1
p330
aVblendOrient1
p331
aaF-7.0047252703929619
aF32.845400386329118
aF2.2204460492503131e-16
aF31.632785603025972
aF24.048979692136587
aF-6.9834203572883053
aF0
aF0
aF0
aI00
aF0
aF0
aF0
aF0
aa(lp332
S'heel_ctrl_l'
p333
a(lp334
VrotateX
p335
aVrotateY
p336
aVrotateZ
p337
aVheelPivot
p338
aVballPivot
p339
aaF0
aF-0
aF0
aF0
aF0
aa(lp340
S'heel_ctrl_r'
p341
a(lp342
VrotateX
p343
aVrotateY
p344
aVrotateZ
p345
aVheelPivot
p346
aVballPivot
p347
aaF0
aF-0
aF0
aF0
aF0
aa(lp348
S'toe_wiggle_ctrl_l'
p349
a(lp350
VrotateX
p351
aVrotateY
p352
aVrotateZ
p353
aaF0
aF-0
aF0
aa(lp354
S'toe_wiggle_ctrl_r'
p355
a(lp356
VrotateX
p357
aVrotateY
p358
aVrotateZ
p359
aaF0
aF-0
aF0
aa(lp360
S'toe_tip_ctrl_l'
p361
a(lp362
VrotateX
p363
aVrotateY
p364
aVrotateZ
p365
aaF0
aF-0
aF0
aa(lp366
S'toe_tip_ctrl_r'
p367
a(lp368
VrotateX
p369
aVrotateY
p370
aVrotateZ
p371
aaF0
aF-0
aF0
aa(lp372
S'master_anim'
p373
a(lp374
VtranslateX
p375
aVtranslateY
p376
aVtranslateZ
p377
aVrotateX
p378
aVrotateY
p379
aVrotateZ
p380
aaF0
aF0
aF0
aF0
aF-0
aF0
aa(lp381
S'offset_anim'
p382
a(lp383
VtranslateX
p384
aVtranslateY
p385
aVtranslateZ
p386
aVrotateX
p387
aVrotateY
p388
aVrotateZ
p389
aaF0
aF0
aF0
aF0
aF-0
aF0
aa(lp390
S'root_anim'
p391
a(lp392
VtranslateX
p393
aVtranslateY
p394
aVtranslateZ
p395
aVrotateX
p396
aVrotateY
p397
aVrotateZ
p398
aaF0
aF0
aF0
aF0
aF-0
aF0
aa(lp399
S'middle_finger_fk_ctrl_1_l'
p400
a(lp401
VtranslateX
p402
aVtranslateY
p403
aVtranslateZ
p404
aVrotateX
p405
aVrotateY
p406
aVrotateZ
p407
aVsticky
p408
aVblendOrient1
p409
aaF0
aF0
aF0
aF2.0731472160025161e-05
aF-0
aF100.4909420807674
aF0
aF0
aa(lp410
S'middle_finger_fk_ctrl_1_r'
p411
a(lp412
VtranslateX
p413
aVtranslateY
p414
aVtranslateZ
p415
aVrotateX
p416
aVrotateY
p417
aVrotateZ
p418
aVsticky
p419
aVblendOrient1
p420
aaF-5.1409796189345691
aF4.1496726170947023
aF0.001040878923158628
aF0.00013227714303210358
aF-0.00012910100527085635
aF96.546280343726593
aF0
aF0
aa(lp421
S'middle_finger_fk_ctrl_2_l'
p422
a(lp423
VtranslateX
p424
aVtranslateY
p425
aVtranslateZ
p426
aVrotateX
p427
aVrotateY
p428
aVrotateZ
p429
aVblendOrient1
p430
aaF0
aF0
aF0
aF0
aF-1.3904322786465325e-05
aF45.624951277288005
aF0
aa(lp431
S'middle_finger_fk_ctrl_2_r'
p432
a(lp433
VtranslateX
p434
aVtranslateY
p435
aVtranslateZ
p436
aVrotateX
p437
aVrotateY
p438
aVrotateZ
p439
aVblendOrient1
p440
aaF0
aF0
aF0
aF-5.2665069351549043e-06
aF2.2330186847611062e-06
aF37.250411885841814
aF0
aa(lp441
S'index_finger_fk_ctrl_1_l'
p442
a(lp443
VtranslateX
p444
aVtranslateY
p445
aVtranslateZ
p446
aVrotateX
p447
aVrotateY
p448
aVrotateZ
p449
aVsticky
p450
aVblendOrient1
p451
aaF0
aF0
aF4.1076152185399666
aF2.5149467036268965e-05
aF-6.064455599813408e-06
aF100.49093446160522
aF0
aF0
aa(lp452
S'index_finger_fk_ctrl_1_r'
p453
a(lp454
VtranslateX
p455
aVtranslateY
p456
aVtranslateZ
p457
aVrotateX
p458
aVrotateY
p459
aVrotateZ
p460
aVsticky
p461
aVblendOrient1
p462
aaF-4.9092855866399008
aF4.450140350431445
aF0.0031593639879257118
aF0.00012284926538498554
aF-0.00014714739324702856
aF96.546283354022336
aF0
aF0
aa(lp463
S'index_finger_fk_ctrl_2_l'
p464
a(lp465
VtranslateX
p466
aVtranslateY
p467
aVtranslateZ
p468
aVrotateX
p469
aVrotateY
p470
aVrotateZ
p471
aVblendOrient1
p472
aaF0
aF0
aF0
aF-1.3054668482857286e-05
aF-0
aF45.624977542455312
aF0
aa(lp473
S'index_finger_fk_ctrl_2_r'
p474
a(lp475
VtranslateX
p476
aVtranslateY
p477
aVtranslateZ
p478
aVrotateX
p479
aVrotateY
p480
aVrotateZ
p481
aVblendOrient1
p482
aaF0
aF0
aF0
aF2.9170042486026457e-06
aF3.8359980864368016e-06
aF37.250411885842354
aF0
aa(lp483
S'thumb_finger_fk_ctrl_1_l'
p484
a(lp485
VtranslateX
p486
aVtranslateY
p487
aVtranslateZ
p488
aVrotateX
p489
aVrotateY
p490
aVrotateZ
p491
aVsticky
p492
aVblendOrient1
p493
aaF-0.55461579946711881
aF-0.28821810727159836
aF3.9428311726810725
aF-35.204673075700789
aF11.098755486000991
aF-13.575901135872559
aF0
aF0
aa(lp494
S'thumb_finger_fk_ctrl_1_r'
p495
a(lp496
VtranslateX
p497
aVtranslateY
p498
aVtranslateZ
p499
aVrotateX
p500
aVrotateY
p501
aVrotateZ
p502
aVsticky
p503
aVblendOrient1
p504
aaF-0.095124361994358614
aF-0.6213872335652848
aF-0.41093836382404353
aF27.832881462750372
aF11.776436141113047
aF-12.379815027131684
aF0
aF0
aa(lp505
S'thumb_finger_fk_ctrl_2_l'
p506
a(lp507
VtranslateX
p508
aVtranslateY
p509
aVtranslateZ
p510
aVrotateX
p511
aVrotateY
p512
aVrotateZ
p513
aVblendOrient1
p514
aaF0
aF0
aF0
aF4.5176652610079639e-06
aF7.8840443172684925e-06
aF5.7863487844709079e-06
aF0
aa(lp515
S'thumb_finger_fk_ctrl_2_r'
p516
a(lp517
VtranslateX
p518
aVtranslateY
p519
aVtranslateZ
p520
aVrotateX
p521
aVrotateY
p522
aVrotateZ
p523
aVblendOrient1
p524
aaF0
aF0
aF0
aF6.6806205855039648e-06
aF-1.4949788247422682e-05
aF7.8264110913520615e-06
aF0
aa(lp525
S'Rig_Settings'
p526
a(lp527
Vspine_ik
p528
aVspine_fk
p529
aVlLegMode
p530
aVrLegMode
p531
aVlFkArmOrient
p532
aVlArmMode
p533
aVlClavMode
p534
aVrFkArmOrient
p535
aVrArmMode
p536
aVrClavMode
p537
aaF1
aF0
aI1
aI1
aI0
aI1
aI1
aI0
aI1
aI1
aa(lp538
Vshoulderblade_r_anim
p539
a(lp540
VtranslateX
p541
aVtranslateY
p542
aVtranslateZ
p543
aVrotateX
p544
aVrotateY
p545
aVrotateZ
p546
aVscaleX
p547
aVscaleY
p548
aVscaleZ
p549
aVblendParent1
p550
aaF0.65781573867042908
aF0.054949051250275716
aF0.18233731166621681
aF0.14945990296850048
aF2.5798930983382955
aF0.12215225481825794
aF1
aF1
aF1
aF0
aa(lp551
Vshoulderpad_l_anim
p552
a(lp553
VtranslateX
p554
aVtranslateY
p555
aVtranslateZ
p556
aVrotateX
p557
aVrotateY
p558
aVrotateZ
p559
aVscaleX
p560
aVscaleY
p561
aVscaleZ
p562
aVblendParent1
p563
aaF-0.16220562079804779
aF-0.12515237837246218
aF-0.079923663160627711
aF0.25836740230051702
aF0.84475120507400236
aF0.11682258310875146
aF1
aF1
aF1
aF0
aa(lp564
Vshoulderblade_l_anim
p565
a(lp566
VtranslateX
p567
aVtranslateY
p568
aVtranslateZ
p569
aVrotateX
p570
aVrotateY
p571
aVrotateZ
p572
aVscaleX
p573
aVscaleY
p574
aVscaleZ
p575
aVblendParent1
p576
aaF-0.050191961128099649
aF-0.055464226549744922
aF0.0015019001741194415
aF0.14326151053588257
aF-0.32867531474898043
aF0.12203045478115708
aF1
aF1
aF1
aF0
aa(lp577
Vshoulderpad_r_anim
p578
a(lp579
VtranslateX
p580
aVtranslateY
p581
aVtranslateZ
p582
aVrotateX
p583
aVrotateY
p584
aVrotateZ
p585
aVscaleX
p586
aVscaleY
p587
aVscaleZ
p588
aVblendParent1
p589
aaF0.82393272944420914
aF0.12518726322809925
aF0.35644135807845601
aF0.2648575780286393
aF4.0216512027159492
aF0.11709822797784117
aF1
aF1
aF1
aF0
aa(lp590
Vheel_l_anim
p591
a(lp592
VtranslateX
p593
aVtranslateY
p594
aVtranslateZ
p595
aVrotateX
p596
aVrotateY
p597
aVrotateZ
p598
aVscaleX
p599
aVscaleY
p600
aVscaleZ
p601
aVblendParent1
p602
aaF10.702403423990773
aF-20.295546788196603
aF-0.68122411641322
aF37.1233257881794
aF1.466265793240042
aF12.175236864335886
aF1
aF1
aF1
aF0
aa(lp603
Vweapon_r_anim
p604
a(lp605
VtranslateX
p606
aVtranslateY
p607
aVtranslateZ
p608
aVrotateX
p609
aVrotateY
p610
aVrotateZ
p611
aVscaleX
p612
aVscaleY
p613
aVscaleZ
p614
aVblendParent1
p615
aaF-1.9634113314737078e-05
aF1.6199949165240923e-05
aF2.5855273857899874e-05
aF-7.323176597413059e-05
aF-4.393080226487335e-05
aF-2.7871333255093387e-05
aF1
aF1
aF1
aF0
aa(lp616
Vheel_r_anim
p617
a(lp618
VtranslateX
p619
aVtranslateY
p620
aVtranslateZ
p621
aVrotateX
p622
aVrotateY
p623
aVrotateZ
p624
aVscaleX
p625
aVscaleY
p626
aVscaleZ
p627
aVblendParent1
p628
aaF-11.726838512906781
aF19.895497599700064
aF0.98836826213197071
aF-19.337305352084865
aF1.3505773171297459
aF-13.250057217349873
aF1
aF1
aF1
aF0
aa(lp629
Vbody_anim_space_switcher
p630
a(lp631
Vvisibility
p632
aVtranslateX
p633
aVtranslateY
p634
aVtranslateZ
p635
aVrotateX
p636
aVrotateY
p637
aVrotateZ
p638
aVscaleX
p639
aVscaleY
p640
aVscaleZ
p641
aVspace_world
p642
aaI01
aF0
aF0
aF0
aF0
aF0
aF0
aF1
aF1
aF1
aF0
aa(lp643
Vchest_ik_anim_space_switcher
p644
a(lp645
Vvisibility
p646
aVtranslateX
p647
aVtranslateY
p648
aVtranslateZ
p649
aVrotateX
p650
aVrotateY
p651
aVrotateZ
p652
aVscaleX
p653
aVscaleY
p654
aVscaleZ
p655
aVspace_world
p656
aVspace_chest_ik_world_aligned
p657
aaI01
aF2.8421709430404007e-14
aF-4.4408920985006262e-16
aF0
aF0
aF0
aF0
aF1
aF1
aF1
aF0
aF0
aa(lp658
Vheel_l_anim_space_switcher
p659
a(lp660
Vvisibility
p661
aVtranslateX
p662
aVtranslateY
p663
aVtranslateZ
p664
aVrotateX
p665
aVrotateY
p666
aVrotateZ
p667
aVscaleX
p668
aVscaleY
p669
aVscaleZ
p670
aVspace_world
p671
aaI01
aF0
aF-1.8873791418627661e-15
aF-1.7763568394002505e-15
aF9.9392333795734899e-17
aF-0
aF0
aF1
aF1
aF1
aF0
aa(lp672
Vheel_r_anim_space_switcher
p673
a(lp674
Vvisibility
p675
aVtranslateX
p676
aVtranslateY
p677
aVtranslateZ
p678
aVrotateX
p679
aVrotateY
p680
aVrotateZ
p681
aVscaleX
p682
aVscaleY
p683
aVscaleZ
p684
aVspace_world
p685
aaI01
aF-7.1054273576010019e-15
aF3.4972025275692431e-15
aF1.7763568394002505e-15
aF4.9696166897867462e-17
aF-0
aF0
aF1.0000000000000002
aF0.99999999999999989
aF0.99999999999999989
aF0
aa(lp686
Vik_elbow_l_anim_space_switcher
p687
a(lp688
Vvisibility
p689
aVtranslateX
p690
aVtranslateY
p691
aVtranslateZ
p692
aVrotateX
p693
aVrotateY
p694
aVrotateZ
p695
aVscaleX
p696
aVscaleY
p697
aVscaleZ
p698
aVspace_world
p699
aVspace_body_anim
p700
aVspace_chest_ik_anim
p701
aaI01
aF0
aF0
aF0
aF0
aF0
aF0
aF1
aF1
aF1
aF0
aF0
aF0
aa(lp702
Vik_elbow_r_anim_space_switcher
p703
a(lp704
Vvisibility
p705
aVtranslateX
p706
aVtranslateY
p707
aVtranslateZ
p708
aVrotateX
p709
aVrotateY
p710
aVrotateZ
p711
aVscaleX
p712
aVscaleY
p713
aVscaleZ
p714
aVspace_world
p715
aVspace_body_anim
p716
aVspace_chest_ik_anim
p717
aaI01
aF0
aF0
aF0
aF0
aF0
aF0
aF1
aF1
aF1
aF0
aF0
aF0
aa(lp718
Vik_foot_anim_l_space_switcher
p719
a(lp720
Vvisibility
p721
aVtranslateX
p722
aVtranslateY
p723
aVtranslateZ
p724
aVrotateX
p725
aVrotateY
p726
aVrotateZ
p727
aVscaleX
p728
aVscaleY
p729
aVscaleZ
p730
aVspace_world
p731
aVspace_body_anim
p732
aaI01
aF0
aF0
aF0
aF0
aF0
aF0
aF1
aF1
aF1
aF0
aF0
aa(lp733
Vik_foot_anim_r_space_switcher
p734
a(lp735
Vvisibility
p736
aVtranslateX
p737
aVtranslateY
p738
aVtranslateZ
p739
aVrotateX
p740
aVrotateY
p741
aVrotateZ
p742
aVscaleX
p743
aVscaleY
p744
aVscaleZ
p745
aVspace_world
p746
aVspace_body_anim
p747
aaI01
aF0
aF0
aF0
aF0
aF0
aF0
aF1
aF1
aF1
aF0
aF0
aa(lp748
Vik_wrist_l_anim_space_switcher
p749
a(lp750
Vvisibility
p751
aVtranslateX
p752
aVtranslateY
p753
aVtranslateZ
p754
aVrotateX
p755
aVrotateY
p756
aVrotateZ
p757
aVscaleX
p758
aVscaleY
p759
aVscaleZ
p760
aVspace_world
p761
aVspace_body_anim
p762
aVspace_head_fk_anim
p763
aVspace_chest_ik_anim
p764
aaI01
aF0
aF0
aF0
aF0
aF0
aF0
aF1
aF1
aF1
aF0
aF0
aF0
aF0
aa(lp765
Vik_wrist_r_anim_space_switcher
p766
a(lp767
Vvisibility
p768
aVtranslateX
p769
aVtranslateY
p770
aVtranslateZ
p771
aVrotateX
p772
aVrotateY
p773
aVrotateZ
p774
aVscaleX
p775
aVscaleY
p776
aVscaleZ
p777
aVspace_world
p778
aVspace_body_anim
p779
aVspace_head_fk_anim
p780
aVspace_chest_ik_anim
p781
aaI01
aF0
aF0
aF0
aF0
aF0
aF0
aF1
aF1
aF1
aF0
aF0
aF0
aF0
aa(lp782
Vmaster_anim_space_switcher
p783
a(lp784
Vvisibility
p785
aVtranslateX
p786
aVtranslateY
p787
aVtranslateZ
p788
aVrotateX
p789
aVrotateY
p790
aVrotateZ
p791
aVscaleX
p792
aVscaleY
p793
aVscaleZ
p794
aVspace_world
p795
aaI01
aF0
aF0
aF0
aF0
aF0
aF0
aF1
aF1
aF1
aF0
aa(lp796
Vshoulderblade_l_anim_space_switcher
p797
a(lp798
Vvisibility
p799
aVtranslateX
p800
aVtranslateY
p801
aVtranslateZ
p802
aVrotateX
p803
aVrotateY
p804
aVrotateZ
p805
aVscaleX
p806
aVscaleY
p807
aVscaleZ
p808
aVspace_world
p809
aaI01
aF0
aF-7.1054273576010019e-15
aF2.8421709430404007e-14
aF0
aF-0
aF3.9756933518293952e-15
aF1.0000000000000002
aF1
aF1
aF0
aa(lp810
Vshoulderblade_r_anim_space_switcher
p811
a(lp812
Vvisibility
p813
aVtranslateX
p814
aVtranslateY
p815
aVtranslateZ
p816
aVrotateX
p817
aVrotateY
p818
aVrotateZ
p819
aVscaleX
p820
aVscaleY
p821
aVscaleZ
p822
aVspace_world
p823
aaI01
aF7.1054273576010019e-15
aF0
aF-2.8421709430404007e-14
aF-3.1805546814635168e-15
aF-0
aF-1.590277340731758e-15
aF1.0000000000000002
aF1
aF1.0000000000000002
aF0
aa(lp824
Vshoulderpad_l_anim_space_switcher
p825
a(lp826
Vvisibility
p827
aVtranslateX
p828
aVtranslateY
p829
aVtranslateZ
p830
aVrotateX
p831
aVrotateY
p832
aVrotateZ
p833
aVscaleX
p834
aVscaleY
p835
aVscaleZ
p836
aVspace_world
p837
aaI01
aF-1.4210854715202004e-14
aF3.5527136788005009e-15
aF0
aF0
aF-3.180554681463516e-15
aF-7.9513867036587899e-16
aF1.0000000000000002
aF1.0000000000000002
aF1.0000000000000002
aF0
aa(lp838
Vshoulderpad_r_anim_space_switcher
p839
a(lp840
Vvisibility
p841
aVtranslateX
p842
aVtranslateY
p843
aVtranslateZ
p844
aVrotateX
p845
aVrotateY
p846
aVrotateZ
p847
aVscaleX
p848
aVscaleY
p849
aVscaleZ
p850
aVspace_world
p851
aaI01
aF1.4210854715202004e-14
aF-3.5527136788005009e-15
aF-2.8421709430404007e-14
aF1.5902773407317584e-15
aF3.1805546814635168e-15
aF7.9513867036587919e-16
aF1
aF1
aF0.99999999999999989
aF0
aa(lp852
Vspine_01_space_switcher
p853
a(lp854
Vvisibility
p855
aVtranslateX
p856
aVtranslateY
p857
aVtranslateZ
p858
aVrotateX
p859
aVrotateY
p860
aVrotateZ
p861
aVscaleX
p862
aVscaleY
p863
aVscaleZ
p864
aVspace_world
p865
aaI01
aF-1.4210854715202004e-14
aF-1.7763568394002505e-15
aF1.2621774483536189e-29
aF1.2005825130696429e-29
aF-5.6498000615042016e-30
aF-7.9513867036587899e-16
aF1.0000000000000002
aF1.0000000000000002
aF1
aF0
aa(lp866
Vweapon_r_anim_space_switcher
p867
a(lp868
Vvisibility
p869
aVtranslateX
p870
aVtranslateY
p871
aVtranslateZ
p872
aVrotateX
p873
aVrotateY
p874
aVrotateZ
p875
aVscaleX
p876
aVscaleY
p877
aVscaleZ
p878
aVspace_world
p879
aaI01
aF0
aF0
aF-4.2632564145606011e-14
aF-2.981770013872047e-16
aF-3.1805546814635176e-15
aF-7.9513867036587939e-16
aF0.99999999999999989
aF1
aF1
aF0
aa.