(lp1
(lp2
S'fk_clavicle_r_anim'
p3
a(lp4
VtranslateX
p5
aVtranslateY
p6
aVtranslateZ
p7
aVrotateX
p8
aVrotateY
p9
aVrotateZ
p10
aaF0
aF0
aF0
aF0
aF0
aF0
aa(lp11
S'fk_clavicle_l_anim'
p12
a(lp13
VtranslateX
p14
aVtranslateY
p15
aVtranslateZ
p16
aVrotateX
p17
aVrotateY
p18
aVrotateZ
p19
aaF0
aF0
aF0
aF0
aF0
aF0
aa(lp20
S'head_fk_anim'
p21
a(lp22
VtranslateX
p23
aVtranslateY
p24
aVtranslateZ
p25
aVrotateX
p26
aVrotateY
p27
aVrotateZ
p28
aVscaleX
p29
aVscaleY
p30
aVscaleZ
p31
aVfkOrientation
p32
aaF0
aF0
aF0
aF26.320747626862726
aF10.12387541510431
aF7.1025392458778338
aF1
aF1
aF1
aI0
aa(lp33
S'neck_01_fk_anim'
p34
a(lp35
VtranslateX
p36
aVtranslateY
p37
aVtranslateZ
p38
aVrotateX
p39
aVrotateY
p40
aVrotateZ
p41
aVscaleX
p42
aVscaleY
p43
aVscaleZ
p44
aVfkOrientation
p45
aaF0
aF0
aF0
aF8.9614207320247399
aF2.1042661086871188
aF11.898542615650738
aF1
aF1
aF1
aI0
aa(lp46
S'spine_01_anim'
p47
a(lp48
Vlength
p49
aVtranslateY
p50
aVtranslateZ
p51
aVrotateX
p52
aVrotateY
p53
aVrotateZ
p54
aaF0
aF0
aF0
aF-5.8255491216149222
aF-5.0169651852993029
aF-1.8759152582960332
aa(lp55
S'spine_02_anim'
p56
a(lp57
Vlength
p58
aVtranslateY
p59
aVtranslateZ
p60
aVrotateX
p61
aVrotateY
p62
aVrotateZ
p63
aaF0
aF0
aF0
aF-13.647265102594957
aF-7.1086272138859794
aF-8.483726655845782
aa(lp64
S'spine_03_anim'
p65
a(lp66
Vlength
p67
aVtranslateY
p68
aVtranslateZ
p69
aVrotateX
p70
aVrotateY
p71
aVrotateZ
p72
aaF0
aF0
aF0
aF-12.898057796620892
aF-8.4059638467284792
aF-8.5838664221541325
aa(lp73
S'mid_ik_anim'
p74
a(lp75
VtranslateX
p76
aVtranslateY
p77
aVtranslateZ
p78
aVrotateX
p79
aVrotateY
p80
aVrotateZ
p81
aaF-7.2824538898272664
aF-1.2556822668335581
aF1.0887365270594458
aF-19.803607352748276
aF-11.965980572756427
aF-7.5104047136226137
aa(lp82
S'chest_ik_anim'
p83
a(lp84
VtranslateX
p85
aVtranslateY
p86
aVtranslateZ
p87
aVrotateX
p88
aVrotateY
p89
aVrotateZ
p90
aVstretch
p91
aVsquash
p92
aVtwist_amount
p93
aVautoSpine
p94
aVrotationInfluence
p95
aaF-0.70008406783351518
aF-3.0884122997946082
aF7.3839328803565465
aF-12.758536491281269
aF-25.43170859349695
aF-9.4981309859088636
aF0
aF0
aF1
aF0
aF0
aa(lp96
S'body_anim'
p97
a(lp98
VtranslateX
p99
aVtranslateY
p100
aVtranslateZ
p101
aVrotateX
p102
aVrotateY
p103
aVrotateZ
p104
aVrib_panel_l
p105
aVrib_panel_r
p106
aVupperback_panel_l
p107
aVupperback_panel_r
p108
aVlowerback_panel_l
p109
aVlowerback_panel_r
p110
aVback_gem
p111
aaF-30.240850785845126
aF30.121905227022118
aF-13.867432575137785
aF-28.718651484346392
aF6.2310276344751454
aF-22.994571348491043
aF0
aF0
aF0
aF0
aF0
aF0
aF0
aa(lp112
S'hip_anim'
p113
a(lp114
VtranslateX
p115
aVtranslateY
p116
aVtranslateZ
p117
aVrotateX
p118
aVrotateY
p119
aVrotateZ
p120
aVautoHips
p121
aaF0
aF0
aF0
aF32.125715896490334
aF0
aF0
aF0
aa(lp122
S'clavicle_l_anim'
p123
a(lp124
VtranslateX
p125
aVtranslateY
p126
aVtranslateZ
p127
aVautoShoulders
p128
aaF0.72198267399515004
aF0.62645553966820877
aF8.0102521037274812
aF0
aa(lp129
S'clavicle_r_anim'
p130
a(lp131
VtranslateX
p132
aVtranslateY
p133
aVtranslateZ
p134
aVautoShoulders
p135
aaF-0.050366150987059655
aF0.26274043193570851
aF0.2103820885745904
aF0
aa(lp136
S'fk_arm_l_anim'
p137
a(lp138
VtranslateX
p139
aVtranslateY
p140
aVtranslateZ
p141
aVrotateX
p142
aVrotateY
p143
aVrotateZ
p144
aaF0
aF0
aF0
aF-2.6322437344486387
aF7.0058164934839295
aF-107.55929875243039
aa(lp145
S'fk_arm_r_anim'
p146
a(lp147
VtranslateX
p148
aVtranslateY
p149
aVtranslateZ
p150
aVrotateX
p151
aVrotateY
p152
aVrotateZ
p153
aaF0
aF0
aF0
aF-81.108787761830726
aF56.885805234103145
aF-73.579967096629474
aa(lp154
S'fk_elbow_l_anim'
p155
a(lp156
VtranslateX
p157
aVtranslateY
p158
aVtranslateZ
p159
aVrotateX
p160
aVrotateY
p161
aVrotateZ
p162
aaF0
aF0
aF0
aF5.0361862182617161
aF-9.7952089309692436
aF-60.281448364257812
aa(lp163
S'fk_elbow_r_anim'
p164
a(lp165
VtranslateX
p166
aVtranslateY
p167
aVtranslateZ
p168
aVrotateX
p169
aVrotateY
p170
aVrotateZ
p171
aaF0
aF0
aF0
aF15.686970710754386
aF-14.384892463684077
aF-97.282310485839872
aa(lp172
S'fk_wrist_l_anim'
p173
a(lp174
VtranslateX
p175
aVtranslateY
p176
aVtranslateZ
p177
aVrotateX
p178
aVrotateY
p179
aVrotateZ
p180
aaF0
aF0
aF0
aF10.353631019592289
aF3.7465786933898961
aF-12.325693130493171
aa(lp181
S'fk_wrist_r_anim'
p182
a(lp183
VtranslateX
p184
aVtranslateY
p185
aVtranslateZ
p186
aVrotateX
p187
aVrotateY
p188
aVrotateZ
p189
aaF0
aF0
aF0
aF-20.033750534057571
aF0.48816570639611173
aF-11.365118026733406
aa(lp190
S'ik_elbow_l_anim'
p191
a(lp192
VtranslateX
p193
aVtranslateY
p194
aVtranslateZ
p195
aaF-96.097968883627615
aF-238.82928551670753
aF-116.83119365775522
aa(lp196
S'ik_elbow_r_anim'
p197
a(lp198
VtranslateX
p199
aVtranslateY
p200
aVtranslateZ
p201
aaF109.5171454572055
aF137.22251605159602
aF-82.189096477853752
aa(lp202
S'ik_wrist_l_anim'
p203
a(lp204
VtranslateX
p205
aVtranslateY
p206
aVtranslateZ
p207
aVrotateX
p208
aVrotateY
p209
aVrotateZ
p210
aVstretch
p211
aVsquash
p212
aVstretchBias
p213
aVside
p214
aVmid_bend
p215
aVmid_swivel
p216
aVtip_pivot
p217
aVtip_swivel
p218
aaF-194.68829434395192
aF-32.590021366757881
aF-93.078698950053123
aF114.94173191759619
aF155.35838746908729
aF-31.346671713301191
aF0
aF0
aF0
aF0
aF0
aF0
aF0
aF0
aa(lp219
S'ik_wrist_r_anim'
p220
a(lp221
VtranslateX
p222
aVtranslateY
p223
aVtranslateZ
p224
aVrotateX
p225
aVrotateY
p226
aVrotateZ
p227
aVstretch
p228
aVsquash
p229
aVstretchBias
p230
aVside
p231
aVmid_bend
p232
aVmid_swivel
p233
aVtip_pivot
p234
aVtip_swivel
p235
aaF59.499906557769933
aF61.832062760405634
aF-91.382920756401447
aF-3.5680591112957245
aF-34.836212910676394
aF-24.924210046866769
aF0
aF0
aF0
aF0
aF0
aF0
aF0
aF0
aa(lp236
S'fk_thigh_l_anim'
p237
a(lp238
VrotateX
p239
aVrotateY
p240
aVrotateZ
p241
aaF0.84237045049667381
aF18.306486129760746
aF-3.8503456145650472
aa(lp242
S'fk_thigh_r_anim'
p243
a(lp244
VrotateX
p245
aVrotateY
p246
aVrotateZ
p247
aaF-6.331413745880127
aF17.84317779541016
aF94.57285690008338
aa(lp248
S'fk_calf_l_anim'
p249
a(lp250
VrotateX
p251
aVrotateY
p252
aVrotateZ
p253
aaF8.2348012924194336
aF0.18206174671649941
aF-30.832365036010753
aa(lp254
S'fk_calf_r_anim'
p255
a(lp256
VrotateX
p257
aVrotateY
p258
aVrotateZ
p259
aaF1.5951342582702643
aF8.4086427688598633
aF-42.706501007080071
aa(lp260
S'fk_foot_l_anim'
p261
a(lp262
VrotateX
p263
aVrotateY
p264
aVrotateZ
p265
aaF-45.03814697265625
aF-21.59799957275391
aF19.289356231689496
aa(lp266
S'fk_foot_r_anim'
p267
a(lp268
VrotateX
p269
aVrotateY
p270
aVrotateZ
p271
aaF-18.185596466064453
aF23.508094787597656
aF-31.819643020629858
aa(lp272
S'ik_foot_anim_l'
p273
a(lp274
VtranslateX
p275
aVtranslateY
p276
aVtranslateZ
p277
aVrotateX
p278
aVrotateY
p279
aVrotateZ
p280
aVknee_twist
p281
aVstretch
p282
aVsquash
p283
aVtoeCtrlVis
p284
aVstretchBias
p285
aVKneeFlex
p286
aaF40.319462892159216
aF23.415493245254105
aF0.00025829752709682907
aF0
aF0
aF-8.2695390982195054
aF0
aF0
aF0
aI00
aF0
aF0
aa(lp287
S'ik_foot_anim_r'
p288
a(lp289
VtranslateX
p290
aVtranslateY
p291
aVtranslateZ
p292
aVrotateX
p293
aVrotateY
p294
aVrotateZ
p295
aVknee_twist
p296
aVstretch
p297
aVsquash
p298
aVtoeCtrlVis
p299
aVstretchBias
p300
aVKneeFlex
p301
aaF-7.0048148414734204
aF-20.406414546162296
aF-0.0002597683486946778
aF0
aF0
aF0.69798901346628495
aF0
aF0
aF0
aI00
aF0
aF0
aa(lp302
S'heel_ctrl_l'
p303
a(lp304
VrotateX
p305
aVrotateY
p306
aVrotateZ
p307
aVheelPivot
p308
aVballPivot
p309
aaF0
aF0
aF0
aF0
aF0
aa(lp310
S'heel_ctrl_r'
p311
a(lp312
VrotateX
p313
aVrotateY
p314
aVrotateZ
p315
aVheelPivot
p316
aVballPivot
p317
aaF0
aF0
aF0
aF0
aF0
aa(lp318
S'toe_wiggle_ctrl_l'
p319
a(lp320
VrotateX
p321
aVrotateY
p322
aVrotateZ
p323
aaF0
aF0
aF0
aa(lp324
S'toe_wiggle_ctrl_r'
p325
a(lp326
VrotateX
p327
aVrotateY
p328
aVrotateZ
p329
aaF0
aF0
aF0
aa(lp330
S'toe_tip_ctrl_l'
p331
a(lp332
VrotateX
p333
aVrotateY
p334
aVrotateZ
p335
aaF0
aF0
aF0
aa(lp336
S'toe_tip_ctrl_r'
p337
a(lp338
VrotateX
p339
aVrotateY
p340
aVrotateZ
p341
aaF0
aF0
aF0
aa(lp342
S'master_anim'
p343
a(lp344
VtranslateX
p345
aVtranslateY
p346
aVtranslateZ
p347
aVrotateX
p348
aVrotateY
p349
aVrotateZ
p350
aaF0
aF0
aF0
aF0
aF0
aF0
aa(lp351
S'offset_anim'
p352
a(lp353
VtranslateX
p354
aVtranslateY
p355
aVtranslateZ
p356
aVrotateX
p357
aVrotateY
p358
aVrotateZ
p359
aaF0
aF0
aF0
aF0
aF0
aF0
aa(lp360
S'root_anim'
p361
a(lp362
VtranslateX
p363
aVtranslateY
p364
aVtranslateZ
p365
aVrotateX
p366
aVrotateY
p367
aVrotateZ
p368
aaF0
aF0
aF0
aF0
aF0
aF0
aa(lp369
S'middle_finger_fk_ctrl_1_l'
p370
a(lp371
VtranslateX
p372
aVtranslateY
p373
aVtranslateZ
p374
aVrotateX
p375
aVrotateY
p376
aVrotateZ
p377
aVsticky
p378
aaF0
aF0
aF0
aF2.6274919095328261e-06
aF9.443003574853156e-07
aF-7.2536201333135669e-06
aF0
aa(lp379
S'middle_finger_fk_ctrl_1_r'
p380
a(lp381
VtranslateX
p382
aVtranslateY
p383
aVtranslateZ
p384
aVrotateX
p385
aVrotateY
p386
aVrotateZ
p387
aVsticky
p388
aaF-5.1409796189345691
aF4.1496726170947023
aF0.001040878923158628
aF0.00013147533561800058
aF-0.00013185906107989387
aF96.546279241175057
aF0
aa(lp389
S'middle_finger_fk_ctrl_2_l'
p390
a(lp391
VtranslateX
p392
aVtranslateY
p393
aVtranslateZ
p394
aVrotateX
p395
aVrotateY
p396
aVrotateZ
p397
aaF0
aF0
aF0
aF1.2087504296293902e-05
aF-3.643347623718746e-06
aF2.1433024967779067e-08
aa(lp398
S'middle_finger_fk_ctrl_2_r'
p399
a(lp400
VtranslateX
p401
aVtranslateY
p402
aVtranslateZ
p403
aVrotateX
p404
aVrotateY
p405
aVrotateZ
p406
aaF0
aF0
aF0
aF-5.5174082615079861e-06
aF1.3133323955386357e-06
aF37.250411864198945
aa(lp407
S'index_finger_fk_ctrl_1_l'
p408
a(lp409
VtranslateX
p410
aVtranslateY
p411
aVtranslateZ
p412
aVrotateX
p413
aVrotateY
p414
aVrotateZ
p415
aVsticky
p416
aaF0
aF0
aF0
aF-6.1182111290758124e-07
aF-2.6752510881474956e-06
aF-2.0834784412417789e-06
aF0
aa(lp417
S'index_finger_fk_ctrl_1_r'
p418
a(lp419
VtranslateX
p420
aVtranslateY
p421
aVtranslateZ
p422
aVrotateX
p423
aVrotateY
p424
aVrotateZ
p425
aVsticky
p426
aaF-4.9092855866399008
aF4.450140350431445
aF0.0031593639879257118
aF0.00012189379150952638
aF-0.00014989205292939827
aF96.546282344418586
aF0
aa(lp427
S'index_finger_fk_ctrl_2_l'
p428
a(lp429
VtranslateX
p430
aVtranslateY
p431
aVtranslateZ
p432
aVrotateX
p433
aVrotateY
p434
aVrotateZ
p435
aaF0
aF0
aF0
aF1.1339937166539296e-05
aF3.2332940913904588e-06
aF-1.9406336537321839e-06
aa(lp436
S'index_finger_fk_ctrl_2_r'
p437
a(lp438
VtranslateX
p439
aVtranslateY
p440
aVtranslateZ
p441
aVrotateX
p442
aVrotateY
p443
aVrotateZ
p444
aaF0
aF0
aF0
aF2.9170042465651045e-06
aF3.8359980938011534e-06
aF37.25041188584234
aa(lp445
S'thumb_finger_fk_ctrl_1_l'
p446
a(lp447
VtranslateX
p448
aVtranslateY
p449
aVtranslateZ
p450
aVrotateX
p451
aVrotateY
p452
aVrotateZ
p453
aVsticky
p454
aaF0
aF0
aF0
aF25.531799306629761
aF1.4627516113737682
aF-6.0648287099331553
aF0
aa(lp455
S'thumb_finger_fk_ctrl_1_r'
p456
a(lp457
VtranslateX
p458
aVtranslateY
p459
aVtranslateZ
p460
aVrotateX
p461
aVrotateY
p462
aVrotateZ
p463
aVsticky
p464
aaF-0.095124361994358614
aF-0.6213872335652848
aF-0.41093836382404353
aF27.832879909696022
aF11.776437724537908
aF-12.379812894955544
aF0
aa(lp465
S'thumb_finger_fk_ctrl_2_l'
p466
a(lp467
VtranslateX
p468
aVtranslateY
p469
aVtranslateZ
p470
aVrotateX
p471
aVrotateY
p472
aVrotateZ
p473
aaF0
aF0
aF0
aF-2.6268269740716196e-05
aF1.098280608610516e-05
aF-9.7519432654875728e-06
aa(lp474
S'thumb_finger_fk_ctrl_2_r'
p475
a(lp476
VtranslateX
p477
aVtranslateY
p478
aVtranslateZ
p479
aVrotateX
p480
aVrotateY
p481
aVrotateZ
p482
aaF0
aF0
aF0
aF6.6806205736390059e-06
aF-1.4949788252056845e-05
aF7.8264111184034478e-06
aa(lp483
S'Rig_Settings'
p484
a(lp485
Vspine_ik
p486
aVspine_fk
p487
aVlLegMode
p488
aVrLegMode
p489
aVlFkArmOrient
p490
aVlArmMode
p491
aVlClavMode
p492
aVrFkArmOrient
p493
aVrArmMode
p494
aVrClavMode
p495
aaF1
aF0
aI1
aI1
aI0
aI1
aI1
aI0
aI1
aI1
aa(lp496
Vshoulderblade_r_anim
p497
a(lp498
VtranslateX
p499
aVtranslateY
p500
aVtranslateZ
p501
aVrotateX
p502
aVrotateY
p503
aVrotateZ
p504
aVscaleX
p505
aVscaleY
p506
aVscaleZ
p507
aaF0.080978668983945568
aF0.045168436284561686
aF-0.013130076935539137
aF0.14354601924139931
aF-0.19509135122738649
aF0.12202915187445657
aF1
aF1
aF1
aa(lp508
Vshoulderpad_l_anim
p509
a(lp510
VtranslateX
p511
aVtranslateY
p512
aVtranslateZ
p513
aVrotateX
p514
aVrotateY
p515
aVrotateZ
p516
aVscaleX
p517
aVscaleY
p518
aVscaleZ
p519
aaF-1.3480652541411899
aF-0.11576387796691279
aF-0.5231467662325997
aF0.26987240259241513
aF6.4605390601865018
aF0.11755641908556914
aF1
aF1
aF1
aa(lp520
Vshoulderblade_l_anim
p521
a(lp522
VtranslateX
p523
aVtranslateY
p524
aVtranslateZ
p525
aVrotateX
p526
aVrotateY
p527
aVrotateZ
p528
aVscaleX
p529
aVscaleY
p530
aVscaleZ
p531
aaF-0.99400154153545017
aF-0.045042708191317615
aF-0.24827568784640874
aF0.1528509061649051
aF4.1664450168515872
aF0.12235179904933451
aF1
aF1
aF1
aa(lp532
Vshoulderpad_r_anim
p533
a(lp534
VtranslateX
p535
aVtranslateY
p536
aVtranslateZ
p537
aVrotateX
p538
aVrotateY
p539
aVrotateZ
p540
aVscaleX
p541
aVscaleY
p542
aVscaleZ
p543
aaF0.022930583081716804
aF0.11575541366541131
aF-0.0074493536550193085
aF0.25688807678982223
aF0.11919759606255234
aF0.11681013991979788
aF1
aF1
aF1
aa(lp544
Vheel_l_anim
p545
a(lp546
VtranslateX
p547
aVtranslateY
p548
aVtranslateZ
p549
aVrotateX
p550
aVrotateY
p551
aVrotateZ
p552
aVscaleX
p553
aVscaleY
p554
aVscaleZ
p555
aaF3.8774003761152969
aF-21.311342222088996
aF7.2719398816873877
aF70.456179383819816
aF0.84051480733128892
aF21.866443382430965
aF1
aF1
aF1
aa(lp556
Vweapon_r_anim
p557
a(lp558
VtranslateX
p559
aVtranslateY
p560
aVtranslateZ
p561
aVrotateX
p562
aVrotateY
p563
aVrotateZ
p564
aVscaleX
p565
aVscaleY
p566
aVscaleZ
p567
aaF2.6020941845672496e-07
aF-2.8661540341090586e-07
aF-8.8916151241846819e-07
aF1.691402726892983e-06
aF-1.0901658582068395e-08
aF7.8723249826666079e-07
aF1
aF1
aF1
aa(lp568
Vheel_r_anim
p569
a(lp570
VtranslateX
p571
aVtranslateY
p572
aVtranslateZ
p573
aVrotateX
p574
aVrotateY
p575
aVrotateZ
p576
aVscaleX
p577
aVscaleY
p578
aVscaleZ
p579
aaF-9.064333093416451
aF21.256145290315921
aF1.2274324447733687
aF31.974159752929253
aF1.8554233339327713
aF20.750383351340435
aF1
aF1
aF1
aa(lp580
Vbody_anim_space_switcher
p581
a(lp582
Vvisibility
p583
aVtranslateX
p584
aVtranslateY
p585
aVtranslateZ
p586
aVrotateX
p587
aVrotateY
p588
aVrotateZ
p589
aVscaleX
p590
aVscaleY
p591
aVscaleZ
p592
aVspace_world
p593
aaI01
aF0
aF0
aF0
aF0
aF0
aF0
aF1
aF1
aF1
aF0
aa(lp594
Vchest_ik_anim_space_switcher
p595
a(lp596
Vvisibility
p597
aVtranslateX
p598
aVtranslateY
p599
aVtranslateZ
p600
aVrotateX
p601
aVrotateY
p602
aVrotateZ
p603
aVscaleX
p604
aVscaleY
p605
aVscaleZ
p606
aVspace_world
p607
aVspace_chest_ik_world_aligned
p608
aaI01
aF2.8421709430404007e-14
aF-4.4408920985006262e-16
aF0
aF0
aF0
aF0
aF1
aF1
aF1
aF0
aF0
aa(lp609
Vheel_l_anim_space_switcher
p610
a(lp611
Vvisibility
p612
aVtranslateX
p613
aVtranslateY
p614
aVtranslateZ
p615
aVrotateX
p616
aVrotateY
p617
aVrotateZ
p618
aVscaleX
p619
aVscaleY
p620
aVscaleZ
p621
aVspace_world
p622
aaI01
aF0
aF-1.8873791418627661e-15
aF-1.7763568394002505e-15
aF9.9392333795734899e-17
aF-0
aF0
aF1
aF1
aF1
aF0
aa(lp623
Vheel_r_anim_space_switcher
p624
a(lp625
Vvisibility
p626
aVtranslateX
p627
aVtranslateY
p628
aVtranslateZ
p629
aVrotateX
p630
aVrotateY
p631
aVrotateZ
p632
aVscaleX
p633
aVscaleY
p634
aVscaleZ
p635
aVspace_world
p636
aaI01
aF-7.1054273576010019e-15
aF3.4972025275692431e-15
aF1.7763568394002505e-15
aF4.9696166897867462e-17
aF-0
aF0
aF1.0000000000000002
aF0.99999999999999989
aF0.99999999999999989
aF0
aa(lp637
Vik_elbow_l_anim_space_switcher
p638
a(lp639
Vvisibility
p640
aVtranslateX
p641
aVtranslateY
p642
aVtranslateZ
p643
aVrotateX
p644
aVrotateY
p645
aVrotateZ
p646
aVscaleX
p647
aVscaleY
p648
aVscaleZ
p649
aVspace_world
p650
aVspace_body_anim
p651
aVspace_chest_ik_anim
p652
aaI01
aF0
aF0
aF0
aF0
aF0
aF0
aF1
aF1
aF1
aF0
aF0
aF0
aa(lp653
Vik_elbow_r_anim_space_switcher
p654
a(lp655
Vvisibility
p656
aVtranslateX
p657
aVtranslateY
p658
aVtranslateZ
p659
aVrotateX
p660
aVrotateY
p661
aVrotateZ
p662
aVscaleX
p663
aVscaleY
p664
aVscaleZ
p665
aVspace_world
p666
aVspace_body_anim
p667
aVspace_chest_ik_anim
p668
aaI01
aF0
aF0
aF0
aF0
aF0
aF0
aF1
aF1
aF1
aF0
aF0
aF0
aa(lp669
Vik_foot_anim_l_space_switcher
p670
a(lp671
Vvisibility
p672
aVtranslateX
p673
aVtranslateY
p674
aVtranslateZ
p675
aVrotateX
p676
aVrotateY
p677
aVrotateZ
p678
aVscaleX
p679
aVscaleY
p680
aVscaleZ
p681
aVspace_world
p682
aVspace_body_anim
p683
aaI01
aF0
aF0
aF0
aF0
aF0
aF0
aF1
aF1
aF1
aF0
aF0
aa(lp684
Vik_foot_anim_r_space_switcher
p685
a(lp686
Vvisibility
p687
aVtranslateX
p688
aVtranslateY
p689
aVtranslateZ
p690
aVrotateX
p691
aVrotateY
p692
aVrotateZ
p693
aVscaleX
p694
aVscaleY
p695
aVscaleZ
p696
aVspace_world
p697
aVspace_body_anim
p698
aaI01
aF0
aF0
aF0
aF0
aF0
aF0
aF1
aF1
aF1
aF0
aF0
aa(lp699
Vik_wrist_l_anim_space_switcher
p700
a(lp701
Vvisibility
p702
aVtranslateX
p703
aVtranslateY
p704
aVtranslateZ
p705
aVrotateX
p706
aVrotateY
p707
aVrotateZ
p708
aVscaleX
p709
aVscaleY
p710
aVscaleZ
p711
aVspace_world
p712
aVspace_body_anim
p713
aVspace_head_fk_anim
p714
aVspace_chest_ik_anim
p715
aaI01
aF0
aF0
aF0
aF0
aF0
aF0
aF1
aF1
aF1
aF0
aF0
aF0
aF0
aa(lp716
Vik_wrist_r_anim_space_switcher
p717
a(lp718
Vvisibility
p719
aVtranslateX
p720
aVtranslateY
p721
aVtranslateZ
p722
aVrotateX
p723
aVrotateY
p724
aVrotateZ
p725
aVscaleX
p726
aVscaleY
p727
aVscaleZ
p728
aVspace_world
p729
aVspace_body_anim
p730
aVspace_head_fk_anim
p731
aVspace_chest_ik_anim
p732
aaI01
aF0
aF0
aF0
aF0
aF0
aF0
aF1
aF1
aF1
aF0
aF0
aF0
aF0
aa(lp733
Vmaster_anim_space_switcher
p734
a(lp735
Vvisibility
p736
aVtranslateX
p737
aVtranslateY
p738
aVtranslateZ
p739
aVrotateX
p740
aVrotateY
p741
aVrotateZ
p742
aVscaleX
p743
aVscaleY
p744
aVscaleZ
p745
aVspace_world
p746
aaI01
aF0
aF0
aF0
aF0
aF0
aF0
aF1
aF1
aF1
aF0
aa(lp747
Vshoulderblade_l_anim_space_switcher
p748
a(lp749
Vvisibility
p750
aVtranslateX
p751
aVtranslateY
p752
aVtranslateZ
p753
aVrotateX
p754
aVrotateY
p755
aVrotateZ
p756
aVscaleX
p757
aVscaleY
p758
aVscaleZ
p759
aVspace_world
p760
aaI01
aF0
aF-7.1054273576010019e-15
aF2.8421709430404007e-14
aF0
aF-0
aF3.9756933518293952e-15
aF1.0000000000000002
aF1
aF1
aF0
aa(lp761
Vshoulderblade_r_anim_space_switcher
p762
a(lp763
Vvisibility
p764
aVtranslateX
p765
aVtranslateY
p766
aVtranslateZ
p767
aVrotateX
p768
aVrotateY
p769
aVrotateZ
p770
aVscaleX
p771
aVscaleY
p772
aVscaleZ
p773
aVspace_world
p774
aaI01
aF7.1054273576010019e-15
aF0
aF-2.8421709430404007e-14
aF-3.1805546814635168e-15
aF-0
aF-1.590277340731758e-15
aF1.0000000000000002
aF1
aF1.0000000000000002
aF0
aa(lp775
Vshoulderpad_l_anim_space_switcher
p776
a(lp777
Vvisibility
p778
aVtranslateX
p779
aVtranslateY
p780
aVtranslateZ
p781
aVrotateX
p782
aVrotateY
p783
aVrotateZ
p784
aVscaleX
p785
aVscaleY
p786
aVscaleZ
p787
aVspace_world
p788
aaI01
aF-1.4210854715202004e-14
aF3.5527136788005009e-15
aF0
aF0
aF-3.180554681463516e-15
aF-7.9513867036587899e-16
aF1.0000000000000002
aF1.0000000000000002
aF1.0000000000000002
aF0
aa(lp789
Vshoulderpad_r_anim_space_switcher
p790
a(lp791
Vvisibility
p792
aVtranslateX
p793
aVtranslateY
p794
aVtranslateZ
p795
aVrotateX
p796
aVrotateY
p797
aVrotateZ
p798
aVscaleX
p799
aVscaleY
p800
aVscaleZ
p801
aVspace_world
p802
aaI01
aF1.4210854715202004e-14
aF-3.5527136788005009e-15
aF-2.8421709430404007e-14
aF1.5902773407317584e-15
aF3.1805546814635168e-15
aF7.9513867036587919e-16
aF1
aF1
aF0.99999999999999989
aF0
aa(lp803
Vspine_01_space_switcher
p804
a(lp805
Vvisibility
p806
aVtranslateX
p807
aVtranslateY
p808
aVtranslateZ
p809
aVrotateX
p810
aVrotateY
p811
aVrotateZ
p812
aVscaleX
p813
aVscaleY
p814
aVscaleZ
p815
aVspace_world
p816
aaI01
aF-1.4210854715202004e-14
aF-1.7763568394002505e-15
aF1.2621774483536189e-29
aF1.2005825130696429e-29
aF-5.6498000615042016e-30
aF-7.9513867036587899e-16
aF1.0000000000000002
aF1.0000000000000002
aF1
aF0
aa(lp817
Vweapon_r_anim_space_switcher
p818
a(lp819
Vvisibility
p820
aVtranslateX
p821
aVtranslateY
p822
aVtranslateZ
p823
aVrotateX
p824
aVrotateY
p825
aVrotateZ
p826
aVscaleX
p827
aVscaleY
p828
aVscaleZ
p829
aVspace_world
p830
aaI01
aF0
aF0
aF-4.2632564145606011e-14
aF-2.981770013872047e-16
aF-3.1805546814635176e-15
aF-7.9513867036587939e-16
aF0.99999999999999989
aF1
aF1
aF0
aa.