(lp1
(lp2
S'fk_clavicle_r_anim'
p3
a(lp4
VtranslateX
p5
aVtranslateY
p6
aVtranslateZ
p7
aVrotateX
p8
aVrotateY
p9
aVrotateZ
p10
aaF0
aF0
aF0
aF0
aF0
aF0
aa(lp11
S'fk_clavicle_l_anim'
p12
a(lp13
VtranslateX
p14
aVtranslateY
p15
aVtranslateZ
p16
aVrotateX
p17
aVrotateY
p18
aVrotateZ
p19
aaF0
aF0
aF0
aF0
aF0
aF0
aa(lp20
S'head_fk_anim'
p21
a(lp22
VtranslateX
p23
aVtranslateY
p24
aVtranslateZ
p25
aVrotateX
p26
aVrotateY
p27
aVrotateZ
p28
aVscaleX
p29
aVscaleY
p30
aVscaleZ
p31
aVfkOrientation
p32
aVblendOrient1
p33
aaF0
aF0
aF0
aF7.4810437109820773
aF4.7859878222586163
aF14.784732636891119
aF1
aF1
aF1
aI0
aF0
aa(lp34
S'neck_01_fk_anim'
p35
a(lp36
VtranslateX
p37
aVtranslateY
p38
aVtranslateZ
p39
aVrotateX
p40
aVrotateY
p41
aVrotateZ
p42
aVscaleX
p43
aVscaleY
p44
aVscaleZ
p45
aVfkOrientation
p46
aVblendOrient1
p47
aaF0
aF0
aF0
aF3.050856701228692
aF7.4784524544544553
aF9.1914402281184202
aF1
aF1
aF1
aI0
aF0
aa(lp48
S'spine_01_anim'
p49
a(lp50
Vlength
p51
aVtranslateY
p52
aVtranslateZ
p53
aVrotateX
p54
aVrotateY
p55
aVrotateZ
p56
aaF0
aF0
aF0
aF1.773172615423434
aF1.185398984729753
aF-2.0371727417509353
aa(lp57
S'spine_02_anim'
p58
a(lp59
Vlength
p60
aVtranslateY
p61
aVtranslateZ
p62
aVrotateX
p63
aVrotateY
p64
aVrotateZ
p65
aaF0
aF0
aF0
aF3.9905238031459209
aF1.4956563859608936
aF-8.4478050200162791
aa(lp66
S'spine_03_anim'
p67
a(lp68
Vlength
p69
aVtranslateY
p70
aVtranslateZ
p71
aVrotateX
p72
aVrotateY
p73
aVrotateZ
p74
aaF0
aF0
aF0
aF3.8247960428252616
aF1.883717860579025
aF-8.458362744131712
aa(lp75
S'mid_ik_anim'
p76
a(lp77
VtranslateX
p78
aVtranslateY
p79
aVtranslateZ
p80
aVrotateX
p81
aVrotateY
p82
aVrotateZ
p83
aVblendParent1
p84
aaF-7.2518524540261096
aF-1.3938915224268023
aF-0.26243021560271745
aF5.8101977796155131
aF2.6533539943565714
aF-6.6153597042445611
aF0
aa(lp85
S'chest_ik_anim'
p86
a(lp87
VtranslateX
p88
aVtranslateY
p89
aVtranslateZ
p90
aVrotateX
p91
aVrotateY
p92
aVrotateZ
p93
aVstretch
p94
aVsquash
p95
aVtwist_amount
p96
aVautoSpine
p97
aVrotationInfluence
p98
aVblendParent1
p99
aaF-0.012097337323230954
aF-4.7013042143797179
aF-1.7819479821506572
aF22.722821897932295
aF6.6831416406483113
aF-17.127343885772486
aF0
aF0
aF1
aF0
aF0
aF0
aa(lp100
S'body_anim'
p101
a(lp102
VtranslateX
p103
aVtranslateY
p104
aVtranslateZ
p105
aVrotateX
p106
aVrotateY
p107
aVrotateZ
p108
aVrib_panel_l
p109
aVrib_panel_r
p110
aVupperback_panel_l
p111
aVupperback_panel_r
p112
aVlowerback_panel_l
p113
aVlowerback_panel_r
p114
aVback_gem
p115
aVblendParent1
p116
aaF-18.65783309713909
aF25.11097661733406
aF-4.252368909163831
aF-27.960275176702236
aF5.1267731886933658
aF-17.472597420330629
aF0
aF0
aF0
aF0
aF0
aF0
aF0
aF0
aa(lp117
S'hip_anim'
p118
a(lp119
VtranslateX
p120
aVtranslateY
p121
aVtranslateZ
p122
aVrotateX
p123
aVrotateY
p124
aVrotateZ
p125
aVautoHips
p126
aaF0
aF0
aF0
aF0
aF0
aF0
aF0
aa(lp127
S'clavicle_l_anim'
p128
a(lp129
VtranslateX
p130
aVtranslateY
p131
aVtranslateZ
p132
aVautoShoulders
p133
aVblendPoint1
p134
aaF0.20980255677777254
aF3.0583999585742458
aF1.9738714680288778
aF0
aF0
aa(lp135
S'clavicle_r_anim'
p136
a(lp137
VtranslateX
p138
aVtranslateY
p139
aVtranslateZ
p140
aVautoShoulders
p141
aVblendPoint1
p142
aaF-0.77372838705138447
aF0.16134530433386118
aF4.209038879530846
aF0
aF0
aa(lp143
S'fk_arm_l_anim'
p144
a(lp145
VtranslateX
p146
aVtranslateY
p147
aVtranslateZ
p148
aVrotateX
p149
aVrotateY
p150
aVrotateZ
p151
aVblendOrient1
p152
aaF0
aF0
aF0
aF0.63208913908430087
aF50.228411390119533
aF21.002274572164154
aF0
aa(lp153
S'fk_arm_r_anim'
p154
a(lp155
VtranslateX
p156
aVtranslateY
p157
aVtranslateZ
p158
aVrotateX
p159
aVrotateY
p160
aVrotateZ
p161
aVblendOrient1
p162
aaF0
aF0
aF0
aF18.390033576485511
aF56.989637869518972
aF29.56318061735811
aF0
aa(lp163
S'fk_elbow_l_anim'
p164
a(lp165
VtranslateX
p166
aVtranslateY
p167
aVtranslateZ
p168
aVrotateX
p169
aVrotateY
p170
aVrotateZ
p171
aVblendOrient1
p172
aaF0
aF0
aF0
aF3.6191597437922574
aF-8.5806138731948529
aF-51.340296939494991
aF0
aa(lp173
S'fk_elbow_r_anim'
p174
a(lp175
VtranslateX
p176
aVtranslateY
p177
aVtranslateZ
p178
aVrotateX
p179
aVrotateY
p180
aVrotateZ
p181
aVblendOrient1
p182
aaF0
aF0
aF0
aF4.3665004124064355
aF-10.894082443423699
aF-48.449250290350243
aF0
aa(lp183
S'fk_wrist_l_anim'
p184
a(lp185
VtranslateX
p186
aVtranslateY
p187
aVtranslateZ
p188
aVrotateX
p189
aVrotateY
p190
aVrotateZ
p191
aVblendOrient1
p192
aaF0
aF0
aF0
aF-21.466484127128204
aF4.7605132250534661
aF-11.270465797512662
aF0
aa(lp193
S'fk_wrist_r_anim'
p194
a(lp195
VtranslateX
p196
aVtranslateY
p197
aVtranslateZ
p198
aVrotateX
p199
aVrotateY
p200
aVrotateZ
p201
aVblendOrient1
p202
aaF0
aF0
aF0
aF-11.114376609810337
aF-2.1053017108203256
aF-11.175619182531461
aF0
aa(lp203
S'ik_elbow_l_anim'
p204
a(lp205
VtranslateX
p206
aVtranslateY
p207
aVtranslateZ
p208
aVblendPoint1
p209
aaF-15.720288850323657
aF47.287177683678337
aF-17.072026268055385
aF0
aa(lp210
S'ik_elbow_r_anim'
p211
a(lp212
VtranslateX
p213
aVtranslateY
p214
aVtranslateZ
p215
aVblendPoint1
p216
aaF30.781268183120098
aF99.963070725899442
aF-40.921593995240471
aF0
aa(lp217
S'ik_wrist_l_anim'
p218
a(lp219
VtranslateX
p220
aVtranslateY
p221
aVtranslateZ
p222
aVrotateX
p223
aVrotateY
p224
aVrotateZ
p225
aVstretch
p226
aVsquash
p227
aVstretchBias
p228
aVside
p229
aVmid_bend
p230
aVmid_swivel
p231
aVtip_pivot
p232
aVtip_swivel
p233
aVblendParent1
p234
aaF-65.301097671616049
aF-16.307961512677572
aF-71.860098124179245
aF-59.835440701188432
aF33.516685028727387
aF-89.152529806006868
aF0
aF0
aF0
aF0
aF0
aF0
aF0
aF0
aF0
aa(lp235
S'ik_wrist_r_anim'
p236
a(lp237
VtranslateX
p238
aVtranslateY
p239
aVtranslateZ
p240
aVrotateX
p241
aVrotateY
p242
aVrotateZ
p243
aVstretch
p244
aVsquash
p245
aVstretchBias
p246
aVside
p247
aVmid_bend
p248
aVmid_swivel
p249
aVtip_pivot
p250
aVtip_swivel
p251
aVblendParent1
p252
aaF66.387068165140889
aF47.418010425199839
aF-77.870314193665152
aF6.6328008249995865
aF-35.703229228397504
aF-9.4665068300009381
aF0
aF0
aF0
aF0
aF0
aF0
aF0
aF0
aF0
aa(lp253
S'fk_thigh_l_anim'
p254
a(lp255
VrotateX
p256
aVrotateY
p257
aVrotateZ
p258
aVblendOrient1
p259
aaF2.4435010794156637
aF-28.681430132212075
aF72.985337996542611
aF0
aa(lp260
S'fk_thigh_r_anim'
p261
a(lp262
VrotateX
p263
aVrotateY
p264
aVrotateZ
p265
aVblendOrient1
p266
aaF-3.8576936921032075
aF-18.829582833625128
aF50.253273946871474
aF0
aa(lp267
S'fk_calf_l_anim'
p268
a(lp269
VrotateX
p270
aVrotateY
p271
aVrotateZ
p272
aVblendOrient1
p273
aaF5.206811428573527
aF1.091232235169793
aF-48.086840469276531
aF0
aa(lp274
S'fk_calf_r_anim'
p275
a(lp276
VrotateX
p277
aVrotateY
p278
aVrotateZ
p279
aVblendOrient1
p280
aaF-3.291287348994826
aF9.1072329462336779
aF-49.339641003020439
aF0
aa(lp281
S'fk_foot_l_anim'
p282
a(lp283
VrotateX
p284
aVrotateY
p285
aVrotateZ
p286
aVblendOrient1
p287
aaF-18.098997081854733
aF6.0589967763852881
aF-5.4643373009913248
aF0
aa(lp288
S'fk_foot_r_anim'
p289
a(lp290
VrotateX
p291
aVrotateY
p292
aVrotateZ
p293
aVblendOrient1
p294
aaF-5.7240687350104995
aF7.9164453339295164
aF14.951804137071244
aF0
aa(lp295
S'ik_foot_anim_l'
p296
a(lp297
VtranslateX
p298
aVtranslateY
p299
aVtranslateZ
p300
aVrotateX
p301
aVrotateY
p302
aVrotateZ
p303
aVknee_twist
p304
aVstretch
p305
aVsquash
p306
aVtoeCtrlVis
p307
aVstretchBias
p308
aVKneeFlex
p309
aVblendPoint1
p310
aVblendOrient1
p311
aaF10.370020650526214
aF-25.155488712987125
aF0.0045897806571966321
aF0.0057717786168572779
aF-0.079349054231012864
aF-0.0030345446687287682
aF0
aF0
aF0
aI00
aF0
aF0
aF0
aF0
aa(lp312
S'ik_foot_anim_r'
p313
a(lp314
VtranslateX
p315
aVtranslateY
p316
aVtranslateZ
p317
aVrotateX
p318
aVrotateY
p319
aVrotateZ
p320
aVknee_twist
p321
aVstretch
p322
aVsquash
p323
aVtoeCtrlVis
p324
aVstretchBias
p325
aVKneeFlex
p326
aVblendPoint1
p327
aVblendOrient1
p328
aaF-7.0002735996153476
aF32.843633911437671
aF-0.0020986694955956223
aF31.632461724902733
aF24.05325401683924
aF-6.9937480929535063
aF0
aF0
aF0
aI00
aF0
aF0
aF0
aF0
aa(lp329
S'heel_ctrl_l'
p330
a(lp331
VrotateX
p332
aVrotateY
p333
aVrotateZ
p334
aVheelPivot
p335
aVballPivot
p336
aaF0
aF0
aF0
aF0
aF0
aa(lp337
S'heel_ctrl_r'
p338
a(lp339
VrotateX
p340
aVrotateY
p341
aVrotateZ
p342
aVheelPivot
p343
aVballPivot
p344
aaF0
aF0
aF0
aF0
aF0
aa(lp345
S'toe_wiggle_ctrl_l'
p346
a(lp347
VrotateX
p348
aVrotateY
p349
aVrotateZ
p350
aaF0
aF0
aF0
aa(lp351
S'toe_wiggle_ctrl_r'
p352
a(lp353
VrotateX
p354
aVrotateY
p355
aVrotateZ
p356
aaF0
aF0
aF0
aa(lp357
S'toe_tip_ctrl_l'
p358
a(lp359
VrotateX
p360
aVrotateY
p361
aVrotateZ
p362
aaF0
aF0
aF0
aa(lp363
S'toe_tip_ctrl_r'
p364
a(lp365
VrotateX
p366
aVrotateY
p367
aVrotateZ
p368
aaF0
aF0
aF0
aa(lp369
S'master_anim'
p370
a(lp371
VtranslateX
p372
aVtranslateY
p373
aVtranslateZ
p374
aVrotateX
p375
aVrotateY
p376
aVrotateZ
p377
aaF0
aF0
aF0
aF0
aF0
aF0
aa(lp378
S'offset_anim'
p379
a(lp380
VtranslateX
p381
aVtranslateY
p382
aVtranslateZ
p383
aVrotateX
p384
aVrotateY
p385
aVrotateZ
p386
aaF0
aF0
aF0
aF0
aF0
aF0
aa(lp387
S'root_anim'
p388
a(lp389
VtranslateX
p390
aVtranslateY
p391
aVtranslateZ
p392
aVrotateX
p393
aVrotateY
p394
aVrotateZ
p395
aaF0
aF0
aF0
aF0
aF0
aF0
aa(lp396
S'middle_finger_fk_ctrl_1_l'
p397
a(lp398
VtranslateX
p399
aVtranslateY
p400
aVtranslateZ
p401
aVrotateX
p402
aVrotateY
p403
aVrotateZ
p404
aVsticky
p405
aVblendOrient1
p406
aaF0
aF0
aF0
aF2.2551765523332944e-05
aF8.4275172376045591e-07
aF100.49093893331175
aF0
aF0
aa(lp407
S'middle_finger_fk_ctrl_1_r'
p408
a(lp409
VtranslateX
p410
aVtranslateY
p411
aVtranslateZ
p412
aVrotateX
p413
aVrotateY
p414
aVrotateZ
p415
aVsticky
p416
aVblendOrient1
p417
aaF-5.1409796189345691
aF4.1496726170947023
aF0.001040878923158628
aF0.00013560450270687192
aF-0.00012134282097865303
aF96.546268399383735
aF0
aF0
aa(lp418
S'middle_finger_fk_ctrl_2_l'
p419
a(lp420
VtranslateX
p421
aVtranslateY
p422
aVtranslateZ
p423
aVrotateX
p424
aVrotateY
p425
aVrotateZ
p426
aVblendOrient1
p427
aaF0
aF0
aF0
aF-1.0380611268194807e-06
aF-1.6928378272926455e-05
aF45.624945598536769
aF0
aa(lp428
S'middle_finger_fk_ctrl_2_r'
p429
a(lp430
VtranslateX
p431
aVtranslateY
p432
aVtranslateZ
p433
aVrotateX
p434
aVrotateY
p435
aVrotateZ
p436
aVblendOrient1
p437
aaF0
aF0
aF0
aF-6.2485264458085045e-06
aF2.4536804584627438e-06
aF37.250418818277538
aF0
aa(lp438
S'index_finger_fk_ctrl_1_l'
p439
a(lp440
VtranslateX
p441
aVtranslateY
p442
aVtranslateZ
p443
aVrotateX
p444
aVrotateY
p445
aVrotateZ
p446
aVsticky
p447
aVblendOrient1
p448
aaF0
aF0
aF4.1076152185399666
aF2.683443935776537e-05
aF-5.0767727111807281e-06
aF100.49093343495163
aF0
aF0
aa(lp449
S'index_finger_fk_ctrl_1_r'
p450
a(lp451
VtranslateX
p452
aVtranslateY
p453
aVtranslateZ
p454
aVrotateX
p455
aVrotateY
p456
aVrotateZ
p457
aVsticky
p458
aVblendOrient1
p459
aaF-4.9092855866399008
aF4.450140350431445
aF0.0031593639879257118
aF0.00012497803492384909
aF-0.00014172308398092387
aF96.546277868170279
aF0
aF0
aa(lp460
S'index_finger_fk_ctrl_2_l'
p461
a(lp462
VtranslateX
p463
aVtranslateY
p464
aVtranslateZ
p465
aVrotateX
p466
aVrotateY
p467
aVrotateZ
p468
aVblendOrient1
p469
aaF0
aF0
aF0
aF-1.1797238101041134e-05
aF1.9234819057117179e-06
aF45.624972051115961
aF0
aa(lp470
S'index_finger_fk_ctrl_2_r'
p471
a(lp472
VtranslateX
p473
aVtranslateY
p474
aVtranslateZ
p475
aVrotateX
p476
aVrotateY
p477
aVrotateZ
p478
aVblendOrient1
p479
aaF0
aF0
aF0
aF3.5241676673838789e-06
aF4.6910894616859989e-06
aF37.250409252589549
aF0
aa(lp480
S'thumb_finger_fk_ctrl_1_l'
p481
a(lp482
VtranslateX
p483
aVtranslateY
p484
aVtranslateZ
p485
aVrotateX
p486
aVrotateY
p487
aVrotateZ
p488
aVsticky
p489
aVblendOrient1
p490
aaF-0.55461579946711903
aF-0.28821810727159852
aF3.9428311726810725
aF-35.204670220743004
aF11.098752417695007
aF-13.57590113356507
aF0
aF0
aa(lp491
S'thumb_finger_fk_ctrl_1_r'
p492
a(lp493
VtranslateX
p494
aVtranslateY
p495
aVtranslateZ
p496
aVrotateX
p497
aVrotateY
p498
aVrotateZ
p499
aVsticky
p500
aVblendOrient1
p501
aaF-0.095124361994358614
aF-0.6213872335652848
aF-0.41093836382404353
aF27.832884755782644
aF11.776430904485689
aF-12.379818687214758
aF0
aF0
aa(lp502
S'thumb_finger_fk_ctrl_2_l'
p503
a(lp504
VtranslateX
p505
aVtranslateY
p506
aVtranslateZ
p507
aVrotateX
p508
aVrotateY
p509
aVrotateZ
p510
aVblendOrient1
p511
aaF0
aF0
aF0
aF5.5065589100506637e-06
aF7.8840443240090909e-06
aF2.9244908492814422e-06
aF0
aa(lp512
S'thumb_finger_fk_ctrl_2_r'
p513
a(lp514
VtranslateX
p515
aVtranslateY
p516
aVtranslateZ
p517
aVrotateX
p518
aVrotateY
p519
aVrotateZ
p520
aVblendOrient1
p521
aaF0
aF0
aF0
aF7.9690106095819956e-06
aF-1.7525243065741639e-05
aF1.0264594503790274e-05
aF0
aa(lp522
S'Rig_Settings'
p523
a(lp524
Vspine_ik
p525
aVspine_fk
p526
aVlLegMode
p527
aVrLegMode
p528
aVlFkArmOrient
p529
aVlArmMode
p530
aVlClavMode
p531
aVrFkArmOrient
p532
aVrArmMode
p533
aVrClavMode
p534
aaF1
aF0
aI1
aI1
aI0
aI1
aI1
aI0
aI1
aI1
aa(lp535
Vshoulderblade_r_anim
p536
a(lp537
VtranslateX
p538
aVtranslateY
p539
aVtranslateZ
p540
aVrotateX
p541
aVrotateY
p542
aVrotateZ
p543
aVscaleX
p544
aVscaleY
p545
aVscaleZ
p546
aVblendParent1
p547
aaF-0.40808685846810988
aF-0.24746335657888352
aF0.083188459191688935
aF-0.00033389467441411299
aF-0.15647390635100264
aF-1.4573936788638043e-05
aF1
aF1
aF1
aF1
aa(lp548
Vshoulderpad_l_anim
p549
a(lp550
VtranslateX
p551
aVtranslateY
p552
aVtranslateZ
p553
aVrotateX
p554
aVrotateY
p555
aVrotateZ
p556
aVscaleX
p557
aVscaleY
p558
aVscaleZ
p559
aVblendParent1
p560
aaF0.15523607143399687
aF0.41655708799689251
aF-0.14070931649354179
aF-0.00074121232523173541
aF-0.36351760874620098
aF-8.5767163445571389e-06
aF1
aF1
aF1
aF1
aa(lp561
Vshoulderblade_l_anim
p562
a(lp563
VtranslateX
p564
aVtranslateY
p565
aVtranslateZ
p566
aVrotateX
p567
aVrotateY
p568
aVrotateZ
p569
aVscaleX
p570
aVscaleY
p571
aVscaleZ
p572
aVblendParent1
p573
aaF0.47413641442803822
aF0.21243012914128201
aF-0.027719252946425854
aF-0.00072774822868426289
aF-0.34167071163717289
aF6.3445339201200544e-06
aF1
aF1
aF1
aF1
aa(lp574
Vshoulderpad_r_anim
p575
a(lp576
VtranslateX
p577
aVtranslateY
p578
aVtranslateZ
p579
aVrotateX
p580
aVrotateY
p581
aVrotateZ
p582
aVscaleX
p583
aVscaleY
p584
aVscaleZ
p585
aVblendParent1
p586
aaF-0.046107790312269969
aF-0.41418752365377998
aF0.18788144951392383
aF-0.00019668156758215482
aF-0.096009764350328583
aF-1.3629570957470619e-05
aF1
aF1
aF1
aF1
aa(lp587
Vheel_l_anim
p588
a(lp589
VtranslateX
p590
aVtranslateY
p591
aVtranslateZ
p592
aVrotateX
p593
aVrotateY
p594
aVrotateZ
p595
aVscaleX
p596
aVscaleY
p597
aVscaleZ
p598
aVblendParent1
p599
aaF11.089011337312526
aF-20.412167184012112
aF1.1556581172408917
aF37.197240766129745
aF1.5343878279113872
aF12.31711074285171
aF1
aF1
aF1
aF0
aa(lp600
Vweapon_r_anim
p601
a(lp602
VtranslateX
p603
aVtranslateY
p604
aVtranslateZ
p605
aVrotateX
p606
aVrotateY
p607
aVrotateZ
p608
aVscaleX
p609
aVscaleY
p610
aVscaleZ
p611
aVblendParent1
p612
aaF-2.1340354059972912e-05
aF1.7749511337397004e-05
aF2.776419729546108e-05
aF-7.947157002662986e-05
aF-4.9380573013308418e-05
aF-3.103174534027553e-05
aF1
aF1
aF1
aF0
aa(lp613
Vheel_r_anim
p614
a(lp615
VtranslateX
p616
aVtranslateY
p617
aVtranslateZ
p618
aVrotateX
p619
aVrotateY
p620
aVrotateZ
p621
aVscaleX
p622
aVscaleY
p623
aVscaleZ
p624
aVblendParent1
p625
aaF-11.712822182631623
aF19.998854617113903
aF0.99615262124738113
aF-19.342209778415981
aF1.3596212960777201
aF-13.169880871669548
aF1
aF1
aF1
aF0
aa(lp626
Vbody_anim_space_switcher
p627
a(lp628
Vvisibility
p629
aVtranslateX
p630
aVtranslateY
p631
aVtranslateZ
p632
aVrotateX
p633
aVrotateY
p634
aVrotateZ
p635
aVscaleX
p636
aVscaleY
p637
aVscaleZ
p638
aVspace_world
p639
aaI01
aF0
aF0
aF0
aF0
aF0
aF0
aF1
aF1
aF1
aF0
aa(lp640
Vchest_ik_anim_space_switcher
p641
a(lp642
Vvisibility
p643
aVtranslateX
p644
aVtranslateY
p645
aVtranslateZ
p646
aVrotateX
p647
aVrotateY
p648
aVrotateZ
p649
aVscaleX
p650
aVscaleY
p651
aVscaleZ
p652
aVspace_world
p653
aVspace_chest_ik_world_aligned
p654
aaI01
aF2.8421709430404007e-14
aF-4.4408920985006262e-16
aF0
aF0
aF0
aF0
aF1
aF1
aF1
aF0
aF0
aa(lp655
Vheel_l_anim_space_switcher
p656
a(lp657
Vvisibility
p658
aVtranslateX
p659
aVtranslateY
p660
aVtranslateZ
p661
aVrotateX
p662
aVrotateY
p663
aVrotateZ
p664
aVscaleX
p665
aVscaleY
p666
aVscaleZ
p667
aVspace_world
p668
aaI01
aF0
aF-1.8873791418627661e-15
aF-1.7763568394002505e-15
aF9.9392333795734899e-17
aF-0
aF0
aF1
aF1
aF1
aF0
aa(lp669
Vheel_r_anim_space_switcher
p670
a(lp671
Vvisibility
p672
aVtranslateX
p673
aVtranslateY
p674
aVtranslateZ
p675
aVrotateX
p676
aVrotateY
p677
aVrotateZ
p678
aVscaleX
p679
aVscaleY
p680
aVscaleZ
p681
aVspace_world
p682
aaI01
aF-7.1054273576010019e-15
aF3.4972025275692431e-15
aF1.7763568394002505e-15
aF4.9696166897867462e-17
aF-0
aF0
aF1.0000000000000002
aF0.99999999999999989
aF0.99999999999999989
aF0
aa(lp683
Vik_elbow_l_anim_space_switcher
p684
a(lp685
Vvisibility
p686
aVtranslateX
p687
aVtranslateY
p688
aVtranslateZ
p689
aVrotateX
p690
aVrotateY
p691
aVrotateZ
p692
aVscaleX
p693
aVscaleY
p694
aVscaleZ
p695
aVspace_world
p696
aVspace_body_anim
p697
aVspace_chest_ik_anim
p698
aaI01
aF0
aF0
aF0
aF0
aF0
aF0
aF1
aF1
aF1
aF0
aF0
aF0
aa(lp699
Vik_elbow_r_anim_space_switcher
p700
a(lp701
Vvisibility
p702
aVtranslateX
p703
aVtranslateY
p704
aVtranslateZ
p705
aVrotateX
p706
aVrotateY
p707
aVrotateZ
p708
aVscaleX
p709
aVscaleY
p710
aVscaleZ
p711
aVspace_world
p712
aVspace_body_anim
p713
aVspace_chest_ik_anim
p714
aaI01
aF0
aF0
aF0
aF0
aF0
aF0
aF1
aF1
aF1
aF0
aF0
aF0
aa(lp715
Vik_foot_anim_l_space_switcher
p716
a(lp717
Vvisibility
p718
aVtranslateX
p719
aVtranslateY
p720
aVtranslateZ
p721
aVrotateX
p722
aVrotateY
p723
aVrotateZ
p724
aVscaleX
p725
aVscaleY
p726
aVscaleZ
p727
aVspace_world
p728
aVspace_body_anim
p729
aaI01
aF0
aF0
aF0
aF0
aF0
aF0
aF1
aF1
aF1
aF0
aF0
aa(lp730
Vik_foot_anim_r_space_switcher
p731
a(lp732
Vvisibility
p733
aVtranslateX
p734
aVtranslateY
p735
aVtranslateZ
p736
aVrotateX
p737
aVrotateY
p738
aVrotateZ
p739
aVscaleX
p740
aVscaleY
p741
aVscaleZ
p742
aVspace_world
p743
aVspace_body_anim
p744
aaI01
aF0
aF0
aF0
aF0
aF0
aF0
aF1
aF1
aF1
aF0
aF0
aa(lp745
Vik_wrist_l_anim_space_switcher
p746
a(lp747
Vvisibility
p748
aVtranslateX
p749
aVtranslateY
p750
aVtranslateZ
p751
aVrotateX
p752
aVrotateY
p753
aVrotateZ
p754
aVscaleX
p755
aVscaleY
p756
aVscaleZ
p757
aVspace_world
p758
aVspace_body_anim
p759
aVspace_head_fk_anim
p760
aVspace_chest_ik_anim
p761
aaI01
aF0
aF0
aF0
aF0
aF0
aF0
aF1
aF1
aF1
aF0
aF0
aF0
aF0
aa(lp762
Vik_wrist_r_anim_space_switcher
p763
a(lp764
Vvisibility
p765
aVtranslateX
p766
aVtranslateY
p767
aVtranslateZ
p768
aVrotateX
p769
aVrotateY
p770
aVrotateZ
p771
aVscaleX
p772
aVscaleY
p773
aVscaleZ
p774
aVspace_world
p775
aVspace_body_anim
p776
aVspace_head_fk_anim
p777
aVspace_chest_ik_anim
p778
aaI01
aF0
aF0
aF0
aF0
aF0
aF0
aF1
aF1
aF1
aF0
aF0
aF0
aF0
aa(lp779
Vmaster_anim_space_switcher
p780
a(lp781
Vvisibility
p782
aVtranslateX
p783
aVtranslateY
p784
aVtranslateZ
p785
aVrotateX
p786
aVrotateY
p787
aVrotateZ
p788
aVscaleX
p789
aVscaleY
p790
aVscaleZ
p791
aVspace_world
p792
aaI01
aF0
aF0
aF0
aF0
aF0
aF0
aF1
aF1
aF1
aF0
aa(lp793
Vshoulderblade_l_anim_space_switcher
p794
a(lp795
Vvisibility
p796
aVtranslateX
p797
aVtranslateY
p798
aVtranslateZ
p799
aVrotateX
p800
aVrotateY
p801
aVrotateZ
p802
aVscaleX
p803
aVscaleY
p804
aVscaleZ
p805
aVspace_world
p806
aaI01
aF0
aF-7.1054273576010019e-15
aF2.8421709430404007e-14
aF0
aF-0
aF3.9756933518293952e-15
aF1.0000000000000002
aF1
aF1
aF0
aa(lp807
Vshoulderblade_r_anim_space_switcher
p808
a(lp809
Vvisibility
p810
aVtranslateX
p811
aVtranslateY
p812
aVtranslateZ
p813
aVrotateX
p814
aVrotateY
p815
aVrotateZ
p816
aVscaleX
p817
aVscaleY
p818
aVscaleZ
p819
aVspace_world
p820
aaI01
aF7.1054273576010019e-15
aF0
aF-2.8421709430404007e-14
aF-3.1805546814635168e-15
aF-0
aF-1.590277340731758e-15
aF1.0000000000000002
aF1
aF1.0000000000000002
aF0
aa(lp821
Vshoulderpad_l_anim_space_switcher
p822
a(lp823
Vvisibility
p824
aVtranslateX
p825
aVtranslateY
p826
aVtranslateZ
p827
aVrotateX
p828
aVrotateY
p829
aVrotateZ
p830
aVscaleX
p831
aVscaleY
p832
aVscaleZ
p833
aVspace_world
p834
aaI01
aF-1.4210854715202004e-14
aF3.5527136788005009e-15
aF0
aF0
aF-3.180554681463516e-15
aF-7.9513867036587899e-16
aF1.0000000000000002
aF1.0000000000000002
aF1.0000000000000002
aF0
aa(lp835
Vshoulderpad_r_anim_space_switcher
p836
a(lp837
Vvisibility
p838
aVtranslateX
p839
aVtranslateY
p840
aVtranslateZ
p841
aVrotateX
p842
aVrotateY
p843
aVrotateZ
p844
aVscaleX
p845
aVscaleY
p846
aVscaleZ
p847
aVspace_world
p848
aaI01
aF1.4210854715202004e-14
aF-3.5527136788005009e-15
aF-2.8421709430404007e-14
aF1.5902773407317584e-15
aF3.1805546814635168e-15
aF7.9513867036587919e-16
aF1
aF1
aF0.99999999999999989
aF0
aa(lp849
Vspine_01_space_switcher
p850
a(lp851
Vvisibility
p852
aVtranslateX
p853
aVtranslateY
p854
aVtranslateZ
p855
aVrotateX
p856
aVrotateY
p857
aVrotateZ
p858
aVscaleX
p859
aVscaleY
p860
aVscaleZ
p861
aVspace_world
p862
aaI01
aF-1.4210854715202004e-14
aF-1.7763568394002505e-15
aF1.2621774483536189e-29
aF1.2005825130696429e-29
aF-5.6498000615042016e-30
aF-7.9513867036587899e-16
aF1.0000000000000002
aF1.0000000000000002
aF1
aF0
aa(lp863
Vweapon_r_anim_space_switcher
p864
a(lp865
Vvisibility
p866
aVtranslateX
p867
aVtranslateY
p868
aVtranslateZ
p869
aVrotateX
p870
aVrotateY
p871
aVrotateZ
p872
aVscaleX
p873
aVscaleY
p874
aVscaleZ
p875
aVspace_world
p876
aaI01
aF0
aF0
aF-4.2632564145606011e-14
aF-2.981770013872047e-16
aF-3.1805546814635176e-15
aF-7.9513867036587939e-16
aF0.99999999999999989
aF1
aF1
aF0
aa.