(lp1
(lp2
S'head_fk_anim'
p3
a(lp4
VrotateX
p5
aVrotateY
p6
aVrotateZ
p7
aVfkOrientation
p8
aVblendOrient1
p9
aaF27.621293014256736
aF9.031204553974634
aF24.142641930040366
aI0
aF0
aa(lp10
S'neck_01_fk_anim'
p11
a(lp12
VrotateX
p13
aVrotateY
p14
aVrotateZ
p15
aVfkOrientation
p16
aVblendOrient1
p17
aaF44.262295333872281
aF9.71324857151318
aF8.2350714672178675
aI0
aF0
aa(lp18
S'neck_02_fk_anim'
p19
a(lp20
VrotateX
p21
aVrotateY
p22
aVrotateZ
p23
aVblendOrient1
p24
aaF0.42403248922862669
aF2.4912643845641869
aF-6.7527625867166075
aF0
aa(lp25
S'spine_01_anim'
p26
a(lp27
Vlength
p28
aVrotateX
p29
aVrotateY
p30
aVrotateZ
p31
aaF0
aF0
aF0
aF0
aa(lp32
S'spine_02_anim'
p33
a(lp34
Vlength
p35
aVrotateX
p36
aVrotateY
p37
aVrotateZ
p38
aaF0
aF0
aF0
aF0
aa(lp39
S'spine_03_anim'
p40
a(lp41
Vlength
p42
aVrotateX
p43
aVrotateY
p44
aVrotateZ
p45
aaF0
aF0
aF0
aF0
aa(lp46
S'mid_ik_anim'
p47
a(lp48
VtranslateX
p49
aVtranslateY
p50
aVtranslateZ
p51
aVrotateX
p52
aVrotateY
p53
aVrotateZ
p54
aaF-0.63156621100715515
aF1.6003115592440798
aF0.10521714704083648
aF-6.3332044550625541
aF3.5499270189664203
aF-15.860638560669992
aa(lp55
S'chest_ik_anim'
p56
a(lp57
VtranslateX
p58
aVtranslateY
p59
aVtranslateZ
p60
aVrotateX
p61
aVrotateY
p62
aVrotateZ
p63
aVstretch
p64
aVtwist_amount
p65
aVspine_01_twistAmount
p66
aVspine_02_twistAmount
p67
aVautoSpine
p68
aaF-0.36737950302597577
aF-5.5713321041442105
aF-0.19797868303718608
aF-28.863902548094277
aF22.81680452403107
aF-21.702995166242744
aF0
aF1
aF0.33333333333333331
aF0.66666666666666663
aF0
aa(lp69
S'body_anim'
p70
a(lp71
VtranslateX
p72
aVtranslateY
p73
aVtranslateZ
p74
aVrotateX
p75
aVrotateY
p76
aVrotateZ
p77
aVblendParent1
p78
aaF-13.180982427877446
aF8.1685156095532765
aF-4.0421533812878803
aF-48.314882951497658
aF3.2164849939738671
aF-9.4177333710662765
aF0
aa(lp79
S'hip_anim'
p80
a(lp81
VtranslateX
p82
aVtranslateY
p83
aVtranslateZ
p84
aVrotateX
p85
aVrotateY
p86
aVrotateZ
p87
aVlTwistCtrlVis
p88
aVlCalfTwistCtrlVis
p89
aVrTwistCtrlVis
p90
aVrCalfTwistCtrlVis
p91
aVautoHips
p92
aaF-7.1054273576010019e-15
aF0
aF-1.5777218104420236e-30
aF0.13614449723138886
aF-1.0675094528988114
aF10.566332585311153
aI00
aI00
aI00
aI00
aF0
aa(lp93
S'clavicle_l_anim'
p94
a(lp95
VtranslateX
p96
aVtranslateY
p97
aVtranslateZ
p98
aVautoShoulders
p99
aVtwistCtrlVis
p100
aVtwistCtrlVisLower
p101
aVblendPoint1
p102
aaF7.1054273576010019e-15
aF-5.2234085129786703
aF-1.6957424057874562
aF0
aI00
aI00
aF0
aa(lp103
S'clavicle_r_anim'
p104
a(lp105
VtranslateX
p106
aVtranslateY
p107
aVtranslateZ
p108
aVautoShoulders
p109
aVtwistCtrlVis
p110
aVtwistCtrlVisLower
p111
aVblendPoint1
p112
aaF-4.9737991503207013e-14
aF-6.2705741444489105
aF6.0116476095836902
aF0
aI00
aI00
aF0
aa(lp113
S'fk_arm_l_anim'
p114
a(lp115
VtranslateX
p116
aVtranslateY
p117
aVtranslateZ
p118
aVrotateX
p119
aVrotateY
p120
aVrotateZ
p121
aVblendOrient1
p122
aaF0
aF0
aF0
aF-5.6339991045090621
aF9.2633034158844172
aF-44.105303724074901
aF0
aa(lp123
S'fk_arm_r_anim'
p124
a(lp125
VtranslateX
p126
aVtranslateY
p127
aVtranslateZ
p128
aVrotateX
p129
aVrotateY
p130
aVrotateZ
p131
aVblendOrient1
p132
aaF0
aF0
aF0
aF70.779790373419246
aF-23.611158136964104
aF-2.9603296996652162
aF0
aa(lp133
S'fk_elbow_l_anim'
p134
a(lp135
VtranslateX
p136
aVtranslateY
p137
aVtranslateZ
p138
aVrotateX
p139
aVrotateY
p140
aVrotateZ
p141
aVblendOrient1
p142
aaF0
aF0
aF0
aF0
aF0
aF-6.4307718932305926
aF0
aa(lp143
S'fk_elbow_r_anim'
p144
a(lp145
VtranslateX
p146
aVtranslateY
p147
aVtranslateZ
p148
aVrotateX
p149
aVrotateY
p150
aVrotateZ
p151
aVblendOrient1
p152
aaF0
aF0
aF0
aF0.13500906673290619
aF-0.30076583284625058
aF65.825297930964169
aF0
aa(lp153
S'fk_wrist_l_anim'
p154
a(lp155
VtranslateX
p156
aVtranslateY
p157
aVtranslateZ
p158
aVrotateX
p159
aVrotateY
p160
aVrotateZ
p161
aVblendOrient1
p162
aaF0
aF0
aF0
aF-16.142022856621033
aF-9.5664236077625464
aF-6.6701281690690806
aF0
aa(lp163
S'fk_wrist_r_anim'
p164
a(lp165
VtranslateX
p166
aVtranslateY
p167
aVtranslateZ
p168
aVrotateX
p169
aVrotateY
p170
aVrotateZ
p171
aVblendOrient1
p172
aaF0
aF0
aF0
aF-202.78769062104243
aF-12.62311944488545
aF-8.759544781147385
aF0
aa(lp173
S'ik_elbow_l_anim'
p174
a(lp175
VtranslateX
p176
aVtranslateY
p177
aVtranslateZ
p178
aaF0
aF0
aF0
aa(lp179
S'ik_elbow_r_anim'
p180
a(lp181
VtranslateX
p182
aVtranslateY
p183
aVtranslateZ
p184
aaF0
aF0
aF0
aa(lp185
S'ik_wrist_l_anim'
p186
a(lp187
VtranslateX
p188
aVtranslateY
p189
aVtranslateZ
p190
aVrotateX
p191
aVrotateY
p192
aVrotateZ
p193
aVstretch
p194
aVbias
p195
aVside
p196
aVmid_bend
p197
aVmid_swivel
p198
aVtip_pivot
p199
aVtip_swivel
p200
aaF0
aF0
aF0
aF0
aF0
aF0
aF0
aF1
aF0
aF0
aF0
aF0
aF0
aa(lp201
S'ik_wrist_r_anim'
p202
a(lp203
VtranslateX
p204
aVtranslateY
p205
aVtranslateZ
p206
aVrotateX
p207
aVrotateY
p208
aVrotateZ
p209
aVstretch
p210
aVbias
p211
aVside
p212
aVmid_bend
p213
aVmid_swivel
p214
aVtip_pivot
p215
aVtip_swivel
p216
aaF0
aF0
aF0
aF0
aF0
aF0
aF0
aF1
aF0
aF0
aF0
aF0
aF0
aa(lp217
S'fk_thigh_l_anim'
p218
a(lp219
VrotateX
p220
aVrotateY
p221
aVrotateZ
p222
aVblendOrient1
p223
aaF0
aF0
aF0
aF0
aa(lp224
S'fk_thigh_r_anim'
p225
a(lp226
VrotateX
p227
aVrotateY
p228
aVrotateZ
p229
aVblendOrient1
p230
aaF0
aF-3.1805546814635168e-15
aF0
aF0
aa(lp231
S'fk_calf_l_anim'
p232
a(lp233
VrotateX
p234
aVrotateY
p235
aVrotateZ
p236
aVblendOrient1
p237
aaF0
aF0
aF0
aF0
aa(lp238
S'fk_calf_r_anim'
p239
a(lp240
VrotateX
p241
aVrotateY
p242
aVrotateZ
p243
aVblendOrient1
p244
aaF0
aF0
aF0
aF0
aa(lp245
S'fk_foot_l_anim'
p246
a(lp247
VrotateX
p248
aVrotateY
p249
aVrotateZ
p250
aVblendOrient1
p251
aaF-1.1927080055488188e-15
aF0
aF-1.987846675914698e-16
aF0
aa(lp252
S'fk_foot_r_anim'
p253
a(lp254
VrotateX
p255
aVrotateY
p256
aVrotateZ
p257
aVblendOrient1
p258
aaF-1.5902773407317584e-15
aF0
aF0
aF0
aa(lp259
S'fk_ball_l_anim'
p260
a(lp261
VrotateX
p262
aVrotateY
p263
aVrotateZ
p264
aaF0
aF0
aF0
aa(lp265
S'fk_ball_r_anim'
p266
a(lp267
VrotateX
p268
aVrotateY
p269
aVrotateZ
p270
aaF0
aF0
aF0
aa(lp271
S'ik_foot_anim_l'
p272
a(lp273
VtranslateX
p274
aVtranslateY
p275
aVtranslateZ
p276
aVrotateX
p277
aVrotateY
p278
aVrotateZ
p279
aVknee_twist
p280
aVstretch
p281
aVbias
p282
aVtoeCtrlVis
p283
aaF0.16057497687275202
aF-39.564091752775447
aF0
aF0
aF0
aF-17.743775219701067
aF-7.0999999999999996
aF0
aF1
aI00
aa(lp284
S'ik_foot_anim_r'
p285
a(lp286
VtranslateX
p287
aVtranslateY
p288
aVtranslateZ
p289
aVrotateX
p290
aVrotateY
p291
aVrotateZ
p292
aVknee_twist
p293
aVstretch
p294
aVbias
p295
aVtoeCtrlVis
p296
aaF-12.158264500798957
aF25.468167160229196
aF0
aF0
aF0
aF-72.696447718387034
aF82.900000000000006
aF0
aF1
aI00
aa(lp297
S'heel_ctrl_l'
p298
a(lp299
VrotateX
p300
aVrotateY
p301
aVrotateZ
p302
aaF-1.2424041724466862e-17
aF0
aF0
aa(lp303
S'heel_ctrl_r'
p304
a(lp305
VrotateX
p306
aVrotateY
p307
aVrotateZ
p308
aaF1.124375776064251e-15
aF-1.5902773407317584e-15
aF0
aa(lp309
S'toe_wiggle_ctrl_l'
p310
a(lp311
VrotateX
p312
aVrotateY
p313
aVrotateZ
p314
aaF-7.9513867036587935e-15
aF1.0784068216837241e-14
aF8.1501713712502666e-15
aa(lp315
S'toe_wiggle_ctrl_r'
p316
a(lp317
VrotateX
p318
aVrotateY
p319
aVrotateZ
p320
aaF7.9513867036587935e-15
aF-2.6835930124848422e-15
aF-3.776908684237926e-15
aa(lp321
S'toe_tip_ctrl_l'
p322
a(lp323
VrotateX
p324
aVrotateY
p325
aVrotateZ
p326
aaF0
aF1.1131941385122312e-14
aF4.5720473546038059e-15
aa(lp327
S'toe_tip_ctrl_r'
p328
a(lp329
VrotateX
p330
aVrotateY
p331
aVrotateZ
p332
aaF0
aF-7.2059442001907824e-16
aF9.5416640443905535e-15
aa(lp333
S'master_anim'
p334
a(lp335
VtranslateX
p336
aVtranslateY
p337
aVtranslateZ
p338
aVrotateX
p339
aVrotateY
p340
aVrotateZ
p341
aaF0
aF0
aF0
aF0
aF0
aF0
aa(lp342
S'offset_anim'
p343
a(lp344
VtranslateX
p345
aVtranslateY
p346
aVtranslateZ
p347
aVrotateX
p348
aVrotateY
p349
aVrotateZ
p350
aaF0
aF0
aF0
aF0
aF0
aF0
aa(lp351
S'root_anim'
p352
a(lp353
VtranslateX
p354
aVtranslateY
p355
aVtranslateZ
p356
aVrotateX
p357
aVrotateY
p358
aVrotateZ
p359
aaF0
aF0
aF0
aF0
aF0
aF0
aa(lp360
S'upperarm_l_twist_anim'
p361
a(lp362
VtranslateX
p363
aVtranslateY
p364
aVtranslateZ
p365
aVrotateX
p366
aVrotateY
p367
aVrotateZ
p368
aaF0
aF0
aF0
aF0
aF0
aF0
aa(lp369
S'upperarm_r_twist_anim'
p370
a(lp371
VtranslateX
p372
aVtranslateY
p373
aVtranslateZ
p374
aVrotateX
p375
aVrotateY
p376
aVrotateZ
p377
aaF0
aF0
aF0
aF0
aF0
aF0
aa(lp378
S'thigh_l_twist_anim'
p379
a(lp380
VtranslateX
p381
aVtranslateY
p382
aVtranslateZ
p383
aVrotateX
p384
aVrotateY
p385
aVrotateZ
p386
aaF0
aF0
aF0
aF0
aF0
aF0
aa(lp387
S'thigh_r_twist_anim'
p388
a(lp389
VtranslateX
p390
aVtranslateY
p391
aVtranslateZ
p392
aVrotateX
p393
aVrotateY
p394
aVrotateZ
p395
aaF0
aF0
aF0
aF0
aF0
aF0
aa(lp396
S'pinky_finger_fk_ctrl_1_l'
p397
a(lp398
VtranslateX
p399
aVtranslateY
p400
aVtranslateZ
p401
aVrotateX
p402
aVrotateY
p403
aVrotateZ
p404
aVsticky
p405
aVblendOrient1
p406
aaF0
aF0
aF0
aF-13.668345221677585
aF16.467137196843908
aF68.785321424905845
aF0
aF0
aa(lp407
S'pinky_finger_fk_ctrl_1_r'
p408
a(lp409
VtranslateX
p410
aVtranslateY
p411
aVtranslateZ
p412
aVrotateX
p413
aVrotateY
p414
aVrotateZ
p415
aVsticky
p416
aVblendOrient1
p417
aaF0
aF0
aF0
aF-13.668345221677585
aF16.467137196843908
aF68.785321424905845
aF0
aF0
aa(lp418
S'pinky_finger_fk_ctrl_2_l'
p419
a(lp420
VtranslateX
p421
aVtranslateY
p422
aVtranslateZ
p423
aVrotateX
p424
aVrotateY
p425
aVrotateZ
p426
aVblendOrient1
p427
aaF0
aF0
aF0
aF0
aF0
aF86.383016190000021
aF0
aa(lp428
S'pinky_finger_fk_ctrl_2_r'
p429
a(lp430
VtranslateX
p431
aVtranslateY
p432
aVtranslateZ
p433
aVrotateX
p434
aVrotateY
p435
aVrotateZ
p436
aVblendOrient1
p437
aaF0
aF0
aF0
aF0
aF0
aF86.383016190000021
aF0
aa(lp438
S'pinky_finger_fk_ctrl_3_l'
p439
a(lp440
VtranslateX
p441
aVtranslateY
p442
aVtranslateZ
p443
aVrotateX
p444
aVrotateY
p445
aVrotateZ
p446
aVblendOrient1
p447
aaF0
aF0
aF0
aF0
aF0
aF82.837878270000004
aF0
aa(lp448
S'pinky_finger_fk_ctrl_3_r'
p449
a(lp450
VtranslateX
p451
aVtranslateY
p452
aVtranslateZ
p453
aVrotateX
p454
aVrotateY
p455
aVrotateZ
p456
aVblendOrient1
p457
aaF0
aF0
aF0
aF0
aF0
aF82.837878270000004
aF0
aa(lp458
S'ring_finger_fk_ctrl_1_l'
p459
a(lp460
VtranslateX
p461
aVtranslateY
p462
aVtranslateZ
p463
aVrotateX
p464
aVrotateY
p465
aVrotateZ
p466
aVsticky
p467
aVblendOrient1
p468
aaF0
aF0
aF0
aF0.12361652500565923
aF2.7923290394856095
aF73.303846156374789
aF0
aF0
aa(lp469
S'ring_finger_fk_ctrl_1_r'
p470
a(lp471
VtranslateX
p472
aVtranslateY
p473
aVtranslateZ
p474
aVrotateX
p475
aVrotateY
p476
aVrotateZ
p477
aVsticky
p478
aVblendOrient1
p479
aaF0
aF0
aF0
aF0.12361652500565963
aF2.7923290394856091
aF73.303846156374789
aF0
aF0
aa(lp480
S'ring_finger_fk_ctrl_2_l'
p481
a(lp482
VtranslateX
p483
aVtranslateY
p484
aVtranslateZ
p485
aVrotateX
p486
aVrotateY
p487
aVrotateZ
p488
aVblendOrient1
p489
aaF0
aF0
aF0
aF0
aF0
aF75.475565579999994
aF0
aa(lp490
S'ring_finger_fk_ctrl_2_r'
p491
a(lp492
VtranslateX
p493
aVtranslateY
p494
aVtranslateZ
p495
aVrotateX
p496
aVrotateY
p497
aVrotateZ
p498
aVblendOrient1
p499
aaF0
aF0
aF0
aF0
aF0
aF75.475565579999994
aF0
aa(lp500
S'ring_finger_fk_ctrl_3_l'
p501
a(lp502
VtranslateX
p503
aVtranslateY
p504
aVtranslateZ
p505
aVrotateX
p506
aVrotateY
p507
aVrotateZ
p508
aVblendOrient1
p509
aaF0
aF0
aF0
aF0
aF0
aF93.02170418
aF0
aa(lp510
S'ring_finger_fk_ctrl_3_r'
p511
a(lp512
VtranslateX
p513
aVtranslateY
p514
aVtranslateZ
p515
aVrotateX
p516
aVrotateY
p517
aVrotateZ
p518
aVblendOrient1
p519
aaF0
aF0
aF0
aF0
aF0
aF93.02170418
aF0
aa(lp520
S'middle_finger_fk_ctrl_1_l'
p521
a(lp522
VtranslateX
p523
aVtranslateY
p524
aVtranslateZ
p525
aVrotateX
p526
aVrotateY
p527
aVrotateZ
p528
aVsticky
p529
aVblendOrient1
p530
aaF0
aF0
aF0
aF-0.19550451360116797
aF-4.4109404684699456
aF67.757072578704097
aF0
aF0
aa(lp531
S'middle_finger_fk_ctrl_1_r'
p532
a(lp533
VtranslateX
p534
aVtranslateY
p535
aVtranslateZ
p536
aVrotateX
p537
aVrotateY
p538
aVrotateZ
p539
aVsticky
p540
aVblendOrient1
p541
aaF0
aF0
aF0
aF-0.19550451360116777
aF-4.4109404684699456
aF67.757072578704097
aF0
aF0
aa(lp542
S'middle_finger_fk_ctrl_2_l'
p543
a(lp544
VtranslateX
p545
aVtranslateY
p546
aVtranslateZ
p547
aVrotateX
p548
aVrotateY
p549
aVrotateZ
p550
aVblendOrient1
p551
aaF0
aF0
aF0
aF0
aF0
aF82.266493190000006
aF0
aa(lp552
S'middle_finger_fk_ctrl_2_r'
p553
a(lp554
VtranslateX
p555
aVtranslateY
p556
aVtranslateZ
p557
aVrotateX
p558
aVrotateY
p559
aVrotateZ
p560
aVblendOrient1
p561
aaF0
aF0
aF0
aF0
aF0
aF82.266493190000006
aF0
aa(lp562
S'middle_finger_fk_ctrl_3_l'
p563
a(lp564
VtranslateX
p565
aVtranslateY
p566
aVtranslateZ
p567
aVrotateX
p568
aVrotateY
p569
aVrotateZ
p570
aVblendOrient1
p571
aaF0
aF0
aF0
aF0
aF0
aF83.890415830000009
aF0
aa(lp572
S'middle_finger_fk_ctrl_3_r'
p573
a(lp574
VtranslateX
p575
aVtranslateY
p576
aVtranslateZ
p577
aVrotateX
p578
aVrotateY
p579
aVrotateZ
p580
aVblendOrient1
p581
aaF0
aF0
aF0
aF0
aF0
aF83.890415829999995
aF0
aa(lp582
S'index_finger_fk_ctrl_1_l'
p583
a(lp584
VtranslateX
p585
aVtranslateY
p586
aVtranslateZ
p587
aVrotateX
p588
aVrotateY
p589
aVrotateZ
p590
aVsticky
p591
aVblendOrient1
p592
aaF0
aF0
aF0
aF-0.50948849857779632
aF-3.7856909262119394
aF66.148840121446327
aF0
aF0
aa(lp593
S'index_finger_fk_ctrl_1_r'
p594
a(lp595
VtranslateX
p596
aVtranslateY
p597
aVtranslateZ
p598
aVrotateX
p599
aVrotateY
p600
aVrotateZ
p601
aVsticky
p602
aVblendOrient1
p603
aaF0
aF0
aF0
aF-0.50948849857779599
aF-3.7856909262119394
aF66.148840121446327
aF0
aF0
aa(lp604
S'index_finger_fk_ctrl_2_l'
p605
a(lp606
VtranslateX
p607
aVtranslateY
p608
aVtranslateZ
p609
aVrotateX
p610
aVrotateY
p611
aVrotateZ
p612
aVblendOrient1
p613
aaF0
aF0
aF0
aF0
aF0
aF97.964136010000004
aF0
aa(lp614
S'index_finger_fk_ctrl_2_r'
p615
a(lp616
VtranslateX
p617
aVtranslateY
p618
aVtranslateZ
p619
aVrotateX
p620
aVrotateY
p621
aVrotateZ
p622
aVblendOrient1
p623
aaF0
aF0
aF0
aF0
aF0
aF97.964136010000004
aF0
aa(lp624
S'index_finger_fk_ctrl_3_l'
p625
a(lp626
VtranslateX
p627
aVtranslateY
p628
aVtranslateZ
p629
aVrotateX
p630
aVrotateY
p631
aVrotateZ
p632
aVblendOrient1
p633
aaF0
aF0
aF0
aF0
aF0
aF61.49198276464525
aF0
aa(lp634
S'index_finger_fk_ctrl_3_r'
p635
a(lp636
VtranslateX
p637
aVtranslateY
p638
aVtranslateZ
p639
aVrotateX
p640
aVrotateY
p641
aVrotateZ
p642
aVblendOrient1
p643
aaF0
aF0
aF0
aF0
aF0
aF61.49198276464525
aF0
aa(lp644
S'thumb_finger_fk_ctrl_1_l'
p645
a(lp646
VtranslateX
p647
aVtranslateY
p648
aVtranslateZ
p649
aVrotateX
p650
aVrotateY
p651
aVrotateZ
p652
aVsticky
p653
aVblendOrient1
p654
aaF0
aF0
aF0
aF-15.779877327751171
aF7.4430664602813801
aF-5.3071725998035939
aF0
aF0
aa(lp655
S'thumb_finger_fk_ctrl_1_r'
p656
a(lp657
VtranslateX
p658
aVtranslateY
p659
aVtranslateZ
p660
aVrotateX
p661
aVrotateY
p662
aVrotateZ
p663
aVsticky
p664
aVblendOrient1
p665
aaF0
aF0
aF0
aF-15.779877327751171
aF7.4430664602813819
aF-5.3071725998035939
aF0
aF0
aa(lp666
S'thumb_finger_fk_ctrl_2_l'
p667
a(lp668
VtranslateX
p669
aVtranslateY
p670
aVtranslateZ
p671
aVrotateX
p672
aVrotateY
p673
aVrotateZ
p674
aVblendOrient1
p675
aaF0
aF0
aF0
aF7.3811302900000006
aF0.88000102260000068
aF53.176074630000002
aF0
aa(lp676
S'thumb_finger_fk_ctrl_2_r'
p677
a(lp678
VtranslateX
p679
aVtranslateY
p680
aVtranslateZ
p681
aVrotateX
p682
aVrotateY
p683
aVrotateZ
p684
aVblendOrient1
p685
aaF0
aF0
aF0
aF7.3811302900000006
aF0.88000102260000002
aF53.176074629999995
aF0
aa(lp686
S'thumb_finger_fk_ctrl_3_l'
p687
a(lp688
VtranslateX
p689
aVtranslateY
p690
aVtranslateZ
p691
aVrotateX
p692
aVrotateY
p693
aVrotateZ
p694
aVblendOrient1
p695
aaF0
aF0
aF0
aF0
aF0
aF87.274660179999998
aF0
aa(lp696
S'thumb_finger_fk_ctrl_3_r'
p697
a(lp698
VtranslateX
p699
aVtranslateY
p700
aVtranslateZ
p701
aVrotateX
p702
aVrotateY
p703
aVrotateZ
p704
aVblendOrient1
p705
aaF0
aF0
aF0
aF0
aF0
aF87.274660179999998
aF0
aa(lp706
S'index_l_ik_anim'
p707
a(lp708
VtranslateX
p709
aVtranslateY
p710
aVtranslateZ
p711
aVrotateX
p712
aVrotateY
p713
aVrotateZ
p714
aVpoleVectorVis
p715
aaF0
aF0
aF0
aF0
aF0
aF0
aF0
aa(lp716
S'index_r_ik_anim'
p717
a(lp718
VtranslateX
p719
aVtranslateY
p720
aVtranslateZ
p721
aVrotateX
p722
aVrotateY
p723
aVrotateZ
p724
aVpoleVectorVis
p725
aaF0
aF0
aF0
aF0
aF0
aF0
aF0
aa(lp726
S'middle_l_ik_anim'
p727
a(lp728
VtranslateX
p729
aVtranslateY
p730
aVtranslateZ
p731
aVrotateX
p732
aVrotateY
p733
aVrotateZ
p734
aVpoleVectorVis
p735
aaF0
aF0
aF0
aF0
aF0
aF0
aF0
aa(lp736
S'middle_r_ik_anim'
p737
a(lp738
VtranslateX
p739
aVtranslateY
p740
aVtranslateZ
p741
aVrotateX
p742
aVrotateY
p743
aVrotateZ
p744
aVpoleVectorVis
p745
aaF0
aF0
aF0
aF0
aF0
aF0
aF0
aa(lp746
S'ring_l_ik_anim'
p747
a(lp748
VtranslateX
p749
aVtranslateY
p750
aVtranslateZ
p751
aVrotateX
p752
aVrotateY
p753
aVrotateZ
p754
aVpoleVectorVis
p755
aaF0
aF0
aF0
aF0
aF0
aF0
aF0
aa(lp756
S'ring_r_ik_anim'
p757
a(lp758
VtranslateX
p759
aVtranslateY
p760
aVtranslateZ
p761
aVrotateX
p762
aVrotateY
p763
aVrotateZ
p764
aVpoleVectorVis
p765
aaF0
aF0
aF0
aF0
aF0
aF0
aF0
aa(lp766
S'pinky_l_ik_anim'
p767
a(lp768
VtranslateX
p769
aVtranslateY
p770
aVtranslateZ
p771
aVrotateX
p772
aVrotateY
p773
aVrotateZ
p774
aVpoleVectorVis
p775
aaF0
aF0
aF0
aF0
aF0
aF0
aF0
aa(lp776
S'pinky_r_ik_anim'
p777
a(lp778
VtranslateX
p779
aVtranslateY
p780
aVtranslateZ
p781
aVrotateX
p782
aVrotateY
p783
aVrotateZ
p784
aVpoleVectorVis
p785
aaF0
aF0
aF0
aF0
aF0
aF0
aF0
aa(lp786
S'thumb_l_ik_anim'
p787
a(lp788
VtranslateX
p789
aVtranslateY
p790
aVtranslateZ
p791
aVrotateX
p792
aVrotateY
p793
aVrotateZ
p794
aVpoleVectorVis
p795
aaF0
aF0
aF0
aF0
aF0
aF0
aF0
aa(lp796
S'thumb_r_ik_anim'
p797
a(lp798
VtranslateX
p799
aVtranslateY
p800
aVtranslateZ
p801
aVrotateX
p802
aVrotateY
p803
aVrotateZ
p804
aVpoleVectorVis
p805
aaF0
aF0
aF0
aF0
aF0
aF0
aF0
aa(lp806
S'index_l_poleVector'
p807
a(lp808
VtranslateX
p809
aVtranslateY
p810
aVtranslateZ
p811
aVrotateX
p812
aVrotateY
p813
aVrotateZ
p814
aaF0
aF0
aF0
aF0
aF0
aF0
aa(lp815
S'index_r_poleVector'
p816
a(lp817
VtranslateX
p818
aVtranslateY
p819
aVtranslateZ
p820
aVrotateX
p821
aVrotateY
p822
aVrotateZ
p823
aaF0
aF0
aF0
aF0
aF0
aF0
aa(lp824
S'middle_l_poleVector'
p825
a(lp826
VtranslateX
p827
aVtranslateY
p828
aVtranslateZ
p829
aVrotateX
p830
aVrotateY
p831
aVrotateZ
p832
aaF0
aF0
aF0
aF0
aF0
aF0
aa(lp833
S'middle_r_poleVector'
p834
a(lp835
VtranslateX
p836
aVtranslateY
p837
aVtranslateZ
p838
aVrotateX
p839
aVrotateY
p840
aVrotateZ
p841
aaF0
aF0
aF0
aF0
aF0
aF0
aa(lp842
S'ring_l_poleVector'
p843
a(lp844
VtranslateX
p845
aVtranslateY
p846
aVtranslateZ
p847
aVrotateX
p848
aVrotateY
p849
aVrotateZ
p850
aaF0
aF0
aF0
aF0
aF0
aF0
aa(lp851
S'ring_r_poleVector'
p852
a(lp853
VtranslateX
p854
aVtranslateY
p855
aVtranslateZ
p856
aVrotateX
p857
aVrotateY
p858
aVrotateZ
p859
aaF0
aF0
aF0
aF0
aF0
aF0
aa(lp860
S'pinky_l_poleVector'
p861
a(lp862
VtranslateX
p863
aVtranslateY
p864
aVtranslateZ
p865
aVrotateX
p866
aVrotateY
p867
aVrotateZ
p868
aaF0
aF0
aF0
aF0
aF0
aF0
aa(lp869
S'pinky_r_poleVector'
p870
a(lp871
VtranslateX
p872
aVtranslateY
p873
aVtranslateZ
p874
aVrotateX
p875
aVrotateY
p876
aVrotateZ
p877
aaF0
aF0
aF0
aF0
aF0
aF0
aa(lp878
S'thumb_l_poleVector'
p879
a(lp880
VtranslateX
p881
aVtranslateY
p882
aVtranslateZ
p883
aVrotateX
p884
aVrotateY
p885
aVrotateZ
p886
aaF0
aF0
aF0
aF0
aF0
aF0
aa(lp887
S'thumb_r_poleVector'
p888
a(lp889
VtranslateX
p890
aVtranslateY
p891
aVtranslateZ
p892
aVrotateX
p893
aVrotateY
p894
aVrotateZ
p895
aaF0
aF0
aF0
aF0
aF0
aF0
aa(lp896
S'l_global_ik_anim'
p897
a(lp898
VtranslateX
p899
aVtranslateY
p900
aVtranslateZ
p901
aVrotateX
p902
aVrotateY
p903
aVrotateZ
p904
aaF0
aF0
aF0
aF0
aF0
aF0
aa(lp905
S'r_global_ik_anim'
p906
a(lp907
VtranslateX
p908
aVtranslateY
p909
aVtranslateZ
p910
aVrotateX
p911
aVrotateY
p912
aVrotateZ
p913
aaF0
aF0
aF0
aF0
aF0
aF0
aa(lp914
S'Rig_Settings'
p915
a(lp916
Vspine_ik
p917
aVspine_fk
p918
aVlLegMode
p919
aVlThighTwistAmount
p920
aVlCalfTwistAmount
p921
aVrLegMode
p922
aVrThighTwistAmount
p923
aVrCalfTwistAmount
p924
aVlFkArmOrient
p925
aVrFkArmOrient
p926
aVlArmMode
p927
aVlUpperarmTwistAmount
p928
aVlForearmTwistAmount
p929
aVrArmMode
p930
aVrUpperarmTwistAmount
p931
aVrForearmTwistAmount
p932
aaF1
aF0
aI1
aF0.90000000000000002
aF0.5
aI1
aF0.90000000000000002
aF0.5
aI0
aI0
aI0
aF0.90000000000000002
aF0.5
aI0
aF0.90000000000000002
aF0.5
aa.