(lp1
(lp2
S'head_fk_anim'
p3
a(lp4
VtranslateX
p5
aVtranslateY
p6
aVtranslateZ
p7
aVrotateX
p8
aVrotateY
p9
aVrotateZ
p10
aVscaleX
p11
aVscaleY
p12
aVscaleZ
p13
aVfkOrientation
p14
aaF0
aF0
aF-1.7763568394002252e-15
aF22.338256524999657
aF-0.41532990416856158
aF-5.0661222980684455
aF1
aF1
aF1
aI2
aa(lp15
S'neck_01_fk_anim'
p16
a(lp17
VtranslateX
p18
aVtranslateY
p19
aVtranslateZ
p20
aVrotateX
p21
aVrotateY
p22
aVrotateZ
p23
aVscaleX
p24
aVscaleY
p25
aVscaleZ
p26
aVfkOrientation
p27
aaF0
aF0
aF0
aF29.793910816789126
aF3.7082409176756888
aF-0.36628161708589307
aF1
aF1
aF1
aI0
aa(lp28
S'spine_01_anim'
p29
a(lp30
Vlength
p31
aVtranslateY
p32
aVtranslateZ
p33
aVrotateX
p34
aVrotateY
p35
aVrotateZ
p36
aaF0
aF0
aF0
aF-5.8151353148993197
aF-1.3545205091759092
aF2.4546055264875513
aa(lp37
S'spine_02_anim'
p38
a(lp39
Vlength
p40
aVtranslateY
p41
aVtranslateZ
p42
aVrotateX
p43
aVrotateY
p44
aVrotateZ
p45
aaF0
aF0
aF0
aF-11.362094483597639
aF1.2401944371333904
aF-9.2855662509676886
aa(lp46
S'spine_03_anim'
p47
a(lp48
Vlength
p49
aVtranslateY
p50
aVtranslateZ
p51
aVrotateX
p52
aVrotateY
p53
aVrotateZ
p54
aaF0
aF0
aF0
aF-11.407990387030509
aF0.73484040669465611
aF5.1786762231778862
aa(lp55
S'mid_ik_anim'
p56
a(lp57
VtranslateX
p58
aVtranslateY
p59
aVtranslateZ
p60
aVrotateX
p61
aVrotateY
p62
aVrotateZ
p63
aaF-1.7010656748509518
aF-3.1427445315762066
aF-0.13343360549184613
aF-11.885609877648601
aF2.7481931603199135
aF-26.091975249858056
aa(lp64
S'chest_ik_anim'
p65
a(lp66
VtranslateX
p67
aVtranslateY
p68
aVtranslateZ
p69
aVrotateX
p70
aVrotateY
p71
aVrotateZ
p72
aVstretch
p73
aVsquash
p74
aVtwist_amount
p75
aVspine_01_twistAmount
p76
aVspine_02_twistAmount
p77
aVautoSpine
p78
aVrotationInfluence
p79
aaF-1.3844807695041226
aF-9.7581408313281983
aF0.45612444133916219
aF-18.054636361769735
aF3.5066492300754089
aF-39.685950640594328
aF0
aF0
aF1
aF0.33333333333333331
aF0.66666666666666663
aF0
aF0.25
aa(lp80
S'body_anim'
p81
a(lp82
VtranslateX
p83
aVtranslateY
p84
aVtranslateZ
p85
aVrotateX
p86
aVrotateY
p87
aVrotateZ
p88
aaF-1.3710203140816626
aF4.0584175607831483
aF-3.1155026020375778
aF-25.356309872508003
aF0.2099571920320798
aF-0.1405087984193244
aa(lp89
S'hip_anim'
p90
a(lp91
VtranslateX
p92
aVtranslateY
p93
aVtranslateZ
p94
aVrotateX
p95
aVrotateY
p96
aVrotateZ
p97
aVlTwistCtrlVis
p98
aVlCalfTwistCtrlVis
p99
aVrTwistCtrlVis
p100
aVrCalfTwistCtrlVis
p101
aVautoHips
p102
aaF0
aF2.2204460492503131e-16
aF0
aF0
aF-2.5444437451708134e-14
aF4.9696166897867437e-17
aI00
aI00
aI00
aI00
aF0
aa(lp103
S'clavicle_l_anim'
p104
a(lp105
VtranslateX
p106
aVtranslateY
p107
aVtranslateZ
p108
aVautoShoulders
p109
aVtwistCtrlVis
p110
aVtwistCtrlVisLower
p111
aaF-2.0571124488261505
aF2.314429629318369
aF-0.31320899062853647
aF0
aI00
aI00
aa(lp112
S'clavicle_r_anim'
p113
a(lp114
VtranslateX
p115
aVtranslateY
p116
aVtranslateZ
p117
aVautoShoulders
p118
aVtwistCtrlVis
p119
aVtwistCtrlVisLower
p120
aaF0.94989126483870834
aF-0.31200088594970676
aF-0.34230677356470096
aF0
aI00
aI00
aa(lp121
S'fk_arm_l_anim'
p122
a(lp123
VtranslateX
p124
aVtranslateY
p125
aVtranslateZ
p126
aVrotateX
p127
aVrotateY
p128
aVrotateZ
p129
aaF0
aF0
aF0
aF-96.375689118680171
aF40.546501785738862
aF-25.105321964962819
aa(lp130
S'fk_arm_r_anim'
p131
a(lp132
VtranslateX
p133
aVtranslateY
p134
aVtranslateZ
p135
aVrotateX
p136
aVrotateY
p137
aVrotateZ
p138
aaF0
aF0
aF0
aF-123.07320111859758
aF36.999460209888205
aF-41.978936311014252
aa(lp139
S'fk_elbow_l_anim'
p140
a(lp141
VtranslateX
p142
aVtranslateY
p143
aVtranslateZ
p144
aVrotateX
p145
aVrotateY
p146
aVrotateZ
p147
aaF0
aF0
aF0
aF-0.71196825495416238
aF0.21610890636830751
aF-57.038276566319951
aa(lp148
S'fk_elbow_r_anim'
p149
a(lp150
VtranslateX
p151
aVtranslateY
p152
aVtranslateZ
p153
aVrotateX
p154
aVrotateY
p155
aVrotateZ
p156
aaF0
aF0
aF0
aF-2.0229398481305565
aF0.31481431214274447
aF-39.674915026632391
aa(lp157
S'fk_wrist_l_anim'
p158
a(lp159
VtranslateX
p160
aVtranslateY
p161
aVtranslateZ
p162
aVrotateX
p163
aVrotateY
p164
aVrotateZ
p165
aaF0
aF0
aF0
aF-60.603112575800097
aF3.061024862667622
aF-7.1310318360454596
aa(lp166
S'fk_wrist_r_anim'
p167
a(lp168
VtranslateX
p169
aVtranslateY
p170
aVtranslateZ
p171
aVrotateX
p172
aVrotateY
p173
aVrotateZ
p174
aaF0
aF0
aF0
aF-40.781833073675045
aF-4.0347652741947009
aF8.3803070875023327
aa(lp175
S'ik_elbow_l_anim'
p176
a(lp177
VtranslateX
p178
aVtranslateY
p179
aVtranslateZ
p180
aaF-14.18194376038511
aF-28.460666131375696
aF-29.125040415416649
aa(lp181
S'ik_elbow_r_anim'
p182
a(lp183
VtranslateX
p184
aVtranslateY
p185
aVtranslateZ
p186
aaF29.695735189039507
aF9.5337065667179921
aF-32.007120974429142
aa(lp187
S'ik_wrist_l_anim'
p188
a(lp189
VtranslateX
p190
aVtranslateY
p191
aVtranslateZ
p192
aVrotateX
p193
aVrotateY
p194
aVrotateZ
p195
aVstretch
p196
aVsquash
p197
aVside
p198
aVmid_bend
p199
aVmid_swivel
p200
aVtip_pivot
p201
aVtip_swivel
p202
aaF-44.437863868247923
aF-34.209714956973947
aF-49.766424438937165
aF-2.0806966771148021
aF53.721087146675217
aF-98.602518444063236
aF0
aF0
aF0
aF0
aF0
aF0
aF0
aa(lp203
S'ik_wrist_r_anim'
p204
a(lp205
VtranslateX
p206
aVtranslateY
p207
aVtranslateZ
p208
aVrotateX
p209
aVrotateY
p210
aVrotateZ
p211
aVstretch
p212
aVsquash
p213
aVside
p214
aVmid_bend
p215
aVmid_swivel
p216
aVtip_pivot
p217
aVtip_swivel
p218
aaF40.346094591385857
aF22.684728780620752
aF-54.261541441299812
aF-35.153279661350162
aF-61.956922361213095
aF7.3918133892220386
aF0
aF0
aF0
aF0
aF0
aF0
aF0
aa(lp219
S'fk_thigh_l_anim'
p220
a(lp221
VrotateX
p222
aVrotateY
p223
aVrotateZ
p224
aaF3.3490296731780353
aF-0.0073946727328676317
aF22.51792792012591
aa(lp225
S'fk_thigh_r_anim'
p226
a(lp227
VrotateX
p228
aVrotateY
p229
aVrotateZ
p230
aaF18.948623351383894
aF-10.16255636482096
aF5.2272924793754223
aa(lp231
S'fk_calf_l_anim'
p232
a(lp233
VrotateX
p234
aVrotateY
p235
aVrotateZ
p236
aaF0.20540101826192111
aF-3.8746004104614129
aF-31.778247833251921
aa(lp237
S'fk_calf_r_anim'
p238
a(lp239
VrotateX
p240
aVrotateY
p241
aVrotateZ
p242
aaF-0.043491929769389918
aF-3.9705226421356121
aF-32.64644241333005
aa(lp243
S'fk_foot_l_anim'
p244
a(lp245
VrotateX
p246
aVrotateY
p247
aVrotateZ
p248
aaF2.7372589111328005
aF1.9524081945419216
aF1.5723600387572945
aa(lp249
S'fk_foot_r_anim'
p250
a(lp251
VrotateX
p252
aVrotateY
p253
aVrotateZ
p254
aaF7.0999522209168182
aF6.5170426368712526
aF16.139909744262596
aa(lp255
S'fk_ball_l_anim'
p256
a(lp257
VrotateX
p258
aVrotateY
p259
aVrotateZ
p260
aaF-2.3910979507485724e-06
aF-0.0097913211211514035
aF6.0616257529607371e-05
aa(lp261
S'fk_ball_r_anim'
p262
a(lp263
VrotateX
p264
aVrotateY
p265
aVrotateZ
p266
aaF-3.2399409974458115e-05
aF-0.0098289661109898264
aF0.00022753879600871321
aa(lp267
S'ik_foot_anim_l'
p268
a(lp269
VtranslateX
p270
aVtranslateY
p271
aVtranslateZ
p272
aVrotateX
p273
aVrotateY
p274
aVrotateZ
p275
aVknee_twist
p276
aVstretch
p277
aVsquash
p278
aVtoeCtrlVis
p279
aaF0.065494488821033009
aF-24.044703304424786
aF0.0070195770295947077
aF-0.00012903416063267631
aF-0.0073349755373701767
aF-7.2686243461833957
aF-12.800000000000001
aF0
aF0
aI00
aa(lp280
S'ik_foot_anim_r'
p281
a(lp282
VtranslateX
p283
aVtranslateY
p284
aVtranslateZ
p285
aVrotateX
p286
aVrotateY
p287
aVrotateZ
p288
aVknee_twist
p289
aVstretch
p290
aVsquash
p291
aVtoeCtrlVis
p292
aaF4.9752850981601586
aF16.138203776997742
aF0.0050279768332063329
aF180.0073371948676
aF180.0047422279583
aF102.67665350447768
aF61.200000000000003
aF0
aF0
aI00
aa(lp293
S'heel_ctrl_l'
p294
a(lp295
VrotateX
p296
aVrotateY
p297
aVrotateZ
p298
aVheelPivot
p299
aVballPivot
p300
aaF0
aF0
aF0
aF0
aF0
aa(lp301
S'heel_ctrl_r'
p302
a(lp303
VrotateX
p304
aVrotateY
p305
aVrotateZ
p306
aVheelPivot
p307
aVballPivot
p308
aaF0
aF1.2380557578431226e-14
aF0
aF0
aF0
aa(lp309
S'toe_wiggle_ctrl_l'
p310
a(lp311
VrotateX
p312
aVrotateY
p313
aVrotateZ
p314
aaF0
aF1.2723771731069628e-14
aF-6.3611093629270304e-15
aa(lp315
S'toe_wiggle_ctrl_r'
p316
a(lp317
VrotateX
p318
aVrotateY
p319
aVrotateZ
p320
aaF0
aF0
aF0
aa(lp321
S'toe_tip_ctrl_l'
p322
a(lp323
VrotateX
p324
aVrotateY
p325
aVrotateZ
p326
aaF0
aF-6.3657683785737075e-15
aF-3.1805546814635183e-15
aa(lp327
S'toe_tip_ctrl_r'
p328
a(lp329
VrotateX
p330
aVrotateY
p331
aVrotateZ
p332
aaF0
aF0
aF0
aa(lp333
S'master_anim'
p334
a(lp335
VtranslateX
p336
aVtranslateY
p337
aVtranslateZ
p338
aVrotateX
p339
aVrotateY
p340
aVrotateZ
p341
aaF0
aF0
aF0
aF0
aF0
aF0
aa(lp342
S'offset_anim'
p343
a(lp344
VtranslateX
p345
aVtranslateY
p346
aVtranslateZ
p347
aVrotateX
p348
aVrotateY
p349
aVrotateZ
p350
aaF0
aF0
aF0
aF0
aF0
aF0
aa(lp351
S'root_anim'
p352
a(lp353
VtranslateX
p354
aVtranslateY
p355
aVtranslateZ
p356
aVrotateX
p357
aVrotateY
p358
aVrotateZ
p359
aaF0
aF0
aF0
aF0
aF0
aF0
aa(lp360
S'upperarm_l_twist_anim'
p361
a(lp362
VtranslateX
p363
aVtranslateY
p364
aVtranslateZ
p365
aVrotateX
p366
aVrotateY
p367
aVrotateZ
p368
aaF0
aF0
aF0
aF0
aF0
aF0
aa(lp369
S'upperarm_r_twist_anim'
p370
a(lp371
VtranslateX
p372
aVtranslateY
p373
aVtranslateZ
p374
aVrotateX
p375
aVrotateY
p376
aVrotateZ
p377
aaF0
aF0
aF0
aF0
aF0
aF0
aa(lp378
S'thigh_l_twist_anim'
p379
a(lp380
VtranslateX
p381
aVtranslateY
p382
aVtranslateZ
p383
aVrotateX
p384
aVrotateY
p385
aVrotateZ
p386
aaF0
aF0
aF0
aF0
aF0
aF0
aa(lp387
S'thigh_r_twist_anim'
p388
a(lp389
VtranslateX
p390
aVtranslateY
p391
aVtranslateZ
p392
aVrotateX
p393
aVrotateY
p394
aVrotateZ
p395
aaF0
aF0
aF0
aF0
aF0
aF0
aa(lp396
S'pinky_finger_fk_ctrl_1_l'
p397
a(lp398
VtranslateX
p399
aVtranslateY
p400
aVtranslateZ
p401
aVrotateX
p402
aVrotateY
p403
aVrotateZ
p404
aVsticky
p405
aaF0
aF0
aF0
aF7.9764592239663665
aF-1.7833966987812586
aF7.5826242098530257
aF0
aa(lp406
S'pinky_finger_fk_ctrl_1_r'
p407
a(lp408
VtranslateX
p409
aVtranslateY
p410
aVtranslateZ
p411
aVrotateX
p412
aVrotateY
p413
aVrotateZ
p414
aVsticky
p415
aaF0
aF0
aF0
aF5.317017603804592
aF-3.8638596501989819
aF33.140468580283944
aF0
aa(lp416
S'pinky_finger_fk_ctrl_2_l'
p417
a(lp418
VtranslateX
p419
aVtranslateY
p420
aVtranslateZ
p421
aVrotateX
p422
aVrotateY
p423
aVrotateZ
p424
aaF0
aF0
aF0
aF0.025443326367213453
aF0.02843503975891017
aF23.780839920043942
aa(lp425
S'pinky_finger_fk_ctrl_2_r'
p426
a(lp427
VtranslateX
p428
aVtranslateY
p429
aVtranslateZ
p430
aVrotateX
p431
aVrotateY
p432
aVrotateZ
p433
aaF0
aF0
aF0
aF0.012181424644108178
aF0.021121203379579335
aF20.228782653808594
aa(lp434
S'pinky_finger_fk_ctrl_3_l'
p435
a(lp436
VtranslateX
p437
aVtranslateY
p438
aVtranslateZ
p439
aVrotateX
p440
aVrotateY
p441
aVrotateZ
p442
aaF0
aF0
aF0
aF1.0395047230086378
aF-0.74949006611493019
aF38.798934936523423
aa(lp443
S'pinky_finger_fk_ctrl_3_r'
p444
a(lp445
VtranslateX
p446
aVtranslateY
p447
aVtranslateZ
p448
aVrotateX
p449
aVrotateY
p450
aVrotateZ
p451
aaF0
aF0
aF0
aF0.048872253575991467
aF0.032254090489346687
aF35.131614685058587
aa(lp452
S'ring_finger_fk_ctrl_1_l'
p453
a(lp454
VtranslateX
p455
aVtranslateY
p456
aVtranslateZ
p457
aVrotateX
p458
aVrotateY
p459
aVrotateZ
p460
aVsticky
p461
aaF0
aF0
aF0
aF0.65039936457037606
aF-1.2739596984321058
aF1.4437874781738651
aF0
aa(lp462
S'ring_finger_fk_ctrl_1_r'
p463
a(lp464
VtranslateX
p465
aVtranslateY
p466
aVtranslateZ
p467
aVrotateX
p468
aVrotateY
p469
aVrotateZ
p470
aVsticky
p471
aaF0
aF0
aF0
aF-6.4755740175905769
aF-2.1547233111268214
aF26.322456132962913
aF0
aa(lp472
S'ring_finger_fk_ctrl_2_l'
p473
a(lp474
VtranslateX
p475
aVtranslateY
p476
aVtranslateZ
p477
aVrotateX
p478
aVrotateY
p479
aVrotateZ
p480
aaF0
aF0
aF0
aF0.2139300200019115
aF8.1096797510462506e-05
aF38.294811248779297
aa(lp481
S'ring_finger_fk_ctrl_2_r'
p482
a(lp483
VtranslateX
p484
aVtranslateY
p485
aVtranslateZ
p486
aVrotateX
p487
aVrotateY
p488
aVrotateZ
p489
aaF0
aF0
aF0
aF3.0509214401245131
aF0.66239506006240834
aF34.099166870117195
aa(lp490
S'ring_finger_fk_ctrl_3_l'
p491
a(lp492
VtranslateX
p493
aVtranslateY
p494
aVtranslateZ
p495
aVrotateX
p496
aVrotateY
p497
aVrotateZ
p498
aaF0
aF0
aF0
aF0.23755628514336921
aF0.059345455592491783
aF40.163330078124964
aa(lp499
S'ring_finger_fk_ctrl_3_r'
p500
a(lp501
VtranslateX
p502
aVtranslateY
p503
aVtranslateZ
p504
aVrotateX
p505
aVrotateY
p506
aVrotateZ
p507
aaF0
aF0
aF0
aF0.0029924273776603966
aF0.010076624369444401
aF35.79467010498044
aa(lp508
S'middle_finger_fk_ctrl_1_l'
p509
a(lp510
VtranslateX
p511
aVtranslateY
p512
aVtranslateZ
p513
aVrotateX
p514
aVrotateY
p515
aVrotateZ
p516
aVsticky
p517
aaF0
aF0
aF0
aF1.0889325120954225
aF-3.9938503769963583
aF4.787129338665677
aF0
aa(lp518
S'middle_finger_fk_ctrl_1_r'
p519
a(lp520
VtranslateX
p521
aVtranslateY
p522
aVtranslateZ
p523
aVrotateX
p524
aVrotateY
p525
aVrotateZ
p526
aVsticky
p527
aaF0
aF0
aF0
aF-4.7414227223451002
aF-2.8314355656197212
aF15.986266769308058
aF0
aa(lp528
S'middle_finger_fk_ctrl_2_l'
p529
a(lp530
VtranslateX
p531
aVtranslateY
p532
aVtranslateZ
p533
aVrotateX
p534
aVrotateY
p535
aVrotateZ
p536
aaF0
aF0
aF0
aF0.39742674087654462
aF0.20702184479813204
aF37.170753479003871
aa(lp537
S'middle_finger_fk_ctrl_2_r'
p538
a(lp539
VtranslateX
p540
aVtranslateY
p541
aVtranslateZ
p542
aVrotateX
p543
aVrotateY
p544
aVrotateZ
p545
aaF0
aF0
aF0
aF0.0026853588495482313
aF-0.048847494905157281
aF29.762338638305661
aa(lp546
S'middle_finger_fk_ctrl_3_l'
p547
a(lp548
VtranslateX
p549
aVtranslateY
p550
aVtranslateZ
p551
aVrotateX
p552
aVrotateY
p553
aVrotateZ
p554
aaF0
aF0
aF0
aF0.035498487538348784
aF0.058511865550054873
aF13.65168666839601
aa(lp555
S'middle_finger_fk_ctrl_3_r'
p556
a(lp557
VtranslateX
p558
aVtranslateY
p559
aVtranslateZ
p560
aVrotateX
p561
aVrotateY
p562
aVrotateZ
p563
aaF0
aF0
aF0
aF-0.0062778260425896066
aF0.00038245164895377539
aF12.64939594268796
aa(lp564
S'index_finger_fk_ctrl_1_l'
p565
a(lp566
VtranslateX
p567
aVtranslateY
p568
aVtranslateZ
p569
aVrotateX
p570
aVrotateY
p571
aVrotateZ
p572
aVsticky
p573
aaF0
aF0
aF0
aF7.5769578624042317
aF-1.4262848580350584
aF-3.8317734245188548
aF0
aa(lp574
S'index_finger_fk_ctrl_1_r'
p575
a(lp576
VtranslateX
p577
aVtranslateY
p578
aVtranslateZ
p579
aVrotateX
p580
aVrotateY
p581
aVrotateZ
p582
aVsticky
p583
aaF0
aF0
aF0
aF-3.8266500899807303
aF-2.7061499977904351
aF0.66817258394081325
aF0
aa(lp584
S'index_finger_fk_ctrl_2_l'
p585
a(lp586
VtranslateX
p587
aVtranslateY
p588
aVtranslateZ
p589
aVrotateX
p590
aVrotateY
p591
aVrotateZ
p592
aaF0
aF0
aF0
aF-0.15012957155705894
aF0.018471767896517773
aF35.151302337646506
aa(lp593
S'index_finger_fk_ctrl_2_r'
p594
a(lp595
VtranslateX
p596
aVtranslateY
p597
aVtranslateZ
p598
aVrotateX
p599
aVrotateY
p600
aVrotateZ
p601
aaF0
aF0
aF0
aF6.7091203036834441e-05
aF-0.016852141346985757
aF27.447328567504847
aa(lp602
S'index_finger_fk_ctrl_3_l'
p603
a(lp604
VtranslateX
p605
aVtranslateY
p606
aVtranslateZ
p607
aVrotateX
p608
aVrotateY
p609
aVrotateZ
p610
aaF0
aF0
aF0
aF-0.049540825188166202
aF0.051218629964070193
aF2.7392926216125497
aa(lp611
S'index_finger_fk_ctrl_3_r'
p612
a(lp613
VtranslateX
p614
aVtranslateY
p615
aVtranslateZ
p616
aVrotateX
p617
aVrotateY
p618
aVrotateZ
p619
aaF0
aF0
aF0
aF0.0052747619339899021
aF-0.013945900835209154
aF-0.78493326902388372
aa(lp620
S'thumb_finger_fk_ctrl_1_l'
p621
a(lp622
VtranslateX
p623
aVtranslateY
p624
aVtranslateZ
p625
aVrotateX
p626
aVrotateY
p627
aVrotateZ
p628
aVsticky
p629
aaF0
aF0
aF0
aF-9.1208857545734006
aF21.949148959018437
aF4.0538432907702884
aF0
aa(lp630
S'thumb_finger_fk_ctrl_1_r'
p631
a(lp632
VtranslateX
p633
aVtranslateY
p634
aVtranslateZ
p635
aVrotateX
p636
aVrotateY
p637
aVrotateZ
p638
aVsticky
p639
aaF0
aF0
aF0
aF-15.017140477178453
aF-1.0716087062426565
aF-1.0398782534673385
aF0
aa(lp640
S'thumb_finger_fk_ctrl_2_l'
p641
a(lp642
VtranslateX
p643
aVtranslateY
p644
aVtranslateZ
p645
aVrotateX
p646
aVrotateY
p647
aVrotateZ
p648
aaF0
aF0
aF0
aF-0.81412327289581299
aF-1.2278763055801394
aF13.135185241699229
aa(lp649
S'thumb_finger_fk_ctrl_2_r'
p650
a(lp651
VtranslateX
p652
aVtranslateY
p653
aVtranslateZ
p654
aVrotateX
p655
aVrotateY
p656
aVrotateZ
p657
aaF0
aF0
aF0
aF4.5262451582736656
aF6.5830408533990772
aF11.477842335642883
aa(lp658
S'thumb_finger_fk_ctrl_3_l'
p659
a(lp660
VtranslateX
p661
aVtranslateY
p662
aVtranslateZ
p663
aVrotateX
p664
aVrotateY
p665
aVrotateZ
p666
aaF0
aF0
aF0
aF-1.5655965805053602
aF-0.85957008600235696
aF16.400558471679698
aa(lp667
S'thumb_finger_fk_ctrl_3_r'
p668
a(lp669
VtranslateX
p670
aVtranslateY
p671
aVtranslateZ
p672
aVrotateX
p673
aVrotateY
p674
aVrotateZ
p675
aaF0
aF0
aF0
aF10.684566409575392
aF-8.4611779414112362
aF12.803915045300457
aa(lp676
S'index_l_ik_anim'
p677
a(lp678
VtranslateX
p679
aVtranslateY
p680
aVtranslateZ
p681
aVrotateX
p682
aVrotateY
p683
aVrotateZ
p684
aVpoleVectorVis
p685
aaF0
aF0
aF0
aF0
aF0
aF0
aF0
aa(lp686
S'index_r_ik_anim'
p687
a(lp688
VtranslateX
p689
aVtranslateY
p690
aVtranslateZ
p691
aVrotateX
p692
aVrotateY
p693
aVrotateZ
p694
aVpoleVectorVis
p695
aaF0
aF0
aF0
aF0
aF0
aF0
aF0
aa(lp696
S'middle_l_ik_anim'
p697
a(lp698
VtranslateX
p699
aVtranslateY
p700
aVtranslateZ
p701
aVrotateX
p702
aVrotateY
p703
aVrotateZ
p704
aVpoleVectorVis
p705
aaF0
aF0
aF0
aF0
aF0
aF0
aF0
aa(lp706
S'middle_r_ik_anim'
p707
a(lp708
VtranslateX
p709
aVtranslateY
p710
aVtranslateZ
p711
aVrotateX
p712
aVrotateY
p713
aVrotateZ
p714
aVpoleVectorVis
p715
aaF0
aF0
aF0
aF0
aF0
aF0
aF0
aa(lp716
S'ring_l_ik_anim'
p717
a(lp718
VtranslateX
p719
aVtranslateY
p720
aVtranslateZ
p721
aVrotateX
p722
aVrotateY
p723
aVrotateZ
p724
aVpoleVectorVis
p725
aaF0
aF0
aF0
aF0
aF0
aF0
aF0
aa(lp726
S'ring_r_ik_anim'
p727
a(lp728
VtranslateX
p729
aVtranslateY
p730
aVtranslateZ
p731
aVrotateX
p732
aVrotateY
p733
aVrotateZ
p734
aVpoleVectorVis
p735
aaF0
aF0
aF0
aF0
aF0
aF0
aF0
aa(lp736
S'pinky_l_ik_anim'
p737
a(lp738
VtranslateX
p739
aVtranslateY
p740
aVtranslateZ
p741
aVrotateX
p742
aVrotateY
p743
aVrotateZ
p744
aVpoleVectorVis
p745
aaF0
aF0
aF0
aF0
aF0
aF0
aF0
aa(lp746
S'pinky_r_ik_anim'
p747
a(lp748
VtranslateX
p749
aVtranslateY
p750
aVtranslateZ
p751
aVrotateX
p752
aVrotateY
p753
aVrotateZ
p754
aVpoleVectorVis
p755
aaF0
aF0
aF0
aF0
aF0
aF0
aF0
aa(lp756
S'thumb_l_ik_anim'
p757
a(lp758
VtranslateX
p759
aVtranslateY
p760
aVtranslateZ
p761
aVrotateX
p762
aVrotateY
p763
aVrotateZ
p764
aVpoleVectorVis
p765
aaF0
aF0
aF0
aF0
aF0
aF0
aF0
aa(lp766
S'thumb_r_ik_anim'
p767
a(lp768
VtranslateX
p769
aVtranslateY
p770
aVtranslateZ
p771
aVrotateX
p772
aVrotateY
p773
aVrotateZ
p774
aVpoleVectorVis
p775
aaF0
aF0
aF0
aF0
aF0
aF0
aF0
aa(lp776
S'index_l_poleVector'
p777
a(lp778
VtranslateX
p779
aVtranslateY
p780
aVtranslateZ
p781
aVrotateX
p782
aVrotateY
p783
aVrotateZ
p784
aaF0
aF0
aF0
aF0
aF0
aF0
aa(lp785
S'index_r_poleVector'
p786
a(lp787
VtranslateX
p788
aVtranslateY
p789
aVtranslateZ
p790
aVrotateX
p791
aVrotateY
p792
aVrotateZ
p793
aaF0
aF0
aF0
aF0
aF0
aF0
aa(lp794
S'middle_l_poleVector'
p795
a(lp796
VtranslateX
p797
aVtranslateY
p798
aVtranslateZ
p799
aVrotateX
p800
aVrotateY
p801
aVrotateZ
p802
aaF0
aF0
aF0
aF0
aF0
aF0
aa(lp803
S'middle_r_poleVector'
p804
a(lp805
VtranslateX
p806
aVtranslateY
p807
aVtranslateZ
p808
aVrotateX
p809
aVrotateY
p810
aVrotateZ
p811
aaF0
aF0
aF0
aF0
aF0
aF0
aa(lp812
S'ring_l_poleVector'
p813
a(lp814
VtranslateX
p815
aVtranslateY
p816
aVtranslateZ
p817
aVrotateX
p818
aVrotateY
p819
aVrotateZ
p820
aaF0
aF0
aF0
aF0
aF0
aF0
aa(lp821
S'ring_r_poleVector'
p822
a(lp823
VtranslateX
p824
aVtranslateY
p825
aVtranslateZ
p826
aVrotateX
p827
aVrotateY
p828
aVrotateZ
p829
aaF0
aF0
aF0
aF0
aF0
aF0
aa(lp830
S'pinky_l_poleVector'
p831
a(lp832
VtranslateX
p833
aVtranslateY
p834
aVtranslateZ
p835
aVrotateX
p836
aVrotateY
p837
aVrotateZ
p838
aaF0
aF0
aF0
aF0
aF0
aF0
aa(lp839
S'pinky_r_poleVector'
p840
a(lp841
VtranslateX
p842
aVtranslateY
p843
aVtranslateZ
p844
aVrotateX
p845
aVrotateY
p846
aVrotateZ
p847
aaF0
aF0
aF0
aF0
aF0
aF0
aa(lp848
S'thumb_l_poleVector'
p849
a(lp850
VtranslateX
p851
aVtranslateY
p852
aVtranslateZ
p853
aVrotateX
p854
aVrotateY
p855
aVrotateZ
p856
aaF0
aF0
aF0
aF0
aF0
aF0
aa(lp857
S'thumb_r_poleVector'
p858
a(lp859
VtranslateX
p860
aVtranslateY
p861
aVtranslateZ
p862
aVrotateX
p863
aVrotateY
p864
aVrotateZ
p865
aaF0
aF0
aF0
aF0
aF0
aF0
aa(lp866
S'l_global_ik_anim'
p867
a(lp868
VtranslateX
p869
aVtranslateY
p870
aVtranslateZ
p871
aVrotateX
p872
aVrotateY
p873
aVrotateZ
p874
aaF0
aF0
aF0
aF0
aF0
aF0
aa(lp875
S'r_global_ik_anim'
p876
a(lp877
VtranslateX
p878
aVtranslateY
p879
aVtranslateZ
p880
aVrotateX
p881
aVrotateY
p882
aVrotateZ
p883
aaF0
aF0
aF0
aF0
aF0
aF0
aa(lp884
S'Rig_Settings'
p885
a(lp886
Vspine_ik
p887
aVspine_fk
p888
aVlLegMode
p889
aVlThighTwistAmount
p890
aVlCalfTwistAmount
p891
aVrLegMode
p892
aVrThighTwistAmount
p893
aVrCalfTwistAmount
p894
aVlFkArmOrient
p895
aVrFkArmOrient
p896
aVlArmMode
p897
aVlUpperarmTwistAmount
p898
aVlForearmTwistAmount
p899
aVrArmMode
p900
aVrUpperarmTwistAmount
p901
aVrForearmTwistAmount
p902
aaF0
aF1
aI1
aF0.90000000000000002
aF0.5
aI1
aF0.90000000000000002
aF0.5
aI1
aI1
aI0
aF0.90000000000000002
aF0.5
aI0
aF0.90000000000000002
aF0.5
aa(lp903
Vweapon_r_anim
p904
a(lp905
VtranslateX
p906
aVtranslateY
p907
aVtranslateZ
p908
aVrotateX
p909
aVrotateY
p910
aVrotateZ
p911
aVscaleX
p912
aVscaleY
p913
aVscaleZ
p914
aaF18.434902359594435
aF-58.034766536517012
aF-70.741616912132287
aF16.303348615000523
aF15.491410288770329
aF140.97473972414687
aF1
aF1
aF1
aa(lp915
Vweapon_l_anim
p916
a(lp917
VtranslateX
p918
aVtranslateY
p919
aVtranslateZ
p920
aVrotateX
p921
aVrotateY
p922
aVrotateZ
p923
aVscaleX
p924
aVscaleY
p925
aVscaleZ
p926
aaF-1.0739729162878575e-05
aF2.0290753823815066e-05
aF0.00015879974004207043
aF-1.2270311948380673e-05
aF-3.6716820909536534e-05
aF3.8710173092699137e-06
aF1.0000000000000002
aF1.0000000000000002
aF1.0000000000000002
aa(lp927
Vbody_anim_space_switcher
p928
a(lp929
Vvisibility
p930
aVtranslateX
p931
aVtranslateY
p932
aVtranslateZ
p933
aVrotateX
p934
aVrotateY
p935
aVrotateZ
p936
aVscaleX
p937
aVscaleY
p938
aVscaleZ
p939
aVspace_world
p940
aaI01
aF0
aF0
aF0
aF0
aF0
aF0
aF1
aF1
aF1
aF0
aa(lp941
Vchest_ik_anim_space_switcher
p942
a(lp943
Vvisibility
p944
aVtranslateX
p945
aVtranslateY
p946
aVtranslateZ
p947
aVrotateX
p948
aVrotateY
p949
aVrotateZ
p950
aVscaleX
p951
aVscaleY
p952
aVscaleZ
p953
aVspace_world
p954
aVspace_chest_ik_world_aligned
p955
aaI01
aF0
aF0
aF0
aF0
aF0
aF0
aF1
aF1
aF1
aF0
aF0
aa(lp956
Vik_elbow_l_anim_space_switcher
p957
a(lp958
Vvisibility
p959
aVtranslateX
p960
aVtranslateY
p961
aVtranslateZ
p962
aVrotateX
p963
aVrotateY
p964
aVrotateZ
p965
aVscaleX
p966
aVscaleY
p967
aVscaleZ
p968
aVspace_world
p969
aVspace_body_anim
p970
aVspace_chest_ik_anim
p971
aaI00
aF0
aF0
aF0
aF0
aF0
aF0
aF1
aF1
aF1
aF0
aF0
aF0
aa(lp972
Vik_elbow_r_anim_space_switcher
p973
a(lp974
Vvisibility
p975
aVtranslateX
p976
aVtranslateY
p977
aVtranslateZ
p978
aVrotateX
p979
aVrotateY
p980
aVrotateZ
p981
aVscaleX
p982
aVscaleY
p983
aVscaleZ
p984
aVspace_world
p985
aVspace_body_anim
p986
aVspace_chest_ik_anim
p987
aaI00
aF0
aF0
aF0
aF0
aF0
aF0
aF1
aF1
aF1
aF0
aF0
aF0
aa(lp988
Vik_foot_anim_l_space_switcher
p989
a(lp990
Vvisibility
p991
aVtranslateX
p992
aVtranslateY
p993
aVtranslateZ
p994
aVrotateX
p995
aVrotateY
p996
aVrotateZ
p997
aVscaleX
p998
aVscaleY
p999
aVscaleZ
p1000
aVspace_world
p1001
aVspace_body_anim
p1002
aaI01
aF0
aF0
aF0
aF0
aF0
aF0
aF1
aF1
aF1
aF0
aF0
aa(lp1003
Vik_foot_anim_r_space_switcher
p1004
a(lp1005
Vvisibility
p1006
aVtranslateX
p1007
aVtranslateY
p1008
aVtranslateZ
p1009
aVrotateX
p1010
aVrotateY
p1011
aVrotateZ
p1012
aVscaleX
p1013
aVscaleY
p1014
aVscaleZ
p1015
aVspace_world
p1016
aVspace_body_anim
p1017
aaI01
aF0
aF0
aF0
aF0
aF0
aF0
aF1
aF1
aF1
aF0
aF0
aa(lp1018
Vik_wrist_l_anim_space_switcher
p1019
a(lp1020
Vvisibility
p1021
aVtranslateX
p1022
aVtranslateY
p1023
aVtranslateZ
p1024
aVrotateX
p1025
aVrotateY
p1026
aVrotateZ
p1027
aVscaleX
p1028
aVscaleY
p1029
aVscaleZ
p1030
aVspace_world
p1031
aVspace_body_anim
p1032
aVspace_head_fk_anim
p1033
aVspace_chest_ik_anim
p1034
aaI00
aF0
aF0
aF0
aF0
aF0
aF0
aF1
aF1
aF1
aF0
aF0
aF0
aF0
aa(lp1035
Vik_wrist_r_anim_space_switcher
p1036
a(lp1037
Vvisibility
p1038
aVtranslateX
p1039
aVtranslateY
p1040
aVtranslateZ
p1041
aVrotateX
p1042
aVrotateY
p1043
aVrotateZ
p1044
aVscaleX
p1045
aVscaleY
p1046
aVscaleZ
p1047
aVspace_world
p1048
aVspace_body_anim
p1049
aVspace_head_fk_anim
p1050
aVspace_chest_ik_anim
p1051
aaI00
aF0
aF0
aF0
aF0
aF0
aF0
aF1
aF1
aF1
aF0
aF0
aF0
aF0
aa(lp1052
Vl_global_ik_anim_space_switcher
p1053
a(lp1054
Vvisibility
p1055
aVtranslateX
p1056
aVtranslateY
p1057
aVtranslateZ
p1058
aVrotateX
p1059
aVrotateY
p1060
aVrotateZ
p1061
aVscaleX
p1062
aVscaleY
p1063
aVscaleZ
p1064
aVspace_world
p1065
aaI01
aF0
aF0
aF0
aF0
aF0
aF0
aF1
aF1
aF1
aF0
aa(lp1066
Vmaster_anim_space_switcher
p1067
a(lp1068
Vvisibility
p1069
aVtranslateX
p1070
aVtranslateY
p1071
aVtranslateZ
p1072
aVrotateX
p1073
aVrotateY
p1074
aVrotateZ
p1075
aVscaleX
p1076
aVscaleY
p1077
aVscaleZ
p1078
aVspace_world
p1079
aaI01
aF0
aF0
aF0
aF0
aF0
aF0
aF1
aF1
aF1
aF0
aa(lp1080
Vr_global_ik_anim_space_switcher
p1081
a(lp1082
Vvisibility
p1083
aVtranslateX
p1084
aVtranslateY
p1085
aVtranslateZ
p1086
aVrotateX
p1087
aVrotateY
p1088
aVrotateZ
p1089
aVscaleX
p1090
aVscaleY
p1091
aVscaleZ
p1092
aVspace_world
p1093
aaI01
aF0
aF0
aF0
aF0
aF0
aF0
aF1
aF1
aF1
aF0
aa(lp1094
Vspine_01_space_switcher
p1095
a(lp1096
Vvisibility
p1097
aVtranslateX
p1098
aVtranslateY
p1099
aVtranslateZ
p1100
aVrotateX
p1101
aVrotateY
p1102
aVrotateZ
p1103
aVscaleX
p1104
aVscaleY
p1105
aVscaleZ
p1106
aVspace_world
p1107
aaI01
aF0
aF0
aF0
aF0
aF-5.649800061504203e-30
aF0
aF1
aF1
aF1
aF0
aa(lp1108
Vweapon_l_space_switcher
p1109
a(lp1110
Vvisibility
p1111
aVtranslateX
p1112
aVtranslateY
p1113
aVtranslateZ
p1114
aVrotateX
p1115
aVrotateY
p1116
aVrotateZ
p1117
aVscaleX
p1118
aVscaleY
p1119
aVscaleZ
p1120
aVspace_world
p1121
aaI01
aF-2.8421709430404007e-14
aF1.7763568394002505e-15
aF-1.4210854715202004e-14
aF3.2302508483613835e-16
aF7.9513867036587899e-16
aF0
aF1.0000000000000002
aF1.0000000000000002
aF1.0000000000000002
aF0
aa(lp1122
Vweapon_r_space_switcher
p1123
a(lp1124
Vvisibility
p1125
aVtranslateX
p1126
aVtranslateY
p1127
aVtranslateZ
p1128
aVrotateX
p1129
aVrotateY
p1130
aVrotateZ
p1131
aVscaleX
p1132
aVscaleY
p1133
aVscaleZ
p1134
aVspace_world
p1135
aaI01
aF2.8421709430404007e-14
aF0
aF0
aF-9.4422717105948149e-16
aF-7.9513867036587919e-16
aF0
aF1
aF1
aF0.99999999999999989
aF0
aa.