(lp1
(lp2
S'head_fk_anim'
p3
a(lp4
VtranslateX
p5
aVtranslateY
p6
aVtranslateZ
p7
aVrotateX
p8
aVrotateY
p9
aVrotateZ
p10
aVscaleX
p11
aVscaleY
p12
aVscaleZ
p13
aVfkOrientation
p14
aaF0
aF0
aF0
aF34.045461490371892
aF2.7711649821917921
aF-43.948358637692337
aF1
aF1
aF1
aI3
aa(lp15
S'neck_01_fk_anim'
p16
a(lp17
VtranslateX
p18
aVtranslateY
p19
aVtranslateZ
p20
aVrotateX
p21
aVrotateY
p22
aVrotateZ
p23
aVscaleX
p24
aVscaleY
p25
aVscaleZ
p26
aVfkOrientation
p27
aaF2.8421709430404007e-14
aF0
aF0
aF-6.7086940341370926
aF23.63447412654984
aF-10.544733340805086
aF1
aF1
aF1
aI2
aa(lp28
S'neck_02_fk_anim'
p29
a(lp30
VtranslateX
p31
aVtranslateY
p32
aVtranslateZ
p33
aVrotateX
p34
aVrotateY
p35
aVrotateZ
p36
aVscaleX
p37
aVscaleY
p38
aVscaleZ
p39
aaF0
aF0
aF0
aF28.868942985851206
aF-2.4473594907857121
aF-2.633
aF1
aF1
aF1
aa(lp40
S'spine_01_anim'
p41
a(lp42
Vlength
p43
aVtranslateY
p44
aVtranslateZ
p45
aVrotateX
p46
aVrotateY
p47
aVrotateZ
p48
aaF0
aF0
aF0
aF0
aF0
aF0
aa(lp49
S'spine_02_anim'
p50
a(lp51
Vlength
p52
aVtranslateY
p53
aVtranslateZ
p54
aVrotateX
p55
aVrotateY
p56
aVrotateZ
p57
aaF0
aF0
aF0
aF0
aF0
aF0
aa(lp58
S'spine_03_anim'
p59
a(lp60
Vlength
p61
aVtranslateY
p62
aVtranslateZ
p63
aVrotateX
p64
aVrotateY
p65
aVrotateZ
p66
aaF0
aF0
aF0
aF0
aF0
aF0
aa(lp67
S'spine_04_anim'
p68
a(lp69
Vlength
p70
aVtranslateY
p71
aVtranslateZ
p72
aVrotateX
p73
aVrotateY
p74
aVrotateZ
p75
aaF0
aF0
aF0
aF0
aF0
aF0
aa(lp76
S'spine_05_anim'
p77
a(lp78
Vlength
p79
aVtranslateY
p80
aVtranslateZ
p81
aVrotateX
p82
aVrotateY
p83
aVrotateZ
p84
aaF0
aF0
aF0
aF0
aF0
aF0
aa(lp85
S'mid_ik_anim'
p86
a(lp87
VtranslateX
p88
aVtranslateY
p89
aVtranslateZ
p90
aVrotateX
p91
aVrotateY
p92
aVrotateZ
p93
aaF-7.1604665798425309
aF9.7336384630761934
aF6.6057582894887128
aF0
aF0
aF0
aa(lp94
S'chest_ik_anim'
p95
a(lp96
VtranslateX
p97
aVtranslateY
p98
aVtranslateZ
p99
aVrotateX
p100
aVrotateY
p101
aVrotateZ
p102
aVstretch
p103
aVsquash
p104
aVtwist_amount
p105
aVspine_01_twistAmount
p106
aVspine_02_twistAmount
p107
aVspine_03_twistAmount
p108
aVspine_04_twistAmount
p109
aVautoSpine
p110
aVrotationInfluence
p111
aaF0
aF0
aF0
aF-8.2472188780587192
aF25.994678392115073
aF-21.708477305599647
aF1
aF1
aF1
aF0
aF0
aF0
aF0
aF0
aF0.25
aa(lp112
S'body_anim'
p113
a(lp114
VtranslateX
p115
aVtranslateY
p116
aVtranslateZ
p117
aVrotateX
p118
aVrotateY
p119
aVrotateZ
p120
aaF-35.26755313044125
aF6.0538710531268292
aF-1.3638799083224811
aF1.7781199276010693
aF5.5604657346515944
aF-30.298657366886594
aa(lp121
S'hip_anim'
p122
a(lp123
VtranslateX
p124
aVtranslateY
p125
aVtranslateZ
p126
aVrotateX
p127
aVrotateY
p128
aVrotateZ
p129
aVautoHips
p130
aaF0
aF-0.003064713612693505
aF-0.0085811967065534105
aF-22.925241710676282
aF-11.852799015199579
aF29.012196185645767
aF0
aa(lp131
S'clavicle_l_anim'
p132
a(lp133
VtranslateX
p134
aVtranslateY
p135
aVtranslateZ
p136
aVautoShoulders
p137
aVtwistCtrlVis
p138
aVtwistCtrlVisLower
p139
aaF-1.1549614806944966
aF-0.98232198727087905
aF4.0999074982241366
aF0
aI00
aI00
aa(lp140
S'clavicle_r_anim'
p141
a(lp142
VtranslateX
p143
aVtranslateY
p144
aVtranslateZ
p145
aVautoShoulders
p146
aVtwistCtrlVis
p147
aVtwistCtrlVisLower
p148
aaF0
aF2.3199834624516558
aF12.309295623887628
aF0
aI00
aI00
aa(lp149
S'fk_arm_l_anim'
p150
a(lp151
VtranslateX
p152
aVtranslateY
p153
aVtranslateZ
p154
aVrotateX
p155
aVrotateY
p156
aVrotateZ
p157
aaF0
aF0
aF0
aF24.81047453508209
aF42.546504713937821
aF30.426565289058257
aa(lp158
S'fk_arm_r_anim'
p159
a(lp160
VtranslateX
p161
aVtranslateY
p162
aVtranslateZ
p163
aVrotateX
p164
aVrotateY
p165
aVrotateZ
p166
aaF0
aF0
aF0
aF0
aF0
aF0
aa(lp167
S'fk_elbow_l_anim'
p168
a(lp169
VtranslateX
p170
aVtranslateY
p171
aVtranslateZ
p172
aVrotateX
p173
aVrotateY
p174
aVrotateZ
p175
aaF0
aF0
aF0
aF0
aF0
aF-85.973354638532967
aa(lp176
S'fk_elbow_r_anim'
p177
a(lp178
VtranslateX
p179
aVtranslateY
p180
aVtranslateZ
p181
aVrotateX
p182
aVrotateY
p183
aVrotateZ
p184
aaF0
aF0
aF0
aF0
aF0
aF0
aa(lp185
S'fk_wrist_l_anim'
p186
a(lp187
VtranslateX
p188
aVtranslateY
p189
aVtranslateZ
p190
aVrotateX
p191
aVrotateY
p192
aVrotateZ
p193
aaF0
aF0
aF0
aF2.580299939816304
aF-62.281799834710263
aF178.05520195053626
aa(lp194
S'fk_wrist_r_anim'
p195
a(lp196
VtranslateX
p197
aVtranslateY
p198
aVtranslateZ
p199
aVrotateX
p200
aVrotateY
p201
aVrotateZ
p202
aaF0
aF0
aF0
aF0
aF0
aF0
aa(lp203
S'ik_elbow_l_anim'
p204
a(lp205
VtranslateX
p206
aVtranslateY
p207
aVtranslateZ
p208
aaF-20.79437238287872
aF-11.712081514508514
aF-92.66695148451916
aa(lp209
S'ik_elbow_r_anim'
p210
a(lp211
VtranslateX
p212
aVtranslateY
p213
aVtranslateZ
p214
aaF25.964339788405674
aF23.23270341725528
aF-6.4148481723063071
aa(lp215
S'ik_wrist_l_anim'
p216
a(lp217
VtranslateX
p218
aVtranslateY
p219
aVtranslateZ
p220
aVrotateX
p221
aVrotateY
p222
aVrotateZ
p223
aVstretch
p224
aVsquash
p225
aVside
p226
aVmid_bend
p227
aVmid_swivel
p228
aVtip_pivot
p229
aVtip_swivel
p230
aaF-119.95164796454814
aF-59.755745459142304
aF-92.372758053056174
aF-123.64299114068119
aF417.58751086596629
aF37.645907505896147
aF0
aF0
aF0
aF0
aF0
aF0
aF0
aa(lp231
S'ik_wrist_r_anim'
p232
a(lp233
VtranslateX
p234
aVtranslateY
p235
aVtranslateZ
p236
aVrotateX
p237
aVrotateY
p238
aVrotateZ
p239
aVstretch
p240
aVsquash
p241
aVside
p242
aVmid_bend
p243
aVmid_swivel
p244
aVtip_pivot
p245
aVtip_swivel
p246
aaF81.029263571064291
aF43.495725218662393
aF-80.015825763642368
aF-45.081399776206794
aF-91.256677358665485
aF20.313805737863053
aF0
aF0
aF0
aF0
aF0
aF0
aF0
aa(lp247
S'fk_thigh_l_anim'
p248
a(lp249
VrotateX
p250
aVrotateY
p251
aVrotateZ
p252
aaF-8.7602599519429258
aF12.97492360088904
aF13.230894190694569
aa(lp253
S'fk_thigh_r_anim'
p254
a(lp255
VrotateX
p256
aVrotateY
p257
aVrotateZ
p258
aaF-26.579384053904612
aF4.8723929946727154
aF31.250416525901301
aa(lp259
S'fk_calf_l_anim'
p260
a(lp261
VrotateX
p262
aVrotateY
p263
aVrotateZ
p264
aaF-0.22220768923676973
aF-4.4126181339991781
aF-48.129712744877622
aa(lp265
S'fk_calf_r_anim'
p266
a(lp267
VrotateX
p268
aVrotateY
p269
aVrotateZ
p270
aaF-11.732931552514987
aF0.38801017507163188
aF-74.153600105620058
aa(lp271
S'fk_foot_l_anim'
p272
a(lp273
VrotateX
p274
aVrotateY
p275
aVrotateZ
p276
aaF0.37236169512885708
aF2.6423460587052174
aF-4.0347281835568038
aa(lp277
S'fk_foot_r_anim'
p278
a(lp279
VrotateX
p280
aVrotateY
p281
aVrotateZ
p282
aaF-0.086481825565503156
aF-1.8578339941485731
aF-3.1978552231286472
aa(lp283
S'ik_foot_anim_l'
p284
a(lp285
VtranslateX
p286
aVtranslateY
p287
aVtranslateZ
p288
aVrotateX
p289
aVrotateY
p290
aVrotateZ
p291
aVknee_twist
p292
aVstretch
p293
aVsquash
p294
aVtoeCtrlVis
p295
aaF20.126662450115298
aF-49.449087026602598
aF-0.033851747228922591
aF0
aF0
aF0
aF12.100000000000001
aF0
aF0
aI00
aa(lp296
S'ik_foot_anim_r'
p297
a(lp298
VtranslateX
p299
aVtranslateY
p300
aVtranslateZ
p301
aVrotateX
p302
aVrotateY
p303
aVrotateZ
p304
aVknee_twist
p305
aVstretch
p306
aVsquash
p307
aVtoeCtrlVis
p308
aaF-42.828385369339671
aF42.894667700456267
aF-17.404418296779568
aF0
aF0
aF0
aF-9.8000000000000007
aF0
aF0
aI00
aa(lp309
S'heel_ctrl_l'
p310
a(lp311
VrotateX
p312
aVrotateY
p313
aVrotateZ
p314
aVheelPivot
p315
aVballPivot
p316
aaF0
aF0
aF0
aF0
aF0
aa(lp317
S'heel_ctrl_r'
p318
a(lp319
VrotateX
p320
aVrotateY
p321
aVrotateZ
p322
aVheelPivot
p323
aVballPivot
p324
aaF0
aF0
aF0
aF0
aF0
aa(lp325
S'toe_wiggle_ctrl_l'
p326
a(lp327
VrotateX
p328
aVrotateY
p329
aVrotateZ
p330
aaF0
aF0
aF0
aa(lp331
S'toe_wiggle_ctrl_r'
p332
a(lp333
VrotateX
p334
aVrotateY
p335
aVrotateZ
p336
aaF0
aF0
aF0
aa(lp337
S'toe_tip_ctrl_l'
p338
a(lp339
VrotateX
p340
aVrotateY
p341
aVrotateZ
p342
aaF0
aF0
aF0
aa(lp343
S'toe_tip_ctrl_r'
p344
a(lp345
VrotateX
p346
aVrotateY
p347
aVrotateZ
p348
aaF0
aF0
aF0
aa(lp349
S'master_anim'
p350
a(lp351
VtranslateX
p352
aVtranslateY
p353
aVtranslateZ
p354
aVrotateX
p355
aVrotateY
p356
aVrotateZ
p357
aaF8.8817841970012523e-16
aF2.2204460492503131e-16
aF0
aF0
aF0
aF0
aa(lp358
S'offset_anim'
p359
a(lp360
VtranslateX
p361
aVtranslateY
p362
aVtranslateZ
p363
aVrotateX
p364
aVrotateY
p365
aVrotateZ
p366
aaF0
aF0
aF0
aF0
aF0
aF0
aa(lp367
S'root_anim'
p368
a(lp369
VtranslateX
p370
aVtranslateY
p371
aVtranslateZ
p372
aVrotateX
p373
aVrotateY
p374
aVrotateZ
p375
aaF0
aF0
aF0
aF0
aF0
aF0
aa(lp376
S'upperarm_l_twist_anim'
p377
a(lp378
VtranslateX
p379
aVtranslateY
p380
aVtranslateZ
p381
aVrotateX
p382
aVrotateY
p383
aVrotateZ
p384
aVscaleX
p385
aVscaleY
p386
aVscaleZ
p387
aaF0
aF0
aF0
aF0
aF0
aF0
aF1
aF0.99999999999999989
aF1
aa(lp388
S'upperarm_r_twist_anim'
p389
a(lp390
VtranslateX
p391
aVtranslateY
p392
aVtranslateZ
p393
aVrotateX
p394
aVrotateY
p395
aVrotateZ
p396
aVscaleX
p397
aVscaleY
p398
aVscaleZ
p399
aaF-0.15918308998358233
aF0.11604286961959638
aF-0.25036698224426462
aF12.959999701046385
aF0
aF0
aF1
aF1
aF1
aa(lp400
S'ring_metacarpal_ctrl_r'
p401
a(lp402
VrotateX
p403
aVrotateY
p404
aVrotateZ
p405
aaF0
aF0
aF15.533247837786947
aa(lp406
S'ring_finger_fk_ctrl_1_r'
p407
a(lp408
VtranslateX
p409
aVtranslateY
p410
aVtranslateZ
p411
aVrotateX
p412
aVrotateY
p413
aVrotateZ
p414
aVsticky
p415
aaF0
aF0
aF0
aF-16.064514482015618
aF12.207995183117207
aF21.20329911080368
aF0
aa(lp416
S'ring_finger_fk_ctrl_2_r'
p417
a(lp418
VtranslateX
p419
aVtranslateY
p420
aVtranslateZ
p421
aVrotateX
p422
aVrotateY
p423
aVrotateZ
p424
aaF0
aF0
aF0
aF0
aF0
aF73.193025937052766
aa(lp425
S'ring_finger_fk_ctrl_3_r'
p426
a(lp427
VtranslateX
p428
aVtranslateY
p429
aVtranslateZ
p430
aVrotateX
p431
aVrotateY
p432
aVrotateZ
p433
aaF0
aF0
aF0
aF0
aF0
aF44.640729859101327
aa(lp434
S'middle_metacarpal_ctrl_r'
p435
a(lp436
VrotateX
p437
aVrotateY
p438
aVrotateZ
p439
aaF-0.14270584700124456
aF2.2053518020560139
aF-2.2146444226186528
aa(lp440
S'middle_finger_fk_ctrl_1_l'
p441
a(lp442
VtranslateX
p443
aVtranslateY
p444
aVtranslateZ
p445
aVrotateX
p446
aVrotateY
p447
aVrotateZ
p448
aVsticky
p449
aaF0
aF0
aF0
aF-0.90747845023940288
aF-7.8098087441487651
aF57.98515464186309
aF0
aa(lp450
S'middle_finger_fk_ctrl_1_r'
p451
a(lp452
VtranslateX
p453
aVtranslateY
p454
aVtranslateZ
p455
aVrotateX
p456
aVrotateY
p457
aVrotateZ
p458
aVsticky
p459
aaF0
aF0
aF0
aF-17.906327502550749
aF8.7017527624108197
aF8.3633699033950908
aF0
aa(lp460
S'middle_finger_fk_ctrl_2_r'
p461
a(lp462
VtranslateX
p463
aVtranslateY
p464
aVtranslateZ
p465
aVrotateX
p466
aVrotateY
p467
aVrotateZ
p468
aaF0
aF0
aF0
aF0
aF0
aF22.908247503614579
aa(lp469
S'middle_finger_fk_ctrl_3_r'
p470
a(lp471
VtranslateX
p472
aVtranslateY
p473
aVtranslateZ
p474
aVrotateX
p475
aVrotateY
p476
aVrotateZ
p477
aaF0
aF0
aF0
aF0
aF0
aF42.163807491457909
aa(lp478
S'index_metacarpal_ctrl_r'
p479
a(lp480
VrotateX
p481
aVrotateY
p482
aVrotateZ
p483
aaF-0.21133400216501733
aF4.2056216537900974
aF-4.345692325569817
aa(lp484
S'index_finger_fk_ctrl_1_r'
p485
a(lp486
VtranslateX
p487
aVtranslateY
p488
aVtranslateZ
p489
aVrotateX
p490
aVrotateY
p491
aVrotateZ
p492
aVsticky
p493
aaF0
aF0
aF0
aF5.7160584387563462
aF2.1807889662948572
aF-4.2488216676876771
aF0
aa(lp494
S'index_finger_fk_ctrl_2_r'
p495
a(lp496
VtranslateX
p497
aVtranslateY
p498
aVtranslateZ
p499
aVrotateX
p500
aVrotateY
p501
aVrotateZ
p502
aaF0
aF0
aF0
aF0
aF0
aF3.3742253698933156
aa(lp503
S'index_finger_fk_ctrl_3_r'
p504
a(lp505
VtranslateX
p506
aVtranslateY
p507
aVtranslateZ
p508
aVrotateX
p509
aVrotateY
p510
aVrotateZ
p511
aaF0
aF0
aF0
aF0
aF0
aF27.408130521843834
aa(lp512
S'thumb_finger_fk_ctrl_1_r'
p513
a(lp514
VtranslateX
p515
aVtranslateY
p516
aVtranslateZ
p517
aVrotateX
p518
aVrotateY
p519
aVrotateZ
p520
aVsticky
p521
aaF0
aF0
aF0
aF-5.7303080426318944
aF56.082253081201856
aF-22.148890645006407
aF0
aa(lp522
S'thumb_finger_fk_ctrl_2_r'
p523
a(lp524
VtranslateX
p525
aVtranslateY
p526
aVtranslateZ
p527
aVrotateX
p528
aVrotateY
p529
aVrotateZ
p530
aaF0
aF0
aF0
aF1.162818924
aF-8.8647133779999994
aF21.318266739999999
aa(lp531
S'thumb_finger_fk_ctrl_3_r'
p532
a(lp533
VtranslateX
p534
aVtranslateY
p535
aVtranslateZ
p536
aVrotateX
p537
aVrotateY
p538
aVrotateZ
p539
aaF0
aF0
aF0
aF0
aF0
aF25.004237822857572
aa(lp540
S'index_r_ik_anim'
p541
a(lp542
VtranslateX
p543
aVtranslateY
p544
aVtranslateZ
p545
aVrotateX
p546
aVrotateY
p547
aVrotateZ
p548
aVpoleVectorVis
p549
aaF0
aF0
aF0
aF0
aF0
aF0
aF0
aa(lp550
S'middle_r_ik_anim'
p551
a(lp552
VtranslateX
p553
aVtranslateY
p554
aVtranslateZ
p555
aVrotateX
p556
aVrotateY
p557
aVrotateZ
p558
aVpoleVectorVis
p559
aaF0
aF0
aF0
aF0
aF0
aF0
aF0
aa(lp560
S'ring_r_ik_anim'
p561
a(lp562
VtranslateX
p563
aVtranslateY
p564
aVtranslateZ
p565
aVrotateX
p566
aVrotateY
p567
aVrotateZ
p568
aVpoleVectorVis
p569
aaF0
aF0
aF0
aF0
aF0
aF0
aF0
aa(lp570
S'thumb_r_ik_anim'
p571
a(lp572
VtranslateX
p573
aVtranslateY
p574
aVtranslateZ
p575
aVrotateX
p576
aVrotateY
p577
aVrotateZ
p578
aVpoleVectorVis
p579
aaF0
aF0
aF0
aF0
aF0
aF0
aF0
aa(lp580
S'index_r_poleVector'
p581
a(lp582
VtranslateX
p583
aVtranslateY
p584
aVtranslateZ
p585
aVrotateX
p586
aVrotateY
p587
aVrotateZ
p588
aaF0
aF0
aF0
aF0
aF0
aF0
aa(lp589
S'middle_r_poleVector'
p590
a(lp591
VtranslateX
p592
aVtranslateY
p593
aVtranslateZ
p594
aVrotateX
p595
aVrotateY
p596
aVrotateZ
p597
aaF0
aF0
aF0
aF0
aF0
aF0
aa(lp598
S'ring_r_poleVector'
p599
a(lp600
VtranslateX
p601
aVtranslateY
p602
aVtranslateZ
p603
aVrotateX
p604
aVrotateY
p605
aVrotateZ
p606
aaF0
aF0
aF0
aF0
aF0
aF0
aa(lp607
S'thumb_r_poleVector'
p608
a(lp609
VtranslateX
p610
aVtranslateY
p611
aVtranslateZ
p612
aVrotateX
p613
aVrotateY
p614
aVrotateZ
p615
aaF0
aF0
aF0
aF0
aF0
aF0
aa(lp616
S'r_global_ik_anim'
p617
a(lp618
VtranslateX
p619
aVtranslateY
p620
aVtranslateZ
p621
aVrotateX
p622
aVrotateY
p623
aVrotateZ
p624
aaF0
aF0
aF0
aF0
aF0
aF0
aa(lp625
S'Rig_Settings'
p626
a(lp627
Vspine_ik
p628
aVspine_fk
p629
aVlLegMode
p630
aVrLegMode
p631
aVlFkArmOrient
p632
aVrFkArmOrient
p633
aVlArmMode
p634
aVlUpperarmTwistAmount
p635
aVlUpperarmTwist2Amount
p636
aVlUpperarmTwist3Amount
p637
aVlForearmTwistAmount
p638
aVlForearmTwist2Amount
p639
aVlForearmTwist3Amount
p640
aVrArmMode
p641
aVrUpperarmTwistAmount
p642
aVrUpperarmTwist2Amount
p643
aVrUpperarmTwist3Amount
p644
aVrForearmTwistAmount
p645
aVrForearmTwist2Amount
p646
aVrForearmTwist3Amount
p647
aVhairA_fk
p648
aVhairA_ik
p649
aVhairA_dynamic
p650
aVhairB_fk
p651
aVhairB_ik
p652
aVhairB_dynamic
p653
aVhairC_fk
p654
aVhairC_ik
p655
aVhairC_dynamic
p656
aVleg_chain_l_fk
p657
aVleg_chain_l_ik
p658
aVleg_chain_l_dynamic
p659
aVleg_chain_r_fk
p660
aVleg_chain_r_ik
p661
aVleg_chain_r_dynamic
p662
aaF1
aF0
aI1
aI1
aI2
aI0
aI0
aF0
aF0
aF0
aF0
aF0
aF0
aI1
aF0
aF0
aF0
aF0.75
aF0.5
aF0.25
aF1
aF0
aF0
aF1
aF0
aF0
aF1
aF0
aF0
aF0
aF1
aF0
aF0
aF1
aF0
aa(lp663
VhairA_dyn_anim
p664
a(lp665
VtranslateX
p666
aVtranslateY
p667
aVtranslateZ
p668
aVrotateX
p669
aVrotateY
p670
aVrotateZ
p671
aVchainAttach
p672
aVchainStartEnvelope
p673
aVchainStartFrame
p674
aVchainStiffness
p675
aVchainDamping
p676
aVchainGravity
p677
aVchainIteration
p678
aVchainCollide
p679
aVchainWidthBase
p680
aVchainWidthExtremity
p681
aVchainCollideGround
p682
aVchainCollideGroundHeight
p683
aaF0
aF0
aF0
aF0
aF0
aF0
aI1
aF1
aF1
aF0.10000000000000001
aF0.20000000000000001
aF1
aI1
aI00
aF1
aF1
aI00
aF0
aa(lp684
VhairA_ik_2_anim
p685
a(lp686
VtranslateX
p687
aVtranslateY
p688
aVtranslateZ
p689
aVrotateX
p690
aVrotateY
p691
aVrotateZ
p692
aaF0
aF-2.8421709430404007e-14
aF2.8421709430404007e-14
aF0
aF2.3854160110976376e-15
aF1.5902773407317584e-15
aa(lp693
VhairA_ik_3_anim
p694
a(lp695
VtranslateX
p696
aVtranslateY
p697
aVtranslateZ
p698
aVrotateX
p699
aVrotateY
p700
aVrotateZ
p701
aVclusterControlVis
p702
aaF7.1054273576010019e-15
aF-2.8421709430404007e-14
aF2.8421709430404007e-14
aF0
aF2.3854160110976376e-15
aF1.5902773407317584e-15
aI00
aa(lp703
VhairA_ik_base_anim
p704
a(lp705
VtranslateX
p706
aVtranslateY
p707
aVtranslateZ
p708
aVrotateX
p709
aVrotateY
p710
aVrotateZ
p711
aVglobal_scale
p712
aaF-1.7763568394002505e-15
aF0
aF0
aF0
aF1.6803516432341432e-15
aF-5.3423379415207512e-16
aF1
aa(lp713
Vfk_hairA_01_anim
p714
a(lp715
VtranslateX
p716
aVtranslateY
p717
aVtranslateZ
p718
aVrotateX
p719
aVrotateY
p720
aVrotateZ
p721
aVglobal_scale
p722
aVlagMode
p723
aaF3.5527136788005009e-15
aF0
aF0
aF0
aF1.6803516432341432e-15
aF-5.3423379415207512e-16
aF0.99999999999999978
aF0
aa(lp724
VhairA_cv_0_anim
p725
a(lp726
VtranslateX
p727
aVtranslateY
p728
aVtranslateZ
p729
aaF0
aF0
aF0
aa(lp730
Vfk_hairA_02_anim
p731
a(lp732
VtranslateX
p733
aVtranslateY
p734
aVtranslateZ
p735
aVrotateX
p736
aVrotateY
p737
aVrotateZ
p738
aaF-1.0658141036401503e-14
aF2.8421709430404007e-14
aF0
aF-3.1805546814635168e-15
aF2.5966247204135741e-15
aF6.4605016967227689e-16
aa(lp739
VhairA_cv_1_anim
p740
a(lp741
VtranslateX
p742
aVtranslateY
p743
aVtranslateZ
p744
aaF0
aF0
aF0
aa(lp745
Vfk_hairA_03_anim
p746
a(lp747
VtranslateX
p748
aVtranslateY
p749
aVtranslateZ
p750
aVrotateX
p751
aVrotateY
p752
aVrotateZ
p753
aaF-7.1054273576010019e-15
aF2.8421709430404007e-14
aF0
aF3.1805546814635168e-15
aF2.3854160110976376e-15
aF-3.1805546814635168e-15
aa(lp754
VhairA_cv_2_anim
p755
a(lp756
VtranslateX
p757
aVtranslateY
p758
aVtranslateZ
p759
aaF0
aF0
aF0
aa(lp760
VhairB_dyn_anim
p761
a(lp762
VtranslateX
p763
aVtranslateY
p764
aVtranslateZ
p765
aVrotateX
p766
aVrotateY
p767
aVrotateZ
p768
aVchainAttach
p769
aVchainStartEnvelope
p770
aVchainStartFrame
p771
aVchainStiffness
p772
aVchainDamping
p773
aVchainGravity
p774
aVchainIteration
p775
aVchainCollide
p776
aVchainWidthBase
p777
aVchainWidthExtremity
p778
aVchainCollideGround
p779
aVchainCollideGroundHeight
p780
aaF0
aF0
aF0
aF0
aF0
aF0
aI1
aF1
aF1
aF0.10000000000000001
aF0.20000000000000001
aF1
aI1
aI00
aF1
aF1
aI00
aF0
aa(lp781
VhairB_ik_2_anim
p782
a(lp783
VtranslateX
p784
aVtranslateY
p785
aVtranslateZ
p786
aVrotateX
p787
aVrotateY
p788
aVrotateZ
p789
aaF3.5527136788005009e-15
aF7.1054273576010019e-15
aF0
aF0
aF-1.5902773407317584e-15
aF-3.5781240166464568e-15
aa(lp790
VhairB_ik_3_anim
p791
a(lp792
VtranslateX
p793
aVtranslateY
p794
aVtranslateZ
p795
aVrotateX
p796
aVrotateY
p797
aVrotateZ
p798
aVclusterControlVis
p799
aaF3.5527136788005009e-15
aF0
aF-2.8421709430404007e-14
aF0
aF-0
aF-3.975693351829396e-15
aI00
aa(lp800
VhairB_ik_base_anim
p801
a(lp802
VtranslateX
p803
aVtranslateY
p804
aVtranslateZ
p805
aVrotateX
p806
aVrotateY
p807
aVrotateZ
p808
aVglobal_scale
p809
aaF0
aF-5.6843418860808015e-14
aF0
aF0
aF4.1247818525229977e-15
aF-9.5665121278394817e-16
aF1.0000000000000002
aa(lp810
Vfk_hairB_01_anim
p811
a(lp812
VtranslateX
p813
aVtranslateY
p814
aVtranslateZ
p815
aVrotateX
p816
aVrotateY
p817
aVrotateZ
p818
aVglobal_scale
p819
aVlagMode
p820
aaF-3.5527136788005009e-15
aF-2.8421709430404007e-14
aF0
aF0
aF-2.2363275104040351e-15
aF6.4605016967227689e-16
aF1
aF0
aa(lp821
VhairB_cv_0_anim
p822
a(lp823
VtranslateX
p824
aVtranslateY
p825
aVtranslateZ
p826
aaF0
aF0
aF0
aa(lp827
Vfk_hairB_02_anim
p828
a(lp829
VtranslateX
p830
aVtranslateY
p831
aVtranslateZ
p832
aVrotateX
p833
aVrotateY
p834
aVrotateZ
p835
aaF0
aF8.8817841970012523e-16
aF5.6843418860808015e-14
aF0
aF-1.4908850069360235e-16
aF3.7008114286755665e-15
aa(lp836
VhairB_cv_1_anim
p837
a(lp838
VtranslateX
p839
aVtranslateY
p840
aVtranslateZ
p841
aaF0
aF0
aF0
aa(lp842
Vfk_hairB_03_anim
p843
a(lp844
VtranslateX
p845
aVtranslateY
p846
aVtranslateZ
p847
aVrotateX
p848
aVrotateY
p849
aVrotateZ
p850
aaF3.5527136788005009e-15
aF-7.1054273576010019e-15
aF0
aF0
aF-1.5902773407317576e-15
aF-7.951386703658788e-16
aa(lp851
VhairB_cv_2_anim
p852
a(lp853
VtranslateX
p854
aVtranslateY
p855
aVtranslateZ
p856
aaF0
aF0
aF0
aa(lp857
VhairC_dyn_anim
p858
a(lp859
VtranslateX
p860
aVtranslateY
p861
aVtranslateZ
p862
aVrotateX
p863
aVrotateY
p864
aVrotateZ
p865
aVchainAttach
p866
aVchainStartEnvelope
p867
aVchainStartFrame
p868
aVchainStiffness
p869
aVchainDamping
p870
aVchainGravity
p871
aVchainIteration
p872
aVchainCollide
p873
aVchainWidthBase
p874
aVchainWidthExtremity
p875
aVchainCollideGround
p876
aVchainCollideGroundHeight
p877
aaF0
aF0
aF0
aF0
aF0
aF0
aI1
aF1
aF1
aF0.10000000000000001
aF0.20000000000000001
aF1
aI1
aI00
aF1
aF1
aI00
aF0
aa(lp878
VhairC_ik_2_anim
p879
a(lp880
VtranslateX
p881
aVtranslateY
p882
aVtranslateZ
p883
aVrotateX
p884
aVrotateY
p885
aVrotateZ
p886
aaF-3.5527136788005009e-15
aF2.8421709430404007e-14
aF-2.8421709430404007e-14
aF-3.1805546814635168e-15
aF-7.9513867036587919e-16
aF2.3854160110976376e-15
aa(lp887
VhairC_ik_3_anim
p888
a(lp889
VtranslateX
p890
aVtranslateY
p891
aVtranslateZ
p892
aVrotateX
p893
aVrotateY
p894
aVrotateZ
p895
aVclusterControlVis
p896
aaF0
aF2.8421709430404007e-14
aF0
aF-3.1805546814635168e-15
aF-7.9513867036587919e-16
aF2.3854160110976376e-15
aI00
aa(lp897
VhairC_ik_base_anim
p898
a(lp899
VtranslateX
p900
aVtranslateY
p901
aVtranslateZ
p902
aVrotateX
p903
aVrotateY
p904
aVrotateZ
p905
aVglobal_scale
p906
aaF-1.0658141036401503e-14
aF-2.8421709430404007e-14
aF0
aF0
aF2.894801721800779e-15
aF-9.9392333795734899e-17
aF1
aa(lp907
Vfk_hairC_01_anim
p908
a(lp909
VtranslateX
p910
aVtranslateY
p911
aVtranslateZ
p912
aVrotateX
p913
aVrotateY
p914
aVrotateZ
p915
aVglobal_scale
p916
aVlagMode
p917
aaF0
aF0
aF0
aF3.1805546814635168e-15
aF1.4846729860737901e-15
aF1.4908850069360235e-16
aF0.99999999999999978
aF0
aa(lp918
VhairC_cv_0_anim
p919
a(lp920
VtranslateX
p921
aVtranslateY
p922
aVtranslateZ
p923
aaF0
aF0
aF0
aa(lp924
Vfk_hairC_02_anim
p925
a(lp926
VtranslateX
p927
aVtranslateY
p928
aVtranslateZ
p929
aVrotateX
p930
aVrotateY
p931
aVrotateZ
p932
aaF0
aF0
aF-2.8421709430404007e-14
aF0
aF3.7272125173400585e-16
aF3.3544912656060527e-16
aa(lp933
VhairC_cv_1_anim
p934
a(lp935
VtranslateX
p936
aVtranslateY
p937
aVtranslateZ
p938
aaF0
aF0
aF0
aa(lp939
Vfk_hairC_03_anim
p940
a(lp941
VtranslateX
p942
aVtranslateY
p943
aVtranslateZ
p944
aVrotateX
p945
aVrotateY
p946
aVrotateZ
p947
aaF-7.1054273576010019e-15
aF0
aF0
aF0
aF0
aF0
aa(lp948
VhairC_cv_2_anim
p949
a(lp950
VtranslateX
p951
aVtranslateY
p952
aVtranslateZ
p953
aaF0
aF0
aF0
aa(lp954
Vleg_chain_l_dyn_anim
p955
a(lp956
VtranslateX
p957
aVtranslateY
p958
aVtranslateZ
p959
aVrotateX
p960
aVrotateY
p961
aVrotateZ
p962
aVchainAttach
p963
aVchainStartEnvelope
p964
aVchainStartFrame
p965
aVchainStiffness
p966
aVchainDamping
p967
aVchainGravity
p968
aVchainIteration
p969
aVchainCollide
p970
aVchainWidthBase
p971
aVchainWidthExtremity
p972
aVchainCollideGround
p973
aVchainCollideGroundHeight
p974
aaF0
aF0
aF0
aF0
aF0
aF0
aI1
aF1
aF1
aF0.10000000000000001
aF0.20000000000000001
aF1
aI1
aI00
aF1
aF1
aI00
aF0
aa(lp975
Vleg_chain_l_ik_2_anim
p976
a(lp977
VtranslateX
p978
aVtranslateY
p979
aVtranslateZ
p980
aVrotateX
p981
aVrotateY
p982
aVrotateZ
p983
aaF-5.5388684737704859
aF-0.43557232338257879
aF0
aF0
aF0
aF-15.873385036699961
aa(lp984
Vleg_chain_l_ik_3_anim
p985
a(lp986
VtranslateX
p987
aVtranslateY
p988
aVtranslateZ
p989
aVrotateX
p990
aVrotateY
p991
aVrotateZ
p992
aaF0
aF0
aF0
aF0
aF0
aF0
aa(lp993
Vleg_chain_l_ik_4_anim
p994
a(lp995
VtranslateX
p996
aVtranslateY
p997
aVtranslateZ
p998
aVrotateX
p999
aVrotateY
p1000
aVrotateZ
p1001
aaF0
aF0
aF0
aF-0.66013917978667525
aF0
aF0
aa(lp1002
Vleg_chain_l_ik_5_anim
p1003
a(lp1004
VtranslateX
p1005
aVtranslateY
p1006
aVtranslateZ
p1007
aVrotateX
p1008
aVrotateY
p1009
aVrotateZ
p1010
aaF0
aF0
aF-3.5527136788005009e-15
aF2.4848083448933725e-17
aF-9.7062825972397362e-20
aF0
aa(lp1011
Vleg_chain_l_ik_6_anim
p1012
a(lp1013
VtranslateX
p1014
aVtranslateY
p1015
aVtranslateZ
p1016
aVrotateX
p1017
aVrotateY
p1018
aVrotateZ
p1019
aVclusterControlVis
p1020
aaF0
aF3.5527136788005009e-15
aF-3.5527136788005009e-15
aF3.975693351829395e-16
aF3.5097917871618887e-16
aF0
aI00
aa(lp1021
Vleg_chain_l_ik_base_anim
p1022
a(lp1023
VtranslateX
p1024
aVtranslateY
p1025
aVtranslateZ
p1026
aVrotateX
p1027
aVrotateY
p1028
aVrotateZ
p1029
aVglobal_scale
p1030
aaF0
aF0
aF0
aF0
aF0
aF0
aF0.99999999999999989
aa(lp1031
Vfk_leg_chain_l_01_anim
p1032
a(lp1033
VtranslateX
p1034
aVtranslateY
p1035
aVtranslateZ
p1036
aVrotateX
p1037
aVrotateY
p1038
aVrotateZ
p1039
aVglobal_scale
p1040
aVlagMode
p1041
aaF0
aF0
aF0
aF0
aF0
aF0
aF0.99999999999999989
aF0
aa(lp1042
Vleg_chain_l_cv_0_anim
p1043
a(lp1044
VtranslateX
p1045
aVtranslateY
p1046
aVtranslateZ
p1047
aaF0
aF0
aF0.18980444372881777
aa(lp1048
Vfk_leg_chain_l_02_anim
p1049
a(lp1050
VtranslateX
p1051
aVtranslateY
p1052
aVtranslateZ
p1053
aVrotateX
p1054
aVrotateY
p1055
aVrotateZ
p1056
aaF0
aF0
aF0
aF0
aF0
aF0
aa(lp1057
Vleg_chain_l_cv_1_anim
p1058
a(lp1059
VtranslateX
p1060
aVtranslateY
p1061
aVtranslateZ
p1062
aaF0
aF0
aF-1.2443210747069458
aa(lp1063
Vfk_leg_chain_l_03_anim
p1064
a(lp1065
VtranslateX
p1066
aVtranslateY
p1067
aVtranslateZ
p1068
aVrotateX
p1069
aVrotateY
p1070
aVrotateZ
p1071
aaF0
aF0
aF0
aF0
aF0
aF0
aa(lp1072
Vleg_chain_l_cv_2_anim
p1073
a(lp1074
VtranslateX
p1075
aVtranslateY
p1076
aVtranslateZ
p1077
aaF0
aF0
aF-0.36163791777555332
aa(lp1078
Vfk_leg_chain_l_04_anim
p1079
a(lp1080
VtranslateX
p1081
aVtranslateY
p1082
aVtranslateZ
p1083
aVrotateX
p1084
aVrotateY
p1085
aVrotateZ
p1086
aaF0
aF0
aF0
aF0
aF0
aF0
aa(lp1087
Vleg_chain_l_cv_3_anim
p1088
a(lp1089
VtranslateX
p1090
aVtranslateY
p1091
aVtranslateZ
p1092
aaF0
aF-2.1062711397634075
aF-3.0822668015074015
aa(lp1093
Vfk_leg_chain_l_05_anim
p1094
a(lp1095
VtranslateX
p1096
aVtranslateY
p1097
aVtranslateZ
p1098
aVrotateX
p1099
aVrotateY
p1100
aVrotateZ
p1101
aaF0
aF0
aF0
aF0
aF0
aF0
aa(lp1102
Vleg_chain_l_cv_4_anim
p1103
a(lp1104
VtranslateX
p1105
aVtranslateY
p1106
aVtranslateZ
p1107
aaF0
aF0
aF0
aa(lp1108
Vfk_leg_chain_l_06_anim
p1109
a(lp1110
VtranslateX
p1111
aVtranslateY
p1112
aVtranslateZ
p1113
aVrotateX
p1114
aVrotateY
p1115
aVrotateZ
p1116
aaF0
aF0
aF0
aF0
aF0
aF0
aa(lp1117
Vleg_chain_l_cv_5_anim
p1118
a(lp1119
VtranslateX
p1120
aVtranslateY
p1121
aVtranslateZ
p1122
aaF0
aF2.273102923872834
aF2.5295627867818382
aa(lp1123
Vfk_leg_chain_l_07_anim
p1124
a(lp1125
VtranslateX
p1126
aVtranslateY
p1127
aVtranslateZ
p1128
aVrotateX
p1129
aVrotateY
p1130
aVrotateZ
p1131
aaF0
aF0
aF0
aF0
aF0
aF0
aa(lp1132
Vleg_chain_l_cv_6_anim
p1133
a(lp1134
VtranslateX
p1135
aVtranslateY
p1136
aVtranslateZ
p1137
aaF0
aF0
aF0
aa(lp1138
Vfk_leg_chain_l_08_anim
p1139
a(lp1140
VtranslateX
p1141
aVtranslateY
p1142
aVtranslateZ
p1143
aVrotateX
p1144
aVrotateY
p1145
aVrotateZ
p1146
aaF0
aF0
aF0
aF0
aF0
aF0
aa(lp1147
Vleg_chain_l_cv_7_anim
p1148
a(lp1149
VtranslateX
p1150
aVtranslateY
p1151
aVtranslateZ
p1152
aaF0
aF0
aF0
aa(lp1153
Vfk_leg_chain_l_09_anim
p1154
a(lp1155
VtranslateX
p1156
aVtranslateY
p1157
aVtranslateZ
p1158
aVrotateX
p1159
aVrotateY
p1160
aVrotateZ
p1161
aaF-4.4408920985006262e-16
aF0
aF-3.5527136788005009e-15
aF-4.9696166897867449e-17
aF1.9412565194479468e-19
aF0
aa(lp1162
Vleg_chain_l_cv_8_anim
p1163
a(lp1164
VtranslateX
p1165
aVtranslateY
p1166
aVtranslateZ
p1167
aaF0
aF0
aF0
aa(lp1168
Vfk_leg_chain_l_010_anim
p1169
a(lp1170
VtranslateX
p1171
aVtranslateY
p1172
aVtranslateZ
p1173
aVrotateX
p1174
aVrotateY
p1175
aVrotateZ
p1176
aaF0
aF0
aF0
aF1.987846675914698e-16
aF1.3045243810690206e-16
aF1.987846675914698e-16
aa(lp1177
Vleg_chain_l_cv_9_anim
p1178
a(lp1179
VtranslateX
p1180
aVtranslateY
p1181
aVtranslateZ
p1182
aaF0
aF0
aF0
aa(lp1183
Vfk_leg_chain_l_011_anim
p1184
a(lp1185
VtranslateX
p1186
aVtranslateY
p1187
aVtranslateZ
p1188
aVrotateX
p1189
aVrotateY
p1190
aVrotateZ
p1191
aaF0
aF0
aF0
aF-1.987846675914698e-16
aF-1.2610402350333866e-15
aF-1.987846675914698e-16
aa(lp1192
Vleg_chain_l_cv_10_anim
p1193
a(lp1194
VtranslateX
p1195
aVtranslateY
p1196
aVtranslateZ
p1197
aaF0
aF0
aF0
aa(lp1198
Vfk_leg_chain_l_012_anim
p1199
a(lp1200
VtranslateX
p1201
aVtranslateY
p1202
aVtranslateZ
p1203
aVrotateX
p1204
aVrotateY
p1205
aVrotateZ
p1206
aaF-2.2204460492503131e-16
aF1.7763568394002505e-15
aF0
aF0
aF8.7511843896713494e-16
aF6.2120208622334343e-18
aa(lp1207
Vleg_chain_l_cv_11_anim
p1208
a(lp1209
VtranslateX
p1210
aVtranslateY
p1211
aVtranslateZ
p1212
aaF0
aF0
aF0
aa(lp1213
Vleg_chain_r_dyn_anim
p1214
a(lp1215
VtranslateX
p1216
aVtranslateY
p1217
aVtranslateZ
p1218
aVrotateX
p1219
aVrotateY
p1220
aVrotateZ
p1221
aVchainAttach
p1222
aVchainStartEnvelope
p1223
aVchainStartFrame
p1224
aVchainStiffness
p1225
aVchainDamping
p1226
aVchainGravity
p1227
aVchainIteration
p1228
aVchainCollide
p1229
aVchainWidthBase
p1230
aVchainWidthExtremity
p1231
aVchainCollideGround
p1232
aVchainCollideGroundHeight
p1233
aaF0
aF0
aF0
aF0
aF0
aF0
aI1
aF1
aF1
aF0.10000000000000001
aF0.20000000000000001
aF1
aI1
aI00
aF1
aF1
aI00
aF0
aa(lp1234
Vleg_chain_r_ik_2_anim
p1235
a(lp1236
VtranslateX
p1237
aVtranslateY
p1238
aVtranslateZ
p1239
aVrotateX
p1240
aVrotateY
p1241
aVrotateZ
p1242
aaF0
aF0
aF0
aF0
aF0
aF0
aa(lp1243
Vleg_chain_r_ik_3_anim
p1244
a(lp1245
VtranslateX
p1246
aVtranslateY
p1247
aVtranslateZ
p1248
aVrotateX
p1249
aVrotateY
p1250
aVrotateZ
p1251
aaF0
aF0
aF0
aF0
aF0
aF0
aa(lp1252
Vleg_chain_r_ik_4_anim
p1253
a(lp1254
VtranslateX
p1255
aVtranslateY
p1256
aVtranslateZ
p1257
aVrotateX
p1258
aVrotateY
p1259
aVrotateZ
p1260
aaF0
aF0
aF0
aF0
aF0
aF0
aa(lp1261
Vleg_chain_r_ik_5_anim
p1262
a(lp1263
VtranslateX
p1264
aVtranslateY
p1265
aVtranslateZ
p1266
aVrotateX
p1267
aVrotateY
p1268
aVrotateZ
p1269
aaF8.8817841970012523e-16
aF-7.1054273576010019e-15
aF3.5527136788005009e-15
aF0
aF-6.2120208622334296e-18
aF-1.9878466759146975e-16
aa(lp1270
Vleg_chain_r_ik_6_anim
p1271
a(lp1272
VtranslateX
p1273
aVtranslateY
p1274
aVtranslateZ
p1275
aVrotateX
p1276
aVrotateY
p1277
aVrotateZ
p1278
aVclusterControlVis
p1279
aaF4.4408920985006262e-16
aF0
aF0
aF0
aF-2.1586772496261173e-16
aF4.9696166897867449e-17
aI00
aa(lp1280
Vleg_chain_r_ik_base_anim
p1281
a(lp1282
VtranslateX
p1283
aVtranslateY
p1284
aVtranslateZ
p1285
aVrotateX
p1286
aVrotateY
p1287
aVrotateZ
p1288
aVglobal_scale
p1289
aaF0
aF0
aF0
aF0
aF0
aF0
aF1.0000000000000004
aa(lp1290
Vfk_leg_chain_r_01_anim
p1291
a(lp1292
VtranslateX
p1293
aVtranslateY
p1294
aVtranslateZ
p1295
aVrotateX
p1296
aVrotateY
p1297
aVrotateZ
p1298
aVglobal_scale
p1299
aVlagMode
p1300
aaF0
aF0
aF0
aF0
aF0
aF0
aF0.99999999999999967
aF0
aa(lp1301
Vleg_chain_r_cv_0_anim
p1302
a(lp1303
VtranslateX
p1304
aVtranslateY
p1305
aVtranslateZ
p1306
aaF0
aF0
aF0
aa(lp1307
Vfk_leg_chain_r_02_anim
p1308
a(lp1309
VtranslateX
p1310
aVtranslateY
p1311
aVtranslateZ
p1312
aVrotateX
p1313
aVrotateY
p1314
aVrotateZ
p1315
aaF0
aF0
aF0
aF0
aF0
aF0
aa(lp1316
Vleg_chain_r_cv_1_anim
p1317
a(lp1318
VtranslateX
p1319
aVtranslateY
p1320
aVtranslateZ
p1321
aaF0
aF0
aF0
aa(lp1322
Vfk_leg_chain_r_03_anim
p1323
a(lp1324
VtranslateX
p1325
aVtranslateY
p1326
aVtranslateZ
p1327
aVrotateX
p1328
aVrotateY
p1329
aVrotateZ
p1330
aaF0
aF0
aF0
aF0
aF0
aF0
aa(lp1331
Vleg_chain_r_cv_2_anim
p1332
a(lp1333
VtranslateX
p1334
aVtranslateY
p1335
aVtranslateZ
p1336
aaF0
aF0
aF0
aa(lp1337
Vfk_leg_chain_r_04_anim
p1338
a(lp1339
VtranslateX
p1340
aVtranslateY
p1341
aVtranslateZ
p1342
aVrotateX
p1343
aVrotateY
p1344
aVrotateZ
p1345
aaF0
aF0
aF0
aF0
aF0
aF0
aa(lp1346
Vleg_chain_r_cv_3_anim
p1347
a(lp1348
VtranslateX
p1349
aVtranslateY
p1350
aVtranslateZ
p1351
aaF0
aF0
aF0
aa(lp1352
Vfk_leg_chain_r_05_anim
p1353
a(lp1354
VtranslateX
p1355
aVtranslateY
p1356
aVtranslateZ
p1357
aVrotateX
p1358
aVrotateY
p1359
aVrotateZ
p1360
aaF0
aF0
aF0
aF0
aF0
aF0
aa(lp1361
Vleg_chain_r_cv_4_anim
p1362
a(lp1363
VtranslateX
p1364
aVtranslateY
p1365
aVtranslateZ
p1366
aaF0
aF0
aF0
aa(lp1367
Vfk_leg_chain_r_06_anim
p1368
a(lp1369
VtranslateX
p1370
aVtranslateY
p1371
aVtranslateZ
p1372
aVrotateX
p1373
aVrotateY
p1374
aVrotateZ
p1375
aaF0
aF0
aF0
aF0
aF0
aF0
aa(lp1376
Vleg_chain_r_cv_5_anim
p1377
a(lp1378
VtranslateX
p1379
aVtranslateY
p1380
aVtranslateZ
p1381
aaF0
aF0
aF0
aa(lp1382
Vfk_leg_chain_r_07_anim
p1383
a(lp1384
VtranslateX
p1385
aVtranslateY
p1386
aVtranslateZ
p1387
aVrotateX
p1388
aVrotateY
p1389
aVrotateZ
p1390
aaF0
aF0
aF0
aF0
aF0
aF0
aa(lp1391
Vleg_chain_r_cv_6_anim
p1392
a(lp1393
VtranslateX
p1394
aVtranslateY
p1395
aVtranslateZ
p1396
aaF0
aF0
aF0
aa(lp1397
Vfk_leg_chain_r_08_anim
p1398
a(lp1399
VtranslateX
p1400
aVtranslateY
p1401
aVtranslateZ
p1402
aVrotateX
p1403
aVrotateY
p1404
aVrotateZ
p1405
aaF0
aF0
aF0
aF0
aF0
aF0
aa(lp1406
Vleg_chain_r_cv_7_anim
p1407
a(lp1408
VtranslateX
p1409
aVtranslateY
p1410
aVtranslateZ
p1411
aaF0
aF0
aF0
aa(lp1412
Vfk_leg_chain_r_09_anim
p1413
a(lp1414
VtranslateX
p1415
aVtranslateY
p1416
aVtranslateZ
p1417
aVrotateX
p1418
aVrotateY
p1419
aVrotateZ
p1420
aaF8.8817841970012523e-16
aF7.1054273576010019e-15
aF0
aF0
aF-6.2120208622334312e-18
aF0
aa(lp1421
Vleg_chain_r_cv_8_anim
p1422
a(lp1423
VtranslateX
p1424
aVtranslateY
p1425
aVtranslateZ
p1426
aaF0
aF0
aF0
aa(lp1427
Vfk_leg_chain_r_010_anim
p1428
a(lp1429
VtranslateX
p1430
aVtranslateY
p1431
aVtranslateZ
p1432
aVrotateX
p1433
aVrotateY
p1434
aVrotateZ
p1435
aaF4.4408920985006262e-16
aF0
aF3.5527136788005009e-15
aF0
aF-6.460501696722767e-16
aF-1.9878466759146975e-16
aa(lp1436
Vleg_chain_r_cv_9_anim
p1437
a(lp1438
VtranslateX
p1439
aVtranslateY
p1440
aVtranslateZ
p1441
aaF0
aF0
aF0
aa(lp1442
Vfk_leg_chain_r_011_anim
p1443
a(lp1444
VtranslateX
p1445
aVtranslateY
p1446
aVtranslateZ
p1447
aVrotateX
p1448
aVrotateY
p1449
aVrotateZ
p1450
aaF-4.4408920985006262e-16
aF0
aF0
aF0
aF-1.007123882289595e-15
aF0
aa(lp1451
Vleg_chain_r_cv_10_anim
p1452
a(lp1453
VtranslateX
p1454
aVtranslateY
p1455
aVtranslateZ
p1456
aaF0
aF0
aF0
aa(lp1457
Vfk_leg_chain_r_012_anim
p1458
a(lp1459
VtranslateX
p1460
aVtranslateY
p1461
aVtranslateZ
p1462
aVrotateX
p1463
aVrotateY
p1464
aVrotateZ
p1465
aaF-8.8817841970012523e-16
aF-3.5527136788005009e-15
aF0
aF0
aF-3.2302508483613854e-16
aF-1.987846675914699e-16
aa(lp1466
Vleg_chain_r_cv_11_anim
p1467
a(lp1468
VtranslateX
p1469
aVtranslateY
p1470
aVtranslateZ
p1471
aaF0
aF0
aF0
aa(lp1472
VEye_l_anim
p1473
a(lp1474
VtranslateX
p1475
aVtranslateY
p1476
aVtranslateZ
p1477
aVrotateX
p1478
aVrotateY
p1479
aVrotateZ
p1480
aVscaleX
p1481
aVscaleY
p1482
aVscaleZ
p1483
aaF1.4210854715202004e-14
aF1.7763568394002505e-15
aF-2.8421709430404007e-14
aF-4.5968954380527377e-16
aF-0
aF1.3899396679247301e-16
aF1
aF1
aF1
aa(lp1484
VEye_r_anim
p1485
a(lp1486
VtranslateX
p1487
aVtranslateY
p1488
aVtranslateZ
p1489
aVrotateX
p1490
aVrotateY
p1491
aVrotateZ
p1492
aVscaleX
p1493
aVscaleY
p1494
aVscaleZ
p1495
aaF0
aF0
aF0
aF4.9696166897867449e-17
aF-0
aF4.0067534561405631e-16
aF0.99999999999999978
aF0.99999999999999967
aF0.99999999999999978
aa(lp1496
VJaw_anim
p1497
a(lp1498
VtranslateX
p1499
aVtranslateY
p1500
aVtranslateZ
p1501
aVrotateX
p1502
aVrotateY
p1503
aVrotateZ
p1504
aVscaleX
p1505
aVscaleY
p1506
aVscaleZ
p1507
aaF0
aF0
aF0
aF0.45080242099219869
aF-0.31171817897842513
aF0
aF1
aF1
aF1
aa(lp1508
Vhumpback_anim
p1509
a(lp1510
VtranslateX
p1511
aVtranslateY
p1512
aVtranslateZ
p1513
aVrotateX
p1514
aVrotateY
p1515
aVrotateZ
p1516
aVscaleX
p1517
aVscaleY
p1518
aVscaleZ
p1519
aaF0
aF0
aF0
aF0
aF0
aF0
aF1.0000000000000002
aF1.0000000000000002
aF1.0000000000000002
aa(lp1520
Vspine_01_adj_anim
p1521
a(lp1522
VtranslateX
p1523
aVtranslateY
p1524
aVtranslateZ
p1525
aVrotateX
p1526
aVrotateY
p1527
aVrotateZ
p1528
aVscaleX
p1529
aVscaleY
p1530
aVscaleZ
p1531
aaF-0.029795437447570638
aF-0.056525482889867577
aF0.011257594153553478
aF-7.4666532125539931
aF0.39171156283170394
aF0.072722966912287704
aF0.99999999999999967
aF0.99999999999999989
aF0.99999999999999989
aa(lp1532
Vspine_02_adj_anim
p1533
a(lp1534
VtranslateX
p1535
aVtranslateY
p1536
aVtranslateZ
p1537
aVrotateX
p1538
aVrotateY
p1539
aVrotateZ
p1540
aVscaleX
p1541
aVscaleY
p1542
aVscaleZ
p1543
aaF-1.8363598841336142
aF0.30253429770478846
aF1.7579754462752704
aF-13.739731543163277
aF-0.77415598804134911
aF0.8223641175297518
aF1
aF1
aF1
aa(lp1544
Vspine_03_adj_anim
p1545
a(lp1546
VtranslateX
p1547
aVtranslateY
p1548
aVtranslateZ
p1549
aVrotateX
p1550
aVrotateY
p1551
aVrotateZ
p1552
aVscaleX
p1553
aVscaleY
p1554
aVscaleZ
p1555
aaF-1.3034546490019525
aF4.4440880305413639
aF1.7649080623367994
aF-12.13441491159624
aF3.591448614759901
aF0.085210325079078608
aF1.0000000000000002
aF1.0000000000000002
aF0.64091743867402928
aa(lp1556
Vspine_04_adj_anim
p1557
a(lp1558
VtranslateX
p1559
aVtranslateY
p1560
aVtranslateZ
p1561
aVrotateX
p1562
aVrotateY
p1563
aVrotateZ
p1564
aVscaleX
p1565
aVscaleY
p1566
aVscaleZ
p1567
aaF-0.50183033338983096
aF-0.073956122540823843
aF1.3996909276049474
aF-13.948032443759637
aF-2.7808428718843556
aF-1.0258475139524099
aF1
aF1.0010019486615269
aF0.96612136945585259
aa(lp1568
Vspine_05_adj_anim
p1569
a(lp1570
VtranslateX
p1571
aVtranslateY
p1572
aVtranslateZ
p1573
aVrotateX
p1574
aVrotateY
p1575
aVrotateZ
p1576
aVscaleX
p1577
aVscaleY
p1578
aVscaleZ
p1579
aaF0
aF0
aF0
aF0
aF0
aF0
aF1
aF1
aF1
aa(lp1580
VEye_l_anim_space_switcher
p1581
a(lp1582
Vvisibility
p1583
aVtranslateX
p1584
aVtranslateY
p1585
aVtranslateZ
p1586
aVrotateX
p1587
aVrotateY
p1588
aVrotateZ
p1589
aVscaleX
p1590
aVscaleY
p1591
aVscaleZ
p1592
aVspace_world
p1593
aaI01
aF0
aF1.7763568394002505e-15
aF0
aF9.9392333795734899e-17
aF1.5902773407317584e-15
aF-1.3169484227934873e-15
aF1
aF1
aF1
aF0
aa(lp1594
VEye_r_anim_space_switcher
p1595
a(lp1596
Vvisibility
p1597
aVtranslateX
p1598
aVtranslateY
p1599
aVtranslateZ
p1600
aVrotateX
p1601
aVrotateY
p1602
aVrotateZ
p1603
aVscaleX
p1604
aVscaleY
p1605
aVscaleZ
p1606
aVspace_world
p1607
aaI01
aF0
aF0
aF-2.8421709430404007e-14
aF0
aF-0
aF-8.6968292071268061e-17
aF0.99999999999999978
aF0.99999999999999978
aF0.99999999999999989
aF0
aa(lp1608
VJaw_anim_space_switcher
p1609
a(lp1610
Vvisibility
p1611
aVtranslateX
p1612
aVtranslateY
p1613
aVtranslateZ
p1614
aVrotateX
p1615
aVrotateY
p1616
aVrotateZ
p1617
aVscaleX
p1618
aVscaleY
p1619
aVscaleZ
p1620
aVspace_world
p1621
aaI01
aF8.8817841970012523e-16
aF-3.5527136788005009e-15
aF0
aF0
aF4.9696166897867449e-17
aF-5.9014198191217593e-17
aF1
aF0.99999999999999989
aF0.99999999999999989
aF0
aa(lp1622
Vbody_anim_space_switcher
p1623
a(lp1624
Vvisibility
p1625
aVtranslateX
p1626
aVtranslateY
p1627
aVtranslateZ
p1628
aVrotateX
p1629
aVrotateY
p1630
aVrotateZ
p1631
aVscaleX
p1632
aVscaleY
p1633
aVscaleZ
p1634
aVspace_world
p1635
aaI01
aF0
aF0
aF-4.4408920985006262e-16
aF1.1034765745125394e-32
aF-2.8249000307521008e-30
aF0
aF1.0000000000000002
aF1.0000000000000002
aF1
aF0
aa(lp1636
Vchest_ik_anim_space_switcher
p1637
a(lp1638
Vvisibility
p1639
aVtranslateX
p1640
aVtranslateY
p1641
aVtranslateZ
p1642
aVrotateX
p1643
aVrotateY
p1644
aVrotateZ
p1645
aVscaleX
p1646
aVscaleY
p1647
aVscaleZ
p1648
aVspace_world
p1649
aVspace_chest_ik_world_aligned
p1650
aaI01
aF0
aF0
aF0
aF-1.5530052155583574e-18
aF-0
aF0
aF1
aF1.0000000000000002
aF1
aF0
aF1
aa(lp1651
Vhumpback_anim_space_switcher
p1652
a(lp1653
Vvisibility
p1654
aVtranslateX
p1655
aVtranslateY
p1656
aVtranslateZ
p1657
aVrotateX
p1658
aVrotateY
p1659
aVrotateZ
p1660
aVscaleX
p1661
aVscaleY
p1662
aVscaleZ
p1663
aVspace_world
p1664
aaI01
aF0
aF1.7763568394002505e-15
aF2.8421709430404007e-14
aF0
aF-0
aF-1.7471308675031527e-17
aF0.99999999999999989
aF0.99999999999999978
aF0.99999999999999989
aF0
aa(lp1665
Vik_elbow_l_anim_space_switcher
p1666
a(lp1667
Vvisibility
p1668
aVtranslateX
p1669
aVtranslateY
p1670
aVtranslateZ
p1671
aVrotateX
p1672
aVrotateY
p1673
aVrotateZ
p1674
aVscaleX
p1675
aVscaleY
p1676
aVscaleZ
p1677
aVspace_world
p1678
aVspace_body_anim
p1679
aVspace_chest_ik_anim
p1680
aaI00
aF0
aF0
aF0
aF0
aF0
aF0
aF1
aF1
aF1
aF0
aF0
aF0
aa(lp1681
Vik_elbow_r_anim_space_switcher
p1682
a(lp1683
Vvisibility
p1684
aVtranslateX
p1685
aVtranslateY
p1686
aVtranslateZ
p1687
aVrotateX
p1688
aVrotateY
p1689
aVrotateZ
p1690
aVscaleX
p1691
aVscaleY
p1692
aVscaleZ
p1693
aVspace_world
p1694
aVspace_body_anim
p1695
aVspace_chest_ik_anim
p1696
aaI01
aF0
aF0
aF0
aF0
aF0
aF0
aF1
aF1
aF1
aF0
aF0
aF0
aa(lp1697
Vik_foot_anim_l_space_switcher
p1698
a(lp1699
Vvisibility
p1700
aVtranslateX
p1701
aVtranslateY
p1702
aVtranslateZ
p1703
aVrotateX
p1704
aVrotateY
p1705
aVrotateZ
p1706
aVscaleX
p1707
aVscaleY
p1708
aVscaleZ
p1709
aVspace_world
p1710
aVspace_body_anim
p1711
aaI01
aF0
aF0
aF0
aF0
aF0
aF0
aF1
aF1
aF1
aF0
aF0
aa(lp1712
Vik_foot_anim_r_space_switcher
p1713
a(lp1714
Vvisibility
p1715
aVtranslateX
p1716
aVtranslateY
p1717
aVtranslateZ
p1718
aVrotateX
p1719
aVrotateY
p1720
aVrotateZ
p1721
aVscaleX
p1722
aVscaleY
p1723
aVscaleZ
p1724
aVspace_world
p1725
aVspace_body_anim
p1726
aaI01
aF0
aF0
aF0
aF0
aF0
aF0
aF1
aF1
aF1
aF0
aF0
aa(lp1727
Vik_wrist_l_anim_space_switcher
p1728
a(lp1729
Vvisibility
p1730
aVtranslateX
p1731
aVtranslateY
p1732
aVtranslateZ
p1733
aVrotateX
p1734
aVrotateY
p1735
aVrotateZ
p1736
aVscaleX
p1737
aVscaleY
p1738
aVscaleZ
p1739
aVspace_world
p1740
aVspace_body_anim
p1741
aVspace_head_fk_anim
p1742
aVspace_chest_ik_anim
p1743
aaI00
aF0
aF0
aF0
aF0
aF0
aF0
aF1
aF1
aF1
aF0
aF0
aF0
aF0
aa(lp1744
Vik_wrist_r_anim_space_switcher
p1745
a(lp1746
Vvisibility
p1747
aVtranslateX
p1748
aVtranslateY
p1749
aVtranslateZ
p1750
aVrotateX
p1751
aVrotateY
p1752
aVrotateZ
p1753
aVscaleX
p1754
aVscaleY
p1755
aVscaleZ
p1756
aVspace_world
p1757
aVspace_body_anim
p1758
aVspace_head_fk_anim
p1759
aVspace_chest_ik_anim
p1760
aaI01
aF0
aF0
aF0
aF0
aF0
aF0
aF1
aF1
aF1
aF0
aF0
aF0
aF0
aa(lp1761
Vmaster_anim_space_switcher
p1762
a(lp1763
Vvisibility
p1764
aVtranslateX
p1765
aVtranslateY
p1766
aVtranslateZ
p1767
aVrotateX
p1768
aVrotateY
p1769
aVrotateZ
p1770
aVscaleX
p1771
aVscaleY
p1772
aVscaleZ
p1773
aVspace_world
p1774
aaI01
aF0
aF0
aF0
aF0
aF0
aF0
aF1
aF1
aF1
aF0
aa(lp1775
Vr_global_ik_anim_space_switcher
p1776
a(lp1777
Vvisibility
p1778
aVtranslateX
p1779
aVtranslateY
p1780
aVtranslateZ
p1781
aVrotateX
p1782
aVrotateY
p1783
aVrotateZ
p1784
aVscaleX
p1785
aVscaleY
p1786
aVscaleZ
p1787
aVspace_world
p1788
aaI01
aF0
aF0
aF0
aF0
aF0
aF0
aF1
aF1
aF1
aF0
aa(lp1789
Vspine_01_adj_anim_space_switcher
p1790
a(lp1791
Vvisibility
p1792
aVtranslateX
p1793
aVtranslateY
p1794
aVtranslateZ
p1795
aVrotateX
p1796
aVrotateY
p1797
aVrotateZ
p1798
aVscaleX
p1799
aVscaleY
p1800
aVscaleZ
p1801
aVspace_world
p1802
aaI01
aF0
aF-3.5527136788005009e-15
aF-4.4408920985006262e-16
aF0
aF-0
aF7.9513867036587939e-16
aF0.99999999999999989
aF0.99999999999999989
aF0.99999999999999989
aF0
aa(lp1803
Vspine_01_space_switcher
p1804
a(lp1805
Vvisibility
p1806
aVtranslateX
p1807
aVtranslateY
p1808
aVtranslateZ
p1809
aVrotateX
p1810
aVrotateY
p1811
aVrotateZ
p1812
aVscaleX
p1813
aVscaleY
p1814
aVscaleZ
p1815
aVspace_world
p1816
aaI01
aF0
aF0
aF0
aF0
aF1.2424041724466865e-17
aF7.9513867036587939e-16
aF0.99999999999999989
aF0.99999999999999989
aF0.99999999999999989
aF0
aa(lp1817
Vspine_02_adj_anim_space_switcher
p1818
a(lp1819
Vvisibility
p1820
aVtranslateX
p1821
aVtranslateY
p1822
aVtranslateZ
p1823
aVrotateX
p1824
aVrotateY
p1825
aVrotateZ
p1826
aVscaleX
p1827
aVscaleY
p1828
aVscaleZ
p1829
aVspace_world
p1830
aaI01
aF0
aF-3.5527136788005009e-15
aF-4.4408920985006262e-16
aF0
aF-0
aF7.9513867036587939e-16
aF0.99999999999999989
aF0.99999999999999989
aF0.99999999999999989
aF0
aa(lp1831
Vspine_03_adj_anim_space_switcher
p1832
a(lp1833
Vvisibility
p1834
aVtranslateX
p1835
aVtranslateY
p1836
aVtranslateZ
p1837
aVrotateX
p1838
aVrotateY
p1839
aVrotateZ
p1840
aVscaleX
p1841
aVscaleY
p1842
aVscaleZ
p1843
aVspace_world
p1844
aaI01
aF2.8421709430404007e-14
aF-7.1054273576010019e-15
aF8.8817841970012523e-16
aF0
aF9.9392333795734874e-17
aF3.180554681463516e-15
aF1.0000000000000002
aF1.0000000000000002
aF1.0000000000000002
aF0
aa(lp1845
Vspine_04_adj_anim_space_switcher
p1846
a(lp1847
Vvisibility
p1848
aVtranslateX
p1849
aVtranslateY
p1850
aVtranslateZ
p1851
aVrotateX
p1852
aVrotateY
p1853
aVrotateZ
p1854
aVscaleX
p1855
aVscaleY
p1856
aVscaleZ
p1857
aVspace_world
p1858
aaI01
aF0
aF-8.8817841970012523e-16
aF-1.7763568394002505e-15
aF1.2424041724466862e-17
aF-0
aF-3.975693351829396e-16
aF1
aF1
aF1
aF0
aa(lp1859
Vspine_05_adj_anim_space_switcher
p1860
a(lp1861
Vvisibility
p1862
aVtranslateX
p1863
aVtranslateY
p1864
aVtranslateZ
p1865
aVrotateX
p1866
aVrotateY
p1867
aVrotateZ
p1868
aVscaleX
p1869
aVscaleY
p1870
aVscaleZ
p1871
aVspace_world
p1872
aaI01
aF2.8421709430404007e-14
aF-3.5527136788005009e-15
aF0
aF-1.5530052155583582e-18
aF-0
aF0
aF0.99999999999999989
aF0.99999999999999978
aF0.99999999999999989
aF0
aa.